ELF Header:
  Magic:   7f 45 4c 46 02 01 01 03 00 00 00 00 00 00 00 00 
  Class:                             ELF64
  Data:                              2's complement, little endian
  Version:                           1 (current)
  OS/ABI:                            UNIX - GNU
  ABI Version:                       0
  Type:                              REL (Relocatable file)
  Machine:                           RISC-V
  Version:                           0x1
  Entry point address:               0x0
  Start of program headers:          0 (bytes into file)
  Start of section headers:          323080 (bytes into file)
  Flags:                             0x4, double-float ABI
  Size of this header:               64 (bytes)
  Size of program headers:           0 (bytes)
  Number of program headers:         0
  Size of section headers:           64 (bytes)
  Number of section headers:         984
  Section header string table index: 983

Section Headers:
  [Nr] Name              Type            Address          Off    Size   ES Flg Lk Inf Al
  [ 0]                   NULL            0000000000000000 000000 000000 00      0   0  0
  [ 1] .group            GROUP           0000000000000000 000040 000008 04     981 2824  4
  [ 2] .group            GROUP           0000000000000000 000048 000008 04     981 2825  4
  [ 3] .group            GROUP           0000000000000000 000050 000008 04     981 2826  4
  [ 4] .group            GROUP           0000000000000000 000058 00000c 04     981 2827  4
  [ 5] .group            GROUP           0000000000000000 000064 00000c 04     981 2828  4
  [ 6] .group            GROUP           0000000000000000 000070 000008 04     981 2382  4
  [ 7] .group            GROUP           0000000000000000 000078 000008 04     981 2832  4
  [ 8] .group            GROUP           0000000000000000 000080 00000c 04     981 2833  4
  [ 9] .group            GROUP           0000000000000000 00008c 00000c 04     981 2383  4
  [10] .group            GROUP           0000000000000000 000098 000008 04     981 2837  4
  [11] .group            GROUP           0000000000000000 0000a0 00000c 04     981 2838  4
  [12] .group            GROUP           0000000000000000 0000ac 00000c 04     981 2384  4
  [13] .group            GROUP           0000000000000000 0000b8 00000c 04     981 2385  4
  [14] .group            GROUP           0000000000000000 0000c4 00000c 04     981 2386  4
  [15] .group            GROUP           0000000000000000 0000d0 00000c 04     981 2846  4
  [16] .group            GROUP           0000000000000000 0000dc 000008 04     981 2847  4
  [17] .group            GROUP           0000000000000000 0000e4 000008 04     981 2387  4
  [18] .group            GROUP           0000000000000000 0000ec 000008 04     981 2850  4
  [19] .group            GROUP           0000000000000000 0000f4 000008 04     981 2388  4
  [20] .group            GROUP           0000000000000000 0000fc 000008 04     981 2853  4
  [21] .group            GROUP           0000000000000000 000104 000008 04     981 2854  4
  [22] .group            GROUP           0000000000000000 00010c 000008 04     981 2855  4
  [23] .group            GROUP           0000000000000000 000114 00000c 04     981 2856  4
  [24] .group            GROUP           0000000000000000 000120 00000c 04     981 2857  4
  [25] .group            GROUP           0000000000000000 00012c 00000c 04     981 2389  4
  [26] .group            GROUP           0000000000000000 000138 00000c 04     981 2390  4
  [27] .group            GROUP           0000000000000000 000144 00000c 04     981 2391  4
  [28] .group            GROUP           0000000000000000 000150 00000c 04     981 2392  4
  [29] .group            GROUP           0000000000000000 00015c 00000c 04     981 2393  4
  [30] .group            GROUP           0000000000000000 000168 00000c 04     981 2394  4
  [31] .group            GROUP           0000000000000000 000174 00000c 04     981 2395  4
  [32] .group            GROUP           0000000000000000 000180 00000c 04     981 2396  4
  [33] .group            GROUP           0000000000000000 00018c 00000c 04     981 2397  4
  [34] .group            GROUP           0000000000000000 000198 000014 04     981 2398  4
  [35] .group            GROUP           0000000000000000 0001ac 00000c 04     981 2897  4
  [36] .group            GROUP           0000000000000000 0001b8 000008 04     981 2399  4
  [37] .group            GROUP           0000000000000000 0001c0 00000c 04     981 2400  4
  [38] .group            GROUP           0000000000000000 0001cc 000008 04     981 2884  4
  [39] .group            GROUP           0000000000000000 0001d4 00000c 04     981 2885  4
  [40] .group            GROUP           0000000000000000 0001e0 000008 04     981 2401  4
  [41] .group            GROUP           0000000000000000 0001e8 000008 04     981 2402  4
  [42] .group            GROUP           0000000000000000 0001f0 00000c 04     981 2403  4
  [43] .group            GROUP           0000000000000000 0001fc 00000c 04     981 2404  4
  [44] .group            GROUP           0000000000000000 000208 000010 04     981 2405  4
  [45] .group            GROUP           0000000000000000 000218 00000c 04     981 2406  4
  [46] .group            GROUP           0000000000000000 000224 00000c 04     981 2407  4
  [47] .group            GROUP           0000000000000000 000230 00000c 04     981 2408  4
  [48] .group            GROUP           0000000000000000 00023c 00000c 04     981 2409  4
  [49] .group            GROUP           0000000000000000 000248 00000c 04     981 2410  4
  [50] .group            GROUP           0000000000000000 000254 000010 04     981 2411  4
  [51] .group            GROUP           0000000000000000 000264 00000c 04     981 2894  4
  [52] .group            GROUP           0000000000000000 000270 00000c 04     981 2900  4
  [53] .group            GROUP           0000000000000000 00027c 00000c 04     981 2901  4
  [54] .group            GROUP           0000000000000000 000288 00000c 04     981 2902  4
  [55] .group            GROUP           0000000000000000 000294 000008 04     981 2903  4
  [56] .group            GROUP           0000000000000000 00029c 00000c 04     981 2904  4
  [57] .group            GROUP           0000000000000000 0002a8 00000c 04     981 2906  4
  [58] .group            GROUP           0000000000000000 0002b4 00000c 04     981 2910  4
  [59] .group            GROUP           0000000000000000 0002c0 00000c 04     981 2898  4
  [60] .group            GROUP           0000000000000000 0002cc 00000c 04     981 2952  4
  [61] .group            GROUP           0000000000000000 0002d8 00000c 04     981 2913  4
  [62] .group            GROUP           0000000000000000 0002e4 000008 04     981 2953  4
  [63] .group            GROUP           0000000000000000 0002ec 000008 04     981 2915  4
  [64] .group            GROUP           0000000000000000 0002f4 00000c 04     981 2412  4
  [65] .group            GROUP           0000000000000000 000300 000008 04     981 2413  4
  [66] .group            GROUP           0000000000000000 000308 000010 04     981 2923  4
  [67] .group            GROUP           0000000000000000 000318 00000c 04     981 2924  4
  [68] .group            GROUP           0000000000000000 000324 000008 04     981 2414  4
  [69] .group            GROUP           0000000000000000 00032c 000008 04     981 2415  4
  [70] .group            GROUP           0000000000000000 000334 00000c 04     981 2416  4
  [71] .group            GROUP           0000000000000000 000340 00000c 04     981 2417  4
  [72] .group            GROUP           0000000000000000 00034c 000010 04     981 2937  4
  [73] .group            GROUP           0000000000000000 00035c 00000c 04     981 2938  4
  [74] .group            GROUP           0000000000000000 000368 000008 04     981 2939  4
  [75] .group            GROUP           0000000000000000 000370 000008 04     981 2940  4
  [76] .group            GROUP           0000000000000000 000378 000008 04     981 2941  4
  [77] .group            GROUP           0000000000000000 000380 00000c 04     981 2418  4
  [78] .group            GROUP           0000000000000000 00038c 00000c 04     981 2943  4
  [79] .group            GROUP           0000000000000000 000398 00000c 04     981 2944  4
  [80] .group            GROUP           0000000000000000 0003a4 00000c 04     981 2945  4
  [81] .group            GROUP           0000000000000000 0003b0 00000c 04     981 2946  4
  [82] .group            GROUP           0000000000000000 0003bc 00000c 04     981 2947  4
  [83] .group            GROUP           0000000000000000 0003c8 000014 04     981 2948  4
  [84] .group            GROUP           0000000000000000 0003dc 000008 04     981 2949  4
  [85] .group            GROUP           0000000000000000 0003e4 00000c 04     981 2950  4
  [86] .group            GROUP           0000000000000000 0003f0 000008 04     981 2951  4
  [87] .group            GROUP           0000000000000000 0003f8 000014 04     981 2419  4
  [88] .group            GROUP           0000000000000000 00040c 000008 04     981 2420  4
  [89] .group            GROUP           0000000000000000 000414 000008 04     981 2957  4
  [90] .group            GROUP           0000000000000000 00041c 00000c 04     981 2958  4
  [91] .group            GROUP           0000000000000000 000428 00000c 04     981 2960  4
  [92] .group            GROUP           0000000000000000 000434 000014 04     981 2421  4
  [93] .group            GROUP           0000000000000000 000448 000008 04     981 2422  4
  [94] .group            GROUP           0000000000000000 000450 000008 04     981 2967  4
  [95] .group            GROUP           0000000000000000 000458 00000c 04     981 2968  4
  [96] .group            GROUP           0000000000000000 000464 00000c 04     981 2969  4
  [97] .group            GROUP           0000000000000000 000470 00000c 04     981 2423  4
  [98] .group            GROUP           0000000000000000 00047c 000008 04     981 2972  4
  [99] .group            GROUP           0000000000000000 000484 000008 04     981 2973  4
  [100] .group            GROUP           0000000000000000 00048c 00000c 04     981 2974  4
  [101] .group            GROUP           0000000000000000 000498 00000c 04     981 2975  4
  [102] .group            GROUP           0000000000000000 0004a4 00000c 04     981 2977  4
  [103] .group            GROUP           0000000000000000 0004b0 00000c 04     981 2976  4
  [104] .group            GROUP           0000000000000000 0004bc 00000c 04     981 2978  4
  [105] .group            GROUP           0000000000000000 0004c8 00000c 04     981 2979  4
  [106] .group            GROUP           0000000000000000 0004d4 00000c 04     981 2980  4
  [107] .group            GROUP           0000000000000000 0004e0 00000c 04     981 2424  4
  [108] .group            GROUP           0000000000000000 0004ec 00000c 04     981 2982  4
  [109] .group            GROUP           0000000000000000 0004f8 00000c 04     981 2983  4
  [110] .group            GROUP           0000000000000000 000504 00000c 04     981 3026  4
  [111] .group            GROUP           0000000000000000 000510 00000c 04     981 2984  4
  [112] .group            GROUP           0000000000000000 00051c 000010 04     981 2425  4
  [113] .group            GROUP           0000000000000000 00052c 00000c 04     981 2426  4
  [114] .group            GROUP           0000000000000000 000538 000010 04     981 2427  4
  [115] .group            GROUP           0000000000000000 000548 00000c 04     981 2987  4
  [116] .group            GROUP           0000000000000000 000554 000008 04     981 2996  4
  [117] .group            GROUP           0000000000000000 00055c 00000c 04     981 2997  4
  [118] .group            GROUP           0000000000000000 000568 000008 04     981 2998  4
  [119] .group            GROUP           0000000000000000 000570 000014 04     981 2999  4
  [120] .group            GROUP           0000000000000000 000584 000014 04     981 2428  4
  [121] .group            GROUP           0000000000000000 000598 00000c 04     981 3002  4
  [122] .group            GROUP           0000000000000000 0005a4 000008 04     981 3004  4
  [123] .group            GROUP           0000000000000000 0005ac 00000c 04     981 3005  4
  [124] .group            GROUP           0000000000000000 0005b8 000008 04     981 3006  4
  [125] .group            GROUP           0000000000000000 0005c0 000014 04     981 3007  4
  [126] .group            GROUP           0000000000000000 0005d4 000014 04     981 2429  4
  [127] .group            GROUP           0000000000000000 0005e8 000008 04     981 3009  4
  [128] .group            GROUP           0000000000000000 0005f0 000008 04     981 3011  4
  [129] .group            GROUP           0000000000000000 0005f8 00000c 04     981 3012  4
  [130] .group            GROUP           0000000000000000 000604 00000c 04     981 3013  4
  [131] .group            GROUP           0000000000000000 000610 00000c 04     981 3014  4
  [132] .group            GROUP           0000000000000000 00061c 00000c 04     981 3015  4
  [133] .group            GROUP           0000000000000000 000628 00000c 04     981 3016  4
  [134] .group            GROUP           0000000000000000 000634 00000c 04     981 3017  4
  [135] .group            GROUP           0000000000000000 000640 00000c 04     981 3018  4
  [136] .group            GROUP           0000000000000000 00064c 000008 04     981 2430  4
  [137] .group            GROUP           0000000000000000 000654 000008 04     981 3021  4
  [138] .group            GROUP           0000000000000000 00065c 000008 04     981 3022  4
  [139] .group            GROUP           0000000000000000 000664 00000c 04     981 3023  4
  [140] .group            GROUP           0000000000000000 000670 00000c 04     981 3024  4
  [141] .group            GROUP           0000000000000000 00067c 00000c 04     981 3027  4
  [142] .group            GROUP           0000000000000000 000688 000008 04     981 3028  4
  [143] .group            GROUP           0000000000000000 000690 00000c 04     981 3025  4
  [144] .group            GROUP           0000000000000000 00069c 00000c 04     981 3029  4
  [145] .group            GROUP           0000000000000000 0006a8 00000c 04     981 3030  4
  [146] .group            GROUP           0000000000000000 0006b4 00000c 04     981 3031  4
  [147] .group            GROUP           0000000000000000 0006c0 00000c 04     981 2431  4
  [148] .group            GROUP           0000000000000000 0006cc 00000c 04     981 3033  4
  [149] .group            GROUP           0000000000000000 0006d8 00000c 04     981 3083  4
  [150] .group            GROUP           0000000000000000 0006e4 00000c 04     981 3084  4
  [151] .group            GROUP           0000000000000000 0006f0 00000c 04     981 2432  4
  [152] .group            GROUP           0000000000000000 0006fc 000008 04     981 3037  4
  [153] .group            GROUP           0000000000000000 000704 000008 04     981 3038  4
  [154] .group            GROUP           0000000000000000 00070c 000008 04     981 3039  4
  [155] .group            GROUP           0000000000000000 000714 00000c 04     981 2433  4
  [156] .group            GROUP           0000000000000000 000720 000014 04     981 3040  4
  [157] .group            GROUP           0000000000000000 000734 000014 04     981 3043  4
  [158] .group            GROUP           0000000000000000 000748 000008 04     981 3044  4
  [159] .group            GROUP           0000000000000000 000750 00000c 04     981 3045  4
  [160] .group            GROUP           0000000000000000 00075c 00000c 04     981 3046  4
  [161] .group            GROUP           0000000000000000 000768 00000c 04     981 3047  4
  [162] .group            GROUP           0000000000000000 000774 00000c 04     981 3048  4
  [163] .group            GROUP           0000000000000000 000780 00000c 04     981 3049  4
  [164] .group            GROUP           0000000000000000 00078c 00000c 04     981 2434  4
  [165] .group            GROUP           0000000000000000 000798 00000c 04     981 2435  4
  [166] .group            GROUP           0000000000000000 0007a4 00000c 04     981 3051  4
  [167] .group            GROUP           0000000000000000 0007b0 000014 04     981 2436  4
  [168] .group            GROUP           0000000000000000 0007c4 00000c 04     981 3056  4
  [169] .group            GROUP           0000000000000000 0007d0 000008 04     981 3057  4
  [170] .group            GROUP           0000000000000000 0007d8 000008 04     981 2437  4
  [171] .group            GROUP           0000000000000000 0007e0 00000c 04     981 3059  4
  [172] .group            GROUP           0000000000000000 0007ec 00000c 04     981 3060  4
  [173] .group            GROUP           0000000000000000 0007f8 00000c 04     981 3061  4
  [174] .group            GROUP           0000000000000000 000804 00000c 04     981 3062  4
  [175] .group            GROUP           0000000000000000 000810 00000c 04     981 3063  4
  [176] .group            GROUP           0000000000000000 00081c 00000c 04     981 2438  4
  [177] .group            GROUP           0000000000000000 000828 00000c 04     981 2439  4
  [178] .group            GROUP           0000000000000000 000834 00000c 04     981 2440  4
  [179] .group            GROUP           0000000000000000 000840 00000c 04     981 3067  4
  [180] .group            GROUP           0000000000000000 00084c 000010 04     981 2441  4
  [181] .group            GROUP           0000000000000000 00085c 00000c 04     981 3068  4
  [182] .group            GROUP           0000000000000000 000868 000014 04     981 2442  4
  [183] .group            GROUP           0000000000000000 00087c 000008 04     981 3070  4
  [184] .group            GROUP           0000000000000000 000884 00000c 04     981 3071  4
  [185] .group            GROUP           0000000000000000 000890 000008 04     981 3074  4
  [186] .group            GROUP           0000000000000000 000898 00000c 04     981 3075  4
  [187] .group            GROUP           0000000000000000 0008a4 000008 04     981 3076  4
  [188] .group            GROUP           0000000000000000 0008ac 000008 04     981 3077  4
  [189] .group            GROUP           0000000000000000 0008b4 00000c 04     981 3078  4
  [190] .group            GROUP           0000000000000000 0008c0 00000c 04     981 3079  4
  [191] .group            GROUP           0000000000000000 0008cc 000008 04     981 3081  4
  [192] .group            GROUP           0000000000000000 0008d4 00000c 04     981 3082  4
  [193] .group            GROUP           0000000000000000 0008e0 000008 04     981 3085  4
  [194] .group            GROUP           0000000000000000 0008e8 00000c 04     981 3086  4
  [195] .group            GROUP           0000000000000000 0008f4 00000c 04     981 3087  4
  [196] .group            GROUP           0000000000000000 000900 00000c 04     981 3088  4
  [197] .group            GROUP           0000000000000000 00090c 000008 04     981 2443  4
  [198] .group            GROUP           0000000000000000 000914 00000c 04     981 3091  4
  [199] .group            GROUP           0000000000000000 000920 000008 04     981 3092  4
  [200] .group            GROUP           0000000000000000 000928 000008 04     981 2444  4
  [201] .group            GROUP           0000000000000000 000930 00000c 04     981 3097  4
  [202] .group            GROUP           0000000000000000 00093c 000008 04     981 3098  4
  [203] .group            GROUP           0000000000000000 000944 00000c 04     981 3099  4
  [204] .group            GROUP           0000000000000000 000950 00000c 04     981 3101  4
  [205] .group            GROUP           0000000000000000 00095c 00000c 04     981 3104  4
  [206] .group            GROUP           0000000000000000 000968 00000c 04     981 2445  4
  [207] .group            GROUP           0000000000000000 000974 00000c 04     981 2446  4
  [208] .group            GROUP           0000000000000000 000980 000008 04     981 3105  4
  [209] .group            GROUP           0000000000000000 000988 00000c 04     981 2447  4
  [210] .group            GROUP           0000000000000000 000994 00000c 04     981 3106  4
  [211] .group            GROUP           0000000000000000 0009a0 00000c 04     981 3107  4
  [212] .group            GROUP           0000000000000000 0009ac 00000c 04     981 3108  4
  [213] .group            GROUP           0000000000000000 0009b8 000008 04     981 2448  4
  [214] .group            GROUP           0000000000000000 0009c0 000008 04     981 2449  4
  [215] .group            GROUP           0000000000000000 0009c8 00000c 04     981 3113  4
  [216] .group            GROUP           0000000000000000 0009d4 00000c 04     981 2450  4
  [217] .group            GROUP           0000000000000000 0009e0 00000c 04     981 2451  4
  [218] .group            GROUP           0000000000000000 0009ec 00000c 04     981 2452  4
  [219] .group            GROUP           0000000000000000 0009f8 000008 04     981 2453  4
  [220] .group            GROUP           0000000000000000 000a00 000014 04     981 3119  4
  [221] .group            GROUP           0000000000000000 000a14 000008 04     981 3121  4
  [222] .group            GROUP           0000000000000000 000a1c 000014 04     981 3122  4
  [223] .group            GROUP           0000000000000000 000a30 000008 04     981 3123  4
  [224] .group            GROUP           0000000000000000 000a38 00000c 04     981 3124  4
  [225] .group            GROUP           0000000000000000 000a44 000008 04     981 3125  4
  [226] .group            GROUP           0000000000000000 000a4c 00000c 04     981 3126  4
  [227] .group            GROUP           0000000000000000 000a58 00000c 04     981 3127  4
  [228] .group            GROUP           0000000000000000 000a64 000008 04     981 2454  4
  [229] .group            GROUP           0000000000000000 000a6c 000008 04     981 2455  4
  [230] .group            GROUP           0000000000000000 000a74 00000c 04     981 3133  4
  [231] .group            GROUP           0000000000000000 000a80 00000c 04     981 2456  4
  [232] .group            GROUP           0000000000000000 000a8c 00000c 04     981 3136  4
  [233] .group            GROUP           0000000000000000 000a98 000008 04     981 3137  4
  [234] .group            GROUP           0000000000000000 000aa0 00000c 04     981 2457  4
  [235] .group            GROUP           0000000000000000 000aac 00000c 04     981 3142  4
  [236] .group            GROUP           0000000000000000 000ab8 00000c 04     981 3143  4
  [237] .group            GROUP           0000000000000000 000ac4 00000c 04     981 3144  4
  [238] .group            GROUP           0000000000000000 000ad0 000008 04     981 3145  4
  [239] .group            GROUP           0000000000000000 000ad8 00000c 04     981 3146  4
  [240] .group            GROUP           0000000000000000 000ae4 000008 04     981 3147  4
  [241] .group            GROUP           0000000000000000 000aec 000008 04     981 3148  4
  [242] .group            GROUP           0000000000000000 000af4 00000c 04     981 3149  4
  [243] .group            GROUP           0000000000000000 000b00 00000c 04     981 3150  4
  [244] .group            GROUP           0000000000000000 000b0c 00000c 04     981 3152  4
  [245] .group            GROUP           0000000000000000 000b18 00000c 04     981 3154  4
  [246] .group            GROUP           0000000000000000 000b24 00000c 04     981 2458  4
  [247] .group            GROUP           0000000000000000 000b30 000014 04     981 3155  4
  [248] .group            GROUP           0000000000000000 000b44 00000c 04     981 3156  4
  [249] .group            GROUP           0000000000000000 000b50 00000c 04     981 3157  4
  [250] .group            GROUP           0000000000000000 000b5c 000008 04     981 2459  4
  [251] .group            GROUP           0000000000000000 000b64 00000c 04     981 3163  4
  [252] .group            GROUP           0000000000000000 000b70 000008 04     981 3164  4
  [253] .group            GROUP           0000000000000000 000b78 000008 04     981 2460  4
  [254] .group            GROUP           0000000000000000 000b80 00000c 04     981 2461  4
  [255] .group            GROUP           0000000000000000 000b8c 00000c 04     981 2462  4
  [256] .group            GROUP           0000000000000000 000b98 000008 04     981 3172  4
  [257] .group            GROUP           0000000000000000 000ba0 00000c 04     981 2463  4
  [258] .group            GROUP           0000000000000000 000bac 00000c 04     981 3176  4
  [259] .group            GROUP           0000000000000000 000bb8 000008 04     981 3177  4
  [260] .group            GROUP           0000000000000000 000bc0 00000c 04     981 3178  4
  [261] .group            GROUP           0000000000000000 000bcc 00000c 04     981 3182  4
  [262] .group            GROUP           0000000000000000 000bd8 00000c 04     981 3181  4
  [263] .group            GROUP           0000000000000000 000be4 00000c 04     981 3179  4
  [264] .group            GROUP           0000000000000000 000bf0 00000c 04     981 2464  4
  [265] .group            GROUP           0000000000000000 000bfc 00000c 04     981 3183  4
  [266] .group            GROUP           0000000000000000 000c08 00000c 04     981 3184  4
  [267] .group            GROUP           0000000000000000 000c14 00000c 04     981 2465  4
  [268] .group            GROUP           0000000000000000 000c20 00000c 04     981 2466  4
  [269] .group            GROUP           0000000000000000 000c2c 00000c 04     981 3187  4
  [270] .group            GROUP           0000000000000000 000c38 000008 04     981 2467  4
  [271] .group            GROUP           0000000000000000 000c40 000010 04     981 2468  4
  [272] .group            GROUP           0000000000000000 000c50 00000c 04     981 3189  4
  [273] .group            GROUP           0000000000000000 000c5c 000008 04     981 3191  4
  [274] .group            GROUP           0000000000000000 000c64 00000c 04     981 3192  4
  [275] .group            GROUP           0000000000000000 000c70 00000c 04     981 3193  4
  [276] .group            GROUP           0000000000000000 000c7c 00000c 04     981 3196  4
  [277] .group            GROUP           0000000000000000 000c88 000008 04     981 3198  4
  [278] .group            GROUP           0000000000000000 000c90 00000c 04     981 3199  4
  [279] .group            GROUP           0000000000000000 000c9c 000014 04     981 3202  4
  [280] .group            GROUP           0000000000000000 000cb0 000008 04     981 3203  4
  [281] .group            GROUP           0000000000000000 000cb8 000008 04     981 3204  4
  [282] .group            GROUP           0000000000000000 000cc0 000008 04     981 3205  4
  [283] .group            GROUP           0000000000000000 000cc8 00000c 04     981 3206  4
  [284] .group            GROUP           0000000000000000 000cd4 000008 04     981 3207  4
  [285] .group            GROUP           0000000000000000 000cdc 00000c 04     981 3208  4
  [286] .group            GROUP           0000000000000000 000ce8 000008 04     981 2469  4
  [287] .group            GROUP           0000000000000000 000cf0 00000c 04     981 2470  4
  [288] .group            GROUP           0000000000000000 000cfc 000014 04     981 3216  4
  [289] .group            GROUP           0000000000000000 000d10 000008 04     981 3218  4
  [290] .group            GROUP           0000000000000000 000d18 00000c 04     981 2471  4
  [291] .group            GROUP           0000000000000000 000d24 000008 04     981 3222  4
  [292] .group            GROUP           0000000000000000 000d2c 00000c 04     981 2472  4
  [293] .group            GROUP           0000000000000000 000d38 00000c 04     981 3226  4
  [294] .group            GROUP           0000000000000000 000d44 000008 04     981 3228  4
  [295] .group            GROUP           0000000000000000 000d4c 00000c 04     981 3229  4
  [296] .group            GROUP           0000000000000000 000d58 000008 04     981 3232  4
  [297] .group            GROUP           0000000000000000 000d60 00000c 04     981 3233  4
  [298] .group            GROUP           0000000000000000 000d6c 000014 04     981 3236  4
  [299] .group            GROUP           0000000000000000 000d80 000008 04     981 3237  4
  [300] .group            GROUP           0000000000000000 000d88 00000c 04     981 3238  4
  [301] .group            GROUP           0000000000000000 000d94 000008 04     981 3239  4
  [302] .group            GROUP           0000000000000000 000d9c 000008 04     981 3240  4
  [303] .group            GROUP           0000000000000000 000da4 00000c 04     981 2473  4
  [304] .group            GROUP           0000000000000000 000db0 000008 04     981 3244  4
  [305] .group            GROUP           0000000000000000 000db8 000008 04     981 2474  4
  [306] .group            GROUP           0000000000000000 000dc0 000008 04     981 3248  4
  [307] .group            GROUP           0000000000000000 000dc8 00000c 04     981 3249  4
  [308] .group            GROUP           0000000000000000 000dd4 00000c 04     981 2475  4
  [309] .group            GROUP           0000000000000000 000de0 00000c 04     981 3250  4
  [310] .group            GROUP           0000000000000000 000dec 00000c 04     981 3251  4
  [311] .group            GROUP           0000000000000000 000df8 00000c 04     981 3253  4
  [312] .group            GROUP           0000000000000000 000e04 000008 04     981 3254  4
  [313] .group            GROUP           0000000000000000 000e0c 00000c 04     981 3258  4
  [314] .group            GROUP           0000000000000000 000e18 000008 04     981 3259  4
  [315] .group            GROUP           0000000000000000 000e20 00000c 04     981 3260  4
  [316] .group            GROUP           0000000000000000 000e2c 00000c 04     981 3261  4
  [317] .group            GROUP           0000000000000000 000e38 00000c 04     981 3262  4
  [318] .group            GROUP           0000000000000000 000e44 00000c 04     981 3263  4
  [319] .group            GROUP           0000000000000000 000e50 00000c 04     981 3264  4
  [320] .group            GROUP           0000000000000000 000e5c 00000c 04     981 3265  4
  [321] .group            GROUP           0000000000000000 000e68 000008 04     981 3266  4
  [322] .group            GROUP           0000000000000000 000e70 00000c 04     981 3140  4
  [323] .group            GROUP           0000000000000000 000e7c 00000c 04     981 2991  4
  [324] .group            GROUP           0000000000000000 000e88 00000c 04     981 3267  4
  [325] .group            GROUP           0000000000000000 000e94 000008 04     981 3276  4
  [326] .group            GROUP           0000000000000000 000e9c 00000c 04     981 3273  4
  [327] .group            GROUP           0000000000000000 000ea8 000008 04     981 3278  4
  [328] .group            GROUP           0000000000000000 000eb0 000014 04     981 2476  4
  [329] .group            GROUP           0000000000000000 000ec4 00000c 04     981 3270  4
  [330] .group            GROUP           0000000000000000 000ed0 00000c 04     981 3271  4
  [331] .group            GROUP           0000000000000000 000edc 00000c 04     981 3272  4
  [332] .group            GROUP           0000000000000000 000ee8 00000c 04     981 3281  4
  [333] .group            GROUP           0000000000000000 000ef4 00000c 04     981 3282  4
  [334] .group            GROUP           0000000000000000 000f00 000008 04     981 3284  4
  [335] .group            GROUP           0000000000000000 000f08 00000c 04     981 2477  4
  [336] .group            GROUP           0000000000000000 000f14 00000c 04     981 3285  4
  [337] .group            GROUP           0000000000000000 000f20 00000c 04     981 3283  4
  [338] .group            GROUP           0000000000000000 000f2c 000008 04     981 3289  4
  [339] .group            GROUP           0000000000000000 000f34 00000c 04     981 3279  4
  [340] .group            GROUP           0000000000000000 000f40 000008 04     981 3290  4
  [341] .group            GROUP           0000000000000000 000f48 00000c 04     981 3291  4
  [342] .group            GROUP           0000000000000000 000f54 000008 04     981 3292  4
  [343] .group            GROUP           0000000000000000 000f5c 00000c 04     981 2883  4
  [344] .text             PROGBITS        0000000000000000 000f68 00047c 00  AX  0   0  4
  [345] .rela.text        RELA            0000000000000000 02f528 000948 18   I 981 344  8
  [346] .data             PROGBITS        0000000000000000 0013e4 000000 00  WA  0   0  1
  [347] .bss              NOBITS          0000000000000000 0013e4 000000 00  WA  0   0  1
  [348] .text._ZSt23__is_constant_evaluatedv PROGBITS        0000000000000000 0013e4 000020 00 AXG  0   0  4
  [349] .text._ZnwmPv     PROGBITS        0000000000000000 001404 000028 00 AXG  0   0  4
  [350] .text._ZdlPvS_    PROGBITS        0000000000000000 00142c 000024 00 AXG  0   0  4
  [351] .rodata           PROGBITS        0000000000000000 001450 000098 00   A  0   0  8
  [352] .text._ZNKSt9type_info4nameEv PROGBITS        0000000000000000 0014e8 000050 00 AXG  0   0  4
  [353] .rela.text._ZNKSt9type_info4nameEv RELA            0000000000000000 02fe70 000030 18  IG 981 352  8
  [354] .text._ZNKSt9type_infoeqERKS_ PROGBITS        0000000000000000 001538 0000d8 00 AXG  0   0  4
  [355] .rela.text._ZNKSt9type_infoeqERKS_ RELA            0000000000000000 02fea0 000168 18  IG 981 354  8
  [356] .text._ZN9__gnu_cxx7__mutexC2Ev PROGBITS        0000000000000000 001610 000060 00 AXG  0   0  4
  [357] .rodata._ZZNSt19_Sp_make_shared_tag5_S_tiEvE5__tag PROGBITS        0000000000000000 001670 000010 00  AG  0   0  8
  [358] .text._ZNSt19_Sp_make_shared_tag5_S_tiEv PROGBITS        0000000000000000 001680 000024 00 AXG  0   0  4
  [359] .rela.text._ZNSt19_Sp_make_shared_tag5_S_tiEv RELA            0000000000000000 030008 000048 18  IG 981 358  8
  [360] .text._ZN5dwarf3dieC2Ev PROGBITS        0000000000000000 0016a4 000050 00 AXG  0   0  4
  [361] .rela.text._ZN5dwarf3dieC2Ev RELA            0000000000000000 030050 000048 18  IG 981 360  8
  [362] .text._ZNK5dwarf3die8iteratordeEv PROGBITS        0000000000000000 0016f4 000024 00 AXG  0   0  4
  [363] .text._ZNK5dwarf3die8iteratorneERKS1_ PROGBITS        0000000000000000 001718 00008c 00 AXG  0   0  4
  [364] .rela.text._ZNK5dwarf3die8iteratorneERKS1_ RELA            0000000000000000 030098 0000a8 18  IG 981 363  8
  [365] .text._ZN5dwarf3dieD2Ev PROGBITS        0000000000000000 0017a4 000040 00 AXG  0   0  4
  [366] .rela.text._ZN5dwarf3dieD2Ev RELA            0000000000000000 030140 000048 18  IG 981 365  8
  [367] .text._ZN5dwarf3die8iteratorC2Ev PROGBITS        0000000000000000 0017e4 00003c 00 AXG  0   0  4
  [368] .rela.text._ZN5dwarf3die8iteratorC2Ev RELA            0000000000000000 030188 000048 18  IG 981 367  8
  [369] .text._ZN5dwarf3die8iteratorD2Ev PROGBITS        0000000000000000 001820 00003c 00 AXG  0   0  4
  [370] .rela.text._ZN5dwarf3die8iteratorD2Ev RELA            0000000000000000 0301d0 000048 18  IG 981 369  8
  [371] .text._ZNK5dwarf3die3endEv PROGBITS        0000000000000000 00185c 000078 00 AXG  0   0  4
  [372] .rela.text._ZNK5dwarf3die3endEv RELA            0000000000000000 030218 000048 18  IG 981 371  8
  [373] .text._ZNK5dwarf5value8get_typeEv PROGBITS        0000000000000000 0018d4 000028 00 AXG  0   0  4
  [374] .text._ZNSt8__detail15_Hash_node_baseC2Ev PROGBITS        0000000000000000 0018fc 000028 00 AXG  0   0  4
  [375] .text._ZNKSt8__detail18_Mod_range_hashingclEmm PROGBITS        0000000000000000 001924 000034 00 AXG  0   0  4
  [376] .text._ZNSt8__detail20_Prime_rehash_policyC2Ef PROGBITS        0000000000000000 001958 000038 00 AXG  0   0  4
  [377] .text._ZNKSt8__detail20_Prime_rehash_policy8_M_stateEv PROGBITS        0000000000000000 001990 000028 00 AXG  0   0  4
  [378] .text._ZNSt8__detail20_Prime_rehash_policy8_M_resetEm PROGBITS        0000000000000000 0019b8 000030 00 AXG  0   0  4
  [379] .text._ZNKSt4hashIN5dwarf6DW_TAGEEclES1_ PROGBITS        0000000000000000 0019e8 00002c 00 AXG  0   0  4
  [380] .text._ZNK5dwarf11string_hashclEPKc PROGBITS        0000000000000000 001a14 000070 00 AXG  0   0  4
  [381] .rela.text._ZNK5dwarf11string_hashclEPKc RELA            0000000000000000 030260 000030 18  IG 981 380  8
  [382] .text._ZNK5dwarf9string_eqclEPKcS2_ PROGBITS        0000000000000000 001a84 00004c 00 AXG  0   0  4
  [383] .rela.text._ZNK5dwarf9string_eqclEPKcS2_ RELA            0000000000000000 030290 000030 18  IG 981 382  8
  [384] .text._ZNSt8__detail15_Hash_code_baseIPKcSt4pairIKS2_N5dwarf3dieEENS_10_Select1stENS5_11string_hashENS_18_Mod_range_hashingENS_20_Default_ranged_hashELb1EEC2Ev PROGBITS        0000000000000000 001ad0 000038 00 AXG  0   0  4
  [385] .rela.text._ZNSt8__detail15_Hash_code_baseIPKcSt4pairIKS2_N5dwarf3dieEENS_10_Select1stENS5_11string_hashENS_18_Mod_range_hashingENS_20_Default_ranged_hashELb1EEC2Ev RELA            0000000000000000 0302c0 000048 18  IG 981 384  8
  [386] .text._ZNSt8__detail15_Hashtable_baseIPKcSt4pairIKS2_N5dwarf3dieEENS_10_Select1stENS5_9string_eqENS5_11string_hashENS_18_Mod_range_hashingENS_20_Default_ranged_hashENS_17_Hashtable_traitsILb1ELb0ELb1EEEEC2Ev PROGBITS        0000000000000000 001b08 000048 00 AXG  0   0  4
  [387] .rela.text._ZNSt8__detail15_Hashtable_baseIPKcSt4pairIKS2_N5dwarf3dieEENS_10_Select1stENS5_9string_eqENS5_11string_hashENS_18_Mod_range_hashingENS_20_Default_ranged_hashENS_17_Hashtable_traitsILb1ELb0ELb1EEEEC2Ev RELA            0000000000000000 030308 000090 18  IG 981 386  8
  [388] .text._ZNSt8__detail21_Hashtable_ebo_helperILi0ESaINS_10_Hash_nodeISt4pairIKPKcN5dwarf3dieEELb1EEEELb1EED2Ev PROGBITS        0000000000000000 001b50 000038 00 AXG  0   0  4
  [389] .rela.text._ZNSt8__detail21_Hashtable_ebo_helperILi0ESaINS_10_Hash_nodeISt4pairIKPKcN5dwarf3dieEELb1EEEELb1EED2Ev RELA            0000000000000000 030398 000048 18  IG 981 388  8
  [390] .text._ZNSt8__detail16_Hashtable_allocISaINS_10_Hash_nodeISt4pairIKPKcN5dwarf3dieEELb1EEEEEC2Ev PROGBITS        0000000000000000 001b88 000038 00 AXG  0   0  4
  [391] .rela.text._ZNSt8__detail16_Hashtable_allocISaINS_10_Hash_nodeISt4pairIKPKcN5dwarf3dieEELb1EEEEEC2Ev RELA            0000000000000000 0303e0 000048 18  IG 981 390  8
  [392] .text._ZNSt8__detail16_Hashtable_allocISaINS_10_Hash_nodeISt4pairIKPKcN5dwarf3dieEELb1EEEEED2Ev PROGBITS        0000000000000000 001bc0 000038 00 AXG  0   0  4
  [393] .rela.text._ZNSt8__detail16_Hashtable_allocISaINS_10_Hash_nodeISt4pairIKPKcN5dwarf3dieEELb1EEEEED2Ev RELA            0000000000000000 030428 000048 18  IG 981 392  8
  [394] .text._ZNSt10_HashtableIPKcSt4pairIKS1_N5dwarf3dieEESaIS6_ENSt8__detail10_Select1stENS4_9string_eqENS4_11string_hashENS8_18_Mod_range_hashingENS8_20_Default_ranged_hashENS8_20_Prime_rehash_policyENS8_17_Hashtable_traitsILb1ELb0ELb1EEEEC2Ev PROGBITS        0000000000000000 001bf8 0000b4 00 AXG  0   0  4
  [395] .rela.text._ZNSt10_HashtableIPKcSt4pairIKS1_N5dwarf3dieEESaIS6_ENSt8__detail10_Select1stENS4_9string_eqENS4_11string_hashENS8_18_Mod_range_hashingENS8_20_Default_ranged_hashENS8_20_Prime_rehash_policyENS8_17_Hashtable_traitsILb1ELb0ELb1EEEEC2Ev RELA            0000000000000000 030470 000180 18  IG 981 394  8
  [396] .text._ZNSt13unordered_mapIPKcN5dwarf3dieENS2_11string_hashENS2_9string_eqESaISt4pairIKS1_S3_EEEC2Ev PROGBITS        0000000000000000 001cac 00003c 00 AXG  0   0  4
  [397] .rela.text._ZNSt13unordered_mapIPKcN5dwarf3dieENS2_11string_hashENS2_9string_eqESaISt4pairIKS1_S3_EEEC2Ev RELA            0000000000000000 0305f0 000048 18  IG 981 396  8
  [398] .text._ZNSt13unordered_mapIPKcN5dwarf3dieENS2_11string_hashENS2_9string_eqESaISt4pairIKS1_S3_EEED2Ev PROGBITS        0000000000000000 001ce8 00003c 00 AXG  0   0  4
  [399] .rela.text._ZNSt13unordered_mapIPKcN5dwarf3dieENS2_11string_hashENS2_9string_eqESaISt4pairIKS1_S3_EEED2Ev RELA            0000000000000000 030638 000048 18  IG 981 398  8
  [400] .text._ZNSt13unordered_setIN5dwarf6DW_TAGESt4hashIS1_ESt8equal_toIS1_ESaIS1_EED2Ev PROGBITS        0000000000000000 001d24 00003c 00 AXG  0   0  4
  [401] .rela.text._ZNSt13unordered_setIN5dwarf6DW_TAGESt4hashIS1_ESt8equal_toIS1_ESaIS1_EED2Ev RELA            0000000000000000 030680 000048 18  IG 981 400  8
  [402] .text._ZN5dwarf11die_str_map4implC2ERKNS_3dieENS_5DW_ATERKSt16initializer_listINS_6DW_TAGEE PROGBITS        0000000000000000 001d60 00019c 00 AXG  0   0  4
  [403] .rela.text._ZN5dwarf11die_str_map4implC2ERKNS_3dieENS_5DW_ATERKSt16initializer_listINS_6DW_TAGEE RELA            0000000000000000 0306c8 0003a8 18  IG 981 402  8
  [404] .gcc_except_table._ZN5dwarf11die_str_map4implC2ERKNS_3dieENS_5DW_ATERKSt16initializer_listINS_6DW_TAGEE PROGBITS        0000000000000000 001efc 00002b 00  AG  0   0  1
  [405] .rela.gcc_except_table._ZN5dwarf11die_str_map4implC2ERKNS_3dieENS_5DW_ATERKSt16initializer_listINS_6DW_TAGEE RELA            0000000000000000 030a70 000180 18  IG 981 404  8
  [406] .text._ZN5dwarf3dieaSERKS0_ PROGBITS        0000000000000000 001f28 0000a4 00 AXG  0   0  4
  [407] .rela.text._ZN5dwarf3dieaSERKS0_ RELA            0000000000000000 030bf0 000048 18  IG 981 406  8
  [408] .text._ZN5dwarf12small_vectorImLj6EEC2Ev PROGBITS        0000000000000000 001fcc 00004c 00 AXG  0   0  4
  [409] .text._ZN5dwarf12small_vectorImLj6EED2Ev PROGBITS        0000000000000000 002018 000068 00 AXG  0   0  4
  [410] .rela.text._ZN5dwarf12small_vectorImLj6EED2Ev RELA            0000000000000000 030c38 0000a8 18  IG 981 409  8
  [411] .text._ZNKSt16initializer_listIN5dwarf6DW_TAGEE5beginEv PROGBITS        0000000000000000 002080 000028 00 AXG  0   0  4
  [412] .text._ZNKSt16initializer_listIN5dwarf6DW_TAGEE3endEv PROGBITS        0000000000000000 0020a8 000060 00 AXG  0   0  4
  [413] .rela.text._ZNKSt16initializer_listIN5dwarf6DW_TAGEE3endEv RELA            0000000000000000 030ce0 000090 18  IG 981 412  8
  [414] .text._ZNSt8__detail21_Hashtable_ebo_helperILi1EN5dwarf11string_hashELb1EEC2Ev PROGBITS        0000000000000000 002108 000020 00 AXG  0   0  4
  [415] .text._ZNSt8__detail21_Hashtable_ebo_helperILi0EN5dwarf9string_eqELb1EEC2Ev PROGBITS        0000000000000000 002128 000020 00 AXG  0   0  4
  [416] .text._ZNSt8__detail21_Hashtable_ebo_helperILi0ESaINS_10_Hash_nodeISt4pairIKPKcN5dwarf3dieEELb1EEEELb1EEC2Ev PROGBITS        0000000000000000 002148 000038 00 AXG  0   0  4
  [417] .rela.text._ZNSt8__detail21_Hashtable_ebo_helperILi0ESaINS_10_Hash_nodeISt4pairIKPKcN5dwarf3dieEELb1EEEELb1EEC2Ev RELA            0000000000000000 030d70 000048 18  IG 981 416  8
  [418] .text._ZNSaINSt8__detail10_Hash_nodeISt4pairIKPKcN5dwarf3dieEELb1EEEED2Ev PROGBITS        0000000000000000 002180 000038 00 AXG  0   0  4
  [419] .rela.text._ZNSaINSt8__detail10_Hash_nodeISt4pairIKPKcN5dwarf3dieEELb1EEEED2Ev RELA            0000000000000000 030db8 000048 18  IG 981 418  8
  [420] .text._ZNSt10_HashtableIPKcSt4pairIKS1_N5dwarf3dieEESaIS6_ENSt8__detail10_Select1stENS4_9string_eqENS4_11string_hashENS8_18_Mod_range_hashingENS8_20_Default_ranged_hashENS8_20_Prime_rehash_policyENS8_17_Hashtable_traitsILb1ELb0ELb1EEEED2Ev PROGBITS        0000000000000000 0021b8 000058 00 AXG  0   0  4
  [421] .rela.text._ZNSt10_HashtableIPKcSt4pairIKS1_N5dwarf3dieEESaIS6_ENSt8__detail10_Select1stENS4_9string_eqENS4_11string_hashENS8_18_Mod_range_hashingENS8_20_Default_ranged_hashENS8_20_Prime_rehash_policyENS8_17_Hashtable_traitsILb1ELb0ELb1EEEED2Ev RELA            0000000000000000 030e00 0000d8 18  IG 981 420  8
  [422] .gcc_except_table._ZNSt10_HashtableIPKcSt4pairIKS1_N5dwarf3dieEESaIS6_ENSt8__detail10_Select1stENS4_9string_eqENS4_11string_hashENS8_18_Mod_range_hashingENS8_20_Default_ranged_hashENS8_20_Prime_rehash_policyENS8_17_Hashtable_traitsILb1ELb0ELb1EEEED2Ev PROGBITS        0000000000000000 002210 000004 00  AG  0   0  1
  [423] .text._ZNSaIN5dwarf6DW_TAGEEC2Ev PROGBITS        0000000000000000 002214 000038 00 AXG  0   0  4
  [424] .rela.text._ZNSaIN5dwarf6DW_TAGEEC2Ev RELA            0000000000000000 030ed8 000048 18  IG 981 423  8
  [425] .text._ZNSaIN5dwarf6DW_TAGEED2Ev PROGBITS        0000000000000000 00224c 000038 00 AXG  0   0  4
  [426] .rela.text._ZNSaIN5dwarf6DW_TAGEED2Ev RELA            0000000000000000 030f20 000048 18  IG 981 425  8
  [427] .text._ZNSt13unordered_setIN5dwarf6DW_TAGESt4hashIS1_ESt8equal_toIS1_ESaIS1_EEC2IPKS1_EET_SB_mRKS3_RKS5_RKS6_ PROGBITS        0000000000000000 002284 000068 00 AXG  0   0  4
  [428] .rela.text._ZNSt13unordered_setIN5dwarf6DW_TAGESt4hashIS1_ESt8equal_toIS1_ESaIS1_EEC2IPKS1_EET_SB_mRKS3_RKS5_RKS6_ RELA            0000000000000000 030f68 000048 18  IG 981 427  8
  [429] .text._ZNSt8__detail21_Hashtable_ebo_helperILi0ESaINS_10_Hash_nodeIN5dwarf6DW_TAGELb1EEEELb1EED2Ev PROGBITS        0000000000000000 0022ec 000038 00 AXG  0   0  4
  [430] .rela.text._ZNSt8__detail21_Hashtable_ebo_helperILi0ESaINS_10_Hash_nodeIN5dwarf6DW_TAGELb1EEEELb1EED2Ev RELA            0000000000000000 030fb0 000048 18  IG 981 429  8
  [431] .text._ZNSt8__detail16_Hashtable_allocISaINS_10_Hash_nodeIN5dwarf6DW_TAGELb1EEEEED2Ev PROGBITS        0000000000000000 002324 000038 00 AXG  0   0  4
  [432] .rela.text._ZNSt8__detail16_Hashtable_allocISaINS_10_Hash_nodeIN5dwarf6DW_TAGELb1EEEEED2Ev RELA            0000000000000000 030ff8 000048 18  IG 981 431  8
  [433] .text._ZNSt10_HashtableIN5dwarf6DW_TAGES1_SaIS1_ENSt8__detail9_IdentityESt8equal_toIS1_ESt4hashIS1_ENS3_18_Mod_range_hashingENS3_20_Default_ranged_hashENS3_20_Prime_rehash_policyENS3_17_Hashtable_traitsILb1ELb1ELb1EEEED2Ev PROGBITS        0000000000000000 00235c 000058 00 AXG  0   0  4
  [434] .rela.text._ZNSt10_HashtableIN5dwarf6DW_TAGES1_SaIS1_ENSt8__detail9_IdentityESt8equal_toIS1_ESt4hashIS1_ENS3_18_Mod_range_hashingENS3_20_Default_ranged_hashENS3_20_Prime_rehash_policyENS3_17_Hashtable_traitsILb1ELb1ELb1EEEED2Ev RELA            0000000000000000 031040 0000d8 18  IG 981 433  8
  [435] .gcc_except_table._ZNSt10_HashtableIN5dwarf6DW_TAGES1_SaIS1_ENSt8__detail9_IdentityESt8equal_toIS1_ESt4hashIS1_ENS3_18_Mod_range_hashingENS3_20_Default_ranged_hashENS3_20_Prime_rehash_policyENS3_17_Hashtable_traitsILb1ELb1ELb1EEEED2Ev PROGBITS        0000000000000000 0023b4 000004 00  AG  0   0  1
  [436] .text._ZSt11make_sharedIN5dwarf11die_str_map4implEJRKNS0_3dieERNS0_5DW_ATERKSt16initializer_listINS0_6DW_TAGEEEESt10shared_ptrINSt9enable_ifIXntsrSt8is_arrayIT_E5valueESG_E4typeEEDpOT0_ PROGBITS        0000000000000000 0023b8 0000b0 00 AXG  0   0  4
  [437] .rela.text._ZSt11make_sharedIN5dwarf11die_str_map4implEJRKNS0_3dieERNS0_5DW_ATERKSt16initializer_listINS0_6DW_TAGEEEESt10shared_ptrINSt9enable_ifIXntsrSt8is_arrayIT_E5valueESG_E4typeEEDpOT0_ RELA            0000000000000000 031118 000120 18  IG 981 436  8
  [438] .text._ZNKSt19__shared_ptr_accessIN5dwarf11die_str_map4implELN9__gnu_cxx12_Lock_policyE1ELb0ELb0EEptEv PROGBITS        0000000000000000 002468 00003c 00 AXG  0   0  4
  [439] .rela.text._ZNKSt19__shared_ptr_accessIN5dwarf11die_str_map4implELN9__gnu_cxx12_Lock_policyE1ELb0ELb0EEptEv RELA            0000000000000000 031238 000048 18  IG 981 438  8
  [440] .text._ZNSt13unordered_mapIPKcN5dwarf3dieENS2_11string_hashENS2_9string_eqESaISt4pairIKS1_S3_EEE4findERS7_ PROGBITS        0000000000000000 0024a4 000048 00 AXG  0   0  4
  [441] .rela.text._ZNSt13unordered_mapIPKcN5dwarf3dieENS2_11string_hashENS2_9string_eqESaISt4pairIKS1_S3_EEE4findERS7_ RELA            0000000000000000 031280 000048 18  IG 981 440  8
  [442] .text._ZNSt13unordered_mapIPKcN5dwarf3dieENS2_11string_hashENS2_9string_eqESaISt4pairIKS1_S3_EEE3endEv PROGBITS        0000000000000000 0024ec 000040 00 AXG  0   0  4
  [443] .rela.text._ZNSt13unordered_mapIPKcN5dwarf3dieENS2_11string_hashENS2_9string_eqESaISt4pairIKS1_S3_EEE3endEv RELA            0000000000000000 0312c8 000048 18  IG 981 442  8
  [444] .text._ZNSt8__detailneERKNS_19_Node_iterator_baseISt4pairIKPKcN5dwarf3dieEELb1EEESA_ PROGBITS        0000000000000000 00252c 000040 00 AXG  0   0  4
  [445] .text._ZNKSt8__detail14_Node_iteratorISt4pairIKPKcN5dwarf3dieEELb0ELb1EEptEv PROGBITS        0000000000000000 00256c 000048 00 AXG  0   0  4
  [446] .rela.text._ZNKSt8__detail14_Node_iteratorISt4pairIKPKcN5dwarf3dieEELb0ELb1EEptEv RELA            0000000000000000 031310 000048 18  IG 981 445  8
  [447] .text._ZNKSt13unordered_setIN5dwarf6DW_TAGESt4hashIS1_ESt8equal_toIS1_ESaIS1_EE5countERKS1_ PROGBITS        0000000000000000 0025b4 000048 00 AXG  0   0  4
  [448] .rela.text._ZNKSt13unordered_setIN5dwarf6DW_TAGESt4hashIS1_ESt8equal_toIS1_ESaIS1_EE5countERKS1_ RELA            0000000000000000 031358 000048 18  IG 981 447  8
  [449] .text._ZNSt13unordered_mapIPKcN5dwarf3dieENS2_11string_hashENS2_9string_eqESaISt4pairIKS1_S3_EEEixERS7_ PROGBITS        0000000000000000 0025fc 000048 00 AXG  0   0  4
  [450] .rela.text._ZNSt13unordered_mapIPKcN5dwarf3dieENS2_11string_hashENS2_9string_eqESaISt4pairIKS1_S3_EEEixERS7_ RELA            0000000000000000 0313a0 000048 18  IG 981 449  8
  [451] .text._ZN5dwarf12small_vectorImLj6EEaSERKS1_ PROGBITS        0000000000000000 002644 0000f8 00 AXG  0   0  4
  [452] .rela.text._ZN5dwarf12small_vectorImLj6EEaSERKS1_ RELA            0000000000000000 0313e8 000198 18  IG 981 451  8
  [453] .text._ZNSt16_Sp_counted_baseILN9__gnu_cxx12_Lock_policyE1EE10_M_destroyEv PROGBITS        0000000000000000 00273c 000048 00 AXG  0   0  4
  [454] .rela.text._ZNSt16_Sp_counted_baseILN9__gnu_cxx12_Lock_policyE1EE10_M_destroyEv RELA            0000000000000000 031580 000018 18  IG 981 453  8
  [455] .text._ZN5dwarf12small_vectorImLj6EE5clearEv PROGBITS        0000000000000000 002784 00005c 00 AXG  0   0  4
  [456] .rela.text._ZN5dwarf12small_vectorImLj6EE5clearEv RELA            0000000000000000 031598 000030 18  IG 981 455  8
  [457] .text._ZSt7forwardIbEOT_RNSt16remove_referenceIS0_E4typeE PROGBITS        0000000000000000 0027e0 000024 00 AXG  0   0  4
  [458] .text._ZNKSt16initializer_listIN5dwarf6DW_TAGEE4sizeEv PROGBITS        0000000000000000 002804 000028 00 AXG  0   0  4
  [459] .text._ZNSaINSt8__detail10_Hash_nodeISt4pairIKPKcN5dwarf3dieEELb1EEEEC2Ev PROGBITS        0000000000000000 00282c 000038 00 AXG  0   0  4
  [460] .rela.text._ZNSaINSt8__detail10_Hash_nodeISt4pairIKPKcN5dwarf3dieEELb1EEEEC2Ev RELA            0000000000000000 0315c8 000048 18  IG 981 459  8
  [461] .text._ZNSt15__new_allocatorINSt8__detail10_Hash_nodeISt4pairIKPKcN5dwarf3dieEELb1EEEED2Ev PROGBITS        0000000000000000 002864 000020 00 AXG  0   0  4
  [462] .text._ZNSt10_HashtableIPKcSt4pairIKS1_N5dwarf3dieEESaIS6_ENSt8__detail10_Select1stENS4_9string_eqENS4_11string_hashENS8_18_Mod_range_hashingENS8_20_Default_ranged_hashENS8_20_Prime_rehash_policyENS8_17_Hashtable_traitsILb1ELb0ELb1EEEE5clearEv PROGBITS        0000000000000000 002884 000088 00 AXG  0   0  4
  [463] .rela.text._ZNSt10_HashtableIPKcSt4pairIKS1_N5dwarf3dieEESaIS6_ENSt8__detail10_Select1stENS4_9string_eqENS4_11string_hashENS8_18_Mod_range_hashingENS8_20_Default_ranged_hashENS8_20_Prime_rehash_policyENS8_17_Hashtable_traitsILb1ELb0ELb1EEEE5clearEv RELA            0000000000000000 031610 0000c0 18  IG 981 462  8
  [464] .gcc_except_table._ZNSt10_HashtableIPKcSt4pairIKS1_N5dwarf3dieEESaIS6_ENSt8__detail10_Select1stENS4_9string_eqENS4_11string_hashENS8_18_Mod_range_hashingENS8_20_Default_ranged_hashENS8_20_Prime_rehash_policyENS8_17_Hashtable_traitsILb1ELb0ELb1EEEE5clearEv PROGBITS        0000000000000000 00290c 000004 00  AG  0   0  1
  [465] .text._ZNSt10_HashtableIPKcSt4pairIKS1_N5dwarf3dieEESaIS6_ENSt8__detail10_Select1stENS4_9string_eqENS4_11string_hashENS8_18_Mod_range_hashingENS8_20_Default_ranged_hashENS8_20_Prime_rehash_policyENS8_17_Hashtable_traitsILb1ELb0ELb1EEEE21_M_deallocate_bucketsEv PROGBITS        0000000000000000 002910 000050 00 AXG  0   0  4
  [466] .rela.text._ZNSt10_HashtableIPKcSt4pairIKS1_N5dwarf3dieEESaIS6_ENSt8__detail10_Select1stENS4_9string_eqENS4_11string_hashENS8_18_Mod_range_hashingENS8_20_Default_ranged_hashENS8_20_Prime_rehash_policyENS8_17_Hashtable_traitsILb1ELb0ELb1EEEE21_M_deallocate_bucketsEv RELA            0000000000000000 0316d0 000048 18  IG 981 465  8
  [467] .text._ZNSt15__new_allocatorIN5dwarf6DW_TAGEEC2Ev PROGBITS        0000000000000000 002960 000020 00 AXG  0   0  4
  [468] .text._ZNSt15__new_allocatorIN5dwarf6DW_TAGEED2Ev PROGBITS        0000000000000000 002980 000020 00 AXG  0   0  4
  [469] .text._ZNSt10_HashtableIN5dwarf6DW_TAGES1_SaIS1_ENSt8__detail9_IdentityESt8equal_toIS1_ESt4hashIS1_ENS3_18_Mod_range_hashingENS3_20_Default_ranged_hashENS3_20_Prime_rehash_policyENS3_17_Hashtable_traitsILb1ELb1ELb1EEEEC2IPKS1_EET_SI_mRKS8_RKS6_RKS2_ PROGBITS        0000000000000000 0029a0 000068 00 AXG  0   0  4
  [470] .rela.text._ZNSt10_HashtableIN5dwarf6DW_TAGES1_SaIS1_ENSt8__detail9_IdentityESt8equal_toIS1_ESt4hashIS1_ENS3_18_Mod_range_hashingENS3_20_Default_ranged_hashENS3_20_Prime_rehash_policyENS3_17_Hashtable_traitsILb1ELb1ELb1EEEEC2IPKS1_EET_SI_mRKS8_RKS6_RKS2_ RELA            0000000000000000 031718 000048 18  IG 981 469  8
  [471] .text._ZNSaINSt8__detail10_Hash_nodeIN5dwarf6DW_TAGELb1EEEED2Ev PROGBITS        0000000000000000 002a08 000038 00 AXG  0   0  4
  [472] .rela.text._ZNSaINSt8__detail10_Hash_nodeIN5dwarf6DW_TAGELb1EEEED2Ev RELA            0000000000000000 031760 000048 18  IG 981 471  8
  [473] .text._ZNSt10_HashtableIN5dwarf6DW_TAGES1_SaIS1_ENSt8__detail9_IdentityESt8equal_toIS1_ESt4hashIS1_ENS3_18_Mod_range_hashingENS3_20_Default_ranged_hashENS3_20_Prime_rehash_policyENS3_17_Hashtable_traitsILb1ELb1ELb1EEEE5clearEv PROGBITS        0000000000000000 002a40 000088 00 AXG  0   0  4
  [474] .rela.text._ZNSt10_HashtableIN5dwarf6DW_TAGES1_SaIS1_ENSt8__detail9_IdentityESt8equal_toIS1_ESt4hashIS1_ENS3_18_Mod_range_hashingENS3_20_Default_ranged_hashENS3_20_Prime_rehash_policyENS3_17_Hashtable_traitsILb1ELb1ELb1EEEE5clearEv RELA            0000000000000000 0317a8 0000c0 18  IG 981 473  8
  [475] .gcc_except_table._ZNSt10_HashtableIN5dwarf6DW_TAGES1_SaIS1_ENSt8__detail9_IdentityESt8equal_toIS1_ESt4hashIS1_ENS3_18_Mod_range_hashingENS3_20_Default_ranged_hashENS3_20_Prime_rehash_policyENS3_17_Hashtable_traitsILb1ELb1ELb1EEEE5clearEv PROGBITS        0000000000000000 002ac8 000004 00  AG  0   0  1
  [476] .text._ZNSt10_HashtableIN5dwarf6DW_TAGES1_SaIS1_ENSt8__detail9_IdentityESt8equal_toIS1_ESt4hashIS1_ENS3_18_Mod_range_hashingENS3_20_Default_ranged_hashENS3_20_Prime_rehash_policyENS3_17_Hashtable_traitsILb1ELb1ELb1EEEE21_M_deallocate_bucketsEv PROGBITS        0000000000000000 002acc 000050 00 AXG  0   0  4
  [477] .rela.text._ZNSt10_HashtableIN5dwarf6DW_TAGES1_SaIS1_ENSt8__detail9_IdentityESt8equal_toIS1_ESt4hashIS1_ENS3_18_Mod_range_hashingENS3_20_Default_ranged_hashENS3_20_Prime_rehash_policyENS3_17_Hashtable_traitsILb1ELb1ELb1EEEE21_M_deallocate_bucketsEv RELA            0000000000000000 031868 000048 18  IG 981 476  8
  [478] .text._ZSt7forwardIRKN5dwarf3dieEEOT_RNSt16remove_referenceIS4_E4typeE PROGBITS        0000000000000000 002b1c 000024 00 AXG  0   0  4
  [479] .text._ZSt7forwardIRN5dwarf5DW_ATEEOT_RNSt16remove_referenceIS3_E4typeE PROGBITS        0000000000000000 002b40 000024 00 AXG  0   0  4
  [480] .text._ZSt7forwardIRKSt16initializer_listIN5dwarf6DW_TAGEEEOT_RNSt16remove_referenceIS6_E4typeE PROGBITS        0000000000000000 002b64 000024 00 AXG  0   0  4
  [481] .text._ZNSt10shared_ptrIN5dwarf11die_str_map4implEEC2ISaIvEJRKNS0_3dieERNS0_5DW_ATERKSt16initializer_listINS0_6DW_TAGEEEEESt20_Sp_alloc_shared_tagIT_EDpOT0_ PROGBITS        0000000000000000 002b88 0000b0 00 AXG  0   0  4
  [482] .rela.text._ZNSt10shared_ptrIN5dwarf11die_str_map4implEEC2ISaIvEJRKNS0_3dieERNS0_5DW_ATERKSt16initializer_listINS0_6DW_TAGEEEEESt20_Sp_alloc_shared_tagIT_EDpOT0_ RELA            0000000000000000 0318b0 000120 18  IG 981 481  8
  [483] .text._ZNKSt19__shared_ptr_accessIN5dwarf11die_str_map4implELN9__gnu_cxx12_Lock_policyE1ELb0ELb0EE6_M_getEv PROGBITS        0000000000000000 002c38 00003c 00 AXG  0   0  4
  [484] .rela.text._ZNKSt19__shared_ptr_accessIN5dwarf11die_str_map4implELN9__gnu_cxx12_Lock_policyE1ELb0ELb0EE6_M_getEv RELA            0000000000000000 0319d0 000048 18  IG 981 483  8
  [485] .text._ZNSt10_HashtableIPKcSt4pairIKS1_N5dwarf3dieEESaIS6_ENSt8__detail10_Select1stENS4_9string_eqENS4_11string_hashENS8_18_Mod_range_hashingENS8_20_Default_ranged_hashENS8_20_Prime_rehash_policyENS8_17_Hashtable_traitsILb1ELb0ELb1EEEE4findERS3_ PROGBITS        0000000000000000 002c74 000190 00 AXG  0   0  4
  [486] .rela.text._ZNSt10_HashtableIPKcSt4pairIKS1_N5dwarf3dieEESaIS6_ENSt8__detail10_Select1stENS4_9string_eqENS4_11string_hashENS8_18_Mod_range_hashingENS8_20_Default_ranged_hashENS8_20_Prime_rehash_policyENS8_17_Hashtable_traitsILb1ELb0ELb1EEEE4findERS3_ RELA            0000000000000000 031a18 0003f0 18  IG 981 485  8
  [487] .text._ZNSt10_HashtableIPKcSt4pairIKS1_N5dwarf3dieEESaIS6_ENSt8__detail10_Select1stENS4_9string_eqENS4_11string_hashENS8_18_Mod_range_hashingENS8_20_Default_ranged_hashENS8_20_Prime_rehash_policyENS8_17_Hashtable_traitsILb1ELb0ELb1EEEE3endEv PROGBITS        0000000000000000 002e04 000044 00 AXG  0   0  4
  [488] .rela.text._ZNSt10_HashtableIPKcSt4pairIKS1_N5dwarf3dieEESaIS6_ENSt8__detail10_Select1stENS4_9string_eqENS4_11string_hashENS8_18_Mod_range_hashingENS8_20_Default_ranged_hashENS8_20_Prime_rehash_policyENS8_17_Hashtable_traitsILb1ELb0ELb1EEEE3endEv RELA            0000000000000000 031e08 000048 18  IG 981 487  8
  [489] .text._ZNSt8__detail21_Hash_node_value_baseISt4pairIKPKcN5dwarf3dieEEE9_M_valptrEv PROGBITS        0000000000000000 002e48 000040 00 AXG  0   0  4
  [490] .rela.text._ZNSt8__detail21_Hash_node_value_baseISt4pairIKPKcN5dwarf3dieEEE9_M_valptrEv RELA            0000000000000000 031e50 000048 18  IG 981 489  8
  [491] .text._ZNKSt10_HashtableIN5dwarf6DW_TAGES1_SaIS1_ENSt8__detail9_IdentityESt8equal_toIS1_ESt4hashIS1_ENS3_18_Mod_range_hashingENS3_20_Default_ranged_hashENS3_20_Prime_rehash_policyENS3_17_Hashtable_traitsILb1ELb1ELb1EEEE5countERKS1_ PROGBITS        0000000000000000 002e88 00005c 00 AXG  0   0  4
  [492] .rela.text._ZNKSt10_HashtableIN5dwarf6DW_TAGES1_SaIS1_ENSt8__detail9_IdentityESt8equal_toIS1_ESt4hashIS1_ENS3_18_Mod_range_hashingENS3_20_Default_ranged_hashENS3_20_Prime_rehash_policyENS3_17_Hashtable_traitsILb1ELb1ELb1EEEE5countERKS1_ RELA            0000000000000000 031e98 000078 18  IG 981 491  8
  [493] .text._ZNSt8__detail9_Map_baseIPKcSt4pairIKS2_N5dwarf3dieEESaIS7_ENS_10_Select1stENS5_9string_eqENS5_11string_hashENS_18_Mod_range_hashingENS_20_Default_ranged_hashENS_20_Prime_rehash_policyENS_17_Hashtable_traitsILb1ELb0ELb1EEELb1EEixERS4_ PROGBITS        0000000000000000 002ee4 000198 00 AXG  0   0  4
  [494] .rela.text._ZNSt8__detail9_Map_baseIPKcSt4pairIKS2_N5dwarf3dieEESaIS7_ENS_10_Select1stENS5_9string_eqENS5_11string_hashENS_18_Mod_range_hashingENS_20_Default_ranged_hashENS_20_Prime_rehash_policyENS_17_Hashtable_traitsILb1ELb0ELb1EEELb1EEixERS4_ RELA            0000000000000000 031f10 0003a8 18  IG 981 493  8
  [495] .gcc_except_table._ZNSt8__detail9_Map_baseIPKcSt4pairIKS2_N5dwarf3dieEESaIS7_ENS_10_Select1stENS5_9string_eqENS5_11string_hashENS_18_Mod_range_hashingENS_20_Default_ranged_hashENS_20_Prime_rehash_policyENS_17_Hashtable_traitsILb1ELb0ELb1EEELb1EEixERS4_ PROGBITS        0000000000000000 00307c 00002b 00  AG  0   0  1
  [496] .rela.gcc_except_table._ZNSt8__detail9_Map_baseIPKcSt4pairIKS2_N5dwarf3dieEESaIS7_ENS_10_Select1stENS5_9string_eqENS5_11string_hashENS_18_Mod_range_hashingENS_20_Default_ranged_hashENS_20_Prime_rehash_policyENS_17_Hashtable_traitsILb1ELb0ELb1EEELb1EEixERS4_ RELA            0000000000000000 0322b8 000150 18  IG 981 495  8
  [497] .text._ZNK5dwarf12small_vectorImLj6EE4sizeEv PROGBITS        0000000000000000 0030a8 000038 00 AXG  0   0  4
  [498] .text._ZN5dwarf12small_vectorImLj6EE7reserveEm PROGBITS        0000000000000000 0030e0 000184 00 AXG  0   0  4
  [499] .rela.text._ZN5dwarf12small_vectorImLj6EE7reserveEm RELA            0000000000000000 032408 000180 18  IG 981 498  8
  [500] .text._ZNK5dwarf12small_vectorImLj6EEixEm PROGBITS        0000000000000000 003264 000038 00 AXG  0   0  4
  [501] .text._ZNSt16_Sp_counted_baseILN9__gnu_cxx12_Lock_policyE1EED2Ev PROGBITS        0000000000000000 00329c 000034 00 AXG  0   0  4
  [502] .rela.text._ZNSt16_Sp_counted_baseILN9__gnu_cxx12_Lock_policyE1EED2Ev RELA            0000000000000000 032588 000048 18  IG 981 501  8
  [503] .text._ZNSt16_Sp_counted_baseILN9__gnu_cxx12_Lock_policyE1EED0Ev PROGBITS        0000000000000000 0032d0 000040 00 AXG  0   0  4
  [504] .rela.text._ZNSt16_Sp_counted_baseILN9__gnu_cxx12_Lock_policyE1EED0Ev RELA            0000000000000000 0325d0 000078 18  IG 981 503  8
  [505] .text._ZNSt15__new_allocatorINSt8__detail10_Hash_nodeISt4pairIKPKcN5dwarf3dieEELb1EEEEC2Ev PROGBITS        0000000000000000 003310 000020 00 AXG  0   0  4
  [506] .text._ZNKSt10_HashtableIPKcSt4pairIKS1_N5dwarf3dieEESaIS6_ENSt8__detail10_Select1stENS4_9string_eqENS4_11string_hashENS8_18_Mod_range_hashingENS8_20_Default_ranged_hashENS8_20_Prime_rehash_policyENS8_17_Hashtable_traitsILb1ELb0ELb1EEEE8_M_beginEv PROGBITS        0000000000000000 003330 000028 00 AXG  0   0  4
  [507] .text._ZNSt8__detail16_Hashtable_allocISaINS_10_Hash_nodeISt4pairIKPKcN5dwarf3dieEELb1EEEEE19_M_deallocate_nodesEPS9_ PROGBITS        0000000000000000 003358 00006c 00 AXG  0   0  4
  [508] .rela.text._ZNSt8__detail16_Hashtable_allocISaINS_10_Hash_nodeISt4pairIKPKcN5dwarf3dieEELb1EEEEE19_M_deallocate_nodesEPS9_ RELA            0000000000000000 032648 0000c0 18  IG 981 507  8
  [509] .text._ZNSt10_HashtableIPKcSt4pairIKS1_N5dwarf3dieEESaIS6_ENSt8__detail10_Select1stENS4_9string_eqENS4_11string_hashENS8_18_Mod_range_hashingENS8_20_Default_ranged_hashENS8_20_Prime_rehash_policyENS8_17_Hashtable_traitsILb1ELb0ELb1EEEE21_M_deallocate_bucketsEPPNS8_15_Hash_node_baseEm PROGBITS        0000000000000000 0033c4 000068 00 AXG  0   0  4
  [510] .rela.text._ZNSt10_HashtableIPKcSt4pairIKS1_N5dwarf3dieEESaIS6_ENSt8__detail10_Select1stENS4_9string_eqENS4_11string_hashENS8_18_Mod_range_hashingENS8_20_Default_ranged_hashENS8_20_Prime_rehash_policyENS8_17_Hashtable_traitsILb1ELb0ELb1EEEE21_M_deallocate_bucketsEPPNS8_15_Hash_node_baseEm RELA            0000000000000000 032708 0000c0 18  IG 981 509  8
  [511] .text._ZNSt10_HashtableIN5dwarf6DW_TAGES1_SaIS1_ENSt8__detail9_IdentityESt8equal_toIS1_ESt4hashIS1_ENS3_18_Mod_range_hashingENS3_20_Default_ranged_hashENS3_20_Prime_rehash_policyENS3_17_Hashtable_traitsILb1ELb1ELb1EEEEC2IPKS1_EET_SI_mRKS8_RKS6_RKS2_St17integral_constantIbLb1EE PROGBITS        0000000000000000 00342c 0000d0 00 AXG  0   0  4
  [512] .rela.text._ZNSt10_HashtableIN5dwarf6DW_TAGES1_SaIS1_ENSt8__detail9_IdentityESt8equal_toIS1_ESt4hashIS1_ENS3_18_Mod_range_hashingENS3_20_Default_ranged_hashENS3_20_Prime_rehash_policyENS3_17_Hashtable_traitsILb1ELb1ELb1EEEEC2IPKS1_EET_SI_mRKS8_RKS6_RKS2_St17integral_constantIbLb1EE RELA            0000000000000000 0327c8 000150 18  IG 981 511  8
  [513] .gcc_except_table._ZNSt10_HashtableIN5dwarf6DW_TAGES1_SaIS1_ENSt8__detail9_IdentityESt8equal_toIS1_ESt4hashIS1_ENS3_18_Mod_range_hashingENS3_20_Default_ranged_hashENS3_20_Prime_rehash_policyENS3_17_Hashtable_traitsILb1ELb1ELb1EEEEC2IPKS1_EET_SI_mRKS8_RKS6_RKS2_St17integral_constantIbLb1EE PROGBITS        0000000000000000 0034fc 00002b 00  AG  0   0  1
  [514] .rela.gcc_except_table._ZNSt10_HashtableIN5dwarf6DW_TAGES1_SaIS1_ENSt8__detail9_IdentityESt8equal_toIS1_ESt4hashIS1_ENS3_18_Mod_range_hashingENS3_20_Default_ranged_hashENS3_20_Prime_rehash_policyENS3_17_Hashtable_traitsILb1ELb1ELb1EEEEC2IPKS1_EET_SI_mRKS8_RKS6_RKS2_St17integral_constantIbLb1EE RELA            0000000000000000 032918 000150 18  IG 981 513  8
  [515] .text._ZNSt15__new_allocatorINSt8__detail10_Hash_nodeIN5dwarf6DW_TAGELb1EEEED2Ev PROGBITS        0000000000000000 003528 000020 00 AXG  0   0  4
  [516] .text._ZNKSt10_HashtableIN5dwarf6DW_TAGES1_SaIS1_ENSt8__detail9_IdentityESt8equal_toIS1_ESt4hashIS1_ENS3_18_Mod_range_hashingENS3_20_Default_ranged_hashENS3_20_Prime_rehash_policyENS3_17_Hashtable_traitsILb1ELb1ELb1EEEE8_M_beginEv PROGBITS        0000000000000000 003548 000028 00 AXG  0   0  4
  [517] .text._ZNSt8__detail16_Hashtable_allocISaINS_10_Hash_nodeIN5dwarf6DW_TAGELb1EEEEE19_M_deallocate_nodesEPS4_ PROGBITS        0000000000000000 003570 00006c 00 AXG  0   0  4
  [518] .rela.text._ZNSt8__detail16_Hashtable_allocISaINS_10_Hash_nodeIN5dwarf6DW_TAGELb1EEEEE19_M_deallocate_nodesEPS4_ RELA            0000000000000000 032a68 0000c0 18  IG 981 517  8
  [519] .text._ZNSt10_HashtableIN5dwarf6DW_TAGES1_SaIS1_ENSt8__detail9_IdentityESt8equal_toIS1_ESt4hashIS1_ENS3_18_Mod_range_hashingENS3_20_Default_ranged_hashENS3_20_Prime_rehash_policyENS3_17_Hashtable_traitsILb1ELb1ELb1EEEE21_M_deallocate_bucketsEPPNS3_15_Hash_node_baseEm PROGBITS        0000000000000000 0035dc 000068 00 AXG  0   0  4
  [520] .rela.text._ZNSt10_HashtableIN5dwarf6DW_TAGES1_SaIS1_ENSt8__detail9_IdentityESt8equal_toIS1_ESt4hashIS1_ENS3_18_Mod_range_hashingENS3_20_Default_ranged_hashENS3_20_Prime_rehash_policyENS3_17_Hashtable_traitsILb1ELb1ELb1EEEE21_M_deallocate_bucketsEPPNS3_15_Hash_node_baseEm RELA            0000000000000000 032b28 0000c0 18  IG 981 519  8
  [521] .text._ZNSt12__shared_ptrIN5dwarf11die_str_map4implELN9__gnu_cxx12_Lock_policyE1EEC2ISaIvEJRKNS0_3dieERNS0_5DW_ATERKSt16initializer_listINS0_6DW_TAGEEEEESt20_Sp_alloc_shared_tagIT_EDpOT0_ PROGBITS        0000000000000000 003644 0000e4 00 AXG  0   0  4
  [522] .rela.text._ZNSt12__shared_ptrIN5dwarf11die_str_map4implELN9__gnu_cxx12_Lock_policyE1EEC2ISaIvEJRKNS0_3dieERNS0_5DW_ATERKSt16initializer_listINS0_6DW_TAGEEEEESt20_Sp_alloc_shared_tagIT_EDpOT0_ RELA            0000000000000000 032be8 000168 18  IG 981 521  8
  [523] .text._ZNKSt12__shared_ptrIN5dwarf11die_str_map4implELN9__gnu_cxx12_Lock_policyE1EE3getEv PROGBITS        0000000000000000 003728 000028 00 AXG  0   0  4
  [524] .text._ZNKSt10_HashtableIPKcSt4pairIKS1_N5dwarf3dieEESaIS6_ENSt8__detail10_Select1stENS4_9string_eqENS4_11string_hashENS8_18_Mod_range_hashingENS8_20_Default_ranged_hashENS8_20_Prime_rehash_policyENS8_17_Hashtable_traitsILb1ELb0ELb1EEEE4sizeEv PROGBITS        0000000000000000 003750 000028 00 AXG  0   0  4
  [525] .text._ZNSt10_HashtableIPKcSt4pairIKS1_N5dwarf3dieEESaIS6_ENSt8__detail10_Select1stENS4_9string_eqENS4_11string_hashENS8_18_Mod_range_hashingENS8_20_Default_ranged_hashENS8_20_Prime_rehash_policyENS8_17_Hashtable_traitsILb1ELb0ELb1EEEE22__small_size_thresholdEv PROGBITS        0000000000000000 003778 000034 00 AXG  0   0  4
  [526] .rela.text._ZNSt10_HashtableIPKcSt4pairIKS1_N5dwarf3dieEESaIS6_ENSt8__detail10_Select1stENS4_9string_eqENS4_11string_hashENS8_18_Mod_range_hashingENS8_20_Default_ranged_hashENS8_20_Prime_rehash_policyENS8_17_Hashtable_traitsILb1ELb0ELb1EEEE22__small_size_thresholdEv RELA            0000000000000000 032d50 000048 18  IG 981 525  8
  [527] .text._ZNSt10_HashtableIPKcSt4pairIKS1_N5dwarf3dieEESaIS6_ENSt8__detail10_Select1stENS4_9string_eqENS4_11string_hashENS8_18_Mod_range_hashingENS8_20_Default_ranged_hashENS8_20_Prime_rehash_policyENS8_17_Hashtable_traitsILb1ELb0ELb1EEEE5beginEv PROGBITS        0000000000000000 0037ac 000058 00 AXG  0   0  4
  [528] .rela.text._ZNSt10_HashtableIPKcSt4pairIKS1_N5dwarf3dieEESaIS6_ENSt8__detail10_Select1stENS4_9string_eqENS4_11string_hashENS8_18_Mod_range_hashingENS8_20_Default_ranged_hashENS8_20_Prime_rehash_policyENS8_17_Hashtable_traitsILb1ELb0ELb1EEEE5beginEv RELA            0000000000000000 032d98 000090 18  IG 981 527  8
  [529] .text._ZNSt8__detail14_Node_iteratorISt4pairIKPKcN5dwarf3dieEELb0ELb1EEppEv PROGBITS        0000000000000000 003804 000040 00 AXG  0   0  4
  [530] .rela.text._ZNSt8__detail14_Node_iteratorISt4pairIKPKcN5dwarf3dieEELb0ELb1EEppEv RELA            0000000000000000 032e28 000048 18  IG 981 529  8
  [531] .text._ZNKSt8__detail15_Hashtable_baseIPKcSt4pairIKS2_N5dwarf3dieEENS_10_Select1stENS5_9string_eqENS5_11string_hashENS_18_Mod_range_hashingENS_20_Default_ranged_hashENS_17_Hashtable_traitsILb1ELb0ELb1EEEE13_M_key_equalsERS4_RKNS_16_Hash_node_valueIS7_Lb1EEE PROGBITS        0000000000000000 003844 0000b0 00 AXG  0   0  4
  [532] .rela.text._ZNKSt8__detail15_Hashtable_baseIPKcSt4pairIKS2_N5dwarf3dieEENS_10_Select1stENS5_9string_eqENS5_11string_hashENS_18_Mod_range_hashingENS_20_Default_ranged_hashENS_17_Hashtable_traitsILb1ELb0ELb1EEEE13_M_key_equalsERS4_RKNS_16_Hash_node_valueIS7_Lb1EEE RELA            0000000000000000 032e70 000120 18  IG 981 531  8
  [533] .text._ZNKSt8__detail15_Hash_code_baseIPKcSt4pairIKS2_N5dwarf3dieEENS_10_Select1stENS5_11string_hashENS_18_Mod_range_hashingENS_20_Default_ranged_hashELb1EE12_M_hash_codeERS4_ PROGBITS        0000000000000000 0038f4 000060 00 AXG  0   0  4
  [534] .rela.text._ZNKSt8__detail15_Hash_code_baseIPKcSt4pairIKS2_N5dwarf3dieEENS_10_Select1stENS5_11string_hashENS_18_Mod_range_hashingENS_20_Default_ranged_hashELb1EE12_M_hash_codeERS4_ RELA            0000000000000000 032f90 000090 18  IG 981 533  8
  [535] .text._ZNKSt10_HashtableIPKcSt4pairIKS1_N5dwarf3dieEESaIS6_ENSt8__detail10_Select1stENS4_9string_eqENS4_11string_hashENS8_18_Mod_range_hashingENS8_20_Default_ranged_hashENS8_20_Prime_rehash_policyENS8_17_Hashtable_traitsILb1ELb0ELb1EEEE15_M_bucket_indexEm PROGBITS        0000000000000000 003954 000050 00 AXG  0   0  4
  [536] .rela.text._ZNKSt10_HashtableIPKcSt4pairIKS1_N5dwarf3dieEESaIS6_ENSt8__detail10_Select1stENS4_9string_eqENS4_11string_hashENS8_18_Mod_range_hashingENS8_20_Default_ranged_hashENS8_20_Prime_rehash_policyENS8_17_Hashtable_traitsILb1ELb0ELb1EEEE15_M_bucket_indexEm RELA            0000000000000000 033020 000048 18  IG 981 535  8
  [537] .text._ZNKSt10_HashtableIPKcSt4pairIKS1_N5dwarf3dieEESaIS6_ENSt8__detail10_Select1stENS4_9string_eqENS4_11string_hashENS8_18_Mod_range_hashingENS8_20_Default_ranged_hashENS8_20_Prime_rehash_policyENS8_17_Hashtable_traitsILb1ELb0ELb1EEEE12_M_find_nodeEmRS3_m PROGBITS        0000000000000000 0039a4 000070 00 AXG  0   0  4
  [538] .rela.text._ZNKSt10_HashtableIPKcSt4pairIKS1_N5dwarf3dieEESaIS6_ENSt8__detail10_Select1stENS4_9string_eqENS4_11string_hashENS8_18_Mod_range_hashingENS8_20_Default_ranged_hashENS8_20_Prime_rehash_policyENS8_17_Hashtable_traitsILb1ELb0ELb1EEEE12_M_find_nodeEmRS3_m RELA            0000000000000000 033068 000078 18  IG 981 537  8
  [539] .text._ZNSt8__detail14_Node_iteratorISt4pairIKPKcN5dwarf3dieEELb0ELb1EEC2EPNS_10_Hash_nodeIS7_Lb1EEE PROGBITS        0000000000000000 003a14 000044 00 AXG  0   0  4
  [540] .rela.text._ZNSt8__detail14_Node_iteratorISt4pairIKPKcN5dwarf3dieEELb0ELb1EEC2EPNS_10_Hash_nodeIS7_Lb1EEE RELA            0000000000000000 0330e0 000048 18  IG 981 539  8
  [541] .text._ZN9__gnu_cxx16__aligned_bufferISt4pairIKPKcN5dwarf3dieEEE6_M_ptrEv PROGBITS        0000000000000000 003a58 00003c 00 AXG  0   0  4
  [542] .rela.text._ZN9__gnu_cxx16__aligned_bufferISt4pairIKPKcN5dwarf3dieEEE6_M_ptrEv RELA            0000000000000000 033128 000048 18  IG 981 541  8
  [543] .text._ZNKSt10_HashtableIN5dwarf6DW_TAGES1_SaIS1_ENSt8__detail9_IdentityESt8equal_toIS1_ESt4hashIS1_ENS3_18_Mod_range_hashingENS3_20_Default_ranged_hashENS3_20_Prime_rehash_policyENS3_17_Hashtable_traitsILb1ELb1ELb1EEEE4findERKS1_ PROGBITS        0000000000000000 003a94 000190 00 AXG  0   0  4
  [544] .rela.text._ZNKSt10_HashtableIN5dwarf6DW_TAGES1_SaIS1_ENSt8__detail9_IdentityESt8equal_toIS1_ESt4hashIS1_ENS3_18_Mod_range_hashingENS3_20_Default_ranged_hashENS3_20_Prime_rehash_policyENS3_17_Hashtable_traitsILb1ELb1ELb1EEEE4findERKS1_ RELA            0000000000000000 033170 0003f0 18  IG 981 543  8
  [545] .text._ZNSt8__detail20_Node_const_iteratorIN5dwarf6DW_TAGELb1ELb1EEppEv PROGBITS        0000000000000000 003c24 000040 00 AXG  0   0  4
  [546] .rela.text._ZNSt8__detail20_Node_const_iteratorIN5dwarf6DW_TAGELb1ELb1EEppEv RELA            0000000000000000 033560 000048 18  IG 981 545  8
  [547] .text._ZNSt8__detail21_Hash_node_value_baseISt4pairIKPKcN5dwarf3dieEEE4_M_vEv PROGBITS        0000000000000000 003c64 00003c 00 AXG  0   0  4
  [548] .rela.text._ZNSt8__detail21_Hash_node_value_baseISt4pairIKPKcN5dwarf3dieEEE4_M_vEv RELA            0000000000000000 0335a8 000048 18  IG 981 547  8
  [549] .text._ZNSt5tupleIJRKPKcEEC2ILb1ELb1EEES3_ PROGBITS        0000000000000000 003ca0 000044 00 AXG  0   0  4
  [550] .rela.text._ZNSt5tupleIJRKPKcEEC2ILb1ELb1EEES3_ RELA            0000000000000000 0335f0 000048 18  IG 981 549  8
  [551] .gcc_except_table._ZNSt5tupleIJRKPKcEEC2ILb1ELb1EEES3_ PROGBITS        0000000000000000 003ce4 000004 00  AG  0   0  1
  [552] .text._ZNSt10_HashtableIPKcSt4pairIKS1_N5dwarf3dieEESaIS6_ENSt8__detail10_Select1stENS4_9string_eqENS4_11string_hashENS8_18_Mod_range_hashingENS8_20_Default_ranged_hashENS8_20_Prime_rehash_policyENS8_17_Hashtable_traitsILb1ELb0ELb1EEEE12_Scoped_nodeC2IJRKSt21piecewise_construct_tSt5tupleIJRS3_EESN_IJEEEEEPNS8_16_Hashtable_allocISaINS8_10_Hash_nodeIS6_Lb1EEEEEEDpOT_ PROGBITS        0000000000000000 003ce8 0000c4 00 AXG  0   0  4
  [553] .rela.text._ZNSt10_HashtableIPKcSt4pairIKS1_N5dwarf3dieEESaIS6_ENSt8__detail10_Select1stENS4_9string_eqENS4_11string_hashENS8_18_Mod_range_hashingENS8_20_Default_ranged_hashENS8_20_Prime_rehash_policyENS8_17_Hashtable_traitsILb1ELb0ELb1EEEE12_Scoped_nodeC2IJRKSt21piecewise_construct_tSt5tupleIJRS3_EESN_IJEEEEEPNS8_16_Hashtable_allocISaINS8_10_Hash_nodeIS6_Lb1EEEEEEDpOT_ RELA            0000000000000000 033638 000120 18  IG 981 552  8
  [554] .text._ZNSt10_HashtableIPKcSt4pairIKS1_N5dwarf3dieEESaIS6_ENSt8__detail10_Select1stENS4_9string_eqENS4_11string_hashENS8_18_Mod_range_hashingENS8_20_Default_ranged_hashENS8_20_Prime_rehash_policyENS8_17_Hashtable_traitsILb1ELb0ELb1EEEE12_Scoped_nodeD2Ev PROGBITS        0000000000000000 003dac 000058 00 AXG  0   0  4
  [555] .rela.text._ZNSt10_HashtableIPKcSt4pairIKS1_N5dwarf3dieEESaIS6_ENSt8__detail10_Select1stENS4_9string_eqENS4_11string_hashENS8_18_Mod_range_hashingENS8_20_Default_ranged_hashENS8_20_Prime_rehash_policyENS8_17_Hashtable_traitsILb1ELb0ELb1EEEE12_Scoped_nodeD2Ev RELA            0000000000000000 033758 000060 18  IG 981 554  8
  [556] .gcc_except_table._ZNSt10_HashtableIPKcSt4pairIKS1_N5dwarf3dieEESaIS6_ENSt8__detail10_Select1stENS4_9string_eqENS4_11string_hashENS8_18_Mod_range_hashingENS8_20_Default_ranged_hashENS8_20_Prime_rehash_policyENS8_17_Hashtable_traitsILb1ELb0ELb1EEEE12_Scoped_nodeD2Ev PROGBITS        0000000000000000 003e04 000004 00  AG  0   0  1
  [557] .text._ZNSt10_HashtableIPKcSt4pairIKS1_N5dwarf3dieEESaIS6_ENSt8__detail10_Select1stENS4_9string_eqENS4_11string_hashENS8_18_Mod_range_hashingENS8_20_Default_ranged_hashENS8_20_Prime_rehash_policyENS8_17_Hashtable_traitsILb1ELb0ELb1EEEE21_M_insert_unique_nodeEmmPNS8_10_Hash_nodeIS6_Lb1EEEm PROGBITS        0000000000000000 003e08 000144 00 AXG  0   0  4
  [558] .rela.text._ZNSt10_HashtableIPKcSt4pairIKS1_N5dwarf3dieEESaIS6_ENSt8__detail10_Select1stENS4_9string_eqENS4_11string_hashENS8_18_Mod_range_hashingENS8_20_Default_ranged_hashENS8_20_Prime_rehash_policyENS8_17_Hashtable_traitsILb1ELb0ELb1EEEE21_M_insert_unique_nodeEmmPNS8_10_Hash_nodeIS6_Lb1EEEm RELA            0000000000000000 0337b8 0001f8 18  IG 981 557  8
  [559] .text._ZNKSt8__detail10_Hash_nodeISt4pairIKPKcN5dwarf3dieEELb1EE7_M_nextEv PROGBITS        0000000000000000 003f4c 000028 00 AXG  0   0  4
  [560] .text._ZNSt8__detail16_Hashtable_allocISaINS_10_Hash_nodeISt4pairIKPKcN5dwarf3dieEELb1EEEEE18_M_deallocate_nodeEPS9_ PROGBITS        0000000000000000 003f74 00008c 00 AXG  0   0  4
  [561] .rela.text._ZNSt8__detail16_Hashtable_allocISaINS_10_Hash_nodeISt4pairIKPKcN5dwarf3dieEELb1EEEEE18_M_deallocate_nodeEPS9_ RELA            0000000000000000 0339b0 000120 18  IG 981 560  8
  [562] .text._ZNKSt10_HashtableIPKcSt4pairIKS1_N5dwarf3dieEESaIS6_ENSt8__detail10_Select1stENS4_9string_eqENS4_11string_hashENS8_18_Mod_range_hashingENS8_20_Default_ranged_hashENS8_20_Prime_rehash_policyENS8_17_Hashtable_traitsILb1ELb0ELb1EEEE21_M_uses_single_bucketEPPNS8_15_Hash_node_baseE PROGBITS        0000000000000000 004000 000044 00 AXG  0   0  4
  [563] .text._ZNSt8__detail16_Hashtable_allocISaINS_10_Hash_nodeISt4pairIKPKcN5dwarf3dieEELb1EEEEE21_M_deallocate_bucketsEPPNS_15_Hash_node_baseEm PROGBITS        0000000000000000 004044 0000d0 00 AXG  0   0  4
  [564] .rela.text._ZNSt8__detail16_Hashtable_allocISaINS_10_Hash_nodeISt4pairIKPKcN5dwarf3dieEELb1EEEEE21_M_deallocate_bucketsEPPNS_15_Hash_node_baseEm RELA            0000000000000000 033ad0 0001f8 18  IG 981 563  8
  [565] .gcc_except_table._ZNSt8__detail16_Hashtable_allocISaINS_10_Hash_nodeISt4pairIKPKcN5dwarf3dieEELb1EEEEE21_M_deallocate_bucketsEPPNS_15_Hash_node_baseEm PROGBITS        0000000000000000 004114 00002b 00  AG  0   0  1
  [566] .rela.gcc_except_table._ZNSt8__detail16_Hashtable_allocISaINS_10_Hash_nodeISt4pairIKPKcN5dwarf3dieEELb1EEEEE21_M_deallocate_bucketsEPPNS_15_Hash_node_baseEm RELA            0000000000000000 033cc8 000150 18  IG 981 565  8
  [567] .text._ZNSt10_HashtableIN5dwarf6DW_TAGES1_SaIS1_ENSt8__detail9_IdentityESt8equal_toIS1_ESt4hashIS1_ENS3_18_Mod_range_hashingENS3_20_Default_ranged_hashENS3_20_Prime_rehash_policyENS3_17_Hashtable_traitsILb1ELb1ELb1EEEEC2EmRKS8_RKS6_RKS2_ PROGBITS        0000000000000000 004140 0000e0 00 AXG  0   0  4
  [568] .rela.text._ZNSt10_HashtableIN5dwarf6DW_TAGES1_SaIS1_ENSt8__detail9_IdentityESt8equal_toIS1_ESt4hashIS1_ENS3_18_Mod_range_hashingENS3_20_Default_ranged_hashENS3_20_Prime_rehash_policyENS3_17_Hashtable_traitsILb1ELb1ELb1EEEEC2EmRKS8_RKS6_RKS2_ RELA            0000000000000000 033e18 000168 18  IG 981 567  8
  [569] .gcc_except_table._ZNSt10_HashtableIN5dwarf6DW_TAGES1_SaIS1_ENSt8__detail9_IdentityESt8equal_toIS1_ESt4hashIS1_ENS3_18_Mod_range_hashingENS3_20_Default_ranged_hashENS3_20_Prime_rehash_policyENS3_17_Hashtable_traitsILb1ELb1ELb1EEEEC2EmRKS8_RKS6_RKS2_ PROGBITS        0000000000000000 004220 00002b 00  AG  0   0  1
  [570] .rela.gcc_except_table._ZNSt10_HashtableIN5dwarf6DW_TAGES1_SaIS1_ENSt8__detail9_IdentityESt8equal_toIS1_ESt4hashIS1_ENS3_18_Mod_range_hashingENS3_20_Default_ranged_hashENS3_20_Prime_rehash_policyENS3_17_Hashtable_traitsILb1ELb1ELb1EEEEC2EmRKS8_RKS6_RKS2_ RELA            0000000000000000 033f80 000150 18  IG 981 569  8
  [571] .text._ZNSt8__detail12_Insert_baseIN5dwarf6DW_TAGES2_SaIS2_ENS_9_IdentityESt8equal_toIS2_ESt4hashIS2_ENS_18_Mod_range_hashingENS_20_Default_ranged_hashENS_20_Prime_rehash_policyENS_17_Hashtable_traitsILb1ELb1ELb1EEEE6insertERKS2_ PROGBITS        0000000000000000 00424c 0000bc 00 AXG  0   0  4
  [572] .rela.text._ZNSt8__detail12_Insert_baseIN5dwarf6DW_TAGES2_SaIS2_ENS_9_IdentityESt8equal_toIS2_ESt4hashIS2_ENS_18_Mod_range_hashingENS_20_Default_ranged_hashENS_20_Prime_rehash_policyENS_17_Hashtable_traitsILb1ELb1ELb1EEEE6insertERKS2_ RELA            0000000000000000 0340d0 0000d8 18  IG 981 571  8
  [573] .text._ZNKSt8__detail10_Hash_nodeIN5dwarf6DW_TAGELb1EE7_M_nextEv PROGBITS        0000000000000000 004308 000028 00 AXG  0   0  4
  [574] .text._ZNSt8__detail16_Hashtable_allocISaINS_10_Hash_nodeIN5dwarf6DW_TAGELb1EEEEE18_M_deallocate_nodeEPS4_ PROGBITS        0000000000000000 004330 00008c 00 AXG  0   0  4
  [575] .rela.text._ZNSt8__detail16_Hashtable_allocISaINS_10_Hash_nodeIN5dwarf6DW_TAGELb1EEEEE18_M_deallocate_nodeEPS4_ RELA            0000000000000000 0341a8 000120 18  IG 981 574  8
  [576] .text._ZNKSt10_HashtableIN5dwarf6DW_TAGES1_SaIS1_ENSt8__detail9_IdentityESt8equal_toIS1_ESt4hashIS1_ENS3_18_Mod_range_hashingENS3_20_Default_ranged_hashENS3_20_Prime_rehash_policyENS3_17_Hashtable_traitsILb1ELb1ELb1EEEE21_M_uses_single_bucketEPPNS3_15_Hash_node_baseE PROGBITS        0000000000000000 0043bc 000044 00 AXG  0   0  4
  [577] .text._ZNSt8__detail16_Hashtable_allocISaINS_10_Hash_nodeIN5dwarf6DW_TAGELb1EEEEE21_M_deallocate_bucketsEPPNS_15_Hash_node_baseEm PROGBITS        0000000000000000 004400 0000d0 00 AXG  0   0  4
  [578] .rela.text._ZNSt8__detail16_Hashtable_allocISaINS_10_Hash_nodeIN5dwarf6DW_TAGELb1EEEEE21_M_deallocate_bucketsEPPNS_15_Hash_node_baseEm RELA            0000000000000000 0342c8 0001f8 18  IG 981 577  8
  [579] .gcc_except_table._ZNSt8__detail16_Hashtable_allocISaINS_10_Hash_nodeIN5dwarf6DW_TAGELb1EEEEE21_M_deallocate_bucketsEPPNS_15_Hash_node_baseEm PROGBITS        0000000000000000 0044d0 00002b 00  AG  0   0  1
  [580] .rela.gcc_except_table._ZNSt8__detail16_Hashtable_allocISaINS_10_Hash_nodeIN5dwarf6DW_TAGELb1EEEEE21_M_deallocate_bucketsEPPNS_15_Hash_node_baseEm RELA            0000000000000000 0344c0 000150 18  IG 981 579  8
  [581] .text._ZNSt14__shared_countILN9__gnu_cxx12_Lock_policyE1EEC2IN5dwarf11die_str_map4implESaIvEJRKNS4_3dieERNS4_5DW_ATERKSt16initializer_listINS4_6DW_TAGEEEEERPT_St20_Sp_alloc_shared_tagIT0_EDpOT1_ PROGBITS        0000000000000000 0044fc 000204 00 AXG  0   0  4
  [582] .rela.text._ZNSt14__shared_countILN9__gnu_cxx12_Lock_policyE1EEC2IN5dwarf11die_str_map4implESaIvEJRKNS4_3dieERNS4_5DW_ATERKSt16initializer_listINS4_6DW_TAGEEEEERPT_St20_Sp_alloc_shared_tagIT0_EDpOT1_ RELA            0000000000000000 034610 0004b0 18  IG 981 581  8
  [583] .gcc_except_table._ZNSt14__shared_countILN9__gnu_cxx12_Lock_policyE1EEC2IN5dwarf11die_str_map4implESaIvEJRKNS4_3dieERNS4_5DW_ATERKSt16initializer_listINS4_6DW_TAGEEEEERPT_St20_Sp_alloc_shared_tagIT0_EDpOT1_ PROGBITS        0000000000000000 004700 00002b 00  AG  0   0  1
  [584] .rela.gcc_except_table._ZNSt14__shared_countILN9__gnu_cxx12_Lock_policyE1EEC2IN5dwarf11die_str_map4implESaIvEJRKNS4_3dieERNS4_5DW_ATERKSt16initializer_listINS4_6DW_TAGEEEEERPT_St20_Sp_alloc_shared_tagIT0_EDpOT1_ RELA            0000000000000000 034ac0 000180 18  IG 981 583  8
  [585] .text._ZNSt12__shared_ptrIN5dwarf11die_str_map4implELN9__gnu_cxx12_Lock_policyE1EE31_M_enable_shared_from_this_withIS2_S2_EENSt9enable_ifIXntsrNS5_15__has_esft_baseIT0_vEE5valueEvE4typeEPT_ PROGBITS        0000000000000000 00472c 000024 00 AXG  0   0  4
  [586] .text._ZNSt8__detail22_Hashtable_hash_traitsIN5dwarf11string_hashEE22__small_size_thresholdEv PROGBITS        0000000000000000 004750 000020 00 AXG  0   0  4
  [587] .text._ZNSt8__detail19_Node_iterator_baseISt4pairIKPKcN5dwarf3dieEELb1EE7_M_incrEv PROGBITS        0000000000000000 004770 00004c 00 AXG  0   0  4
  [588] .rela.text._ZNSt8__detail19_Node_iterator_baseISt4pairIKPKcN5dwarf3dieEELb1EE7_M_incrEv RELA            0000000000000000 034c40 000048 18  IG 981 587  8
  [589] .text._ZNKSt8__detail15_Hashtable_baseIPKcSt4pairIKS2_N5dwarf3dieEENS_10_Select1stENS5_9string_eqENS5_11string_hashENS_18_Mod_range_hashingENS_20_Default_ranged_hashENS_17_Hashtable_traitsILb1ELb0ELb1EEEE5_M_eqEv PROGBITS        0000000000000000 0047bc 00003c 00 AXG  0   0  4
  [590] .rela.text._ZNKSt8__detail15_Hashtable_baseIPKcSt4pairIKS2_N5dwarf3dieEENS_10_Select1stENS5_9string_eqENS5_11string_hashENS_18_Mod_range_hashingENS_20_Default_ranged_hashENS_17_Hashtable_traitsILb1ELb0ELb1EEEE5_M_eqEv RELA            0000000000000000 034c88 000048 18  IG 981 589  8
  [591] .text._ZNKSt8__detail21_Hash_node_value_baseISt4pairIKPKcN5dwarf3dieEEE4_M_vEv PROGBITS        0000000000000000 0047f8 00003c 00 AXG  0   0  4
  [592] .rela.text._ZNKSt8__detail21_Hash_node_value_baseISt4pairIKPKcN5dwarf3dieEEE4_M_vEv RELA            0000000000000000 034cd0 000048 18  IG 981 591  8
  [593] .text._ZNKSt8__detail10_Select1stclIRKSt4pairIKPKcN5dwarf3dieEEEEONS0_10__1st_typeIT_E4typeEOSC_ PROGBITS        0000000000000000 004834 000040 00 AXG  0   0  4
  [594] .rela.text._ZNKSt8__detail10_Select1stclIRKSt4pairIKPKcN5dwarf3dieEEEEONS0_10__1st_typeIT_E4typeEOSC_ RELA            0000000000000000 034d18 000048 18  IG 981 593  8
  [595] .text._ZNKSt8__detail15_Hash_code_baseIPKcSt4pairIKS2_N5dwarf3dieEENS_10_Select1stENS5_11string_hashENS_18_Mod_range_hashingENS_20_Default_ranged_hashELb1EE7_M_hashEv PROGBITS        0000000000000000 004874 00003c 00 AXG  0   0  4
  [596] .rela.text._ZNKSt8__detail15_Hash_code_baseIPKcSt4pairIKS2_N5dwarf3dieEENS_10_Select1stENS5_11string_hashENS_18_Mod_range_hashingENS_20_Default_ranged_hashELb1EE7_M_hashEv RELA            0000000000000000 034d60 000048 18  IG 981 595  8
  [597] .text._ZNKSt8__detail15_Hash_code_baseIPKcSt4pairIKS2_N5dwarf3dieEENS_10_Select1stENS5_11string_hashENS_18_Mod_range_hashingENS_20_Default_ranged_hashELb1EE15_M_bucket_indexEmm PROGBITS        0000000000000000 0048b0 000050 00 AXG  0   0  4
  [598] .rela.text._ZNKSt8__detail15_Hash_code_baseIPKcSt4pairIKS2_N5dwarf3dieEENS_10_Select1stENS5_11string_hashENS_18_Mod_range_hashingENS_20_Default_ranged_hashELb1EE15_M_bucket_indexEmm RELA            0000000000000000 034da8 000048 18  IG 981 597  8
  [599] .text._ZNKSt10_HashtableIPKcSt4pairIKS1_N5dwarf3dieEESaIS6_ENSt8__detail10_Select1stENS4_9string_eqENS4_11string_hashENS8_18_Mod_range_hashingENS8_20_Default_ranged_hashENS8_20_Prime_rehash_policyENS8_17_Hashtable_traitsILb1ELb0ELb1EEEE19_M_find_before_nodeEmRS3_m PROGBITS        0000000000000000 004900 00011c 00 AXG  0   0  4
  [600] .rela.text._ZNKSt10_HashtableIPKcSt4pairIKS1_N5dwarf3dieEESaIS6_ENSt8__detail10_Select1stENS4_9string_eqENS4_11string_hashENS8_18_Mod_range_hashingENS8_20_Default_ranged_hashENS8_20_Prime_rehash_policyENS8_17_Hashtable_traitsILb1ELb0ELb1EEEE19_M_find_before_nodeEmRS3_m RELA            0000000000000000 034df0 0001f8 18  IG 981 599  8
  [601] .text._ZNSt8__detail19_Node_iterator_baseISt4pairIKPKcN5dwarf3dieEELb1EEC2EPNS_10_Hash_nodeIS7_Lb1EEE PROGBITS        0000000000000000 004a1c 000030 00 AXG  0   0  4
  [602] .text._ZN9__gnu_cxx16__aligned_bufferISt4pairIKPKcN5dwarf3dieEEE7_M_addrEv PROGBITS        0000000000000000 004a4c 000024 00 AXG  0   0  4
  [603] .text._ZNKSt10_HashtableIN5dwarf6DW_TAGES1_SaIS1_ENSt8__detail9_IdentityESt8equal_toIS1_ESt4hashIS1_ENS3_18_Mod_range_hashingENS3_20_Default_ranged_hashENS3_20_Prime_rehash_policyENS3_17_Hashtable_traitsILb1ELb1ELb1EEEE4sizeEv PROGBITS        0000000000000000 004a70 000028 00 AXG  0   0  4
  [604] .text._ZNSt10_HashtableIN5dwarf6DW_TAGES1_SaIS1_ENSt8__detail9_IdentityESt8equal_toIS1_ESt4hashIS1_ENS3_18_Mod_range_hashingENS3_20_Default_ranged_hashENS3_20_Prime_rehash_policyENS3_17_Hashtable_traitsILb1ELb1ELb1EEEE22__small_size_thresholdEv PROGBITS        0000000000000000 004a98 000034 00 AXG  0   0  4
  [605] .rela.text._ZNSt10_HashtableIN5dwarf6DW_TAGES1_SaIS1_ENSt8__detail9_IdentityESt8equal_toIS1_ESt4hashIS1_ENS3_18_Mod_range_hashingENS3_20_Default_ranged_hashENS3_20_Prime_rehash_policyENS3_17_Hashtable_traitsILb1ELb1ELb1EEEE22__small_size_thresholdEv RELA            0000000000000000 034fe8 000048 18  IG 981 604  8
  [606] .text._ZNKSt10_HashtableIN5dwarf6DW_TAGES1_SaIS1_ENSt8__detail9_IdentityESt8equal_toIS1_ESt4hashIS1_ENS3_18_Mod_range_hashingENS3_20_Default_ranged_hashENS3_20_Prime_rehash_policyENS3_17_Hashtable_traitsILb1ELb1ELb1EEEE5beginEv PROGBITS        0000000000000000 004acc 000058 00 AXG  0   0  4
  [607] .rela.text._ZNKSt10_HashtableIN5dwarf6DW_TAGES1_SaIS1_ENSt8__detail9_IdentityESt8equal_toIS1_ESt4hashIS1_ENS3_18_Mod_range_hashingENS3_20_Default_ranged_hashENS3_20_Prime_rehash_policyENS3_17_Hashtable_traitsILb1ELb1ELb1EEEE5beginEv RELA            0000000000000000 035030 000090 18  IG 981 606  8
  [608] .text._ZNKSt10_HashtableIN5dwarf6DW_TAGES1_SaIS1_ENSt8__detail9_IdentityESt8equal_toIS1_ESt4hashIS1_ENS3_18_Mod_range_hashingENS3_20_Default_ranged_hashENS3_20_Prime_rehash_policyENS3_17_Hashtable_traitsILb1ELb1ELb1EEEE3endEv PROGBITS        0000000000000000 004b24 000044 00 AXG  0   0  4
  [609] .rela.text._ZNKSt10_HashtableIN5dwarf6DW_TAGES1_SaIS1_ENSt8__detail9_IdentityESt8equal_toIS1_ESt4hashIS1_ENS3_18_Mod_range_hashingENS3_20_Default_ranged_hashENS3_20_Prime_rehash_policyENS3_17_Hashtable_traitsILb1ELb1ELb1EEEE3endEv RELA            0000000000000000 0350c0 000048 18  IG 981 608  8
  [610] .text._ZNSt8__detailneERKNS_19_Node_iterator_baseIN5dwarf6DW_TAGELb1EEES5_ PROGBITS        0000000000000000 004b68 000040 00 AXG  0   0  4
  [611] .text._ZNKSt8__detail15_Hashtable_baseIN5dwarf6DW_TAGES2_NS_9_IdentityESt8equal_toIS2_ESt4hashIS2_ENS_18_Mod_range_hashingENS_20_Default_ranged_hashENS_17_Hashtable_traitsILb1ELb1ELb1EEEE13_M_key_equalsERKS2_RKNS_16_Hash_node_valueIS2_Lb1EEE PROGBITS        0000000000000000 004ba8 00009c 00 AXG  0   0  4
  [612] .rela.text._ZNKSt8__detail15_Hashtable_baseIN5dwarf6DW_TAGES2_NS_9_IdentityESt8equal_toIS2_ESt4hashIS2_ENS_18_Mod_range_hashingENS_20_Default_ranged_hashENS_17_Hashtable_traitsILb1ELb1ELb1EEEE13_M_key_equalsERKS2_RKNS_16_Hash_node_valueIS2_Lb1EEE RELA            0000000000000000 035108 000120 18  IG 981 611  8
  [613] .text._ZNKSt8__detail15_Hash_code_baseIN5dwarf6DW_TAGES2_NS_9_IdentityESt4hashIS2_ENS_18_Mod_range_hashingENS_20_Default_ranged_hashELb1EE12_M_hash_codeERKS2_ PROGBITS        0000000000000000 004c44 000060 00 AXG  0   0  4
  [614] .rela.text._ZNKSt8__detail15_Hash_code_baseIN5dwarf6DW_TAGES2_NS_9_IdentityESt4hashIS2_ENS_18_Mod_range_hashingENS_20_Default_ranged_hashELb1EE12_M_hash_codeERKS2_ RELA            0000000000000000 035228 000090 18  IG 981 613  8
  [615] .text._ZNKSt10_HashtableIN5dwarf6DW_TAGES1_SaIS1_ENSt8__detail9_IdentityESt8equal_toIS1_ESt4hashIS1_ENS3_18_Mod_range_hashingENS3_20_Default_ranged_hashENS3_20_Prime_rehash_policyENS3_17_Hashtable_traitsILb1ELb1ELb1EEEE15_M_bucket_indexEm PROGBITS        0000000000000000 004ca4 000050 00 AXG  0   0  4
  [616] .rela.text._ZNKSt10_HashtableIN5dwarf6DW_TAGES1_SaIS1_ENSt8__detail9_IdentityESt8equal_toIS1_ESt4hashIS1_ENS3_18_Mod_range_hashingENS3_20_Default_ranged_hashENS3_20_Prime_rehash_policyENS3_17_Hashtable_traitsILb1ELb1ELb1EEEE15_M_bucket_indexEm RELA            0000000000000000 0352b8 000048 18  IG 981 615  8
  [617] .text._ZNKSt10_HashtableIN5dwarf6DW_TAGES1_SaIS1_ENSt8__detail9_IdentityESt8equal_toIS1_ESt4hashIS1_ENS3_18_Mod_range_hashingENS3_20_Default_ranged_hashENS3_20_Prime_rehash_policyENS3_17_Hashtable_traitsILb1ELb1ELb1EEEE12_M_find_nodeEmRKS1_m PROGBITS        0000000000000000 004cf4 000070 00 AXG  0   0  4
  [618] .rela.text._ZNKSt10_HashtableIN5dwarf6DW_TAGES1_SaIS1_ENSt8__detail9_IdentityESt8equal_toIS1_ESt4hashIS1_ENS3_18_Mod_range_hashingENS3_20_Default_ranged_hashENS3_20_Prime_rehash_policyENS3_17_Hashtable_traitsILb1ELb1ELb1EEEE12_M_find_nodeEmRKS1_m RELA            0000000000000000 035300 000078 18  IG 981 617  8
  [619] .text._ZNSt8__detail20_Node_const_iteratorIN5dwarf6DW_TAGELb1ELb1EEC2EPNS_10_Hash_nodeIS2_Lb1EEE PROGBITS        0000000000000000 004d64 000044 00 AXG  0   0  4
  [620] .rela.text._ZNSt8__detail20_Node_const_iteratorIN5dwarf6DW_TAGELb1ELb1EEC2EPNS_10_Hash_nodeIS2_Lb1EEE RELA            0000000000000000 035378 000048 18  IG 981 619  8
  [621] .text._ZNSt8__detail19_Node_iterator_baseIN5dwarf6DW_TAGELb1EE7_M_incrEv PROGBITS        0000000000000000 004da8 00004c 00 AXG  0   0  4
  [622] .rela.text._ZNSt8__detail19_Node_iterator_baseIN5dwarf6DW_TAGELb1EE7_M_incrEv RELA            0000000000000000 0353c0 000048 18  IG 981 621  8
  [623] .text._ZNKSt8__detail21_Hash_node_value_baseIN5dwarf6DW_TAGEE4_M_vEv PROGBITS        0000000000000000 004df4 00003c 00 AXG  0   0  4
  [624] .rela.text._ZNKSt8__detail21_Hash_node_value_baseIN5dwarf6DW_TAGEE4_M_vEv RELA            0000000000000000 035408 000048 18  IG 981 623  8
  [625] .text._ZNKSt8__detail9_IdentityclIRKN5dwarf6DW_TAGEEEOT_S7_ PROGBITS        0000000000000000 004e30 000040 00 AXG  0   0  4
  [626] .rela.text._ZNKSt8__detail9_IdentityclIRKN5dwarf6DW_TAGEEEOT_S7_ RELA            0000000000000000 035450 000048 18  IG 981 625  8
  [627] .text._ZNSt11_Tuple_implILm0EJRKPKcEEC2ES3_ PROGBITS        0000000000000000 004e70 000044 00 AXG  0   0  4
  [628] .rela.text._ZNSt11_Tuple_implILm0EJRKPKcEEC2ES3_ RELA            0000000000000000 035498 000048 18  IG 981 627  8
  [629] .text._ZSt7forwardIRKSt21piecewise_construct_tEOT_RNSt16remove_referenceIS3_E4typeE PROGBITS        0000000000000000 004eb4 000024 00 AXG  0   0  4
  [630] .text._ZSt7forwardISt5tupleIJRKPKcEEEOT_RNSt16remove_referenceIS6_E4typeE PROGBITS        0000000000000000 004ed8 000024 00 AXG  0   0  4
  [631] .text._ZSt7forwardISt5tupleIJEEEOT_RNSt16remove_referenceIS2_E4typeE PROGBITS        0000000000000000 004efc 000024 00 AXG  0   0  4
  [632] .text._ZNSt8__detail10_Hash_nodeISt4pairIKPKcN5dwarf3dieEELb1EEC2Ev PROGBITS        0000000000000000 004f20 00003c 00 AXG  0   0  4
  [633] .rela.text._ZNSt8__detail10_Hash_nodeISt4pairIKPKcN5dwarf3dieEELb1EEC2Ev RELA            0000000000000000 0354e0 000048 18  IG 981 632  8
  [634] .text._ZNSt8__detail16_Hashtable_allocISaINS_10_Hash_nodeISt4pairIKPKcN5dwarf3dieEELb1EEEEE16_M_allocate_nodeIJRKSt21piecewise_construct_tSt5tupleIJRS5_EESG_IJEEEEEPS9_DpOT_ PROGBITS        0000000000000000 004f5c 0001b8 00 AXG  0   0  4
  [635] .rela.text._ZNSt8__detail16_Hashtable_allocISaINS_10_Hash_nodeISt4pairIKPKcN5dwarf3dieEELb1EEEEE16_M_allocate_nodeIJRKSt21piecewise_construct_tSt5tupleIJRS5_EESG_IJEEEEEPS9_DpOT_ RELA            0000000000000000 035528 000480 18  IG 981 634  8
  [636] .gcc_except_table._ZNSt8__detail16_Hashtable_allocISaINS_10_Hash_nodeISt4pairIKPKcN5dwarf3dieEELb1EEEEE16_M_allocate_nodeIJRKSt21piecewise_construct_tSt5tupleIJRS5_EESG_IJEEEEEPS9_DpOT_ PROGBITS        0000000000000000 005114 000040 00  AG  0   0  4
  [637] .rela.gcc_except_table._ZNSt8__detail16_Hashtable_allocISaINS_10_Hash_nodeISt4pairIKPKcN5dwarf3dieEELb1EEEEE16_M_allocate_nodeIJRKSt21piecewise_construct_tSt5tupleIJRS5_EESG_IJEEEEEPS9_DpOT_ RELA            0000000000000000 0359a8 0001e0 18  IG 981 636  8
  [638] .text._ZNSt10_HashtableIPKcSt4pairIKS1_N5dwarf3dieEESaIS6_ENSt8__detail10_Select1stENS4_9string_eqENS4_11string_hashENS8_18_Mod_range_hashingENS8_20_Default_ranged_hashENS8_20_Prime_rehash_policyENS8_17_Hashtable_traitsILb1ELb0ELb1EEEE9_M_rehashEmRKm PROGBITS        0000000000000000 005154 0000a8 00 AXG  0   0  4
  [639] .rela.text._ZNSt10_HashtableIPKcSt4pairIKS1_N5dwarf3dieEESaIS6_ENSt8__detail10_Select1stENS4_9string_eqENS4_11string_hashENS8_18_Mod_range_hashingENS8_20_Default_ranged_hashENS8_20_Prime_rehash_policyENS8_17_Hashtable_traitsILb1ELb0ELb1EEEE9_M_rehashEmRKm RELA            0000000000000000 035b88 000168 18  IG 981 638  8
  [640] .gcc_except_table._ZNSt10_HashtableIPKcSt4pairIKS1_N5dwarf3dieEESaIS6_ENSt8__detail10_Select1stENS4_9string_eqENS4_11string_hashENS8_18_Mod_range_hashingENS8_20_Default_ranged_hashENS8_20_Prime_rehash_policyENS8_17_Hashtable_traitsILb1ELb0ELb1EEEE9_M_rehashEmRKm PROGBITS        0000000000000000 0051fc 000034 00  AG  0   0  4
  [641] .rela.gcc_except_table._ZNSt10_HashtableIPKcSt4pairIKS1_N5dwarf3dieEESaIS6_ENSt8__detail10_Select1stENS4_9string_eqENS4_11string_hashENS8_18_Mod_range_hashingENS8_20_Default_ranged_hashENS8_20_Prime_rehash_policyENS8_17_Hashtable_traitsILb1ELb0ELb1EEEE9_M_rehashEmRKm RELA            0000000000000000 035cf0 000180 18  IG 981 640  8
  [642] .text._ZNKSt8__detail15_Hash_code_baseIPKcSt4pairIKS2_N5dwarf3dieEENS_10_Select1stENS5_11string_hashENS_18_Mod_range_hashingENS_20_Default_ranged_hashELb1EE13_M_store_codeERNS_21_Hash_node_code_cacheILb1EEEm PROGBITS        0000000000000000 005230 000034 00 AXG  0   0  4
  [643] .text._ZNSt10_HashtableIPKcSt4pairIKS1_N5dwarf3dieEESaIS6_ENSt8__detail10_Select1stENS4_9string_eqENS4_11string_hashENS8_18_Mod_range_hashingENS8_20_Default_ranged_hashENS8_20_Prime_rehash_policyENS8_17_Hashtable_traitsILb1ELb0ELb1EEEE22_M_insert_bucket_beginEmPNS8_10_Hash_nodeIS6_Lb1EEE PROGBITS        0000000000000000 005264 00012c 00 AXG  0   0  4
  [644] .rela.text._ZNSt10_HashtableIPKcSt4pairIKS1_N5dwarf3dieEESaIS6_ENSt8__detail10_Select1stENS4_9string_eqENS4_11string_hashENS8_18_Mod_range_hashingENS8_20_Default_ranged_hashENS8_20_Prime_rehash_policyENS8_17_Hashtable_traitsILb1ELb0ELb1EEEE22_M_insert_bucket_beginEmPNS8_10_Hash_nodeIS6_Lb1EEE RELA            0000000000000000 035e70 0000d8 18  IG 981 643  8
  [645] .text._ZNSt8__detail16_Hashtable_allocISaINS_10_Hash_nodeISt4pairIKPKcN5dwarf3dieEELb1EEEEE17_M_node_allocatorEv PROGBITS        0000000000000000 005390 00003c 00 AXG  0   0  4
  [646] .rela.text._ZNSt8__detail16_Hashtable_allocISaINS_10_Hash_nodeISt4pairIKPKcN5dwarf3dieEELb1EEEEE17_M_node_allocatorEv RELA            0000000000000000 035f48 000048 18  IG 981 645  8
  [647] .text._ZNSt16allocator_traitsISaINSt8__detail10_Hash_nodeISt4pairIKPKcN5dwarf3dieEELb1EEEEE7destroyIS8_EEvRSA_PT_ PROGBITS        0000000000000000 0053cc 000040 00 AXG  0   0  4
  [648] .rela.text._ZNSt16allocator_traitsISaINSt8__detail10_Hash_nodeISt4pairIKPKcN5dwarf3dieEELb1EEEEE7destroyIS8_EEvRSA_PT_ RELA            0000000000000000 035f90 000048 18  IG 981 647  8
  [649] .text._ZNSt8__detail16_Hashtable_allocISaINS_10_Hash_nodeISt4pairIKPKcN5dwarf3dieEELb1EEEEE22_M_deallocate_node_ptrEPS9_ PROGBITS        0000000000000000 00540c 00006c 00 AXG  0   0  4
  [650] .rela.text._ZNSt8__detail16_Hashtable_allocISaINS_10_Hash_nodeISt4pairIKPKcN5dwarf3dieEELb1EEEEE22_M_deallocate_node_ptrEPS9_ RELA            0000000000000000 035fd8 0000d8 18  IG 981 649  8
  [651] .text._ZNSt19__ptr_traits_ptr_toIPPNSt8__detail15_Hash_node_baseES2_Lb0EE10pointer_toERS2_ PROGBITS        0000000000000000 005478 00003c 00 AXG  0   0  4
  [652] .rela.text._ZNSt19__ptr_traits_ptr_toIPPNSt8__detail15_Hash_node_baseES2_Lb0EE10pointer_toERS2_ RELA            0000000000000000 0360b0 000048 18  IG 981 651  8
  [653] .text._ZNSaIPNSt8__detail15_Hash_node_baseEEC2INS_10_Hash_nodeISt4pairIKPKcN5dwarf3dieEELb1EEEEERKSaIT_E PROGBITS        0000000000000000 0054b4 00003c 00 AXG  0   0  4
  [654] .rela.text._ZNSaIPNSt8__detail15_Hash_node_baseEEC2INS_10_Hash_nodeISt4pairIKPKcN5dwarf3dieEELb1EEEEERKSaIT_E RELA            0000000000000000 0360f8 000048 18  IG 981 653  8
  [655] .text._ZNSaIPNSt8__detail15_Hash_node_baseEED2Ev PROGBITS        0000000000000000 0054f0 000038 00 AXG  0   0  4
  [656] .rela.text._ZNSaIPNSt8__detail15_Hash_node_baseEED2Ev RELA            0000000000000000 036140 000048 18  IG 981 655  8
  [657] .text._ZNSt16allocator_traitsISaIPNSt8__detail15_Hash_node_baseEEE10deallocateERS3_PS2_m PROGBITS        0000000000000000 005528 000048 00 AXG  0   0  4
  [658] .rela.text._ZNSt16allocator_traitsISaIPNSt8__detail15_Hash_node_baseEEE10deallocateERS3_PS2_m RELA            0000000000000000 036188 000048 18  IG 981 657  8
  [659] .text._ZNSt10_HashtableIN5dwarf6DW_TAGES1_SaIS1_ENSt8__detail9_IdentityESt8equal_toIS1_ESt4hashIS1_ENS3_18_Mod_range_hashingENS3_20_Default_ranged_hashENS3_20_Prime_rehash_policyENS3_17_Hashtable_traitsILb1ELb1ELb1EEEEC2ERKS8_RKS6_RKS2_ PROGBITS        0000000000000000 005570 000140 00 AXG  0   0  4
  [660] .rela.text._ZNSt10_HashtableIN5dwarf6DW_TAGES1_SaIS1_ENSt8__detail9_IdentityESt8equal_toIS1_ESt4hashIS1_ENS3_18_Mod_range_hashingENS3_20_Default_ranged_hashENS3_20_Prime_rehash_policyENS3_17_Hashtable_traitsILb1ELb1ELb1EEEEC2ERKS8_RKS6_RKS2_ RELA            0000000000000000 0361d0 0002e8 18  IG 981 659  8
  [661] .gcc_except_table._ZNSt10_HashtableIN5dwarf6DW_TAGES1_SaIS1_ENSt8__detail9_IdentityESt8equal_toIS1_ESt4hashIS1_ENS3_18_Mod_range_hashingENS3_20_Default_ranged_hashENS3_20_Prime_rehash_policyENS3_17_Hashtable_traitsILb1ELb1ELb1EEEEC2ERKS8_RKS6_RKS2_ PROGBITS        0000000000000000 0056b0 00002b 00  AG  0   0  1
  [662] .rela.gcc_except_table._ZNSt10_HashtableIN5dwarf6DW_TAGES1_SaIS1_ENSt8__detail9_IdentityESt8equal_toIS1_ESt4hashIS1_ENS3_18_Mod_range_hashingENS3_20_Default_ranged_hashENS3_20_Prime_rehash_policyENS3_17_Hashtable_traitsILb1ELb1ELb1EEEEC2ERKS8_RKS6_RKS2_ RELA            0000000000000000 0364b8 000150 18  IG 981 661  8
  [663] .text._ZNSt10_HashtableIN5dwarf6DW_TAGES1_SaIS1_ENSt8__detail9_IdentityESt8equal_toIS1_ESt4hashIS1_ENS3_18_Mod_range_hashingENS3_20_Default_ranged_hashENS3_20_Prime_rehash_policyENS3_17_Hashtable_traitsILb1ELb1ELb1EEEE19_M_allocate_bucketsEm PROGBITS        0000000000000000 0056dc 000070 00 AXG  0   0  4
  [664] .rela.text._ZNSt10_HashtableIN5dwarf6DW_TAGES1_SaIS1_ENSt8__detail9_IdentityESt8equal_toIS1_ESt4hashIS1_ENS3_18_Mod_range_hashingENS3_20_Default_ranged_hashENS3_20_Prime_rehash_policyENS3_17_Hashtable_traitsILb1ELb1ELb1EEEE19_M_allocate_bucketsEm RELA            0000000000000000 036608 000078 18  IG 981 663  8
  [665] .text._ZNSt8__detail12_Insert_baseIN5dwarf6DW_TAGES2_SaIS2_ENS_9_IdentityESt8equal_toIS2_ESt4hashIS2_ENS_18_Mod_range_hashingENS_20_Default_ranged_hashENS_20_Prime_rehash_policyENS_17_Hashtable_traitsILb1ELb1ELb1EEEE20_M_conjure_hashtableEv PROGBITS        0000000000000000 00574c 000024 00 AXG  0   0  4
  [666] .text._ZNSt8__detail10_AllocNodeISaINS_10_Hash_nodeIN5dwarf6DW_TAGELb1EEEEEC2ERNS_16_Hashtable_allocIS5_EE PROGBITS        0000000000000000 005770 000030 00 AXG  0   0  4
  [667] .text._ZNSt10_HashtableIN5dwarf6DW_TAGES1_SaIS1_ENSt8__detail9_IdentityESt8equal_toIS1_ESt4hashIS1_ENS3_18_Mod_range_hashingENS3_20_Default_ranged_hashENS3_20_Prime_rehash_policyENS3_17_Hashtable_traitsILb1ELb1ELb1EEEE9_M_insertIRKS1_NS3_10_AllocNodeISaINS3_10_Hash_nodeIS1_Lb1EEEEEEEESt4pairINS3_14_Node_iteratorIS1_Lb1ELb1EEEbEOT_RKT0_St17integral_constantIbLb1EE PROGBITS        0000000000000000 0057a0 0000ec 00 AXG  0   0  4
  [668] .rela.text._ZNSt10_HashtableIN5dwarf6DW_TAGES1_SaIS1_ENSt8__detail9_IdentityESt8equal_toIS1_ESt4hashIS1_ENS3_18_Mod_range_hashingENS3_20_Default_ranged_hashENS3_20_Prime_rehash_policyENS3_17_Hashtable_traitsILb1ELb1ELb1EEEE9_M_insertIRKS1_NS3_10_AllocNodeISaINS3_10_Hash_nodeIS1_Lb1EEEEEEEESt4pairINS3_14_Node_iteratorIS1_Lb1ELb1EEEbEOT_RKT0_St17integral_constantIbLb1EE RELA            0000000000000000 036680 000168 18  IG 981 667  8
  [669] .text._ZNSt8__detail16_Hashtable_allocISaINS_10_Hash_nodeIN5dwarf6DW_TAGELb1EEEEE17_M_node_allocatorEv PROGBITS        0000000000000000 00588c 00003c 00 AXG  0   0  4
  [670] .rela.text._ZNSt8__detail16_Hashtable_allocISaINS_10_Hash_nodeIN5dwarf6DW_TAGELb1EEEEE17_M_node_allocatorEv RELA            0000000000000000 0367e8 000048 18  IG 981 669  8
  [671] .text._ZNSt8__detail21_Hash_node_value_baseIN5dwarf6DW_TAGEE9_M_valptrEv PROGBITS        0000000000000000 0058c8 000040 00 AXG  0   0  4
  [672] .rela.text._ZNSt8__detail21_Hash_node_value_baseIN5dwarf6DW_TAGEE9_M_valptrEv RELA            0000000000000000 036830 000048 18  IG 981 671  8
  [673] .text._ZNSt16allocator_traitsISaINSt8__detail10_Hash_nodeIN5dwarf6DW_TAGELb1EEEEE7destroyIS3_EEvRS5_PT_ PROGBITS        0000000000000000 005908 000040 00 AXG  0   0  4
  [674] .rela.text._ZNSt16allocator_traitsISaINSt8__detail10_Hash_nodeIN5dwarf6DW_TAGELb1EEEEE7destroyIS3_EEvRS5_PT_ RELA            0000000000000000 036878 000048 18  IG 981 673  8
  [675] .text._ZNSt8__detail16_Hashtable_allocISaINS_10_Hash_nodeIN5dwarf6DW_TAGELb1EEEEE22_M_deallocate_node_ptrEPS4_ PROGBITS        0000000000000000 005948 00006c 00 AXG  0   0  4
  [676] .rela.text._ZNSt8__detail16_Hashtable_allocISaINS_10_Hash_nodeIN5dwarf6DW_TAGELb1EEEEE22_M_deallocate_node_ptrEPS4_ RELA            0000000000000000 0368c0 0000d8 18  IG 981 675  8
  [677] .text._ZNSaIPNSt8__detail15_Hash_node_baseEEC2INS_10_Hash_nodeIN5dwarf6DW_TAGELb1EEEEERKSaIT_E PROGBITS        0000000000000000 0059b4 00003c 00 AXG  0   0  4
  [678] .rela.text._ZNSaIPNSt8__detail15_Hash_node_baseEEC2INS_10_Hash_nodeIN5dwarf6DW_TAGELb1EEEEERKSaIT_E RELA            0000000000000000 036998 000048 18  IG 981 677  8
  [679] .text._ZNSaISt23_Sp_counted_ptr_inplaceIN5dwarf11die_str_map4implESaIvELN9__gnu_cxx12_Lock_policyE1EEEC2IvEERKSaIT_E PROGBITS        0000000000000000 0059f0 00003c 00 AXG  0   0  4
  [680] .rela.text._ZNSaISt23_Sp_counted_ptr_inplaceIN5dwarf11die_str_map4implESaIvELN9__gnu_cxx12_Lock_policyE1EEEC2IvEERKSaIT_E RELA            0000000000000000 0369e0 000048 18  IG 981 679  8
  [681] .text._ZNSaISt23_Sp_counted_ptr_inplaceIN5dwarf11die_str_map4implESaIvELN9__gnu_cxx12_Lock_policyE1EEED2Ev PROGBITS        0000000000000000 005a2c 000038 00 AXG  0   0  4
  [682] .rela.text._ZNSaISt23_Sp_counted_ptr_inplaceIN5dwarf11die_str_map4implESaIvELN9__gnu_cxx12_Lock_policyE1EEED2Ev RELA            0000000000000000 036a28 000048 18  IG 981 681  8
  [683] .text._ZSt18__allocate_guardedISaISt23_Sp_counted_ptr_inplaceIN5dwarf11die_str_map4implESaIvELN9__gnu_cxx12_Lock_policyE1EEEESt15__allocated_ptrIT_ERSA_ PROGBITS        0000000000000000 005a64 00005c 00 AXG  0   0  4
  [684] .rela.text._ZSt18__allocate_guardedISaISt23_Sp_counted_ptr_inplaceIN5dwarf11die_str_map4implESaIvELN9__gnu_cxx12_Lock_policyE1EEEESt15__allocated_ptrIT_ERSA_ RELA            0000000000000000 036a70 000090 18  IG 981 683  8
  [685] .text._ZNSt15__allocated_ptrISaISt23_Sp_counted_ptr_inplaceIN5dwarf11die_str_map4implESaIvELN9__gnu_cxx12_Lock_policyE1EEEED2Ev PROGBITS        0000000000000000 005ac0 00005c 00 AXG  0   0  4
  [686] .rela.text._ZNSt15__allocated_ptrISaISt23_Sp_counted_ptr_inplaceIN5dwarf11die_str_map4implESaIvELN9__gnu_cxx12_Lock_policyE1EEEED2Ev RELA            0000000000000000 036b00 000060 18  IG 981 685  8
  [687] .gcc_except_table._ZNSt15__allocated_ptrISaISt23_Sp_counted_ptr_inplaceIN5dwarf11die_str_map4implESaIvELN9__gnu_cxx12_Lock_policyE1EEEED2Ev PROGBITS        0000000000000000 005b1c 000004 00  AG  0   0  1
  [688] .text._ZNSt15__allocated_ptrISaISt23_Sp_counted_ptr_inplaceIN5dwarf11die_str_map4implESaIvELN9__gnu_cxx12_Lock_policyE1EEEE3getEv PROGBITS        0000000000000000 005b20 000044 00 AXG  0   0  4
  [689] .rela.text._ZNSt15__allocated_ptrISaISt23_Sp_counted_ptr_inplaceIN5dwarf11die_str_map4implESaIvELN9__gnu_cxx12_Lock_policyE1EEEE3getEv RELA            0000000000000000 036b60 000048 18  IG 981 688  8
  [690] .text._ZNSt23_Sp_counted_ptr_inplaceIN5dwarf11die_str_map4implESaIvELN9__gnu_cxx12_Lock_policyE1EEC2IJRKNS0_3dieERNS0_5DW_ATERKSt16initializer_listINS0_6DW_TAGEEEEES3_DpOT_ PROGBITS        0000000000000000 005b64 00012c 00 AXG  0   0  4
  [691] .rela.text._ZNSt23_Sp_counted_ptr_inplaceIN5dwarf11die_str_map4implESaIvELN9__gnu_cxx12_Lock_policyE1EEC2IJRKNS0_3dieERNS0_5DW_ATERKSt16initializer_listINS0_6DW_TAGEEEEES3_DpOT_ RELA            0000000000000000 036ba8 0002d0 18  IG 981 690  8
  [692] .gcc_except_table._ZNSt23_Sp_counted_ptr_inplaceIN5dwarf11die_str_map4implESaIvELN9__gnu_cxx12_Lock_policyE1EEC2IJRKNS0_3dieERNS0_5DW_ATERKSt16initializer_listINS0_6DW_TAGEEEEES3_DpOT_ PROGBITS        0000000000000000 005c90 00001e 00  AG  0   0  1
  [693] .rela.gcc_except_table._ZNSt23_Sp_counted_ptr_inplaceIN5dwarf11die_str_map4implESaIvELN9__gnu_cxx12_Lock_policyE1EEC2IJRKNS0_3dieERNS0_5DW_ATERKSt16initializer_listINS0_6DW_TAGEEEEES3_DpOT_ RELA            0000000000000000 036e78 0000f0 18  IG 981 692  8
  [694] .text._ZNSt15__allocated_ptrISaISt23_Sp_counted_ptr_inplaceIN5dwarf11die_str_map4implESaIvELN9__gnu_cxx12_Lock_policyE1EEEEaSEDn PROGBITS        0000000000000000 005cb0 000030 00 AXG  0   0  4
  [695] .text._ZNSt23_Sp_counted_ptr_inplaceIN5dwarf11die_str_map4implESaIvELN9__gnu_cxx12_Lock_policyE1EE6_M_ptrEv PROGBITS        0000000000000000 005ce0 000044 00 AXG  0   0  4
  [696] .rela.text._ZNSt23_Sp_counted_ptr_inplaceIN5dwarf11die_str_map4implESaIvELN9__gnu_cxx12_Lock_policyE1EE6_M_ptrEv RELA            0000000000000000 036f68 000048 18  IG 981 695  8
  [697] .text._ZNKSt8__detail21_Hashtable_ebo_helperILi0EN5dwarf9string_eqELb1EE7_M_cgetEv PROGBITS        0000000000000000 005d24 000024 00 AXG  0   0  4
  [698] .text._ZNKSt8__detail21_Hash_node_value_baseISt4pairIKPKcN5dwarf3dieEEE9_M_valptrEv PROGBITS        0000000000000000 005d48 000040 00 AXG  0   0  4
  [699] .rela.text._ZNKSt8__detail21_Hash_node_value_baseISt4pairIKPKcN5dwarf3dieEEE9_M_valptrEv RELA            0000000000000000 036fb0 000048 18  IG 981 698  8
  [700] .text._ZSt7forwardIRKSt4pairIKPKcN5dwarf3dieEEEOT_RNSt16remove_referenceIS9_E4typeE PROGBITS        0000000000000000 005d88 000024 00 AXG  0   0  4
  [701] .text._ZNKSt8__detail21_Hashtable_ebo_helperILi1EN5dwarf11string_hashELb1EE7_M_cgetEv PROGBITS        0000000000000000 005dac 000024 00 AXG  0   0  4
  [702] .text._ZNKSt8__detail15_Hashtable_baseIPKcSt4pairIKS2_N5dwarf3dieEENS_10_Select1stENS5_9string_eqENS5_11string_hashENS_18_Mod_range_hashingENS_20_Default_ranged_hashENS_17_Hashtable_traitsILb1ELb0ELb1EEEE9_M_equalsERS4_mRKNS_16_Hash_node_valueIS7_Lb1EEE PROGBITS        0000000000000000 005dd0 000084 00 AXG  0   0  4
  [703] .rela.text._ZNKSt8__detail15_Hashtable_baseIPKcSt4pairIKS2_N5dwarf3dieEENS_10_Select1stENS5_9string_eqENS5_11string_hashENS_18_Mod_range_hashingENS_20_Default_ranged_hashENS_17_Hashtable_traitsILb1ELb0ELb1EEEE9_M_equalsERS4_mRKNS_16_Hash_node_valueIS7_Lb1EEE RELA            0000000000000000 036ff8 0000d8 18  IG 981 702  8
  [704] .text._ZNKSt10_HashtableIPKcSt4pairIKS1_N5dwarf3dieEESaIS6_ENSt8__detail10_Select1stENS4_9string_eqENS4_11string_hashENS8_18_Mod_range_hashingENS8_20_Default_ranged_hashENS8_20_Prime_rehash_policyENS8_17_Hashtable_traitsILb1ELb0ELb1EEEE15_M_bucket_indexERKNS8_16_Hash_node_valueIS6_Lb1EEE PROGBITS        0000000000000000 005e54 000050 00 AXG  0   0  4
  [705] .rela.text._ZNKSt10_HashtableIPKcSt4pairIKS1_N5dwarf3dieEESaIS6_ENSt8__detail10_Select1stENS4_9string_eqENS4_11string_hashENS8_18_Mod_range_hashingENS8_20_Default_ranged_hashENS8_20_Prime_rehash_policyENS8_17_Hashtable_traitsILb1ELb0ELb1EEEE15_M_bucket_indexERKNS8_16_Hash_node_valueIS6_Lb1EEE RELA            0000000000000000 0370d0 000048 18  IG 981 704  8
  [706] .text._ZNSt8__detail22_Hashtable_hash_traitsISt4hashIN5dwarf6DW_TAGEEE22__small_size_thresholdEv PROGBITS        0000000000000000 005ea4 000020 00 AXG  0   0  4
  [707] .text._ZNKSt8__detail15_Hashtable_baseIN5dwarf6DW_TAGES2_NS_9_IdentityESt8equal_toIS2_ESt4hashIS2_ENS_18_Mod_range_hashingENS_20_Default_ranged_hashENS_17_Hashtable_traitsILb1ELb1ELb1EEEE5_M_eqEv PROGBITS        0000000000000000 005ec4 00003c 00 AXG  0   0  4
  [708] .rela.text._ZNKSt8__detail15_Hashtable_baseIN5dwarf6DW_TAGES2_NS_9_IdentityESt8equal_toIS2_ESt4hashIS2_ENS_18_Mod_range_hashingENS_20_Default_ranged_hashENS_17_Hashtable_traitsILb1ELb1ELb1EEEE5_M_eqEv RELA            0000000000000000 037118 000048 18  IG 981 707  8
  [709] .text._ZNKSt8equal_toIN5dwarf6DW_TAGEEclERKS1_S4_ PROGBITS        0000000000000000 005f00 000044 00 AXG  0   0  4
  [710] .text._ZNKSt8__detail15_Hash_code_baseIN5dwarf6DW_TAGES2_NS_9_IdentityESt4hashIS2_ENS_18_Mod_range_hashingENS_20_Default_ranged_hashELb1EE7_M_hashEv PROGBITS        0000000000000000 005f44 00003c 00 AXG  0   0  4
  [711] .rela.text._ZNKSt8__detail15_Hash_code_baseIN5dwarf6DW_TAGES2_NS_9_IdentityESt4hashIS2_ENS_18_Mod_range_hashingENS_20_Default_ranged_hashELb1EE7_M_hashEv RELA            0000000000000000 037160 000048 18  IG 981 710  8
  [712] .text._ZNKSt8__detail15_Hash_code_baseIN5dwarf6DW_TAGES2_NS_9_IdentityESt4hashIS2_ENS_18_Mod_range_hashingENS_20_Default_ranged_hashELb1EE15_M_bucket_indexEmm PROGBITS        0000000000000000 005f80 000050 00 AXG  0   0  4
  [713] .rela.text._ZNKSt8__detail15_Hash_code_baseIN5dwarf6DW_TAGES2_NS_9_IdentityESt4hashIS2_ENS_18_Mod_range_hashingENS_20_Default_ranged_hashELb1EE15_M_bucket_indexEmm RELA            0000000000000000 0371a8 000048 18  IG 981 712  8
  [714] .text._ZNKSt10_HashtableIN5dwarf6DW_TAGES1_SaIS1_ENSt8__detail9_IdentityESt8equal_toIS1_ESt4hashIS1_ENS3_18_Mod_range_hashingENS3_20_Default_ranged_hashENS3_20_Prime_rehash_policyENS3_17_Hashtable_traitsILb1ELb1ELb1EEEE19_M_find_before_nodeEmRKS1_m PROGBITS        0000000000000000 005fd0 00011c 00 AXG  0   0  4
  [715] .rela.text._ZNKSt10_HashtableIN5dwarf6DW_TAGES1_SaIS1_ENSt8__detail9_IdentityESt8equal_toIS1_ESt4hashIS1_ENS3_18_Mod_range_hashingENS3_20_Default_ranged_hashENS3_20_Prime_rehash_policyENS3_17_Hashtable_traitsILb1ELb1ELb1EEEE19_M_find_before_nodeEmRKS1_m RELA            0000000000000000 0371f0 0001f8 18  IG 981 714  8
  [716] .text._ZNSt8__detail19_Node_iterator_baseIN5dwarf6DW_TAGELb1EEC2EPNS_10_Hash_nodeIS2_Lb1EEE PROGBITS        0000000000000000 0060ec 000030 00 AXG  0   0  4
  [717] .text._ZNKSt8__detail21_Hash_node_value_baseIN5dwarf6DW_TAGEE9_M_valptrEv PROGBITS        0000000000000000 00611c 000040 00 AXG  0   0  4
  [718] .rela.text._ZNKSt8__detail21_Hash_node_value_baseIN5dwarf6DW_TAGEE9_M_valptrEv RELA            0000000000000000 0373e8 000048 18  IG 981 717  8
  [719] .text._ZSt7forwardIRKN5dwarf6DW_TAGEEOT_RNSt16remove_referenceIS4_E4typeE PROGBITS        0000000000000000 00615c 000024 00 AXG  0   0  4
  [720] .text._ZNSt10_Head_baseILm0ERKPKcLb0EEC2ES3_ PROGBITS        0000000000000000 006180 000030 00 AXG  0   0  4
  [721] .text._ZNSt16allocator_traitsISaINSt8__detail10_Hash_nodeISt4pairIKPKcN5dwarf3dieEELb1EEEEE8allocateERSA_m PROGBITS        0000000000000000 0061b0 000048 00 AXG  0   0  4
  [722] .rela.text._ZNSt16allocator_traitsISaINSt8__detail10_Hash_nodeISt4pairIKPKcN5dwarf3dieEELb1EEEEE8allocateERSA_m RELA            0000000000000000 037430 000048 18  IG 981 721  8
  [723] .text._ZSt12__to_addressINSt8__detail10_Hash_nodeISt4pairIKPKcN5dwarf3dieEELb1EEEEPT_SB_ PROGBITS        0000000000000000 0061f8 000024 00 AXG  0   0  4
  [724] .text._ZNSt16allocator_traitsISaINSt8__detail10_Hash_nodeISt4pairIKPKcN5dwarf3dieEELb1EEEEE9constructIS8_JRKSt21piecewise_construct_tSt5tupleIJRS5_EESG_IJEEEEEvRSA_PT_DpOT0_ PROGBITS        0000000000000000 00621c 0000a4 00 AXG  0   0  4
  [725] .rela.text._ZNSt16allocator_traitsISaINSt8__detail10_Hash_nodeISt4pairIKPKcN5dwarf3dieEELb1EEEEE9constructIS8_JRKSt21piecewise_construct_tSt5tupleIJRS5_EESG_IJEEEEEvRSA_PT_DpOT0_ RELA            0000000000000000 037478 000120 18  IG 981 724  8
  [726] .text._ZNSt16allocator_traitsISaINSt8__detail10_Hash_nodeISt4pairIKPKcN5dwarf3dieEELb1EEEEE10deallocateERSA_PS9_m PROGBITS        0000000000000000 0062c0 000048 00 AXG  0   0  4
  [727] .rela.text._ZNSt16allocator_traitsISaINSt8__detail10_Hash_nodeISt4pairIKPKcN5dwarf3dieEELb1EEEEE10deallocateERSA_PS9_m RELA            0000000000000000 037598 000048 18  IG 981 726  8
  [728] .text._ZNSt10_HashtableIPKcSt4pairIKS1_N5dwarf3dieEESaIS6_ENSt8__detail10_Select1stENS4_9string_eqENS4_11string_hashENS8_18_Mod_range_hashingENS8_20_Default_ranged_hashENS8_20_Prime_rehash_policyENS8_17_Hashtable_traitsILb1ELb0ELb1EEEE13_M_rehash_auxEmSt17integral_constantIbLb1EE PROGBITS        0000000000000000 006308 00019c 00 AXG  0   0  4
  [729] .rela.text._ZNSt10_HashtableIPKcSt4pairIKS1_N5dwarf3dieEESaIS6_ENSt8__detail10_Select1stENS4_9string_eqENS4_11string_hashENS8_18_Mod_range_hashingENS8_20_Default_ranged_hashENS8_20_Prime_rehash_policyENS8_17_Hashtable_traitsILb1ELb0ELb1EEEE13_M_rehash_auxEmSt17integral_constantIbLb1EE RELA            0000000000000000 0375e0 0001e0 18  IG 981 728  8
  [730] .text._ZNSt11_Mutex_baseILN9__gnu_cxx12_Lock_policyE1EEC2Ev PROGBITS        0000000000000000 0064a4 00003c 00 AXG  0   0  4
  [731] .rela.text._ZNSt11_Mutex_baseILN9__gnu_cxx12_Lock_policyE1EEC2Ev RELA            0000000000000000 0377c0 000048 18  IG 981 730  8
  [732] .text._ZNSt16_Sp_counted_baseILN9__gnu_cxx12_Lock_policyE1EEC2Ev PROGBITS        0000000000000000 0064e0 00006c 00 AXG  0   0  4
  [733] .rela.text._ZNSt16_Sp_counted_baseILN9__gnu_cxx12_Lock_policyE1EEC2Ev RELA            0000000000000000 037808 000090 18  IG 981 732  8
  [734] .text._ZNSt8__detail21_Hashtable_ebo_helperILi0ESaINS_10_Hash_nodeISt4pairIKPKcN5dwarf3dieEELb1EEEELb1EE6_M_getEv PROGBITS        0000000000000000 00654c 000024 00 AXG  0   0  4
  [735] .text._ZNSt4pairIKPKcN5dwarf3dieEED2Ev PROGBITS        0000000000000000 006570 000040 00 AXG  0   0  4
  [736] .rela.text._ZNSt4pairIKPKcN5dwarf3dieEED2Ev RELA            0000000000000000 037898 000048 18  IG 981 735  8
  [737] .text._ZNSt15__new_allocatorINSt8__detail10_Hash_nodeISt4pairIKPKcN5dwarf3dieEELb1EEEE7destroyIS8_EEvPT_ PROGBITS        0000000000000000 0065b0 00003c 00 AXG  0   0  4
  [738] .rela.text._ZNSt15__new_allocatorINSt8__detail10_Hash_nodeISt4pairIKPKcN5dwarf3dieEELb1EEEE7destroyIS8_EEvPT_ RELA            0000000000000000 0378e0 000048 18  IG 981 737  8
  [739] .text._ZNSt19__ptr_traits_ptr_toIPNSt8__detail10_Hash_nodeISt4pairIKPKcN5dwarf3dieEELb1EEES9_Lb0EE10pointer_toERS9_ PROGBITS        0000000000000000 0065ec 00003c 00 AXG  0   0  4
  [740] .rela.text._ZNSt19__ptr_traits_ptr_toIPNSt8__detail10_Hash_nodeISt4pairIKPKcN5dwarf3dieEELb1EEES9_Lb0EE10pointer_toERS9_ RELA            0000000000000000 037928 000048 18  IG 981 739  8
  [741] .text._ZSt9addressofIPNSt8__detail15_Hash_node_baseEEPT_RS3_ PROGBITS        0000000000000000 006628 00003c 00 AXG  0   0  4
  [742] .rela.text._ZSt9addressofIPNSt8__detail15_Hash_node_baseEEPT_RS3_ RELA            0000000000000000 037970 000048 18  IG 981 741  8
  [743] .text._ZNSt15__new_allocatorIPNSt8__detail15_Hash_node_baseEEC2Ev PROGBITS        0000000000000000 006664 000020 00 AXG  0   0  4
  [744] .text._ZNSt15__new_allocatorIPNSt8__detail15_Hash_node_baseEED2Ev PROGBITS        0000000000000000 006684 000020 00 AXG  0   0  4
  [745] .text._ZNSt15__new_allocatorIPNSt8__detail15_Hash_node_baseEE10deallocateEPS2_m PROGBITS        0000000000000000 0066a4 00003c 00 AXG  0   0  4
  [746] .rela.text._ZNSt15__new_allocatorIPNSt8__detail15_Hash_node_baseEE10deallocateEPS2_m RELA            0000000000000000 0379b8 000030 18  IG 981 745  8
  [747] .text._ZNSaINSt8__detail10_Hash_nodeIN5dwarf6DW_TAGELb1EEEEC2IS2_EERKSaIT_E PROGBITS        0000000000000000 0066e0 00003c 00 AXG  0   0  4
  [748] .rela.text._ZNSaINSt8__detail10_Hash_nodeIN5dwarf6DW_TAGELb1EEEEC2IS2_EERKSaIT_E RELA            0000000000000000 0379e8 000048 18  IG 981 747  8
  [749] .text._ZNSt8__detail15_Hashtable_baseIN5dwarf6DW_TAGES2_NS_9_IdentityESt8equal_toIS2_ESt4hashIS2_ENS_18_Mod_range_hashingENS_20_Default_ranged_hashENS_17_Hashtable_traitsILb1ELb1ELb1EEEEC2ERKS7_RKS5_ PROGBITS        0000000000000000 00671c 000058 00 AXG  0   0  4
  [750] .rela.text._ZNSt8__detail15_Hashtable_baseIN5dwarf6DW_TAGES2_NS_9_IdentityESt8equal_toIS2_ESt4hashIS2_ENS_18_Mod_range_hashingENS_20_Default_ranged_hashENS_17_Hashtable_traitsILb1ELb1ELb1EEEEC2ERKS7_RKS5_ RELA            0000000000000000 037a30 000090 18  IG 981 749  8
  [751] .text._ZNSt8__detail16_Hashtable_allocISaINS_10_Hash_nodeIN5dwarf6DW_TAGELb1EEEEEC2IS5_EEOT_ PROGBITS        0000000000000000 006774 000054 00 AXG  0   0  4
  [752] .rela.text._ZNSt8__detail16_Hashtable_allocISaINS_10_Hash_nodeIN5dwarf6DW_TAGELb1EEEEEC2IS5_EEOT_ RELA            0000000000000000 037ac0 000090 18  IG 981 751  8
  [753] .text._ZNSt27_Enable_default_constructorILb1ENSt8__detail15_Hash_node_baseEEC2ESt31_Enable_default_constructor_tag PROGBITS        0000000000000000 0067c8 000024 00 AXG  0   0  4
  [754] .text._ZNSt8__detail16_Hashtable_allocISaINS_10_Hash_nodeIN5dwarf6DW_TAGELb1EEEEE19_M_allocate_bucketsEm PROGBITS        0000000000000000 0067ec 0000fc 00 AXG  0   0  4
  [755] .rela.text._ZNSt8__detail16_Hashtable_allocISaINS_10_Hash_nodeIN5dwarf6DW_TAGELb1EEEEE19_M_allocate_bucketsEm RELA            0000000000000000 037b50 000228 18  IG 981 754  8
  [756] .gcc_except_table._ZNSt8__detail16_Hashtable_allocISaINS_10_Hash_nodeIN5dwarf6DW_TAGELb1EEEEE19_M_allocate_bucketsEm PROGBITS        0000000000000000 0068e8 00001e 00  AG  0   0  1
  [757] .rela.gcc_except_table._ZNSt8__detail16_Hashtable_allocISaINS_10_Hash_nodeIN5dwarf6DW_TAGELb1EEEEE19_M_allocate_bucketsEm RELA            0000000000000000 037d78 0000f0 18  IG 981 756  8
  [758] .text._ZNSt10_HashtableIN5dwarf6DW_TAGES1_SaIS1_ENSt8__detail9_IdentityESt8equal_toIS1_ESt4hashIS1_ENS3_18_Mod_range_hashingENS3_20_Default_ranged_hashENS3_20_Prime_rehash_policyENS3_17_Hashtable_traitsILb1ELb1ELb1EEEE14_S_forward_keyERKS1_ PROGBITS        0000000000000000 006908 000024 00 AXG  0   0  4
  [759] .text._ZNSt10_HashtableIN5dwarf6DW_TAGES1_SaIS1_ENSt8__detail9_IdentityESt8equal_toIS1_ESt4hashIS1_ENS3_18_Mod_range_hashingENS3_20_Default_ranged_hashENS3_20_Prime_rehash_policyENS3_17_Hashtable_traitsILb1ELb1ELb1EEEE16_M_insert_uniqueIRKS1_SH_NS3_10_AllocNodeISaINS3_10_Hash_nodeIS1_Lb1EEEEEEEESt4pairINS3_14_Node_iteratorIS1_Lb1ELb1EEEbEOT_OT0_RKT1_ PROGBITS        0000000000000000 00692c 000360 00 AXG  0   0  4
  [760] .rela.text._ZNSt10_HashtableIN5dwarf6DW_TAGES1_SaIS1_ENSt8__detail9_IdentityESt8equal_toIS1_ESt4hashIS1_ENS3_18_Mod_range_hashingENS3_20_Default_ranged_hashENS3_20_Prime_rehash_policyENS3_17_Hashtable_traitsILb1ELb1ELb1EEEE16_M_insert_uniqueIRKS1_SH_NS3_10_AllocNodeISaINS3_10_Hash_nodeIS1_Lb1EEEEEEEESt4pairINS3_14_Node_iteratorIS1_Lb1ELb1EEEbEOT_OT0_RKT1_ RELA            0000000000000000 037e68 000780 18  IG 981 759  8
  [761] .gcc_except_table._ZNSt10_HashtableIN5dwarf6DW_TAGES1_SaIS1_ENSt8__detail9_IdentityESt8equal_toIS1_ESt4hashIS1_ENS3_18_Mod_range_hashingENS3_20_Default_ranged_hashENS3_20_Prime_rehash_policyENS3_17_Hashtable_traitsILb1ELb1ELb1EEEE16_M_insert_uniqueIRKS1_SH_NS3_10_AllocNodeISaINS3_10_Hash_nodeIS1_Lb1EEEEEEEESt4pairINS3_14_Node_iteratorIS1_Lb1ELb1EEEbEOT_OT0_RKT1_ PROGBITS        0000000000000000 006c8c 00002b 00  AG  0   0  1
  [762] .rela.gcc_except_table._ZNSt10_HashtableIN5dwarf6DW_TAGES1_SaIS1_ENSt8__detail9_IdentityESt8equal_toIS1_ESt4hashIS1_ENS3_18_Mod_range_hashingENS3_20_Default_ranged_hashENS3_20_Prime_rehash_policyENS3_17_Hashtable_traitsILb1ELb1ELb1EEEE16_M_insert_uniqueIRKS1_SH_NS3_10_AllocNodeISaINS3_10_Hash_nodeIS1_Lb1EEEEEEEESt4pairINS3_14_Node_iteratorIS1_Lb1ELb1EEEbEOT_OT0_RKT1_ RELA            0000000000000000 0385e8 000150 18  IG 981 761  8
  [763] .text._ZNSt8__detail21_Hashtable_ebo_helperILi0ESaINS_10_Hash_nodeIN5dwarf6DW_TAGELb1EEEELb1EE6_M_getEv PROGBITS        0000000000000000 006cb8 000024 00 AXG  0   0  4
  [764] .text._ZN9__gnu_cxx16__aligned_bufferIN5dwarf6DW_TAGEE6_M_ptrEv PROGBITS        0000000000000000 006cdc 00003c 00 AXG  0   0  4
  [765] .rela.text._ZN9__gnu_cxx16__aligned_bufferIN5dwarf6DW_TAGEE6_M_ptrEv RELA            0000000000000000 038738 000048 18  IG 981 764  8
  [766] .text._ZNSt15__new_allocatorINSt8__detail10_Hash_nodeIN5dwarf6DW_TAGELb1EEEE7destroyIS3_EEvPT_ PROGBITS        0000000000000000 006d18 000024 00 AXG  0   0  4
  [767] .text._ZNSt19__ptr_traits_ptr_toIPNSt8__detail10_Hash_nodeIN5dwarf6DW_TAGELb1EEES4_Lb0EE10pointer_toERS4_ PROGBITS        0000000000000000 006d3c 00003c 00 AXG  0   0  4
  [768] .rela.text._ZNSt19__ptr_traits_ptr_toIPNSt8__detail10_Hash_nodeIN5dwarf6DW_TAGELb1EEES4_Lb0EE10pointer_toERS4_ RELA            0000000000000000 038780 000048 18  IG 981 767  8
  [769] .text._ZNSt16allocator_traitsISaINSt8__detail10_Hash_nodeIN5dwarf6DW_TAGELb1EEEEE10deallocateERS5_PS4_m PROGBITS        0000000000000000 006d78 000048 00 AXG  0   0  4
  [770] .rela.text._ZNSt16allocator_traitsISaINSt8__detail10_Hash_nodeIN5dwarf6DW_TAGELb1EEEEE10deallocateERS5_PS4_m RELA            0000000000000000 0387c8 000048 18  IG 981 769  8
  [771] .text._ZNSt15__new_allocatorISt23_Sp_counted_ptr_inplaceIN5dwarf11die_str_map4implESaIvELN9__gnu_cxx12_Lock_policyE1EEEC2Ev PROGBITS        0000000000000000 006dc0 000020 00 AXG  0   0  4
  [772] .text._ZNSt15__new_allocatorISt23_Sp_counted_ptr_inplaceIN5dwarf11die_str_map4implESaIvELN9__gnu_cxx12_Lock_policyE1EEED2Ev PROGBITS        0000000000000000 006de0 000020 00 AXG  0   0  4
  [773] .text._ZNSt16allocator_traitsISaISt23_Sp_counted_ptr_inplaceIN5dwarf11die_str_map4implESaIvELN9__gnu_cxx12_Lock_policyE1EEEE8allocateERS8_m PROGBITS        0000000000000000 006e00 000048 00 AXG  0   0  4
  [774] .rela.text._ZNSt16allocator_traitsISaISt23_Sp_counted_ptr_inplaceIN5dwarf11die_str_map4implESaIvELN9__gnu_cxx12_Lock_policyE1EEEE8allocateERS8_m RELA            0000000000000000 038810 000048 18  IG 981 773  8
  [775] .text._ZNSt15__allocated_ptrISaISt23_Sp_counted_ptr_inplaceIN5dwarf11die_str_map4implESaIvELN9__gnu_cxx12_Lock_policyE1EEEEC2ERS8_PS7_ PROGBITS        0000000000000000 006e48 000058 00 AXG  0   0  4
  [776] .rela.text._ZNSt15__allocated_ptrISaISt23_Sp_counted_ptr_inplaceIN5dwarf11die_str_map4implESaIvELN9__gnu_cxx12_Lock_policyE1EEEEC2ERS8_PS7_ RELA            0000000000000000 038858 000048 18  IG 981 775  8
  [777] .text._ZNSt16allocator_traitsISaISt23_Sp_counted_ptr_inplaceIN5dwarf11die_str_map4implESaIvELN9__gnu_cxx12_Lock_policyE1EEEE10deallocateERS8_PS7_m PROGBITS        0000000000000000 006ea0 000048 00 AXG  0   0  4
  [778] .rela.text._ZNSt16allocator_traitsISaISt23_Sp_counted_ptr_inplaceIN5dwarf11die_str_map4implESaIvELN9__gnu_cxx12_Lock_policyE1EEEE10deallocateERS8_PS7_m RELA            0000000000000000 0388a0 000048 18  IG 981 777  8
  [779] .text._ZSt12__to_addressISt23_Sp_counted_ptr_inplaceIN5dwarf11die_str_map4implESaIvELN9__gnu_cxx12_Lock_policyE1EEEPT_S9_ PROGBITS        0000000000000000 006ee8 000024 00 AXG  0   0  4
  [780] .text._ZNSt23_Sp_counted_ptr_inplaceIN5dwarf11die_str_map4implESaIvELN9__gnu_cxx12_Lock_policyE1EE5_ImplC2ES3_ PROGBITS        0000000000000000 006f0c 000044 00 AXG  0   0  4
  [781] .rela.text._ZNSt23_Sp_counted_ptr_inplaceIN5dwarf11die_str_map4implESaIvELN9__gnu_cxx12_Lock_policyE1EE5_ImplC2ES3_ RELA            0000000000000000 0388e8 000048 18  IG 981 780  8
  [782] .text._ZNSt16allocator_traitsISaIvEE9constructIN5dwarf11die_str_map4implEJRKNS3_3dieERNS3_5DW_ATERKSt16initializer_listINS3_6DW_TAGEEEEEvRS0_PT_DpOT0_ PROGBITS        0000000000000000 006f50 0000a0 00 AXG  0   0  4
  [783] .rela.text._ZNSt16allocator_traitsISaIvEE9constructIN5dwarf11die_str_map4implEJRKNS3_3dieERNS3_5DW_ATERKSt16initializer_listINS3_6DW_TAGEEEEEvRS0_PT_DpOT0_ RELA            0000000000000000 038930 000120 18  IG 981 782  8
  [784] .text._ZN9__gnu_cxx16__aligned_bufferIN5dwarf11die_str_map4implEE6_M_ptrEv PROGBITS        0000000000000000 006ff0 00003c 00 AXG  0   0  4
  [785] .rela.text._ZN9__gnu_cxx16__aligned_bufferIN5dwarf11die_str_map4implEE6_M_ptrEv RELA            0000000000000000 038a50 000048 18  IG 981 784  8
  [786] .text._ZNK9__gnu_cxx16__aligned_bufferISt4pairIKPKcN5dwarf3dieEEE6_M_ptrEv PROGBITS        0000000000000000 00702c 00003c 00 AXG  0   0  4
  [787] .rela.text._ZNK9__gnu_cxx16__aligned_bufferISt4pairIKPKcN5dwarf3dieEEE6_M_ptrEv RELA            0000000000000000 038a98 000048 18  IG 981 786  8
  [788] .text._ZNSt8__detail15_Hashtable_baseIPKcSt4pairIKS2_N5dwarf3dieEENS_10_Select1stENS5_9string_eqENS5_11string_hashENS_18_Mod_range_hashingENS_20_Default_ranged_hashENS_17_Hashtable_traitsILb1ELb0ELb1EEEE9_S_equalsEmRKNS_21_Hash_node_code_cacheILb1EEE PROGBITS        0000000000000000 007068 00003c 00 AXG  0   0  4
  [789] .text._ZNKSt8__detail15_Hash_code_baseIPKcSt4pairIKS2_N5dwarf3dieEENS_10_Select1stENS5_11string_hashENS_18_Mod_range_hashingENS_20_Default_ranged_hashELb1EE15_M_bucket_indexERKNS_16_Hash_node_valueIS7_Lb1EEEm PROGBITS        0000000000000000 0070a4 000058 00 AXG  0   0  4
  [790] .rela.text._ZNKSt8__detail15_Hash_code_baseIPKcSt4pairIKS2_N5dwarf3dieEENS_10_Select1stENS5_11string_hashENS_18_Mod_range_hashingENS_20_Default_ranged_hashELb1EE15_M_bucket_indexERKNS_16_Hash_node_valueIS7_Lb1EEEm RELA            0000000000000000 038ae0 000048 18  IG 981 789  8
  [791] .text._ZNKSt8__detail21_Hashtable_ebo_helperILi0ESt8equal_toIN5dwarf6DW_TAGEELb1EE7_M_cgetEv PROGBITS        0000000000000000 0070fc 000024 00 AXG  0   0  4
  [792] .text._ZNKSt8__detail21_Hashtable_ebo_helperILi1ESt4hashIN5dwarf6DW_TAGEELb1EE7_M_cgetEv PROGBITS        0000000000000000 007120 000024 00 AXG  0   0  4
  [793] .text._ZNKSt8__detail15_Hashtable_baseIN5dwarf6DW_TAGES2_NS_9_IdentityESt8equal_toIS2_ESt4hashIS2_ENS_18_Mod_range_hashingENS_20_Default_ranged_hashENS_17_Hashtable_traitsILb1ELb1ELb1EEEE9_M_equalsERKS2_mRKNS_16_Hash_node_valueIS2_Lb1EEE PROGBITS        0000000000000000 007144 000084 00 AXG  0   0  4
  [794] .rela.text._ZNKSt8__detail15_Hashtable_baseIN5dwarf6DW_TAGES2_NS_9_IdentityESt8equal_toIS2_ESt4hashIS2_ENS_18_Mod_range_hashingENS_20_Default_ranged_hashENS_17_Hashtable_traitsILb1ELb1ELb1EEEE9_M_equalsERKS2_mRKNS_16_Hash_node_valueIS2_Lb1EEE RELA            0000000000000000 038b28 0000d8 18  IG 981 793  8
  [795] .text._ZNKSt10_HashtableIN5dwarf6DW_TAGES1_SaIS1_ENSt8__detail9_IdentityESt8equal_toIS1_ESt4hashIS1_ENS3_18_Mod_range_hashingENS3_20_Default_ranged_hashENS3_20_Prime_rehash_policyENS3_17_Hashtable_traitsILb1ELb1ELb1EEEE15_M_bucket_indexERKNS3_16_Hash_node_valueIS1_Lb1EEE PROGBITS        0000000000000000 0071c8 000050 00 AXG  0   0  4
  [796] .rela.text._ZNKSt10_HashtableIN5dwarf6DW_TAGES1_SaIS1_ENSt8__detail9_IdentityESt8equal_toIS1_ESt4hashIS1_ENS3_18_Mod_range_hashingENS3_20_Default_ranged_hashENS3_20_Prime_rehash_policyENS3_17_Hashtable_traitsILb1ELb1ELb1EEEE15_M_bucket_indexERKNS3_16_Hash_node_valueIS1_Lb1EEE RELA            0000000000000000 038c00 000048 18  IG 981 795  8
  [797] .text._ZNK9__gnu_cxx16__aligned_bufferIN5dwarf6DW_TAGEE6_M_ptrEv PROGBITS        0000000000000000 007218 00003c 00 AXG  0   0  4
  [798] .rela.text._ZNK9__gnu_cxx16__aligned_bufferIN5dwarf6DW_TAGEE6_M_ptrEv RELA            0000000000000000 038c48 000048 18  IG 981 797  8
  [799] .text._ZNSt15__new_allocatorINSt8__detail10_Hash_nodeISt4pairIKPKcN5dwarf3dieEELb1EEEE8allocateEmPKv PROGBITS        0000000000000000 007254 0000a4 00 AXG  0   0  4
  [800] .rela.text._ZNSt15__new_allocatorINSt8__detail10_Hash_nodeISt4pairIKPKcN5dwarf3dieEELb1EEEE8allocateEmPKv RELA            0000000000000000 038c90 000168 18  IG 981 799  8
  [801] .text._ZNSt5tupleIJRKPKcEEC2EOS4_ PROGBITS        0000000000000000 0072f8 000048 00 AXG  0   0  4
  [802] .rela.text._ZNSt5tupleIJRKPKcEEC2EOS4_ RELA            0000000000000000 038df8 000048 18  IG 981 801  8
  [803] .text._ZNSt15__new_allocatorINSt8__detail10_Hash_nodeISt4pairIKPKcN5dwarf3dieEELb1EEEE9constructIS8_JRKSt21piecewise_construct_tSt5tupleIJRS5_EESF_IJEEEEEvPT_DpOT0_ PROGBITS        0000000000000000 007340 000118 00 AXG  0   0  4
  [804] .rela.text._ZNSt15__new_allocatorINSt8__detail10_Hash_nodeISt4pairIKPKcN5dwarf3dieEELb1EEEE9constructIS8_JRKSt21piecewise_construct_tSt5tupleIJRS5_EESF_IJEEEEEvPT_DpOT0_ RELA            0000000000000000 038e40 000258 18  IG 981 803  8
  [805] .gcc_except_table._ZNSt15__new_allocatorINSt8__detail10_Hash_nodeISt4pairIKPKcN5dwarf3dieEELb1EEEE9constructIS8_JRKSt21piecewise_construct_tSt5tupleIJRS5_EESF_IJEEEEEvPT_DpOT0_ PROGBITS        0000000000000000 007458 00001e 00  AG  0   0  1
  [806] .rela.gcc_except_table._ZNSt15__new_allocatorINSt8__detail10_Hash_nodeISt4pairIKPKcN5dwarf3dieEELb1EEEE9constructIS8_JRKSt21piecewise_construct_tSt5tupleIJRS5_EESF_IJEEEEEvPT_DpOT0_ RELA            0000000000000000 039098 0000f0 18  IG 981 805  8
  [807] .text._ZNSt15__new_allocatorINSt8__detail10_Hash_nodeISt4pairIKPKcN5dwarf3dieEELb1EEEE10deallocateEPS9_m PROGBITS        0000000000000000 007478 00003c 00 AXG  0   0  4
  [808] .rela.text._ZNSt15__new_allocatorINSt8__detail10_Hash_nodeISt4pairIKPKcN5dwarf3dieEELb1EEEE10deallocateEPS9_m RELA            0000000000000000 039188 000030 18  IG 981 807  8
  [809] .text._ZNSt10_HashtableIPKcSt4pairIKS1_N5dwarf3dieEESaIS6_ENSt8__detail10_Select1stENS4_9string_eqENS4_11string_hashENS8_18_Mod_range_hashingENS8_20_Default_ranged_hashENS8_20_Prime_rehash_policyENS8_17_Hashtable_traitsILb1ELb0ELb1EEEE19_M_allocate_bucketsEm PROGBITS        0000000000000000 0074b4 000070 00 AXG  0   0  4
  [810] .rela.text._ZNSt10_HashtableIPKcSt4pairIKS1_N5dwarf3dieEESaIS6_ENSt8__detail10_Select1stENS4_9string_eqENS4_11string_hashENS8_18_Mod_range_hashingENS8_20_Default_ranged_hashENS8_20_Prime_rehash_policyENS8_17_Hashtable_traitsILb1ELb0ELb1EEEE19_M_allocate_bucketsEm RELA            0000000000000000 0391b8 000078 18  IG 981 809  8
  [811] .text._ZNSt14_Sp_ebo_helperILi0ESaIvELb1EEC2ERKS0_ PROGBITS        0000000000000000 007524 000024 00 AXG  0   0  4
  [812] .text._ZSt9addressofINSt8__detail10_Hash_nodeISt4pairIKPKcN5dwarf3dieEELb1EEEEPT_RSA_ PROGBITS        0000000000000000 007548 00003c 00 AXG  0   0  4
  [813] .rela.text._ZSt9addressofINSt8__detail10_Hash_nodeISt4pairIKPKcN5dwarf3dieEELb1EEEEPT_RSA_ RELA            0000000000000000 039230 000048 18  IG 981 812  8
  [814] .text._ZSt11__addressofIPNSt8__detail15_Hash_node_baseEEPT_RS3_ PROGBITS        0000000000000000 007584 000024 00 AXG  0   0  4
  [815] .text._ZNSt15__new_allocatorINSt8__detail10_Hash_nodeIN5dwarf6DW_TAGELb1EEEEC2Ev PROGBITS        0000000000000000 0075a8 000020 00 AXG  0   0  4
  [816] .text._ZNSt8__detail15_Hash_code_baseIN5dwarf6DW_TAGES2_NS_9_IdentityESt4hashIS2_ENS_18_Mod_range_hashingENS_20_Default_ranged_hashELb1EEC2ERKS5_ PROGBITS        0000000000000000 0075c8 000040 00 AXG  0   0  4
  [817] .rela.text._ZNSt8__detail15_Hash_code_baseIN5dwarf6DW_TAGES2_NS_9_IdentityESt4hashIS2_ENS_18_Mod_range_hashingENS_20_Default_ranged_hashELb1EEC2ERKS5_ RELA            0000000000000000 039278 000048 18  IG 981 816  8
  [818] .text._ZNSt8__detail21_Hashtable_ebo_helperILi0ESt8equal_toIN5dwarf6DW_TAGEELb1EEC2IRKS4_EEOT_ PROGBITS        0000000000000000 007608 00003c 00 AXG  0   0  4
  [819] .rela.text._ZNSt8__detail21_Hashtable_ebo_helperILi0ESt8equal_toIN5dwarf6DW_TAGEELb1EEC2IRKS4_EEOT_ RELA            0000000000000000 0392c0 000048 18  IG 981 818  8
  [820] .text._ZSt7forwardISaINSt8__detail10_Hash_nodeIN5dwarf6DW_TAGELb1EEEEEOT_RNSt16remove_referenceIS6_E4typeE PROGBITS        0000000000000000 007644 000024 00 AXG  0   0  4
  [821] .text._ZNSt8__detail21_Hashtable_ebo_helperILi0ESaINS_10_Hash_nodeIN5dwarf6DW_TAGELb1EEEELb1EEC2IS5_EEOT_ PROGBITS        0000000000000000 007668 000054 00 AXG  0   0  4
  [822] .rela.text._ZNSt8__detail21_Hashtable_ebo_helperILi0ESaINS_10_Hash_nodeIN5dwarf6DW_TAGELb1EEEELb1EEC2IS5_EEOT_ RELA            0000000000000000 039308 000090 18  IG 981 821  8
  [823] .text._ZNSt16allocator_traitsISaIPNSt8__detail15_Hash_node_baseEEE8allocateERS3_m PROGBITS        0000000000000000 0076bc 000048 00 AXG  0   0  4
  [824] .rela.text._ZNSt16allocator_traitsISaIPNSt8__detail15_Hash_node_baseEEE8allocateERS3_m RELA            0000000000000000 039398 000048 18  IG 981 823  8
  [825] .text._ZSt12__to_addressIPNSt8__detail15_Hash_node_baseEEPT_S4_ PROGBITS        0000000000000000 007704 000024 00 AXG  0   0  4
  [826] .text._ZNSt10_HashtableIN5dwarf6DW_TAGES1_SaIS1_ENSt8__detail9_IdentityESt8equal_toIS1_ESt4hashIS1_ENS3_18_Mod_range_hashingENS3_20_Default_ranged_hashENS3_20_Prime_rehash_policyENS3_17_Hashtable_traitsILb1ELb1ELb1EEEE5beginEv PROGBITS        0000000000000000 007728 000058 00 AXG  0   0  4
  [827] .rela.text._ZNSt10_HashtableIN5dwarf6DW_TAGES1_SaIS1_ENSt8__detail9_IdentityESt8equal_toIS1_ESt4hashIS1_ENS3_18_Mod_range_hashingENS3_20_Default_ranged_hashENS3_20_Prime_rehash_policyENS3_17_Hashtable_traitsILb1ELb1ELb1EEEE5beginEv RELA            0000000000000000 0393e0 000090 18  IG 981 826  8
  [828] .text._ZNSt10_HashtableIN5dwarf6DW_TAGES1_SaIS1_ENSt8__detail9_IdentityESt8equal_toIS1_ESt4hashIS1_ENS3_18_Mod_range_hashingENS3_20_Default_ranged_hashENS3_20_Prime_rehash_policyENS3_17_Hashtable_traitsILb1ELb1ELb1EEEE3endEv PROGBITS        0000000000000000 007780 000044 00 AXG  0   0  4
  [829] .rela.text._ZNSt10_HashtableIN5dwarf6DW_TAGES1_SaIS1_ENSt8__detail9_IdentityESt8equal_toIS1_ESt4hashIS1_ENS3_18_Mod_range_hashingENS3_20_Default_ranged_hashENS3_20_Prime_rehash_policyENS3_17_Hashtable_traitsILb1ELb1ELb1EEEE3endEv RELA            0000000000000000 039470 000048 18  IG 981 828  8
  [830] .text._ZNSt8__detail14_Node_iteratorIN5dwarf6DW_TAGELb1ELb1EEppEv PROGBITS        0000000000000000 0077c4 000040 00 AXG  0   0  4
  [831] .rela.text._ZNSt8__detail14_Node_iteratorIN5dwarf6DW_TAGELb1ELb1EEppEv RELA            0000000000000000 0394b8 000048 18  IG 981 830  8
  [832] .text._ZNKSt8__detail15_Hashtable_baseIN5dwarf6DW_TAGES2_NS_9_IdentityESt8equal_toIS2_ESt4hashIS2_ENS_18_Mod_range_hashingENS_20_Default_ranged_hashENS_17_Hashtable_traitsILb1ELb1ELb1EEEE16_M_key_equals_trIS2_EEbRKT_RKNS_16_Hash_node_valueIS2_Lb1EEE PROGBITS        0000000000000000 007804 00009c 00 AXG  0   0  4
  [833] .rela.text._ZNKSt8__detail15_Hashtable_baseIN5dwarf6DW_TAGES2_NS_9_IdentityESt8equal_toIS2_ESt4hashIS2_ENS_18_Mod_range_hashingENS_20_Default_ranged_hashENS_17_Hashtable_traitsILb1ELb1ELb1EEEE16_M_key_equals_trIS2_EEbRKT_RKNS_16_Hash_node_valueIS2_Lb1EEE RELA            0000000000000000 039500 000120 18  IG 981 832  8
  [834] .text._ZNSt4pairINSt8__detail14_Node_iteratorIN5dwarf6DW_TAGELb1ELb1EEEbEC2IRS4_bLb1EEEOT_OT0_ PROGBITS        0000000000000000 0078a0 000070 00 AXG  0   0  4
  [835] .rela.text._ZNSt4pairINSt8__detail14_Node_iteratorIN5dwarf6DW_TAGELb1ELb1EEEbEC2IRS4_bLb1EEEOT_OT0_ RELA            0000000000000000 039620 000090 18  IG 981 834  8
  [836] .text._ZNKSt8__detail15_Hash_code_baseIN5dwarf6DW_TAGES2_NS_9_IdentityESt4hashIS2_ENS_18_Mod_range_hashingENS_20_Default_ranged_hashELb1EE15_M_hash_code_trIS2_EEmRKT_ PROGBITS        0000000000000000 007910 000060 00 AXG  0   0  4
  [837] .rela.text._ZNKSt8__detail15_Hash_code_baseIN5dwarf6DW_TAGES2_NS_9_IdentityESt4hashIS2_ENS_18_Mod_range_hashingENS_20_Default_ranged_hashELb1EE15_M_hash_code_trIS2_EEmRKT_ RELA            0000000000000000 0396b0 000090 18  IG 981 836  8
  [838] .text._ZNKSt10_HashtableIN5dwarf6DW_TAGES1_SaIS1_ENSt8__detail9_IdentityESt8equal_toIS1_ESt4hashIS1_ENS3_18_Mod_range_hashingENS3_20_Default_ranged_hashENS3_20_Prime_rehash_policyENS3_17_Hashtable_traitsILb1ELb1ELb1EEEE15_M_find_node_trIS1_EEPNS3_10_Hash_nodeIS1_Lb1EEEmRKT_m PROGBITS        0000000000000000 007970 000070 00 AXG  0   0  4
  [839] .rela.text._ZNKSt10_HashtableIN5dwarf6DW_TAGES1_SaIS1_ENSt8__detail9_IdentityESt8equal_toIS1_ESt4hashIS1_ENS3_18_Mod_range_hashingENS3_20_Default_ranged_hashENS3_20_Prime_rehash_policyENS3_17_Hashtable_traitsILb1ELb1ELb1EEEE15_M_find_node_trIS1_EEPNS3_10_Hash_nodeIS1_Lb1EEEmRKT_m RELA            0000000000000000 039740 000078 18  IG 981 838  8
  [840] .text._ZNSt8__detail14_Node_iteratorIN5dwarf6DW_TAGELb1ELb1EEC2EPNS_10_Hash_nodeIS2_Lb1EEE PROGBITS        0000000000000000 0079e0 000044 00 AXG  0   0  4
  [841] .rela.text._ZNSt8__detail14_Node_iteratorIN5dwarf6DW_TAGELb1ELb1EEC2EPNS_10_Hash_nodeIS2_Lb1EEE RELA            0000000000000000 0397b8 000048 18  IG 981 840  8
  [842] .text._ZNSt4pairINSt8__detail14_Node_iteratorIN5dwarf6DW_TAGELb1ELb1EEEbEC2IS4_bLb1EEEOT_OT0_ PROGBITS        0000000000000000 007a24 000070 00 AXG  0   0  4
  [843] .rela.text._ZNSt4pairINSt8__detail14_Node_iteratorIN5dwarf6DW_TAGELb1ELb1EEEbEC2IS4_bLb1EEEOT_OT0_ RELA            0000000000000000 039800 000090 18  IG 981 842  8
  [844] .text._ZNSt8__detail12_NodeBuilderINS_9_IdentityEE8_S_buildIRKN5dwarf6DW_TAGES7_NS_10_AllocNodeISaINS_10_Hash_nodeIS5_Lb1EEEEEEEEPNT1_11__node_typeEOT_OT0_RKSD_ PROGBITS        0000000000000000 007a94 00005c 00 AXG  0   0  4
  [845] .rela.text._ZNSt8__detail12_NodeBuilderINS_9_IdentityEE8_S_buildIRKN5dwarf6DW_TAGES7_NS_10_AllocNodeISaINS_10_Hash_nodeIS5_Lb1EEEEEEEEPNT1_11__node_typeEOT_OT0_RKSD_ RELA            0000000000000000 039890 000090 18  IG 981 844  8
  [846] .text._ZNSt10_HashtableIN5dwarf6DW_TAGES1_SaIS1_ENSt8__detail9_IdentityESt8equal_toIS1_ESt4hashIS1_ENS3_18_Mod_range_hashingENS3_20_Default_ranged_hashENS3_20_Prime_rehash_policyENS3_17_Hashtable_traitsILb1ELb1ELb1EEEE12_Scoped_nodeC2EPNS3_10_Hash_nodeIS1_Lb1EEEPNS3_16_Hashtable_allocISaISH_EEE PROGBITS        0000000000000000 007af0 000040 00 AXG  0   0  4
  [847] .text._ZNSt10_HashtableIN5dwarf6DW_TAGES1_SaIS1_ENSt8__detail9_IdentityESt8equal_toIS1_ESt4hashIS1_ENS3_18_Mod_range_hashingENS3_20_Default_ranged_hashENS3_20_Prime_rehash_policyENS3_17_Hashtable_traitsILb1ELb1ELb1EEEE12_Scoped_nodeD2Ev PROGBITS        0000000000000000 007b30 000058 00 AXG  0   0  4
  [848] .rela.text._ZNSt10_HashtableIN5dwarf6DW_TAGES1_SaIS1_ENSt8__detail9_IdentityESt8equal_toIS1_ESt4hashIS1_ENS3_18_Mod_range_hashingENS3_20_Default_ranged_hashENS3_20_Prime_rehash_policyENS3_17_Hashtable_traitsILb1ELb1ELb1EEEE12_Scoped_nodeD2Ev RELA            0000000000000000 039920 000060 18  IG 981 847  8
  [849] .gcc_except_table._ZNSt10_HashtableIN5dwarf6DW_TAGES1_SaIS1_ENSt8__detail9_IdentityESt8equal_toIS1_ESt4hashIS1_ENS3_18_Mod_range_hashingENS3_20_Default_ranged_hashENS3_20_Prime_rehash_policyENS3_17_Hashtable_traitsILb1ELb1ELb1EEEE12_Scoped_nodeD2Ev PROGBITS        0000000000000000 007b88 000004 00  AG  0   0  1
  [850] .text._ZNSt10_HashtableIN5dwarf6DW_TAGES1_SaIS1_ENSt8__detail9_IdentityESt8equal_toIS1_ESt4hashIS1_ENS3_18_Mod_range_hashingENS3_20_Default_ranged_hashENS3_20_Prime_rehash_policyENS3_17_Hashtable_traitsILb1ELb1ELb1EEEE21_M_insert_unique_nodeEmmPNS3_10_Hash_nodeIS1_Lb1EEEm PROGBITS        0000000000000000 007b8c 000144 00 AXG  0   0  4
  [851] .rela.text._ZNSt10_HashtableIN5dwarf6DW_TAGES1_SaIS1_ENSt8__detail9_IdentityESt8equal_toIS1_ESt4hashIS1_ENS3_18_Mod_range_hashingENS3_20_Default_ranged_hashENS3_20_Prime_rehash_policyENS3_17_Hashtable_traitsILb1ELb1ELb1EEEE21_M_insert_unique_nodeEmmPNS3_10_Hash_nodeIS1_Lb1EEEm RELA            0000000000000000 039980 0001f8 18  IG 981 850  8
  [852] .text._ZN9__gnu_cxx16__aligned_bufferIN5dwarf6DW_TAGEE7_M_addrEv PROGBITS        0000000000000000 007cd0 000024 00 AXG  0   0  4
  [853] .text._ZSt9addressofINSt8__detail10_Hash_nodeIN5dwarf6DW_TAGELb1EEEEPT_RS5_ PROGBITS        0000000000000000 007cf4 00003c 00 AXG  0   0  4
  [854] .rela.text._ZSt9addressofINSt8__detail10_Hash_nodeIN5dwarf6DW_TAGELb1EEEEPT_RS5_ RELA            0000000000000000 039b78 000048 18  IG 981 853  8
  [855] .text._ZNSt15__new_allocatorINSt8__detail10_Hash_nodeIN5dwarf6DW_TAGELb1EEEE10deallocateEPS4_m PROGBITS        0000000000000000 007d30 00003c 00 AXG  0   0  4
  [856] .rela.text._ZNSt15__new_allocatorINSt8__detail10_Hash_nodeIN5dwarf6DW_TAGELb1EEEE10deallocateEPS4_m RELA            0000000000000000 039bc0 000030 18  IG 981 855  8
  [857] .text._ZNSt15__new_allocatorISt23_Sp_counted_ptr_inplaceIN5dwarf11die_str_map4implESaIvELN9__gnu_cxx12_Lock_policyE1EEE8allocateEmPKv PROGBITS        0000000000000000 007d6c 000094 00 AXG  0   0  4
  [858] .rela.text._ZNSt15__new_allocatorISt23_Sp_counted_ptr_inplaceIN5dwarf11die_str_map4implESaIvELN9__gnu_cxx12_Lock_policyE1EEE8allocateEmPKv RELA            0000000000000000 039bf0 000108 18  IG 981 857  8
  [859] .text._ZSt11__addressofISaISt23_Sp_counted_ptr_inplaceIN5dwarf11die_str_map4implESaIvELN9__gnu_cxx12_Lock_policyE1EEEEPT_RS9_ PROGBITS        0000000000000000 007e00 000024 00 AXG  0   0  4
  [860] .text._ZNSt15__new_allocatorISt23_Sp_counted_ptr_inplaceIN5dwarf11die_str_map4implESaIvELN9__gnu_cxx12_Lock_policyE1EEE10deallocateEPS7_m PROGBITS        0000000000000000 007e24 00003c 00 AXG  0   0  4
  [861] .rela.text._ZNSt15__new_allocatorISt23_Sp_counted_ptr_inplaceIN5dwarf11die_str_map4implESaIvELN9__gnu_cxx12_Lock_policyE1EEE10deallocateEPS7_m RELA            0000000000000000 039cf8 000030 18  IG 981 860  8
  [862] .text._ZSt10_ConstructIN5dwarf11die_str_map4implEJRKNS0_3dieERNS0_5DW_ATERKSt16initializer_listINS0_6DW_TAGEEEEvPT_DpOT0_ PROGBITS        0000000000000000 007e60 000104 00 AXG  0   0  4
  [863] .rela.text._ZSt10_ConstructIN5dwarf11die_str_map4implEJRKNS0_3dieERNS0_5DW_ATERKSt16initializer_listINS0_6DW_TAGEEEEvPT_DpOT0_ RELA            0000000000000000 039d28 000210 18  IG 981 862  8
  [864] .gcc_except_table._ZSt10_ConstructIN5dwarf11die_str_map4implEJRKNS0_3dieERNS0_5DW_ATERKSt16initializer_listINS0_6DW_TAGEEEEvPT_DpOT0_ PROGBITS        0000000000000000 007f64 00001e 00  AG  0   0  1
  [865] .rela.gcc_except_table._ZSt10_ConstructIN5dwarf11die_str_map4implEJRKNS0_3dieERNS0_5DW_ATERKSt16initializer_listINS0_6DW_TAGEEEEvPT_DpOT0_ RELA            0000000000000000 039f38 0000f0 18  IG 981 864  8
  [866] .text._ZN9__gnu_cxx16__aligned_bufferIN5dwarf11die_str_map4implEE7_M_addrEv PROGBITS        0000000000000000 007f84 000024 00 AXG  0   0  4
  [867] .text._ZNK9__gnu_cxx16__aligned_bufferISt4pairIKPKcN5dwarf3dieEEE7_M_addrEv PROGBITS        0000000000000000 007fa8 000024 00 AXG  0   0  4
  [868] .text._ZNSt8__detail15_Hashtable_baseIN5dwarf6DW_TAGES2_NS_9_IdentityESt8equal_toIS2_ESt4hashIS2_ENS_18_Mod_range_hashingENS_20_Default_ranged_hashENS_17_Hashtable_traitsILb1ELb1ELb1EEEE9_S_equalsEmRKNS_21_Hash_node_code_cacheILb1EEE PROGBITS        0000000000000000 007fcc 00003c 00 AXG  0   0  4
  [869] .text._ZNKSt8__detail15_Hash_code_baseIN5dwarf6DW_TAGES2_NS_9_IdentityESt4hashIS2_ENS_18_Mod_range_hashingENS_20_Default_ranged_hashELb1EE15_M_bucket_indexERKNS_16_Hash_node_valueIS2_Lb1EEEm PROGBITS        0000000000000000 008008 000058 00 AXG  0   0  4
  [870] .rela.text._ZNKSt8__detail15_Hash_code_baseIN5dwarf6DW_TAGES2_NS_9_IdentityESt4hashIS2_ENS_18_Mod_range_hashingENS_20_Default_ranged_hashELb1EE15_M_bucket_indexERKNS_16_Hash_node_valueIS2_Lb1EEEm RELA            0000000000000000 03a028 000048 18  IG 981 869  8
  [871] .text._ZNK9__gnu_cxx16__aligned_bufferIN5dwarf6DW_TAGEE7_M_addrEv PROGBITS        0000000000000000 008060 000024 00 AXG  0   0  4
  [872] .text._ZNKSt15__new_allocatorINSt8__detail10_Hash_nodeISt4pairIKPKcN5dwarf3dieEELb1EEEE11_M_max_sizeEv PROGBITS        0000000000000000 008084 00002c 00 AXG  0   0  4
  [873] .rela.text._ZNKSt15__new_allocatorINSt8__detail10_Hash_nodeISt4pairIKPKcN5dwarf3dieEELb1EEEE11_M_max_sizeEv RELA            0000000000000000 03a070 000060 18  IG 981 872  8
  [874] .text._ZNSt11_Tuple_implILm0EJRKPKcEEC2EOS4_ PROGBITS        0000000000000000 0080b0 000034 00 AXG  0   0  4
  [875] .text._ZNSt4pairIKPKcN5dwarf3dieEEC2IJRS2_EJEEESt21piecewise_construct_tSt5tupleIJDpT_EES9_IJDpT0_EE PROGBITS        0000000000000000 0080e4 000054 00 AXG  0   0  4
  [876] .rela.text._ZNSt4pairIKPKcN5dwarf3dieEEC2IJRS2_EJEEESt21piecewise_construct_tSt5tupleIJDpT_EES9_IJDpT0_EE RELA            0000000000000000 03a0d0 000048 18  IG 981 875  8
  [877] .text._ZNSt8__detail16_Hashtable_allocISaINS_10_Hash_nodeISt4pairIKPKcN5dwarf3dieEELb1EEEEE19_M_allocate_bucketsEm PROGBITS        0000000000000000 008138 0000fc 00 AXG  0   0  4
  [878] .rela.text._ZNSt8__detail16_Hashtable_allocISaINS_10_Hash_nodeISt4pairIKPKcN5dwarf3dieEELb1EEEEE19_M_allocate_bucketsEm RELA            0000000000000000 03a118 000228 18  IG 981 877  8
  [879] .gcc_except_table._ZNSt8__detail16_Hashtable_allocISaINS_10_Hash_nodeISt4pairIKPKcN5dwarf3dieEELb1EEEEE19_M_allocate_bucketsEm PROGBITS        0000000000000000 008234 00001e 00  AG  0   0  1
  [880] .rela.gcc_except_table._ZNSt8__detail16_Hashtable_allocISaINS_10_Hash_nodeISt4pairIKPKcN5dwarf3dieEELb1EEEEE19_M_allocate_bucketsEm RELA            0000000000000000 03a340 0000f0 18  IG 981 879  8
  [881] .text._ZSt11__addressofINSt8__detail10_Hash_nodeISt4pairIKPKcN5dwarf3dieEELb1EEEEPT_RSA_ PROGBITS        0000000000000000 008254 000024 00 AXG  0   0  4
  [882] .text._ZNSt8__detail21_Hashtable_ebo_helperILi1ESt4hashIN5dwarf6DW_TAGEELb1EEC2IRKS4_EEOT_ PROGBITS        0000000000000000 008278 00003c 00 AXG  0   0  4
  [883] .rela.text._ZNSt8__detail21_Hashtable_ebo_helperILi1ESt4hashIN5dwarf6DW_TAGEELb1EEC2IRKS4_EEOT_ RELA            0000000000000000 03a430 000048 18  IG 981 882  8
  [884] .text._ZSt7forwardIRKSt8equal_toIN5dwarf6DW_TAGEEEOT_RNSt16remove_referenceIS6_E4typeE PROGBITS        0000000000000000 0082b4 000024 00 AXG  0   0  4
  [885] .text._ZNSaINSt8__detail10_Hash_nodeIN5dwarf6DW_TAGELb1EEEEC2ERKS4_ PROGBITS        0000000000000000 0082d8 000040 00 AXG  0   0  4
  [886] .rela.text._ZNSaINSt8__detail10_Hash_nodeIN5dwarf6DW_TAGELb1EEEEC2ERKS4_ RELA            0000000000000000 03a478 000048 18  IG 981 885  8
  [887] .text._ZNSt15__new_allocatorIPNSt8__detail15_Hash_node_baseEE8allocateEmPKv PROGBITS        0000000000000000 008318 000094 00 AXG  0   0  4
  [888] .rela.text._ZNSt15__new_allocatorIPNSt8__detail15_Hash_node_baseEE8allocateEmPKv RELA            0000000000000000 03a4c0 000108 18  IG 981 887  8
  [889] .text._ZSt7forwardIRNSt8__detail14_Node_iteratorIN5dwarf6DW_TAGELb1ELb1EEEEOT_RNSt16remove_referenceIS6_E4typeE PROGBITS        0000000000000000 0083ac 000024 00 AXG  0   0  4
  [890] .text._ZNKSt10_HashtableIN5dwarf6DW_TAGES1_SaIS1_ENSt8__detail9_IdentityESt8equal_toIS1_ESt4hashIS1_ENS3_18_Mod_range_hashingENS3_20_Default_ranged_hashENS3_20_Prime_rehash_policyENS3_17_Hashtable_traitsILb1ELb1ELb1EEEE22_M_find_before_node_trIS1_EEPNS3_15_Hash_node_baseEmRKT_m PROGBITS        0000000000000000 0083d0 00011c 00 AXG  0   0  4
  [891] .rela.text._ZNKSt10_HashtableIN5dwarf6DW_TAGES1_SaIS1_ENSt8__detail9_IdentityESt8equal_toIS1_ESt4hashIS1_ENS3_18_Mod_range_hashingENS3_20_Default_ranged_hashENS3_20_Prime_rehash_policyENS3_17_Hashtable_traitsILb1ELb1ELb1EEEE22_M_find_before_node_trIS1_EEPNS3_15_Hash_node_baseEmRKT_m RELA            0000000000000000 03a5c8 0001f8 18  IG 981 890  8
  [892] .text._ZSt7forwardINSt8__detail14_Node_iteratorIN5dwarf6DW_TAGELb1ELb1EEEEOT_RNSt16remove_referenceIS5_E4typeE PROGBITS        0000000000000000 0084ec 000024 00 AXG  0   0  4
  [893] .text._ZNKSt8__detail10_AllocNodeISaINS_10_Hash_nodeIN5dwarf6DW_TAGELb1EEEEEclIJRKS3_EEEPS4_DpOT_ PROGBITS        0000000000000000 008510 000068 00 AXG  0   0  4
  [894] .rela.text._ZNKSt8__detail10_AllocNodeISaINS_10_Hash_nodeIN5dwarf6DW_TAGELb1EEEEEclIJRKS3_EEEPS4_DpOT_ RELA            0000000000000000 03a7c0 000090 18  IG 981 893  8
  [895] .text._ZNSt10_HashtableIN5dwarf6DW_TAGES1_SaIS1_ENSt8__detail9_IdentityESt8equal_toIS1_ESt4hashIS1_ENS3_18_Mod_range_hashingENS3_20_Default_ranged_hashENS3_20_Prime_rehash_policyENS3_17_Hashtable_traitsILb1ELb1ELb1EEEE9_M_rehashEmRKm PROGBITS        0000000000000000 008578 0000a8 00 AXG  0   0  4
  [896] .rela.text._ZNSt10_HashtableIN5dwarf6DW_TAGES1_SaIS1_ENSt8__detail9_IdentityESt8equal_toIS1_ESt4hashIS1_ENS3_18_Mod_range_hashingENS3_20_Default_ranged_hashENS3_20_Prime_rehash_policyENS3_17_Hashtable_traitsILb1ELb1ELb1EEEE9_M_rehashEmRKm RELA            0000000000000000 03a850 000168 18  IG 981 895  8
  [897] .gcc_except_table._ZNSt10_HashtableIN5dwarf6DW_TAGES1_SaIS1_ENSt8__detail9_IdentityESt8equal_toIS1_ESt4hashIS1_ENS3_18_Mod_range_hashingENS3_20_Default_ranged_hashENS3_20_Prime_rehash_policyENS3_17_Hashtable_traitsILb1ELb1ELb1EEEE9_M_rehashEmRKm PROGBITS        0000000000000000 008620 000034 00  AG  0   0  4
  [898] .rela.gcc_except_table._ZNSt10_HashtableIN5dwarf6DW_TAGES1_SaIS1_ENSt8__detail9_IdentityESt8equal_toIS1_ESt4hashIS1_ENS3_18_Mod_range_hashingENS3_20_Default_ranged_hashENS3_20_Prime_rehash_policyENS3_17_Hashtable_traitsILb1ELb1ELb1EEEE9_M_rehashEmRKm RELA            0000000000000000 03a9b8 000180 18  IG 981 897  8
  [899] .text._ZNKSt8__detail15_Hash_code_baseIN5dwarf6DW_TAGES2_NS_9_IdentityESt4hashIS2_ENS_18_Mod_range_hashingENS_20_Default_ranged_hashELb1EE13_M_store_codeERNS_21_Hash_node_code_cacheILb1EEEm PROGBITS        0000000000000000 008654 000034 00 AXG  0   0  4
  [900] .text._ZNSt10_HashtableIN5dwarf6DW_TAGES1_SaIS1_ENSt8__detail9_IdentityESt8equal_toIS1_ESt4hashIS1_ENS3_18_Mod_range_hashingENS3_20_Default_ranged_hashENS3_20_Prime_rehash_policyENS3_17_Hashtable_traitsILb1ELb1ELb1EEEE22_M_insert_bucket_beginEmPNS3_10_Hash_nodeIS1_Lb1EEE PROGBITS        0000000000000000 008688 00012c 00 AXG  0   0  4
  [901] .rela.text._ZNSt10_HashtableIN5dwarf6DW_TAGES1_SaIS1_ENSt8__detail9_IdentityESt8equal_toIS1_ESt4hashIS1_ENS3_18_Mod_range_hashingENS3_20_Default_ranged_hashENS3_20_Prime_rehash_policyENS3_17_Hashtable_traitsILb1ELb1ELb1EEEE22_M_insert_bucket_beginEmPNS3_10_Hash_nodeIS1_Lb1EEE RELA            0000000000000000 03ab38 0000d8 18  IG 981 900  8
  [902] .text._ZSt11__addressofINSt8__detail10_Hash_nodeIN5dwarf6DW_TAGELb1EEEEPT_RS5_ PROGBITS        0000000000000000 0087b4 000024 00 AXG  0   0  4
  [903] .text._ZNKSt15__new_allocatorISt23_Sp_counted_ptr_inplaceIN5dwarf11die_str_map4implESaIvELN9__gnu_cxx12_Lock_policyE1EEE11_M_max_sizeEv PROGBITS        0000000000000000 0087d8 000028 00 AXG  0   0  4
  [904] .text._ZNSt4pairIKPKcN5dwarf3dieEEC2IJRS2_EJLm0EEJEJEEERSt5tupleIJDpT_EERS8_IJDpT1_EESt12_Index_tupleIJXspT0_EEESH_IJXspT2_EEE PROGBITS        0000000000000000 008800 000084 00 AXG  0   0  4
  [905] .rela.text._ZNSt4pairIKPKcN5dwarf3dieEEC2IJRS2_EJLm0EEJEJEEERSt5tupleIJDpT_EERS8_IJDpT1_EESt12_Index_tupleIJXspT0_EEESH_IJXspT2_EEE RELA            0000000000000000 03ac10 0000d8 18  IG 981 904  8
  [906] .text._ZSt7forwardIRKSt4hashIN5dwarf6DW_TAGEEEOT_RNSt16remove_referenceIS6_E4typeE PROGBITS        0000000000000000 008884 000024 00 AXG  0   0  4
  [907] .text._ZNSt15__new_allocatorINSt8__detail10_Hash_nodeIN5dwarf6DW_TAGELb1EEEEC2ERKS5_ PROGBITS        0000000000000000 0088a8 000024 00 AXG  0   0  4
  [908] .text._ZNKSt15__new_allocatorIPNSt8__detail15_Hash_node_baseEE11_M_max_sizeEv PROGBITS        0000000000000000 0088cc 000028 00 AXG  0   0  4
  [909] .text._ZNKSt8__detail15_Hashtable_baseIN5dwarf6DW_TAGES2_NS_9_IdentityESt8equal_toIS2_ESt4hashIS2_ENS_18_Mod_range_hashingENS_20_Default_ranged_hashENS_17_Hashtable_traitsILb1ELb1ELb1EEEE12_M_equals_trIS2_EEbRKT_mRKNS_16_Hash_node_valueIS2_Lb1EEE PROGBITS        0000000000000000 0088f4 000084 00 AXG  0   0  4
  [910] .rela.text._ZNKSt8__detail15_Hashtable_baseIN5dwarf6DW_TAGES2_NS_9_IdentityESt8equal_toIS2_ESt4hashIS2_ENS_18_Mod_range_hashingENS_20_Default_ranged_hashENS_17_Hashtable_traitsILb1ELb1ELb1EEEE12_M_equals_trIS2_EEbRKT_mRKNS_16_Hash_node_valueIS2_Lb1EEE RELA            0000000000000000 03ace8 0000d8 18  IG 981 909  8
  [911] .text._ZNSt8__detail10_Hash_nodeIN5dwarf6DW_TAGELb1EEC2Ev PROGBITS        0000000000000000 008978 00003c 00 AXG  0   0  4
  [912] .rela.text._ZNSt8__detail10_Hash_nodeIN5dwarf6DW_TAGELb1EEC2Ev RELA            0000000000000000 03adc0 000048 18  IG 981 911  8
  [913] .text._ZNSt8__detail16_Hashtable_allocISaINS_10_Hash_nodeIN5dwarf6DW_TAGELb1EEEEE16_M_allocate_nodeIJRKS3_EEEPS4_DpOT_ PROGBITS        0000000000000000 0089b4 00010c 00 AXG  0   0  4
  [914] .rela.text._ZNSt8__detail16_Hashtable_allocISaINS_10_Hash_nodeIN5dwarf6DW_TAGELb1EEEEE16_M_allocate_nodeIJRKS3_EEEPS4_DpOT_ RELA            0000000000000000 03ae08 000288 18  IG 981 913  8
  [915] .text._ZNSt10_HashtableIN5dwarf6DW_TAGES1_SaIS1_ENSt8__detail9_IdentityESt8equal_toIS1_ESt4hashIS1_ENS3_18_Mod_range_hashingENS3_20_Default_ranged_hashENS3_20_Prime_rehash_policyENS3_17_Hashtable_traitsILb1ELb1ELb1EEEE13_M_rehash_auxEmSt17integral_constantIbLb1EE PROGBITS        0000000000000000 008ac0 00019c 00 AXG  0   0  4
  [916] .rela.text._ZNSt10_HashtableIN5dwarf6DW_TAGES1_SaIS1_ENSt8__detail9_IdentityESt8equal_toIS1_ESt4hashIS1_ENS3_18_Mod_range_hashingENS3_20_Default_ranged_hashENS3_20_Prime_rehash_policyENS3_17_Hashtable_traitsILb1ELb1ELb1EEEE13_M_rehash_auxEmSt17integral_constantIbLb1EE RELA            0000000000000000 03b090 0001e0 18  IG 981 915  8
  [917] .text._ZSt3getILm0EJRKPKcEERNSt13tuple_elementIXT_ESt5tupleIJDpT0_EEE4typeERS8_ PROGBITS        0000000000000000 008c5c 000040 00 AXG  0   0  4
  [918] .rela.text._ZSt3getILm0EJRKPKcEERNSt13tuple_elementIXT_ESt5tupleIJDpT0_EEE4typeERS8_ RELA            0000000000000000 03b270 000048 18  IG 981 917  8
  [919] .text._ZSt7forwardIRKPKcEOT_RNSt16remove_referenceIS4_E4typeE PROGBITS        0000000000000000 008c9c 000024 00 AXG  0   0  4
  [920] .text._ZNSt16allocator_traitsISaINSt8__detail10_Hash_nodeIN5dwarf6DW_TAGELb1EEEEE8allocateERS5_m PROGBITS        0000000000000000 008cc0 000048 00 AXG  0   0  4
  [921] .rela.text._ZNSt16allocator_traitsISaINSt8__detail10_Hash_nodeIN5dwarf6DW_TAGELb1EEEEE8allocateERS5_m RELA            0000000000000000 03b2b8 000048 18  IG 981 920  8
  [922] .text._ZSt12__to_addressINSt8__detail10_Hash_nodeIN5dwarf6DW_TAGELb1EEEEPT_S6_ PROGBITS        0000000000000000 008d08 000024 00 AXG  0   0  4
  [923] .text._ZNSt16allocator_traitsISaINSt8__detail10_Hash_nodeIN5dwarf6DW_TAGELb1EEEEE9constructIS3_JRKS3_EEEvRS5_PT_DpOT0_ PROGBITS        0000000000000000 008d2c 00005c 00 AXG  0   0  4
  [924] .rela.text._ZNSt16allocator_traitsISaINSt8__detail10_Hash_nodeIN5dwarf6DW_TAGELb1EEEEE9constructIS3_JRKS3_EEEvRS5_PT_DpOT0_ RELA            0000000000000000 03b300 000090 18  IG 981 923  8
  [925] .text._ZSt12__get_helperILm0ERKPKcJEERT0_RSt11_Tuple_implIXT_EJS4_DpT1_EE PROGBITS        0000000000000000 008d88 00003c 00 AXG  0   0  4
  [926] .rela.text._ZSt12__get_helperILm0ERKPKcJEERT0_RSt11_Tuple_implIXT_EJS4_DpT1_EE RELA            0000000000000000 03b390 000048 18  IG 981 925  8
  [927] .text._ZNSt15__new_allocatorINSt8__detail10_Hash_nodeIN5dwarf6DW_TAGELb1EEEE8allocateEmPKv PROGBITS        0000000000000000 008dc4 0000a4 00 AXG  0   0  4
  [928] .rela.text._ZNSt15__new_allocatorINSt8__detail10_Hash_nodeIN5dwarf6DW_TAGELb1EEEE8allocateEmPKv RELA            0000000000000000 03b3d8 000168 18  IG 981 927  8
  [929] .text._ZNSt15__new_allocatorINSt8__detail10_Hash_nodeIN5dwarf6DW_TAGELb1EEEE9constructIS3_JRKS3_EEEvPT_DpOT0_ PROGBITS        0000000000000000 008e68 000070 00 AXG  0   0  4
  [930] .rela.text._ZNSt15__new_allocatorINSt8__detail10_Hash_nodeIN5dwarf6DW_TAGELb1EEEE9constructIS3_JRKS3_EEEvPT_DpOT0_ RELA            0000000000000000 03b540 000090 18  IG 981 929  8
  [931] .text._ZNSt11_Tuple_implILm0EJRKPKcEE7_M_headERS4_ PROGBITS        0000000000000000 008ed8 000040 00 AXG  0   0  4
  [932] .rela.text._ZNSt11_Tuple_implILm0EJRKPKcEE7_M_headERS4_ RELA            0000000000000000 03b5d0 000048 18  IG 981 931  8
  [933] .text._ZNKSt15__new_allocatorINSt8__detail10_Hash_nodeIN5dwarf6DW_TAGELb1EEEE11_M_max_sizeEv PROGBITS        0000000000000000 008f18 00002c 00 AXG  0   0  4
  [934] .rela.text._ZNKSt15__new_allocatorINSt8__detail10_Hash_nodeIN5dwarf6DW_TAGELb1EEEE11_M_max_sizeEv RELA            0000000000000000 03b618 000060 18  IG 981 933  8
  [935] .text._ZNSt10_Head_baseILm0ERKPKcLb0EE7_M_headERS4_ PROGBITS        0000000000000000 008f44 000028 00 AXG  0   0  4
  [936] .data.rel.ro._ZTVSt23_Sp_counted_ptr_inplaceIN5dwarf11die_str_map4implESaIvELN9__gnu_cxx12_Lock_policyE1EE PROGBITS        0000000000000000 008f70 000038 00 WAG  0   0  8
  [937] .rela.data.rel.ro._ZTVSt23_Sp_counted_ptr_inplaceIN5dwarf11die_str_map4implESaIvELN9__gnu_cxx12_Lock_policyE1EE RELA            0000000000000000 03b678 000090 18  IG 981 936  8
  [938] .data.rel.ro._ZTVSt16_Sp_counted_baseILN9__gnu_cxx12_Lock_policyE1EE PROGBITS        0000000000000000 008fa8 000038 00 WAG  0   0  8
  [939] .rela.data.rel.ro._ZTVSt16_Sp_counted_baseILN9__gnu_cxx12_Lock_policyE1EE RELA            0000000000000000 03b708 000060 18  IG 981 938  8
  [940] .data.rel.ro._ZTISt23_Sp_counted_ptr_inplaceIN5dwarf11die_str_map4implESaIvELN9__gnu_cxx12_Lock_policyE1EE PROGBITS        0000000000000000 008fe0 000018 00 WAG  0   0  8
  [941] .rela.data.rel.ro._ZTISt23_Sp_counted_ptr_inplaceIN5dwarf11die_str_map4implESaIvELN9__gnu_cxx12_Lock_policyE1EE RELA            0000000000000000 03b768 000048 18  IG 981 940  8
  [942] .rodata._ZTSSt23_Sp_counted_ptr_inplaceIN5dwarf11die_str_map4implESaIvELN9__gnu_cxx12_Lock_policyE1EE PROGBITS        0000000000000000 008ff8 00005a 00  AG  0   0  8
  [943] .data.rel.ro._ZTISt16_Sp_counted_baseILN9__gnu_cxx12_Lock_policyE1EE PROGBITS        0000000000000000 009058 000028 00 WAG  0   0  8
  [944] .rela.data.rel.ro._ZTISt16_Sp_counted_baseILN9__gnu_cxx12_Lock_policyE1EE RELA            0000000000000000 03b7b0 000048 18  IG 981 943  8
  [945] .rodata._ZTSSt16_Sp_counted_baseILN9__gnu_cxx12_Lock_policyE1EE PROGBITS        0000000000000000 009080 000034 00  AG  0   0  8
  [946] .text._ZNSt23_Sp_counted_ptr_inplaceIN5dwarf11die_str_map4implESaIvELN9__gnu_cxx12_Lock_policyE1EED2Ev PROGBITS        0000000000000000 0090b4 000050 00 AXG  0   0  4
  [947] .rela.text._ZNSt23_Sp_counted_ptr_inplaceIN5dwarf11die_str_map4implESaIvELN9__gnu_cxx12_Lock_policyE1EED2Ev RELA            0000000000000000 03b7f8 000090 18  IG 981 946  8
  [948] .text._ZNSt23_Sp_counted_ptr_inplaceIN5dwarf11die_str_map4implESaIvELN9__gnu_cxx12_Lock_policyE1EED0Ev PROGBITS        0000000000000000 009104 000040 00 AXG  0   0  4
  [949] .rela.text._ZNSt23_Sp_counted_ptr_inplaceIN5dwarf11die_str_map4implESaIvELN9__gnu_cxx12_Lock_policyE1EED0Ev RELA            0000000000000000 03b888 000078 18  IG 981 948  8
  [950] .text._ZNSt23_Sp_counted_ptr_inplaceIN5dwarf11die_str_map4implESaIvELN9__gnu_cxx12_Lock_policyE1EE10_M_disposeEv PROGBITS        0000000000000000 009144 000074 00 AXG  0   0  4
  [951] .rela.text._ZNSt23_Sp_counted_ptr_inplaceIN5dwarf11die_str_map4implESaIvELN9__gnu_cxx12_Lock_policyE1EE10_M_disposeEv RELA            0000000000000000 03b900 0000d8 18  IG 981 950  8
  [952] .text._ZNSt23_Sp_counted_ptr_inplaceIN5dwarf11die_str_map4implESaIvELN9__gnu_cxx12_Lock_policyE1EE10_M_destroyEv PROGBITS        0000000000000000 0091b8 0000b0 00 AXG  0   0  4
  [953] .rela.text._ZNSt23_Sp_counted_ptr_inplaceIN5dwarf11die_str_map4implESaIvELN9__gnu_cxx12_Lock_policyE1EE10_M_destroyEv RELA            0000000000000000 03b9d8 0001b0 18  IG 981 952  8
  [954] .text._ZNSt23_Sp_counted_ptr_inplaceIN5dwarf11die_str_map4implESaIvELN9__gnu_cxx12_Lock_policyE1EE14_M_get_deleterERKSt9type_info PROGBITS        0000000000000000 009268 000094 00 AXG  0   0  4
  [955] .rela.text._ZNSt23_Sp_counted_ptr_inplaceIN5dwarf11die_str_map4implESaIvELN9__gnu_cxx12_Lock_policyE1EE14_M_get_deleterERKSt9type_info RELA            0000000000000000 03bb88 000198 18  IG 981 954  8
  [956] .text._ZNSt23_Sp_counted_ptr_inplaceIN5dwarf11die_str_map4implESaIvELN9__gnu_cxx12_Lock_policyE1EE5_Impl8_M_allocEv PROGBITS        0000000000000000 0092fc 00003c 00 AXG  0   0  4
  [957] .rela.text._ZNSt23_Sp_counted_ptr_inplaceIN5dwarf11die_str_map4implESaIvELN9__gnu_cxx12_Lock_policyE1EE5_Impl8_M_allocEv RELA            0000000000000000 03bd20 000048 18  IG 981 956  8
  [958] .text._ZNSt16allocator_traitsISaIvEE7destroyIN5dwarf11die_str_map4implEEEvRS0_PT_ PROGBITS        0000000000000000 009338 00003c 00 AXG  0   0  4
  [959] .rela.text._ZNSt16allocator_traitsISaIvEE7destroyIN5dwarf11die_str_map4implEEEvRS0_PT_ RELA            0000000000000000 03bd68 000048 18  IG 981 958  8
  [960] .text._ZNSt14_Sp_ebo_helperILi0ESaIvELb1EE6_S_getERS1_ PROGBITS        0000000000000000 009374 000024 00 AXG  0   0  4
  [961] .text._ZN5dwarf11die_str_map4implD2Ev PROGBITS        0000000000000000 009398 00009c 00 AXG  0   0  4
  [962] .rela.text._ZN5dwarf11die_str_map4implD2Ev RELA            0000000000000000 03bdb0 000168 18  IG 981 961  8
  [963] .text._ZSt8_DestroyIN5dwarf11die_str_map4implEEvPT_ PROGBITS        0000000000000000 009434 000038 00 AXG  0   0  4
  [964] .rela.text._ZSt8_DestroyIN5dwarf11die_str_map4implEEvPT_ RELA            0000000000000000 03bf18 000048 18  IG 981 963  8
  [965] .data.rel.ro._ZTISt19_Sp_make_shared_tag PROGBITS        0000000000000000 009470 000010 00 WAG  0   0  8
  [966] .rela.data.rel.ro._ZTISt19_Sp_make_shared_tag RELA            0000000000000000 03bf60 000030 18  IG 981 965  8
  [967] .rodata._ZTSSt19_Sp_make_shared_tag PROGBITS        0000000000000000 009480 000018 00  AG  0   0  8
  [968] .data.rel.ro._ZTISt11_Mutex_baseILN9__gnu_cxx12_Lock_policyE1EE PROGBITS        0000000000000000 009498 000018 00 WAG  0   0  8
  [969] .rela.data.rel.ro._ZTISt11_Mutex_baseILN9__gnu_cxx12_Lock_policyE1EE RELA            0000000000000000 03bf90 000048 18  IG 981 968  8
  [970] .rodata._ZTSSt11_Mutex_baseILN9__gnu_cxx12_Lock_policyE1EE PROGBITS        0000000000000000 0094b0 00002f 00  AG  0   0  8
  [971] .data.rel.ro._ZTIN9__gnu_cxx7__mutexE PROGBITS        0000000000000000 0094e0 000010 00 WAG  0   0  8
  [972] .rela.data.rel.ro._ZTIN9__gnu_cxx7__mutexE RELA            0000000000000000 03bfd8 000030 18  IG 981 971  8
  [973] .rodata._ZTSN9__gnu_cxx7__mutexE PROGBITS        0000000000000000 0094f0 000015 00  AG  0   0  8
  [974] .data.rel.local.DW.ref.__gxx_personality_v0 PROGBITS        0000000000000000 009508 000008 00 WAG  0   0  8
  [975] .rela.data.rel.local.DW.ref.__gxx_personality_v0 RELA            0000000000000000 03c008 000018 18  IG 981 974  8
  [976] .comment          PROGBITS        0000000000000000 009510 00001c 01  MS  0   0  1
  [977] .note.GNU-stack   PROGBITS        0000000000000000 00952c 000000 00      0   0  1
  [978] .eh_frame         PROGBITS        0000000000000000 009530 0034b0 00   A  0   0  8
  [979] .rela.eh_frame    RELA            0000000000000000 03c020 006de0 18   I 981 978  8
  [980] .riscv.attributes RISCV_ATTRIBUTES 0000000000000000 00c9e0 000030 00      0   0  1
  [981] .symtab           SYMTAB          0000000000000000 00ca10 0134b8 18     982 2824  8
  [982] .strtab           STRTAB          0000000000000000 01fec8 00f65f 00      0   0  1
  [983] .shstrtab         STRTAB          0000000000000000 042e00 00c006 00      0   0  1
Key to Flags:
  W (write), A (alloc), X (execute), M (merge), S (strings), I (info),
  L (link order), O (extra OS processing required), G (group), T (TLS),
  C (compressed), x (unknown), o (OS specific), E (exclude),
  R (retain), D (mbind), p (processor specific)

COMDAT group section [    1] `.group' [_ZSt23__is_constant_evaluatedv] contains 1 sections:
   [Index]    Name
   [  348]   .text._ZSt23__is_constant_evaluatedv

COMDAT group section [    2] `.group' [_ZnwmPv] contains 1 sections:
   [Index]    Name
   [  349]   .text._ZnwmPv

COMDAT group section [    3] `.group' [_ZdlPvS_] contains 1 sections:
   [Index]    Name
   [  350]   .text._ZdlPvS_

COMDAT group section [    4] `.group' [_ZNKSt9type_info4nameEv] contains 2 sections:
   [Index]    Name
   [  352]   .text._ZNKSt9type_info4nameEv
   [  353]   .rela.text._ZNKSt9type_info4nameEv

COMDAT group section [    5] `.group' [_ZNKSt9type_infoeqERKS_] contains 2 sections:
   [Index]    Name
   [  354]   .text._ZNKSt9type_infoeqERKS_
   [  355]   .rela.text._ZNKSt9type_infoeqERKS_

COMDAT group section [    6] `.group' [_ZN9__gnu_cxx7__mutexC5Ev] contains 1 sections:
   [Index]    Name
   [  356]   .text._ZN9__gnu_cxx7__mutexC2Ev

COMDAT group section [    7] `.group' [_ZZNSt19_Sp_make_shared_tag5_S_tiEvE5__tag] contains 1 sections:
   [Index]    Name
   [  357]   .rodata._ZZNSt19_Sp_make_shared_tag5_S_tiEvE5__tag

COMDAT group section [    8] `.group' [_ZNSt19_Sp_make_shared_tag5_S_tiEv] contains 2 sections:
   [Index]    Name
   [  358]   .text._ZNSt19_Sp_make_shared_tag5_S_tiEv
   [  359]   .rela.text._ZNSt19_Sp_make_shared_tag5_S_tiEv

COMDAT group section [    9] `.group' [_ZN5dwarf3dieC5Ev] contains 2 sections:
   [Index]    Name
   [  360]   .text._ZN5dwarf3dieC2Ev
   [  361]   .rela.text._ZN5dwarf3dieC2Ev

COMDAT group section [   10] `.group' [_ZNK5dwarf3die8iteratordeEv] contains 1 sections:
   [Index]    Name
   [  362]   .text._ZNK5dwarf3die8iteratordeEv

COMDAT group section [   11] `.group' [_ZNK5dwarf3die8iteratorneERKS1_] contains 2 sections:
   [Index]    Name
   [  363]   .text._ZNK5dwarf3die8iteratorneERKS1_
   [  364]   .rela.text._ZNK5dwarf3die8iteratorneERKS1_

COMDAT group section [   12] `.group' [_ZN5dwarf3dieD5Ev] contains 2 sections:
   [Index]    Name
   [  365]   .text._ZN5dwarf3dieD2Ev
   [  366]   .rela.text._ZN5dwarf3dieD2Ev

COMDAT group section [   13] `.group' [_ZN5dwarf3die8iteratorC5Ev] contains 2 sections:
   [Index]    Name
   [  367]   .text._ZN5dwarf3die8iteratorC2Ev
   [  368]   .rela.text._ZN5dwarf3die8iteratorC2Ev

COMDAT group section [   14] `.group' [_ZN5dwarf3die8iteratorD5Ev] contains 2 sections:
   [Index]    Name
   [  369]   .text._ZN5dwarf3die8iteratorD2Ev
   [  370]   .rela.text._ZN5dwarf3die8iteratorD2Ev

COMDAT group section [   15] `.group' [_ZNK5dwarf3die3endEv] contains 2 sections:
   [Index]    Name
   [  371]   .text._ZNK5dwarf3die3endEv
   [  372]   .rela.text._ZNK5dwarf3die3endEv

COMDAT group section [   16] `.group' [_ZNK5dwarf5value8get_typeEv] contains 1 sections:
   [Index]    Name
   [  373]   .text._ZNK5dwarf5value8get_typeEv

COMDAT group section [   17] `.group' [_ZNSt8__detail15_Hash_node_baseC5Ev] contains 1 sections:
   [Index]    Name
   [  374]   .text._ZNSt8__detail15_Hash_node_baseC2Ev

COMDAT group section [   18] `.group' [_ZNKSt8__detail18_Mod_range_hashingclEmm] contains 1 sections:
   [Index]    Name
   [  375]   .text._ZNKSt8__detail18_Mod_range_hashingclEmm

COMDAT group section [   19] `.group' [_ZNSt8__detail20_Prime_rehash_policyC5Ef] contains 1 sections:
   [Index]    Name
   [  376]   .text._ZNSt8__detail20_Prime_rehash_policyC2Ef

COMDAT group section [   20] `.group' [_ZNKSt8__detail20_Prime_rehash_policy8_M_stateEv] contains 1 sections:
   [Index]    Name
   [  377]   .text._ZNKSt8__detail20_Prime_rehash_policy8_M_stateEv

COMDAT group section [   21] `.group' [_ZNSt8__detail20_Prime_rehash_policy8_M_resetEm] contains 1 sections:
   [Index]    Name
   [  378]   .text._ZNSt8__detail20_Prime_rehash_policy8_M_resetEm

COMDAT group section [   22] `.group' [_ZNKSt4hashIN5dwarf6DW_TAGEEclES1_] contains 1 sections:
   [Index]    Name
   [  379]   .text._ZNKSt4hashIN5dwarf6DW_TAGEEclES1_

COMDAT group section [   23] `.group' [_ZNK5dwarf11string_hashclEPKc] contains 2 sections:
   [Index]    Name
   [  380]   .text._ZNK5dwarf11string_hashclEPKc
   [  381]   .rela.text._ZNK5dwarf11string_hashclEPKc

COMDAT group section [   24] `.group' [_ZNK5dwarf9string_eqclEPKcS2_] contains 2 sections:
   [Index]    Name
   [  382]   .text._ZNK5dwarf9string_eqclEPKcS2_
   [  383]   .rela.text._ZNK5dwarf9string_eqclEPKcS2_

COMDAT group section [   25] `.group' [_ZNSt8__detail15_Hash_code_baseIPKcSt4pairIKS2_N5dwarf3dieEENS_10_Select1stENS5_11string_hashENS_18_Mod_range_hashingENS_20_Default_ranged_hashELb1EEC5Ev] contains 2 sections:
   [Index]    Name
   [  384]   .text._ZNSt8__detail15_Hash_code_baseIPKcSt4pairIKS2_N5dwarf3dieEENS_10_Select1stENS5_11string_hashENS_18_Mod_range_hashingENS_20_Default_ranged_hashELb1EEC2Ev
   [  385]   .rela.text._ZNSt8__detail15_Hash_code_baseIPKcSt4pairIKS2_N5dwarf3dieEENS_10_Select1stENS5_11string_hashENS_18_Mod_range_hashingENS_20_Default_ranged_hashELb1EEC2Ev

COMDAT group section [   26] `.group' [_ZNSt8__detail15_Hashtable_baseIPKcSt4pairIKS2_N5dwarf3dieEENS_10_Select1stENS5_9string_eqENS5_11string_hashENS_18_Mod_range_hashingENS_20_Default_ranged_hashENS_17_Hashtable_traitsILb1ELb0ELb1EEEEC5Ev] contains 2 sections:
   [Index]    Name
   [  386]   .text._ZNSt8__detail15_Hashtable_baseIPKcSt4pairIKS2_N5dwarf3dieEENS_10_Select1stENS5_9string_eqENS5_11string_hashENS_18_Mod_range_hashingENS_20_Default_ranged_hashENS_17_Hashtable_traitsILb1ELb0ELb1EEEEC2Ev
   [  387]   .rela.text._ZNSt8__detail15_Hashtable_baseIPKcSt4pairIKS2_N5dwarf3dieEENS_10_Select1stENS5_9string_eqENS5_11string_hashENS_18_Mod_range_hashingENS_20_Default_ranged_hashENS_17_Hashtable_traitsILb1ELb0ELb1EEEEC2Ev

COMDAT group section [   27] `.group' [_ZNSt8__detail21_Hashtable_ebo_helperILi0ESaINS_10_Hash_nodeISt4pairIKPKcN5dwarf3dieEELb1EEEELb1EED5Ev] contains 2 sections:
   [Index]    Name
   [  388]   .text._ZNSt8__detail21_Hashtable_ebo_helperILi0ESaINS_10_Hash_nodeISt4pairIKPKcN5dwarf3dieEELb1EEEELb1EED2Ev
   [  389]   .rela.text._ZNSt8__detail21_Hashtable_ebo_helperILi0ESaINS_10_Hash_nodeISt4pairIKPKcN5dwarf3dieEELb1EEEELb1EED2Ev

COMDAT group section [   28] `.group' [_ZNSt8__detail16_Hashtable_allocISaINS_10_Hash_nodeISt4pairIKPKcN5dwarf3dieEELb1EEEEEC5Ev] contains 2 sections:
   [Index]    Name
   [  390]   .text._ZNSt8__detail16_Hashtable_allocISaINS_10_Hash_nodeISt4pairIKPKcN5dwarf3dieEELb1EEEEEC2Ev
   [  391]   .rela.text._ZNSt8__detail16_Hashtable_allocISaINS_10_Hash_nodeISt4pairIKPKcN5dwarf3dieEELb1EEEEEC2Ev

COMDAT group section [   29] `.group' [_ZNSt8__detail16_Hashtable_allocISaINS_10_Hash_nodeISt4pairIKPKcN5dwarf3dieEELb1EEEEED5Ev] contains 2 sections:
   [Index]    Name
   [  392]   .text._ZNSt8__detail16_Hashtable_allocISaINS_10_Hash_nodeISt4pairIKPKcN5dwarf3dieEELb1EEEEED2Ev
   [  393]   .rela.text._ZNSt8__detail16_Hashtable_allocISaINS_10_Hash_nodeISt4pairIKPKcN5dwarf3dieEELb1EEEEED2Ev

COMDAT group section [   30] `.group' [_ZNSt10_HashtableIPKcSt4pairIKS1_N5dwarf3dieEESaIS6_ENSt8__detail10_Select1stENS4_9string_eqENS4_11string_hashENS8_18_Mod_range_hashingENS8_20_Default_ranged_hashENS8_20_Prime_rehash_policyENS8_17_Hashtable_traitsILb1ELb0ELb1EEEEC5Ev] contains 2 sections:
   [Index]    Name
   [  394]   .text._ZNSt10_HashtableIPKcSt4pairIKS1_N5dwarf3dieEESaIS6_ENSt8__detail10_Select1stENS4_9string_eqENS4_11string_hashENS8_18_Mod_range_hashingENS8_20_Default_ranged_hashENS8_20_Prime_rehash_policyENS8_17_Hashtable_traitsILb1ELb0ELb1EEEEC2Ev
   [  395]   .rela.text._ZNSt10_HashtableIPKcSt4pairIKS1_N5dwarf3dieEESaIS6_ENSt8__detail10_Select1stENS4_9string_eqENS4_11string_hashENS8_18_Mod_range_hashingENS8_20_Default_ranged_hashENS8_20_Prime_rehash_policyENS8_17_Hashtable_traitsILb1ELb0ELb1EEEEC2Ev

COMDAT group section [   31] `.group' [_ZNSt13unordered_mapIPKcN5dwarf3dieENS2_11string_hashENS2_9string_eqESaISt4pairIKS1_S3_EEEC5Ev] contains 2 sections:
   [Index]    Name
   [  396]   .text._ZNSt13unordered_mapIPKcN5dwarf3dieENS2_11string_hashENS2_9string_eqESaISt4pairIKS1_S3_EEEC2Ev
   [  397]   .rela.text._ZNSt13unordered_mapIPKcN5dwarf3dieENS2_11string_hashENS2_9string_eqESaISt4pairIKS1_S3_EEEC2Ev

COMDAT group section [   32] `.group' [_ZNSt13unordered_mapIPKcN5dwarf3dieENS2_11string_hashENS2_9string_eqESaISt4pairIKS1_S3_EEED5Ev] contains 2 sections:
   [Index]    Name
   [  398]   .text._ZNSt13unordered_mapIPKcN5dwarf3dieENS2_11string_hashENS2_9string_eqESaISt4pairIKS1_S3_EEED2Ev
   [  399]   .rela.text._ZNSt13unordered_mapIPKcN5dwarf3dieENS2_11string_hashENS2_9string_eqESaISt4pairIKS1_S3_EEED2Ev

COMDAT group section [   33] `.group' [_ZNSt13unordered_setIN5dwarf6DW_TAGESt4hashIS1_ESt8equal_toIS1_ESaIS1_EED5Ev] contains 2 sections:
   [Index]    Name
   [  400]   .text._ZNSt13unordered_setIN5dwarf6DW_TAGESt4hashIS1_ESt8equal_toIS1_ESaIS1_EED2Ev
   [  401]   .rela.text._ZNSt13unordered_setIN5dwarf6DW_TAGESt4hashIS1_ESt8equal_toIS1_ESaIS1_EED2Ev

COMDAT group section [   34] `.group' [_ZN5dwarf11die_str_map4implC5ERKNS_3dieENS_5DW_ATERKSt16initializer_listINS_6DW_TAGEE] contains 4 sections:
   [Index]    Name
   [  402]   .text._ZN5dwarf11die_str_map4implC2ERKNS_3dieENS_5DW_ATERKSt16initializer_listINS_6DW_TAGEE
   [  403]   .rela.text._ZN5dwarf11die_str_map4implC2ERKNS_3dieENS_5DW_ATERKSt16initializer_listINS_6DW_TAGEE
   [  404]   .gcc_except_table._ZN5dwarf11die_str_map4implC2ERKNS_3dieENS_5DW_ATERKSt16initializer_listINS_6DW_TAGEE
   [  405]   .rela.gcc_except_table._ZN5dwarf11die_str_map4implC2ERKNS_3dieENS_5DW_ATERKSt16initializer_listINS_6DW_TAGEE

COMDAT group section [   35] `.group' [_ZN5dwarf3dieaSERKS0_] contains 2 sections:
   [Index]    Name
   [  406]   .text._ZN5dwarf3dieaSERKS0_
   [  407]   .rela.text._ZN5dwarf3dieaSERKS0_

COMDAT group section [   36] `.group' [_ZN5dwarf12small_vectorImLj6EEC5Ev] contains 1 sections:
   [Index]    Name
   [  408]   .text._ZN5dwarf12small_vectorImLj6EEC2Ev

COMDAT group section [   37] `.group' [_ZN5dwarf12small_vectorImLj6EED5Ev] contains 2 sections:
   [Index]    Name
   [  409]   .text._ZN5dwarf12small_vectorImLj6EED2Ev
   [  410]   .rela.text._ZN5dwarf12small_vectorImLj6EED2Ev

COMDAT group section [   38] `.group' [_ZNKSt16initializer_listIN5dwarf6DW_TAGEE5beginEv] contains 1 sections:
   [Index]    Name
   [  411]   .text._ZNKSt16initializer_listIN5dwarf6DW_TAGEE5beginEv

COMDAT group section [   39] `.group' [_ZNKSt16initializer_listIN5dwarf6DW_TAGEE3endEv] contains 2 sections:
   [Index]    Name
   [  412]   .text._ZNKSt16initializer_listIN5dwarf6DW_TAGEE3endEv
   [  413]   .rela.text._ZNKSt16initializer_listIN5dwarf6DW_TAGEE3endEv

COMDAT group section [   40] `.group' [_ZNSt8__detail21_Hashtable_ebo_helperILi1EN5dwarf11string_hashELb1EEC5Ev] contains 1 sections:
   [Index]    Name
   [  414]   .text._ZNSt8__detail21_Hashtable_ebo_helperILi1EN5dwarf11string_hashELb1EEC2Ev

COMDAT group section [   41] `.group' [_ZNSt8__detail21_Hashtable_ebo_helperILi0EN5dwarf9string_eqELb1EEC5Ev] contains 1 sections:
   [Index]    Name
   [  415]   .text._ZNSt8__detail21_Hashtable_ebo_helperILi0EN5dwarf9string_eqELb1EEC2Ev

COMDAT group section [   42] `.group' [_ZNSt8__detail21_Hashtable_ebo_helperILi0ESaINS_10_Hash_nodeISt4pairIKPKcN5dwarf3dieEELb1EEEELb1EEC5Ev] contains 2 sections:
   [Index]    Name
   [  416]   .text._ZNSt8__detail21_Hashtable_ebo_helperILi0ESaINS_10_Hash_nodeISt4pairIKPKcN5dwarf3dieEELb1EEEELb1EEC2Ev
   [  417]   .rela.text._ZNSt8__detail21_Hashtable_ebo_helperILi0ESaINS_10_Hash_nodeISt4pairIKPKcN5dwarf3dieEELb1EEEELb1EEC2Ev

COMDAT group section [   43] `.group' [_ZNSaINSt8__detail10_Hash_nodeISt4pairIKPKcN5dwarf3dieEELb1EEEED5Ev] contains 2 sections:
   [Index]    Name
   [  418]   .text._ZNSaINSt8__detail10_Hash_nodeISt4pairIKPKcN5dwarf3dieEELb1EEEED2Ev
   [  419]   .rela.text._ZNSaINSt8__detail10_Hash_nodeISt4pairIKPKcN5dwarf3dieEELb1EEEED2Ev

COMDAT group section [   44] `.group' [_ZNSt10_HashtableIPKcSt4pairIKS1_N5dwarf3dieEESaIS6_ENSt8__detail10_Select1stENS4_9string_eqENS4_11string_hashENS8_18_Mod_range_hashingENS8_20_Default_ranged_hashENS8_20_Prime_rehash_policyENS8_17_Hashtable_traitsILb1ELb0ELb1EEEED5Ev] contains 3 sections:
   [Index]    Name
   [  420]   .text._ZNSt10_HashtableIPKcSt4pairIKS1_N5dwarf3dieEESaIS6_ENSt8__detail10_Select1stENS4_9string_eqENS4_11string_hashENS8_18_Mod_range_hashingENS8_20_Default_ranged_hashENS8_20_Prime_rehash_policyENS8_17_Hashtable_traitsILb1ELb0ELb1EEEED2Ev
   [  421]   .rela.text._ZNSt10_HashtableIPKcSt4pairIKS1_N5dwarf3dieEESaIS6_ENSt8__detail10_Select1stENS4_9string_eqENS4_11string_hashENS8_18_Mod_range_hashingENS8_20_Default_ranged_hashENS8_20_Prime_rehash_policyENS8_17_Hashtable_traitsILb1ELb0ELb1EEEED2Ev
   [  422]   .gcc_except_table._ZNSt10_HashtableIPKcSt4pairIKS1_N5dwarf3dieEESaIS6_ENSt8__detail10_Select1stENS4_9string_eqENS4_11string_hashENS8_18_Mod_range_hashingENS8_20_Default_ranged_hashENS8_20_Prime_rehash_policyENS8_17_Hashtable_traitsILb1ELb0ELb1EEEED2Ev

COMDAT group section [   45] `.group' [_ZNSaIN5dwarf6DW_TAGEEC5Ev] contains 2 sections:
   [Index]    Name
   [  423]   .text._ZNSaIN5dwarf6DW_TAGEEC2Ev
   [  424]   .rela.text._ZNSaIN5dwarf6DW_TAGEEC2Ev

COMDAT group section [   46] `.group' [_ZNSaIN5dwarf6DW_TAGEED5Ev] contains 2 sections:
   [Index]    Name
   [  425]   .text._ZNSaIN5dwarf6DW_TAGEED2Ev
   [  426]   .rela.text._ZNSaIN5dwarf6DW_TAGEED2Ev

COMDAT group section [   47] `.group' [_ZNSt13unordered_setIN5dwarf6DW_TAGESt4hashIS1_ESt8equal_toIS1_ESaIS1_EEC5IPKS1_EET_SB_mRKS3_RKS5_RKS6_] contains 2 sections:
   [Index]    Name
   [  427]   .text._ZNSt13unordered_setIN5dwarf6DW_TAGESt4hashIS1_ESt8equal_toIS1_ESaIS1_EEC2IPKS1_EET_SB_mRKS3_RKS5_RKS6_
   [  428]   .rela.text._ZNSt13unordered_setIN5dwarf6DW_TAGESt4hashIS1_ESt8equal_toIS1_ESaIS1_EEC2IPKS1_EET_SB_mRKS3_RKS5_RKS6_

COMDAT group section [   48] `.group' [_ZNSt8__detail21_Hashtable_ebo_helperILi0ESaINS_10_Hash_nodeIN5dwarf6DW_TAGELb1EEEELb1EED5Ev] contains 2 sections:
   [Index]    Name
   [  429]   .text._ZNSt8__detail21_Hashtable_ebo_helperILi0ESaINS_10_Hash_nodeIN5dwarf6DW_TAGELb1EEEELb1EED2Ev
   [  430]   .rela.text._ZNSt8__detail21_Hashtable_ebo_helperILi0ESaINS_10_Hash_nodeIN5dwarf6DW_TAGELb1EEEELb1EED2Ev

COMDAT group section [   49] `.group' [_ZNSt8__detail16_Hashtable_allocISaINS_10_Hash_nodeIN5dwarf6DW_TAGELb1EEEEED5Ev] contains 2 sections:
   [Index]    Name
   [  431]   .text._ZNSt8__detail16_Hashtable_allocISaINS_10_Hash_nodeIN5dwarf6DW_TAGELb1EEEEED2Ev
   [  432]   .rela.text._ZNSt8__detail16_Hashtable_allocISaINS_10_Hash_nodeIN5dwarf6DW_TAGELb1EEEEED2Ev

COMDAT group section [   50] `.group' [_ZNSt10_HashtableIN5dwarf6DW_TAGES1_SaIS1_ENSt8__detail9_IdentityESt8equal_toIS1_ESt4hashIS1_ENS3_18_Mod_range_hashingENS3_20_Default_ranged_hashENS3_20_Prime_rehash_policyENS3_17_Hashtable_traitsILb1ELb1ELb1EEEED5Ev] contains 3 sections:
   [Index]    Name
   [  433]   .text._ZNSt10_HashtableIN5dwarf6DW_TAGES1_SaIS1_ENSt8__detail9_IdentityESt8equal_toIS1_ESt4hashIS1_ENS3_18_Mod_range_hashingENS3_20_Default_ranged_hashENS3_20_Prime_rehash_policyENS3_17_Hashtable_traitsILb1ELb1ELb1EEEED2Ev
   [  434]   .rela.text._ZNSt10_HashtableIN5dwarf6DW_TAGES1_SaIS1_ENSt8__detail9_IdentityESt8equal_toIS1_ESt4hashIS1_ENS3_18_Mod_range_hashingENS3_20_Default_ranged_hashENS3_20_Prime_rehash_policyENS3_17_Hashtable_traitsILb1ELb1ELb1EEEED2Ev
   [  435]   .gcc_except_table._ZNSt10_HashtableIN5dwarf6DW_TAGES1_SaIS1_ENSt8__detail9_IdentityESt8equal_toIS1_ESt4hashIS1_ENS3_18_Mod_range_hashingENS3_20_Default_ranged_hashENS3_20_Prime_rehash_policyENS3_17_Hashtable_traitsILb1ELb1ELb1EEEED2Ev

COMDAT group section [   51] `.group' [_ZSt11make_sharedIN5dwarf11die_str_map4implEJRKNS0_3dieERNS0_5DW_ATERKSt16initializer_listINS0_6DW_TAGEEEESt10shared_ptrINSt9enable_ifIXntsrSt8is_arrayIT_E5valueESG_E4typeEEDpOT0_] contains 2 sections:
   [Index]    Name
   [  436]   .text._ZSt11make_sharedIN5dwarf11die_str_map4implEJRKNS0_3dieERNS0_5DW_ATERKSt16initializer_listINS0_6DW_TAGEEEESt10shared_ptrINSt9enable_ifIXntsrSt8is_arrayIT_E5valueESG_E4typeEEDpOT0_
   [  437]   .rela.text._ZSt11make_sharedIN5dwarf11die_str_map4implEJRKNS0_3dieERNS0_5DW_ATERKSt16initializer_listINS0_6DW_TAGEEEESt10shared_ptrINSt9enable_ifIXntsrSt8is_arrayIT_E5valueESG_E4typeEEDpOT0_

COMDAT group section [   52] `.group' [_ZNKSt19__shared_ptr_accessIN5dwarf11die_str_map4implELN9__gnu_cxx12_Lock_policyE1ELb0ELb0EEptEv] contains 2 sections:
   [Index]    Name
   [  438]   .text._ZNKSt19__shared_ptr_accessIN5dwarf11die_str_map4implELN9__gnu_cxx12_Lock_policyE1ELb0ELb0EEptEv
   [  439]   .rela.text._ZNKSt19__shared_ptr_accessIN5dwarf11die_str_map4implELN9__gnu_cxx12_Lock_policyE1ELb0ELb0EEptEv

COMDAT group section [   53] `.group' [_ZNSt13unordered_mapIPKcN5dwarf3dieENS2_11string_hashENS2_9string_eqESaISt4pairIKS1_S3_EEE4findERS7_] contains 2 sections:
   [Index]    Name
   [  440]   .text._ZNSt13unordered_mapIPKcN5dwarf3dieENS2_11string_hashENS2_9string_eqESaISt4pairIKS1_S3_EEE4findERS7_
   [  441]   .rela.text._ZNSt13unordered_mapIPKcN5dwarf3dieENS2_11string_hashENS2_9string_eqESaISt4pairIKS1_S3_EEE4findERS7_

COMDAT group section [   54] `.group' [_ZNSt13unordered_mapIPKcN5dwarf3dieENS2_11string_hashENS2_9string_eqESaISt4pairIKS1_S3_EEE3endEv] contains 2 sections:
   [Index]    Name
   [  442]   .text._ZNSt13unordered_mapIPKcN5dwarf3dieENS2_11string_hashENS2_9string_eqESaISt4pairIKS1_S3_EEE3endEv
   [  443]   .rela.text._ZNSt13unordered_mapIPKcN5dwarf3dieENS2_11string_hashENS2_9string_eqESaISt4pairIKS1_S3_EEE3endEv

COMDAT group section [   55] `.group' [_ZNSt8__detailneERKNS_19_Node_iterator_baseISt4pairIKPKcN5dwarf3dieEELb1EEESA_] contains 1 sections:
   [Index]    Name
   [  444]   .text._ZNSt8__detailneERKNS_19_Node_iterator_baseISt4pairIKPKcN5dwarf3dieEELb1EEESA_

COMDAT group section [   56] `.group' [_ZNKSt8__detail14_Node_iteratorISt4pairIKPKcN5dwarf3dieEELb0ELb1EEptEv] contains 2 sections:
   [Index]    Name
   [  445]   .text._ZNKSt8__detail14_Node_iteratorISt4pairIKPKcN5dwarf3dieEELb0ELb1EEptEv
   [  446]   .rela.text._ZNKSt8__detail14_Node_iteratorISt4pairIKPKcN5dwarf3dieEELb0ELb1EEptEv

COMDAT group section [   57] `.group' [_ZNKSt13unordered_setIN5dwarf6DW_TAGESt4hashIS1_ESt8equal_toIS1_ESaIS1_EE5countERKS1_] contains 2 sections:
   [Index]    Name
   [  447]   .text._ZNKSt13unordered_setIN5dwarf6DW_TAGESt4hashIS1_ESt8equal_toIS1_ESaIS1_EE5countERKS1_
   [  448]   .rela.text._ZNKSt13unordered_setIN5dwarf6DW_TAGESt4hashIS1_ESt8equal_toIS1_ESaIS1_EE5countERKS1_

COMDAT group section [   58] `.group' [_ZNSt13unordered_mapIPKcN5dwarf3dieENS2_11string_hashENS2_9string_eqESaISt4pairIKS1_S3_EEEixERS7_] contains 2 sections:
   [Index]    Name
   [  449]   .text._ZNSt13unordered_mapIPKcN5dwarf3dieENS2_11string_hashENS2_9string_eqESaISt4pairIKS1_S3_EEEixERS7_
   [  450]   .rela.text._ZNSt13unordered_mapIPKcN5dwarf3dieENS2_11string_hashENS2_9string_eqESaISt4pairIKS1_S3_EEEixERS7_

COMDAT group section [   59] `.group' [_ZN5dwarf12small_vectorImLj6EEaSERKS1_] contains 2 sections:
   [Index]    Name
   [  451]   .text._ZN5dwarf12small_vectorImLj6EEaSERKS1_
   [  452]   .rela.text._ZN5dwarf12small_vectorImLj6EEaSERKS1_

COMDAT group section [   60] `.group' [_ZNSt16_Sp_counted_baseILN9__gnu_cxx12_Lock_policyE1EE10_M_destroyEv] contains 2 sections:
   [Index]    Name
   [  453]   .text._ZNSt16_Sp_counted_baseILN9__gnu_cxx12_Lock_policyE1EE10_M_destroyEv
   [  454]   .rela.text._ZNSt16_Sp_counted_baseILN9__gnu_cxx12_Lock_policyE1EE10_M_destroyEv

COMDAT group section [   61] `.group' [_ZN5dwarf12small_vectorImLj6EE5clearEv] contains 2 sections:
   [Index]    Name
   [  455]   .text._ZN5dwarf12small_vectorImLj6EE5clearEv
   [  456]   .rela.text._ZN5dwarf12small_vectorImLj6EE5clearEv

COMDAT group section [   62] `.group' [_ZSt7forwardIbEOT_RNSt16remove_referenceIS0_E4typeE] contains 1 sections:
   [Index]    Name
   [  457]   .text._ZSt7forwardIbEOT_RNSt16remove_referenceIS0_E4typeE

COMDAT group section [   63] `.group' [_ZNKSt16initializer_listIN5dwarf6DW_TAGEE4sizeEv] contains 1 sections:
   [Index]    Name
   [  458]   .text._ZNKSt16initializer_listIN5dwarf6DW_TAGEE4sizeEv

COMDAT group section [   64] `.group' [_ZNSaINSt8__detail10_Hash_nodeISt4pairIKPKcN5dwarf3dieEELb1EEEEC5Ev] contains 2 sections:
   [Index]    Name
   [  459]   .text._ZNSaINSt8__detail10_Hash_nodeISt4pairIKPKcN5dwarf3dieEELb1EEEEC2Ev
   [  460]   .rela.text._ZNSaINSt8__detail10_Hash_nodeISt4pairIKPKcN5dwarf3dieEELb1EEEEC2Ev

COMDAT group section [   65] `.group' [_ZNSt15__new_allocatorINSt8__detail10_Hash_nodeISt4pairIKPKcN5dwarf3dieEELb1EEEED5Ev] contains 1 sections:
   [Index]    Name
   [  461]   .text._ZNSt15__new_allocatorINSt8__detail10_Hash_nodeISt4pairIKPKcN5dwarf3dieEELb1EEEED2Ev

COMDAT group section [   66] `.group' [_ZNSt10_HashtableIPKcSt4pairIKS1_N5dwarf3dieEESaIS6_ENSt8__detail10_Select1stENS4_9string_eqENS4_11string_hashENS8_18_Mod_range_hashingENS8_20_Default_ranged_hashENS8_20_Prime_rehash_policyENS8_17_Hashtable_traitsILb1ELb0ELb1EEEE5clearEv] contains 3 sections:
   [Index]    Name
   [  462]   .text._ZNSt10_HashtableIPKcSt4pairIKS1_N5dwarf3dieEESaIS6_ENSt8__detail10_Select1stENS4_9string_eqENS4_11string_hashENS8_18_Mod_range_hashingENS8_20_Default_ranged_hashENS8_20_Prime_rehash_policyENS8_17_Hashtable_traitsILb1ELb0ELb1EEEE5clearEv
   [  463]   .rela.text._ZNSt10_HashtableIPKcSt4pairIKS1_N5dwarf3dieEESaIS6_ENSt8__detail10_Select1stENS4_9string_eqENS4_11string_hashENS8_18_Mod_range_hashingENS8_20_Default_ranged_hashENS8_20_Prime_rehash_policyENS8_17_Hashtable_traitsILb1ELb0ELb1EEEE5clearEv
   [  464]   .gcc_except_table._ZNSt10_HashtableIPKcSt4pairIKS1_N5dwarf3dieEESaIS6_ENSt8__detail10_Select1stENS4_9string_eqENS4_11string_hashENS8_18_Mod_range_hashingENS8_20_Default_ranged_hashENS8_20_Prime_rehash_policyENS8_17_Hashtable_traitsILb1ELb0ELb1EEEE5clearEv

COMDAT group section [   67] `.group' [_ZNSt10_HashtableIPKcSt4pairIKS1_N5dwarf3dieEESaIS6_ENSt8__detail10_Select1stENS4_9string_eqENS4_11string_hashENS8_18_Mod_range_hashingENS8_20_Default_ranged_hashENS8_20_Prime_rehash_policyENS8_17_Hashtable_traitsILb1ELb0ELb1EEEE21_M_deallocate_bucketsEv] contains 2 sections:
   [Index]    Name
   [  465]   .text._ZNSt10_HashtableIPKcSt4pairIKS1_N5dwarf3dieEESaIS6_ENSt8__detail10_Select1stENS4_9string_eqENS4_11string_hashENS8_18_Mod_range_hashingENS8_20_Default_ranged_hashENS8_20_Prime_rehash_policyENS8_17_Hashtable_traitsILb1ELb0ELb1EEEE21_M_deallocate_bucke
   [  466]   .rela.text._ZNSt10_HashtableIPKcSt4pairIKS1_N5dwarf3dieEESaIS6_ENSt8__detail10_Select1stENS4_9string_eqENS4_11string_hashENS8_18_Mod_range_hashingENS8_20_Default_ranged_hashENS8_20_Prime_rehash_policyENS8_17_Hashtable_traitsILb1ELb0ELb1EEEE21_M_deallocate_

COMDAT group section [   68] `.group' [_ZNSt15__new_allocatorIN5dwarf6DW_TAGEEC5Ev] contains 1 sections:
   [Index]    Name
   [  467]   .text._ZNSt15__new_allocatorIN5dwarf6DW_TAGEEC2Ev

COMDAT group section [   69] `.group' [_ZNSt15__new_allocatorIN5dwarf6DW_TAGEED5Ev] contains 1 sections:
   [Index]    Name
   [  468]   .text._ZNSt15__new_allocatorIN5dwarf6DW_TAGEED2Ev

COMDAT group section [   70] `.group' [_ZNSt10_HashtableIN5dwarf6DW_TAGES1_SaIS1_ENSt8__detail9_IdentityESt8equal_toIS1_ESt4hashIS1_ENS3_18_Mod_range_hashingENS3_20_Default_ranged_hashENS3_20_Prime_rehash_policyENS3_17_Hashtable_traitsILb1ELb1ELb1EEEEC5IPKS1_EET_SI_mRKS8_RKS6_RKS2_] contains 2 sections:
   [Index]    Name
   [  469]   .text._ZNSt10_HashtableIN5dwarf6DW_TAGES1_SaIS1_ENSt8__detail9_IdentityESt8equal_toIS1_ESt4hashIS1_ENS3_18_Mod_range_hashingENS3_20_Default_ranged_hashENS3_20_Prime_rehash_policyENS3_17_Hashtable_traitsILb1ELb1ELb1EEEEC2IPKS1_EET_SI_mRKS8_RKS6_RKS2_
   [  470]   .rela.text._ZNSt10_HashtableIN5dwarf6DW_TAGES1_SaIS1_ENSt8__detail9_IdentityESt8equal_toIS1_ESt4hashIS1_ENS3_18_Mod_range_hashingENS3_20_Default_ranged_hashENS3_20_Prime_rehash_policyENS3_17_Hashtable_traitsILb1ELb1ELb1EEEEC2IPKS1_EET_SI_mRKS8_RKS6_RKS2_

COMDAT group section [   71] `.group' [_ZNSaINSt8__detail10_Hash_nodeIN5dwarf6DW_TAGELb1EEEED5Ev] contains 2 sections:
   [Index]    Name
   [  471]   .text._ZNSaINSt8__detail10_Hash_nodeIN5dwarf6DW_TAGELb1EEEED2Ev
   [  472]   .rela.text._ZNSaINSt8__detail10_Hash_nodeIN5dwarf6DW_TAGELb1EEEED2Ev

COMDAT group section [   72] `.group' [_ZNSt10_HashtableIN5dwarf6DW_TAGES1_SaIS1_ENSt8__detail9_IdentityESt8equal_toIS1_ESt4hashIS1_ENS3_18_Mod_range_hashingENS3_20_Default_ranged_hashENS3_20_Prime_rehash_policyENS3_17_Hashtable_traitsILb1ELb1ELb1EEEE5clearEv] contains 3 sections:
   [Index]    Name
   [  473]   .text._ZNSt10_HashtableIN5dwarf6DW_TAGES1_SaIS1_ENSt8__detail9_IdentityESt8equal_toIS1_ESt4hashIS1_ENS3_18_Mod_range_hashingENS3_20_Default_ranged_hashENS3_20_Prime_rehash_policyENS3_17_Hashtable_traitsILb1ELb1ELb1EEEE5clearEv
   [  474]   .rela.text._ZNSt10_HashtableIN5dwarf6DW_TAGES1_SaIS1_ENSt8__detail9_IdentityESt8equal_toIS1_ESt4hashIS1_ENS3_18_Mod_range_hashingENS3_20_Default_ranged_hashENS3_20_Prime_rehash_policyENS3_17_Hashtable_traitsILb1ELb1ELb1EEEE5clearEv
   [  475]   .gcc_except_table._ZNSt10_HashtableIN5dwarf6DW_TAGES1_SaIS1_ENSt8__detail9_IdentityESt8equal_toIS1_ESt4hashIS1_ENS3_18_Mod_range_hashingENS3_20_Default_ranged_hashENS3_20_Prime_rehash_policyENS3_17_Hashtable_traitsILb1ELb1ELb1EEEE5clearEv

COMDAT group section [   73] `.group' [_ZNSt10_HashtableIN5dwarf6DW_TAGES1_SaIS1_ENSt8__detail9_IdentityESt8equal_toIS1_ESt4hashIS1_ENS3_18_Mod_range_hashingENS3_20_Default_ranged_hashENS3_20_Prime_rehash_policyENS3_17_Hashtable_traitsILb1ELb1ELb1EEEE21_M_deallocate_bucketsEv] contains 2 sections:
   [Index]    Name
   [  476]   .text._ZNSt10_HashtableIN5dwarf6DW_TAGES1_SaIS1_ENSt8__detail9_IdentityESt8equal_toIS1_ESt4hashIS1_ENS3_18_Mod_range_hashingENS3_20_Default_ranged_hashENS3_20_Prime_rehash_policyENS3_17_Hashtable_traitsILb1ELb1ELb1EEEE21_M_deallocate_bucketsEv
   [  477]   .rela.text._ZNSt10_HashtableIN5dwarf6DW_TAGES1_SaIS1_ENSt8__detail9_IdentityESt8equal_toIS1_ESt4hashIS1_ENS3_18_Mod_range_hashingENS3_20_Default_ranged_hashENS3_20_Prime_rehash_policyENS3_17_Hashtable_traitsILb1ELb1ELb1EEEE21_M_deallocate_bucketsEv

COMDAT group section [   74] `.group' [_ZSt7forwardIRKN5dwarf3dieEEOT_RNSt16remove_referenceIS4_E4typeE] contains 1 sections:
   [Index]    Name
   [  478]   .text._ZSt7forwardIRKN5dwarf3dieEEOT_RNSt16remove_referenceIS4_E4typeE

COMDAT group section [   75] `.group' [_ZSt7forwardIRN5dwarf5DW_ATEEOT_RNSt16remove_referenceIS3_E4typeE] contains 1 sections:
   [Index]    Name
   [  479]   .text._ZSt7forwardIRN5dwarf5DW_ATEEOT_RNSt16remove_referenceIS3_E4typeE

COMDAT group section [   76] `.group' [_ZSt7forwardIRKSt16initializer_listIN5dwarf6DW_TAGEEEOT_RNSt16remove_referenceIS6_E4typeE] contains 1 sections:
   [Index]    Name
   [  480]   .text._ZSt7forwardIRKSt16initializer_listIN5dwarf6DW_TAGEEEOT_RNSt16remove_referenceIS6_E4typeE

COMDAT group section [   77] `.group' [_ZNSt10shared_ptrIN5dwarf11die_str_map4implEEC5ISaIvEJRKNS0_3dieERNS0_5DW_ATERKSt16initializer_listINS0_6DW_TAGEEEEESt20_Sp_alloc_shared_tagIT_EDpOT0_] contains 2 sections:
   [Index]    Name
   [  481]   .text._ZNSt10shared_ptrIN5dwarf11die_str_map4implEEC2ISaIvEJRKNS0_3dieERNS0_5DW_ATERKSt16initializer_listINS0_6DW_TAGEEEEESt20_Sp_alloc_shared_tagIT_EDpOT0_
   [  482]   .rela.text._ZNSt10shared_ptrIN5dwarf11die_str_map4implEEC2ISaIvEJRKNS0_3dieERNS0_5DW_ATERKSt16initializer_listINS0_6DW_TAGEEEEESt20_Sp_alloc_shared_tagIT_EDpOT0_

COMDAT group section [   78] `.group' [_ZNKSt19__shared_ptr_accessIN5dwarf11die_str_map4implELN9__gnu_cxx12_Lock_policyE1ELb0ELb0EE6_M_getEv] contains 2 sections:
   [Index]    Name
   [  483]   .text._ZNKSt19__shared_ptr_accessIN5dwarf11die_str_map4implELN9__gnu_cxx12_Lock_policyE1ELb0ELb0EE6_M_getEv
   [  484]   .rela.text._ZNKSt19__shared_ptr_accessIN5dwarf11die_str_map4implELN9__gnu_cxx12_Lock_policyE1ELb0ELb0EE6_M_getEv

COMDAT group section [   79] `.group' [_ZNSt10_HashtableIPKcSt4pairIKS1_N5dwarf3dieEESaIS6_ENSt8__detail10_Select1stENS4_9string_eqENS4_11string_hashENS8_18_Mod_range_hashingENS8_20_Default_ranged_hashENS8_20_Prime_rehash_policyENS8_17_Hashtable_traitsILb1ELb0ELb1EEEE4findERS3_] contains 2 sections:
   [Index]    Name
   [  485]   .text._ZNSt10_HashtableIPKcSt4pairIKS1_N5dwarf3dieEESaIS6_ENSt8__detail10_Select1stENS4_9string_eqENS4_11string_hashENS8_18_Mod_range_hashingENS8_20_Default_ranged_hashENS8_20_Prime_rehash_policyENS8_17_Hashtable_traitsILb1ELb0ELb1EEEE4findERS3_
   [  486]   .rela.text._ZNSt10_HashtableIPKcSt4pairIKS1_N5dwarf3dieEESaIS6_ENSt8__detail10_Select1stENS4_9string_eqENS4_11string_hashENS8_18_Mod_range_hashingENS8_20_Default_ranged_hashENS8_20_Prime_rehash_policyENS8_17_Hashtable_traitsILb1ELb0ELb1EEEE4findERS3_

COMDAT group section [   80] `.group' [_ZNSt10_HashtableIPKcSt4pairIKS1_N5dwarf3dieEESaIS6_ENSt8__detail10_Select1stENS4_9string_eqENS4_11string_hashENS8_18_Mod_range_hashingENS8_20_Default_ranged_hashENS8_20_Prime_rehash_policyENS8_17_Hashtable_traitsILb1ELb0ELb1EEEE3endEv] contains 2 sections:
   [Index]    Name
   [  487]   .text._ZNSt10_HashtableIPKcSt4pairIKS1_N5dwarf3dieEESaIS6_ENSt8__detail10_Select1stENS4_9string_eqENS4_11string_hashENS8_18_Mod_range_hashingENS8_20_Default_ranged_hashENS8_20_Prime_rehash_policyENS8_17_Hashtable_traitsILb1ELb0ELb1EEEE3endEv
   [  488]   .rela.text._ZNSt10_HashtableIPKcSt4pairIKS1_N5dwarf3dieEESaIS6_ENSt8__detail10_Select1stENS4_9string_eqENS4_11string_hashENS8_18_Mod_range_hashingENS8_20_Default_ranged_hashENS8_20_Prime_rehash_policyENS8_17_Hashtable_traitsILb1ELb0ELb1EEEE3endEv

COMDAT group section [   81] `.group' [_ZNSt8__detail21_Hash_node_value_baseISt4pairIKPKcN5dwarf3dieEEE9_M_valptrEv] contains 2 sections:
   [Index]    Name
   [  489]   .text._ZNSt8__detail21_Hash_node_value_baseISt4pairIKPKcN5dwarf3dieEEE9_M_valptrEv
   [  490]   .rela.text._ZNSt8__detail21_Hash_node_value_baseISt4pairIKPKcN5dwarf3dieEEE9_M_valptrEv

COMDAT group section [   82] `.group' [_ZNKSt10_HashtableIN5dwarf6DW_TAGES1_SaIS1_ENSt8__detail9_IdentityESt8equal_toIS1_ESt4hashIS1_ENS3_18_Mod_range_hashingENS3_20_Default_ranged_hashENS3_20_Prime_rehash_policyENS3_17_Hashtable_traitsILb1ELb1ELb1EEEE5countERKS1_] contains 2 sections:
   [Index]    Name
   [  491]   .text._ZNKSt10_HashtableIN5dwarf6DW_TAGES1_SaIS1_ENSt8__detail9_IdentityESt8equal_toIS1_ESt4hashIS1_ENS3_18_Mod_range_hashingENS3_20_Default_ranged_hashENS3_20_Prime_rehash_policyENS3_17_Hashtable_traitsILb1ELb1ELb1EEEE5countERKS1_
   [  492]   .rela.text._ZNKSt10_HashtableIN5dwarf6DW_TAGES1_SaIS1_ENSt8__detail9_IdentityESt8equal_toIS1_ESt4hashIS1_ENS3_18_Mod_range_hashingENS3_20_Default_ranged_hashENS3_20_Prime_rehash_policyENS3_17_Hashtable_traitsILb1ELb1ELb1EEEE5countERKS1_

COMDAT group section [   83] `.group' [_ZNSt8__detail9_Map_baseIPKcSt4pairIKS2_N5dwarf3dieEESaIS7_ENS_10_Select1stENS5_9string_eqENS5_11string_hashENS_18_Mod_range_hashingENS_20_Default_ranged_hashENS_20_Prime_rehash_policyENS_17_Hashtable_traitsILb1ELb0ELb1EEELb1EEixERS4_] contains 4 sections:
   [Index]    Name
   [  493]   .text._ZNSt8__detail9_Map_baseIPKcSt4pairIKS2_N5dwarf3dieEESaIS7_ENS_10_Select1stENS5_9string_eqENS5_11string_hashENS_18_Mod_range_hashingENS_20_Default_ranged_hashENS_20_Prime_rehash_policyENS_17_Hashtable_traitsILb1ELb0ELb1EEELb1EEixERS4_
   [  494]   .rela.text._ZNSt8__detail9_Map_baseIPKcSt4pairIKS2_N5dwarf3dieEESaIS7_ENS_10_Select1stENS5_9string_eqENS5_11string_hashENS_18_Mod_range_hashingENS_20_Default_ranged_hashENS_20_Prime_rehash_policyENS_17_Hashtable_traitsILb1ELb0ELb1EEELb1EEixERS4_
   [  495]   .gcc_except_table._ZNSt8__detail9_Map_baseIPKcSt4pairIKS2_N5dwarf3dieEESaIS7_ENS_10_Select1stENS5_9string_eqENS5_11string_hashENS_18_Mod_range_hashingENS_20_Default_ranged_hashENS_20_Prime_rehash_policyENS_17_Hashtable_traitsILb1ELb0ELb1EEELb1EEixERS4_
   [  496]   .rela.gcc_except_table._ZNSt8__detail9_Map_baseIPKcSt4pairIKS2_N5dwarf3dieEESaIS7_ENS_10_Select1stENS5_9string_eqENS5_11string_hashENS_18_Mod_range_hashingENS_20_Default_ranged_hashENS_20_Prime_rehash_policyENS_17_Hashtable_traitsILb1ELb0ELb1EEELb1EEixERS4

COMDAT group section [   84] `.group' [_ZNK5dwarf12small_vectorImLj6EE4sizeEv] contains 1 sections:
   [Index]    Name
   [  497]   .text._ZNK5dwarf12small_vectorImLj6EE4sizeEv

COMDAT group section [   85] `.group' [_ZN5dwarf12small_vectorImLj6EE7reserveEm] contains 2 sections:
   [Index]    Name
   [  498]   .text._ZN5dwarf12small_vectorImLj6EE7reserveEm
   [  499]   .rela.text._ZN5dwarf12small_vectorImLj6EE7reserveEm

COMDAT group section [   86] `.group' [_ZNK5dwarf12small_vectorImLj6EEixEm] contains 1 sections:
   [Index]    Name
   [  500]   .text._ZNK5dwarf12small_vectorImLj6EEixEm

COMDAT group section [   87] `.group' [_ZNSt16_Sp_counted_baseILN9__gnu_cxx12_Lock_policyE1EED5Ev] contains 4 sections:
   [Index]    Name
   [  501]   .text._ZNSt16_Sp_counted_baseILN9__gnu_cxx12_Lock_policyE1EED2Ev
   [  502]   .rela.text._ZNSt16_Sp_counted_baseILN9__gnu_cxx12_Lock_policyE1EED2Ev
   [  503]   .text._ZNSt16_Sp_counted_baseILN9__gnu_cxx12_Lock_policyE1EED0Ev
   [  504]   .rela.text._ZNSt16_Sp_counted_baseILN9__gnu_cxx12_Lock_policyE1EED0Ev

COMDAT group section [   88] `.group' [_ZNSt15__new_allocatorINSt8__detail10_Hash_nodeISt4pairIKPKcN5dwarf3dieEELb1EEEEC5Ev] contains 1 sections:
   [Index]    Name
   [  505]   .text._ZNSt15__new_allocatorINSt8__detail10_Hash_nodeISt4pairIKPKcN5dwarf3dieEELb1EEEEC2Ev

COMDAT group section [   89] `.group' [_ZNKSt10_HashtableIPKcSt4pairIKS1_N5dwarf3dieEESaIS6_ENSt8__detail10_Select1stENS4_9string_eqENS4_11string_hashENS8_18_Mod_range_hashingENS8_20_Default_ranged_hashENS8_20_Prime_rehash_policyENS8_17_Hashtable_traitsILb1ELb0ELb1EEEE8_M_beginEv] contains 1 sections:
   [Index]    Name
   [  506]   .text._ZNKSt10_HashtableIPKcSt4pairIKS1_N5dwarf3dieEESaIS6_ENSt8__detail10_Select1stENS4_9string_eqENS4_11string_hashENS8_18_Mod_range_hashingENS8_20_Default_ranged_hashENS8_20_Prime_rehash_policyENS8_17_Hashtable_traitsILb1ELb0ELb1EEEE8_M_beginEv

COMDAT group section [   90] `.group' [_ZNSt8__detail16_Hashtable_allocISaINS_10_Hash_nodeISt4pairIKPKcN5dwarf3dieEELb1EEEEE19_M_deallocate_nodesEPS9_] contains 2 sections:
   [Index]    Name
   [  507]   .text._ZNSt8__detail16_Hashtable_allocISaINS_10_Hash_nodeISt4pairIKPKcN5dwarf3dieEELb1EEEEE19_M_deallocate_nodesEPS9_
   [  508]   .rela.text._ZNSt8__detail16_Hashtable_allocISaINS_10_Hash_nodeISt4pairIKPKcN5dwarf3dieEELb1EEEEE19_M_deallocate_nodesEPS9_

COMDAT group section [   91] `.group' [_ZNSt10_HashtableIPKcSt4pairIKS1_N5dwarf3dieEESaIS6_ENSt8__detail10_Select1stENS4_9string_eqENS4_11string_hashENS8_18_Mod_range_hashingENS8_20_Default_ranged_hashENS8_20_Prime_rehash_policyENS8_17_Hashtable_traitsILb1ELb0ELb1EEEE21_M_deallocate_bucketsEPPNS8_15_Hash_node_baseEm] contains 2 sections:
   [Index]    Name
   [  509]   .text._ZNSt10_HashtableIPKcSt4pairIKS1_N5dwarf3dieEESaIS6_ENSt8__detail10_Select1stENS4_9string_eqENS4_11string_hashENS8_18_Mod_range_hashingENS8_20_Default_ranged_hashENS8_20_Prime_rehash_policyENS8_17_Hashtable_traitsILb1ELb0ELb1EEEE21_M_deallocate_bucke
   [  510]   .rela.text._ZNSt10_HashtableIPKcSt4pairIKS1_N5dwarf3dieEESaIS6_ENSt8__detail10_Select1stENS4_9string_eqENS4_11string_hashENS8_18_Mod_range_hashingENS8_20_Default_ranged_hashENS8_20_Prime_rehash_policyENS8_17_Hashtable_traitsILb1ELb0ELb1EEEE21_M_deallocate_

COMDAT group section [   92] `.group' [_ZNSt10_HashtableIN5dwarf6DW_TAGES1_SaIS1_ENSt8__detail9_IdentityESt8equal_toIS1_ESt4hashIS1_ENS3_18_Mod_range_hashingENS3_20_Default_ranged_hashENS3_20_Prime_rehash_policyENS3_17_Hashtable_traitsILb1ELb1ELb1EEEEC5IPKS1_EET_SI_mRKS8_RKS6_RKS2_St17integral_constantIbLb1EE] contains 4 sections:
   [Index]    Name
   [  511]   .text._ZNSt10_HashtableIN5dwarf6DW_TAGES1_SaIS1_ENSt8__detail9_IdentityESt8equal_toIS1_ESt4hashIS1_ENS3_18_Mod_range_hashingENS3_20_Default_ranged_hashENS3_20_Prime_rehash_policyENS3_17_Hashtable_traitsILb1ELb1ELb1EEEEC2IPKS1_EET_SI_mRKS8_RKS6_RKS2_St17int
   [  512]   .rela.text._ZNSt10_HashtableIN5dwarf6DW_TAGES1_SaIS1_ENSt8__detail9_IdentityESt8equal_toIS1_ESt4hashIS1_ENS3_18_Mod_range_hashingENS3_20_Default_ranged_hashENS3_20_Prime_rehash_policyENS3_17_Hashtable_traitsILb1ELb1ELb1EEEEC2IPKS1_EET_SI_mRKS8_RKS6_RKS2_St
   [  513]   .gcc_except_table._ZNSt10_HashtableIN5dwarf6DW_TAGES1_SaIS1_ENSt8__detail9_IdentityESt8equal_toIS1_ESt4hashIS1_ENS3_18_Mod_range_hashingENS3_20_Default_ranged_hashENS3_20_Prime_rehash_policyENS3_17_Hashtable_traitsILb1ELb1ELb1EEEEC2IPKS1_EET_SI_mRKS8_RKS6_
   [  514]   .rela.gcc_except_table._ZNSt10_HashtableIN5dwarf6DW_TAGES1_SaIS1_ENSt8__detail9_IdentityESt8equal_toIS1_ESt4hashIS1_ENS3_18_Mod_range_hashingENS3_20_Default_ranged_hashENS3_20_Prime_rehash_policyENS3_17_Hashtable_traitsILb1ELb1ELb1EEEEC2IPKS1_EET_SI_mRKS8_

COMDAT group section [   93] `.group' [_ZNSt15__new_allocatorINSt8__detail10_Hash_nodeIN5dwarf6DW_TAGELb1EEEED5Ev] contains 1 sections:
   [Index]    Name
   [  515]   .text._ZNSt15__new_allocatorINSt8__detail10_Hash_nodeIN5dwarf6DW_TAGELb1EEEED2Ev

COMDAT group section [   94] `.group' [_ZNKSt10_HashtableIN5dwarf6DW_TAGES1_SaIS1_ENSt8__detail9_IdentityESt8equal_toIS1_ESt4hashIS1_ENS3_18_Mod_range_hashingENS3_20_Default_ranged_hashENS3_20_Prime_rehash_policyENS3_17_Hashtable_traitsILb1ELb1ELb1EEEE8_M_beginEv] contains 1 sections:
   [Index]    Name
   [  516]   .text._ZNKSt10_HashtableIN5dwarf6DW_TAGES1_SaIS1_ENSt8__detail9_IdentityESt8equal_toIS1_ESt4hashIS1_ENS3_18_Mod_range_hashingENS3_20_Default_ranged_hashENS3_20_Prime_rehash_policyENS3_17_Hashtable_traitsILb1ELb1ELb1EEEE8_M_beginEv

COMDAT group section [   95] `.group' [_ZNSt8__detail16_Hashtable_allocISaINS_10_Hash_nodeIN5dwarf6DW_TAGELb1EEEEE19_M_deallocate_nodesEPS4_] contains 2 sections:
   [Index]    Name
   [  517]   .text._ZNSt8__detail16_Hashtable_allocISaINS_10_Hash_nodeIN5dwarf6DW_TAGELb1EEEEE19_M_deallocate_nodesEPS4_
   [  518]   .rela.text._ZNSt8__detail16_Hashtable_allocISaINS_10_Hash_nodeIN5dwarf6DW_TAGELb1EEEEE19_M_deallocate_nodesEPS4_

COMDAT group section [   96] `.group' [_ZNSt10_HashtableIN5dwarf6DW_TAGES1_SaIS1_ENSt8__detail9_IdentityESt8equal_toIS1_ESt4hashIS1_ENS3_18_Mod_range_hashingENS3_20_Default_ranged_hashENS3_20_Prime_rehash_policyENS3_17_Hashtable_traitsILb1ELb1ELb1EEEE21_M_deallocate_bucketsEPPNS3_15_Hash_node_baseEm] contains 2 sections:
   [Index]    Name
   [  519]   .text._ZNSt10_HashtableIN5dwarf6DW_TAGES1_SaIS1_ENSt8__detail9_IdentityESt8equal_toIS1_ESt4hashIS1_ENS3_18_Mod_range_hashingENS3_20_Default_ranged_hashENS3_20_Prime_rehash_policyENS3_17_Hashtable_traitsILb1ELb1ELb1EEEE21_M_deallocate_bucketsEPPNS3_15_Hash_
   [  520]   .rela.text._ZNSt10_HashtableIN5dwarf6DW_TAGES1_SaIS1_ENSt8__detail9_IdentityESt8equal_toIS1_ESt4hashIS1_ENS3_18_Mod_range_hashingENS3_20_Default_ranged_hashENS3_20_Prime_rehash_policyENS3_17_Hashtable_traitsILb1ELb1ELb1EEEE21_M_deallocate_bucketsEPPNS3_15_

COMDAT group section [   97] `.group' [_ZNSt12__shared_ptrIN5dwarf11die_str_map4implELN9__gnu_cxx12_Lock_policyE1EEC5ISaIvEJRKNS0_3dieERNS0_5DW_ATERKSt16initializer_listINS0_6DW_TAGEEEEESt20_Sp_alloc_shared_tagIT_EDpOT0_] contains 2 sections:
   [Index]    Name
   [  521]   .text._ZNSt12__shared_ptrIN5dwarf11die_str_map4implELN9__gnu_cxx12_Lock_policyE1EEC2ISaIvEJRKNS0_3dieERNS0_5DW_ATERKSt16initializer_listINS0_6DW_TAGEEEEESt20_Sp_alloc_shared_tagIT_EDpOT0_
   [  522]   .rela.text._ZNSt12__shared_ptrIN5dwarf11die_str_map4implELN9__gnu_cxx12_Lock_policyE1EEC2ISaIvEJRKNS0_3dieERNS0_5DW_ATERKSt16initializer_listINS0_6DW_TAGEEEEESt20_Sp_alloc_shared_tagIT_EDpOT0_

COMDAT group section [   98] `.group' [_ZNKSt12__shared_ptrIN5dwarf11die_str_map4implELN9__gnu_cxx12_Lock_policyE1EE3getEv] contains 1 sections:
   [Index]    Name
   [  523]   .text._ZNKSt12__shared_ptrIN5dwarf11die_str_map4implELN9__gnu_cxx12_Lock_policyE1EE3getEv

COMDAT group section [   99] `.group' [_ZNKSt10_HashtableIPKcSt4pairIKS1_N5dwarf3dieEESaIS6_ENSt8__detail10_Select1stENS4_9string_eqENS4_11string_hashENS8_18_Mod_range_hashingENS8_20_Default_ranged_hashENS8_20_Prime_rehash_policyENS8_17_Hashtable_traitsILb1ELb0ELb1EEEE4sizeEv] contains 1 sections:
   [Index]    Name
   [  524]   .text._ZNKSt10_HashtableIPKcSt4pairIKS1_N5dwarf3dieEESaIS6_ENSt8__detail10_Select1stENS4_9string_eqENS4_11string_hashENS8_18_Mod_range_hashingENS8_20_Default_ranged_hashENS8_20_Prime_rehash_policyENS8_17_Hashtable_traitsILb1ELb0ELb1EEEE4sizeEv

COMDAT group section [  100] `.group' [_ZNSt10_HashtableIPKcSt4pairIKS1_N5dwarf3dieEESaIS6_ENSt8__detail10_Select1stENS4_9string_eqENS4_11string_hashENS8_18_Mod_range_hashingENS8_20_Default_ranged_hashENS8_20_Prime_rehash_policyENS8_17_Hashtable_traitsILb1ELb0ELb1EEEE22__small_size_thresholdEv] contains 2 sections:
   [Index]    Name
   [  525]   .text._ZNSt10_HashtableIPKcSt4pairIKS1_N5dwarf3dieEESaIS6_ENSt8__detail10_Select1stENS4_9string_eqENS4_11string_hashENS8_18_Mod_range_hashingENS8_20_Default_ranged_hashENS8_20_Prime_rehash_policyENS8_17_Hashtable_traitsILb1ELb0ELb1EEEE22__small_size_thresh
   [  526]   .rela.text._ZNSt10_HashtableIPKcSt4pairIKS1_N5dwarf3dieEESaIS6_ENSt8__detail10_Select1stENS4_9string_eqENS4_11string_hashENS8_18_Mod_range_hashingENS8_20_Default_ranged_hashENS8_20_Prime_rehash_policyENS8_17_Hashtable_traitsILb1ELb0ELb1EEEE22__small_size_t

COMDAT group section [  101] `.group' [_ZNSt10_HashtableIPKcSt4pairIKS1_N5dwarf3dieEESaIS6_ENSt8__detail10_Select1stENS4_9string_eqENS4_11string_hashENS8_18_Mod_range_hashingENS8_20_Default_ranged_hashENS8_20_Prime_rehash_policyENS8_17_Hashtable_traitsILb1ELb0ELb1EEEE5beginEv] contains 2 sections:
   [Index]    Name
   [  527]   .text._ZNSt10_HashtableIPKcSt4pairIKS1_N5dwarf3dieEESaIS6_ENSt8__detail10_Select1stENS4_9string_eqENS4_11string_hashENS8_18_Mod_range_hashingENS8_20_Default_ranged_hashENS8_20_Prime_rehash_policyENS8_17_Hashtable_traitsILb1ELb0ELb1EEEE5beginEv
   [  528]   .rela.text._ZNSt10_HashtableIPKcSt4pairIKS1_N5dwarf3dieEESaIS6_ENSt8__detail10_Select1stENS4_9string_eqENS4_11string_hashENS8_18_Mod_range_hashingENS8_20_Default_ranged_hashENS8_20_Prime_rehash_policyENS8_17_Hashtable_traitsILb1ELb0ELb1EEEE5beginEv

COMDAT group section [  102] `.group' [_ZNSt8__detail14_Node_iteratorISt4pairIKPKcN5dwarf3dieEELb0ELb1EEppEv] contains 2 sections:
   [Index]    Name
   [  529]   .text._ZNSt8__detail14_Node_iteratorISt4pairIKPKcN5dwarf3dieEELb0ELb1EEppEv
   [  530]   .rela.text._ZNSt8__detail14_Node_iteratorISt4pairIKPKcN5dwarf3dieEELb0ELb1EEppEv

COMDAT group section [  103] `.group' [_ZNKSt8__detail15_Hashtable_baseIPKcSt4pairIKS2_N5dwarf3dieEENS_10_Select1stENS5_9string_eqENS5_11string_hashENS_18_Mod_range_hashingENS_20_Default_ranged_hashENS_17_Hashtable_traitsILb1ELb0ELb1EEEE13_M_key_equalsERS4_RKNS_16_Hash_node_valueIS7_Lb1EEE] contains 2 sections:
   [Index]    Name
   [  531]   .text._ZNKSt8__detail15_Hashtable_baseIPKcSt4pairIKS2_N5dwarf3dieEENS_10_Select1stENS5_9string_eqENS5_11string_hashENS_18_Mod_range_hashingENS_20_Default_ranged_hashENS_17_Hashtable_traitsILb1ELb0ELb1EEEE13_M_key_equalsERS4_RKNS_16_Hash_node_valueIS7_Lb1EE
   [  532]   .rela.text._ZNKSt8__detail15_Hashtable_baseIPKcSt4pairIKS2_N5dwarf3dieEENS_10_Select1stENS5_9string_eqENS5_11string_hashENS_18_Mod_range_hashingENS_20_Default_ranged_hashENS_17_Hashtable_traitsILb1ELb0ELb1EEEE13_M_key_equalsERS4_RKNS_16_Hash_node_valueIS7_

COMDAT group section [  104] `.group' [_ZNKSt8__detail15_Hash_code_baseIPKcSt4pairIKS2_N5dwarf3dieEENS_10_Select1stENS5_11string_hashENS_18_Mod_range_hashingENS_20_Default_ranged_hashELb1EE12_M_hash_codeERS4_] contains 2 sections:
   [Index]    Name
   [  533]   .text._ZNKSt8__detail15_Hash_code_baseIPKcSt4pairIKS2_N5dwarf3dieEENS_10_Select1stENS5_11string_hashENS_18_Mod_range_hashingENS_20_Default_ranged_hashELb1EE12_M_hash_codeERS4_
   [  534]   .rela.text._ZNKSt8__detail15_Hash_code_baseIPKcSt4pairIKS2_N5dwarf3dieEENS_10_Select1stENS5_11string_hashENS_18_Mod_range_hashingENS_20_Default_ranged_hashELb1EE12_M_hash_codeERS4_

COMDAT group section [  105] `.group' [_ZNKSt10_HashtableIPKcSt4pairIKS1_N5dwarf3dieEESaIS6_ENSt8__detail10_Select1stENS4_9string_eqENS4_11string_hashENS8_18_Mod_range_hashingENS8_20_Default_ranged_hashENS8_20_Prime_rehash_policyENS8_17_Hashtable_traitsILb1ELb0ELb1EEEE15_M_bucket_indexEm] contains 2 sections:
   [Index]    Name
   [  535]   .text._ZNKSt10_HashtableIPKcSt4pairIKS1_N5dwarf3dieEESaIS6_ENSt8__detail10_Select1stENS4_9string_eqENS4_11string_hashENS8_18_Mod_range_hashingENS8_20_Default_ranged_hashENS8_20_Prime_rehash_policyENS8_17_Hashtable_traitsILb1ELb0ELb1EEEE15_M_bucket_indexEm
   [  536]   .rela.text._ZNKSt10_HashtableIPKcSt4pairIKS1_N5dwarf3dieEESaIS6_ENSt8__detail10_Select1stENS4_9string_eqENS4_11string_hashENS8_18_Mod_range_hashingENS8_20_Default_ranged_hashENS8_20_Prime_rehash_policyENS8_17_Hashtable_traitsILb1ELb0ELb1EEEE15_M_bucket_ind

COMDAT group section [  106] `.group' [_ZNKSt10_HashtableIPKcSt4pairIKS1_N5dwarf3dieEESaIS6_ENSt8__detail10_Select1stENS4_9string_eqENS4_11string_hashENS8_18_Mod_range_hashingENS8_20_Default_ranged_hashENS8_20_Prime_rehash_policyENS8_17_Hashtable_traitsILb1ELb0ELb1EEEE12_M_find_nodeEmRS3_m] contains 2 sections:
   [Index]    Name
   [  537]   .text._ZNKSt10_HashtableIPKcSt4pairIKS1_N5dwarf3dieEESaIS6_ENSt8__detail10_Select1stENS4_9string_eqENS4_11string_hashENS8_18_Mod_range_hashingENS8_20_Default_ranged_hashENS8_20_Prime_rehash_policyENS8_17_Hashtable_traitsILb1ELb0ELb1EEEE12_M_find_nodeEmRS3_
   [  538]   .rela.text._ZNKSt10_HashtableIPKcSt4pairIKS1_N5dwarf3dieEESaIS6_ENSt8__detail10_Select1stENS4_9string_eqENS4_11string_hashENS8_18_Mod_range_hashingENS8_20_Default_ranged_hashENS8_20_Prime_rehash_policyENS8_17_Hashtable_traitsILb1ELb0ELb1EEEE12_M_find_nodeE

COMDAT group section [  107] `.group' [_ZNSt8__detail14_Node_iteratorISt4pairIKPKcN5dwarf3dieEELb0ELb1EEC5EPNS_10_Hash_nodeIS7_Lb1EEE] contains 2 sections:
   [Index]    Name
   [  539]   .text._ZNSt8__detail14_Node_iteratorISt4pairIKPKcN5dwarf3dieEELb0ELb1EEC2EPNS_10_Hash_nodeIS7_Lb1EEE
   [  540]   .rela.text._ZNSt8__detail14_Node_iteratorISt4pairIKPKcN5dwarf3dieEELb0ELb1EEC2EPNS_10_Hash_nodeIS7_Lb1EEE

COMDAT group section [  108] `.group' [_ZN9__gnu_cxx16__aligned_bufferISt4pairIKPKcN5dwarf3dieEEE6_M_ptrEv] contains 2 sections:
   [Index]    Name
   [  541]   .text._ZN9__gnu_cxx16__aligned_bufferISt4pairIKPKcN5dwarf3dieEEE6_M_ptrEv
   [  542]   .rela.text._ZN9__gnu_cxx16__aligned_bufferISt4pairIKPKcN5dwarf3dieEEE6_M_ptrEv

COMDAT group section [  109] `.group' [_ZNKSt10_HashtableIN5dwarf6DW_TAGES1_SaIS1_ENSt8__detail9_IdentityESt8equal_toIS1_ESt4hashIS1_ENS3_18_Mod_range_hashingENS3_20_Default_ranged_hashENS3_20_Prime_rehash_policyENS3_17_Hashtable_traitsILb1ELb1ELb1EEEE4findERKS1_] contains 2 sections:
   [Index]    Name
   [  543]   .text._ZNKSt10_HashtableIN5dwarf6DW_TAGES1_SaIS1_ENSt8__detail9_IdentityESt8equal_toIS1_ESt4hashIS1_ENS3_18_Mod_range_hashingENS3_20_Default_ranged_hashENS3_20_Prime_rehash_policyENS3_17_Hashtable_traitsILb1ELb1ELb1EEEE4findERKS1_
   [  544]   .rela.text._ZNKSt10_HashtableIN5dwarf6DW_TAGES1_SaIS1_ENSt8__detail9_IdentityESt8equal_toIS1_ESt4hashIS1_ENS3_18_Mod_range_hashingENS3_20_Default_ranged_hashENS3_20_Prime_rehash_policyENS3_17_Hashtable_traitsILb1ELb1ELb1EEEE4findERKS1_

COMDAT group section [  110] `.group' [_ZNSt8__detail20_Node_const_iteratorIN5dwarf6DW_TAGELb1ELb1EEppEv] contains 2 sections:
   [Index]    Name
   [  545]   .text._ZNSt8__detail20_Node_const_iteratorIN5dwarf6DW_TAGELb1ELb1EEppEv
   [  546]   .rela.text._ZNSt8__detail20_Node_const_iteratorIN5dwarf6DW_TAGELb1ELb1EEppEv

COMDAT group section [  111] `.group' [_ZNSt8__detail21_Hash_node_value_baseISt4pairIKPKcN5dwarf3dieEEE4_M_vEv] contains 2 sections:
   [Index]    Name
   [  547]   .text._ZNSt8__detail21_Hash_node_value_baseISt4pairIKPKcN5dwarf3dieEEE4_M_vEv
   [  548]   .rela.text._ZNSt8__detail21_Hash_node_value_baseISt4pairIKPKcN5dwarf3dieEEE4_M_vEv

COMDAT group section [  112] `.group' [_ZNSt5tupleIJRKPKcEEC5ILb1ELb1EEES3_] contains 3 sections:
   [Index]    Name
   [  549]   .text._ZNSt5tupleIJRKPKcEEC2ILb1ELb1EEES3_
   [  550]   .rela.text._ZNSt5tupleIJRKPKcEEC2ILb1ELb1EEES3_
   [  551]   .gcc_except_table._ZNSt5tupleIJRKPKcEEC2ILb1ELb1EEES3_

COMDAT group section [  113] `.group' [_ZNSt10_HashtableIPKcSt4pairIKS1_N5dwarf3dieEESaIS6_ENSt8__detail10_Select1stENS4_9string_eqENS4_11string_hashENS8_18_Mod_range_hashingENS8_20_Default_ranged_hashENS8_20_Prime_rehash_policyENS8_17_Hashtable_traitsILb1ELb0ELb1EEEE12_Scoped_nodeC5IJRKSt21piecewise_construct_tSt5tupleIJRS3_EESN_IJEEEEEPNS8_16_Hashtable_allocISaINS8_10_Hash_nodeIS6_Lb1EEEEEEDpOT_] contains 2 sections:
   [Index]    Name
   [  552]   .text._ZNSt10_HashtableIPKcSt4pairIKS1_N5dwarf3dieEESaIS6_ENSt8__detail10_Select1stENS4_9string_eqENS4_11string_hashENS8_18_Mod_range_hashingENS8_20_Default_ranged_hashENS8_20_Prime_rehash_policyENS8_17_Hashtable_traitsILb1ELb0ELb1EEEE12_Scoped_nodeC2IJRKS
   [  553]   .rela.text._ZNSt10_HashtableIPKcSt4pairIKS1_N5dwarf3dieEESaIS6_ENSt8__detail10_Select1stENS4_9string_eqENS4_11string_hashENS8_18_Mod_range_hashingENS8_20_Default_ranged_hashENS8_20_Prime_rehash_policyENS8_17_Hashtable_traitsILb1ELb0ELb1EEEE12_Scoped_nodeC2

COMDAT group section [  114] `.group' [_ZNSt10_HashtableIPKcSt4pairIKS1_N5dwarf3dieEESaIS6_ENSt8__detail10_Select1stENS4_9string_eqENS4_11string_hashENS8_18_Mod_range_hashingENS8_20_Default_ranged_hashENS8_20_Prime_rehash_policyENS8_17_Hashtable_traitsILb1ELb0ELb1EEEE12_Scoped_nodeD5Ev] contains 3 sections:
   [Index]    Name
   [  554]   .text._ZNSt10_HashtableIPKcSt4pairIKS1_N5dwarf3dieEESaIS6_ENSt8__detail10_Select1stENS4_9string_eqENS4_11string_hashENS8_18_Mod_range_hashingENS8_20_Default_ranged_hashENS8_20_Prime_rehash_policyENS8_17_Hashtable_traitsILb1ELb0ELb1EEEE12_Scoped_nodeD2Ev
   [  555]   .rela.text._ZNSt10_HashtableIPKcSt4pairIKS1_N5dwarf3dieEESaIS6_ENSt8__detail10_Select1stENS4_9string_eqENS4_11string_hashENS8_18_Mod_range_hashingENS8_20_Default_ranged_hashENS8_20_Prime_rehash_policyENS8_17_Hashtable_traitsILb1ELb0ELb1EEEE12_Scoped_nodeD2
   [  556]   .gcc_except_table._ZNSt10_HashtableIPKcSt4pairIKS1_N5dwarf3dieEESaIS6_ENSt8__detail10_Select1stENS4_9string_eqENS4_11string_hashENS8_18_Mod_range_hashingENS8_20_Default_ranged_hashENS8_20_Prime_rehash_policyENS8_17_Hashtable_traitsILb1ELb0ELb1EEEE12_Scoped

COMDAT group section [  115] `.group' [_ZNSt10_HashtableIPKcSt4pairIKS1_N5dwarf3dieEESaIS6_ENSt8__detail10_Select1stENS4_9string_eqENS4_11string_hashENS8_18_Mod_range_hashingENS8_20_Default_ranged_hashENS8_20_Prime_rehash_policyENS8_17_Hashtable_traitsILb1ELb0ELb1EEEE21_M_insert_unique_nodeEmmPNS8_10_Hash_nodeIS6_Lb1EEEm] contains 2 sections:
   [Index]    Name
   [  557]   .text._ZNSt10_HashtableIPKcSt4pairIKS1_N5dwarf3dieEESaIS6_ENSt8__detail10_Select1stENS4_9string_eqENS4_11string_hashENS8_18_Mod_range_hashingENS8_20_Default_ranged_hashENS8_20_Prime_rehash_policyENS8_17_Hashtable_traitsILb1ELb0ELb1EEEE21_M_insert_unique_no
   [  558]   .rela.text._ZNSt10_HashtableIPKcSt4pairIKS1_N5dwarf3dieEESaIS6_ENSt8__detail10_Select1stENS4_9string_eqENS4_11string_hashENS8_18_Mod_range_hashingENS8_20_Default_ranged_hashENS8_20_Prime_rehash_policyENS8_17_Hashtable_traitsILb1ELb0ELb1EEEE21_M_insert_uniq

COMDAT group section [  116] `.group' [_ZNKSt8__detail10_Hash_nodeISt4pairIKPKcN5dwarf3dieEELb1EE7_M_nextEv] contains 1 sections:
   [Index]    Name
   [  559]   .text._ZNKSt8__detail10_Hash_nodeISt4pairIKPKcN5dwarf3dieEELb1EE7_M_nextEv

COMDAT group section [  117] `.group' [_ZNSt8__detail16_Hashtable_allocISaINS_10_Hash_nodeISt4pairIKPKcN5dwarf3dieEELb1EEEEE18_M_deallocate_nodeEPS9_] contains 2 sections:
   [Index]    Name
   [  560]   .text._ZNSt8__detail16_Hashtable_allocISaINS_10_Hash_nodeISt4pairIKPKcN5dwarf3dieEELb1EEEEE18_M_deallocate_nodeEPS9_
   [  561]   .rela.text._ZNSt8__detail16_Hashtable_allocISaINS_10_Hash_nodeISt4pairIKPKcN5dwarf3dieEELb1EEEEE18_M_deallocate_nodeEPS9_

COMDAT group section [  118] `.group' [_ZNKSt10_HashtableIPKcSt4pairIKS1_N5dwarf3dieEESaIS6_ENSt8__detail10_Select1stENS4_9string_eqENS4_11string_hashENS8_18_Mod_range_hashingENS8_20_Default_ranged_hashENS8_20_Prime_rehash_policyENS8_17_Hashtable_traitsILb1ELb0ELb1EEEE21_M_uses_single_bucketEPPNS8_15_Hash_node_baseE] contains 1 sections:
   [Index]    Name
   [  562]   .text._ZNKSt10_HashtableIPKcSt4pairIKS1_N5dwarf3dieEESaIS6_ENSt8__detail10_Select1stENS4_9string_eqENS4_11string_hashENS8_18_Mod_range_hashingENS8_20_Default_ranged_hashENS8_20_Prime_rehash_policyENS8_17_Hashtable_traitsILb1ELb0ELb1EEEE21_M_uses_single_buc

COMDAT group section [  119] `.group' [_ZNSt8__detail16_Hashtable_allocISaINS_10_Hash_nodeISt4pairIKPKcN5dwarf3dieEELb1EEEEE21_M_deallocate_bucketsEPPNS_15_Hash_node_baseEm] contains 4 sections:
   [Index]    Name
   [  563]   .text._ZNSt8__detail16_Hashtable_allocISaINS_10_Hash_nodeISt4pairIKPKcN5dwarf3dieEELb1EEEEE21_M_deallocate_bucketsEPPNS_15_Hash_node_baseEm
   [  564]   .rela.text._ZNSt8__detail16_Hashtable_allocISaINS_10_Hash_nodeISt4pairIKPKcN5dwarf3dieEELb1EEEEE21_M_deallocate_bucketsEPPNS_15_Hash_node_baseEm
   [  565]   .gcc_except_table._ZNSt8__detail16_Hashtable_allocISaINS_10_Hash_nodeISt4pairIKPKcN5dwarf3dieEELb1EEEEE21_M_deallocate_bucketsEPPNS_15_Hash_node_baseEm
   [  566]   .rela.gcc_except_table._ZNSt8__detail16_Hashtable_allocISaINS_10_Hash_nodeISt4pairIKPKcN5dwarf3dieEELb1EEEEE21_M_deallocate_bucketsEPPNS_15_Hash_node_baseEm

COMDAT group section [  120] `.group' [_ZNSt10_HashtableIN5dwarf6DW_TAGES1_SaIS1_ENSt8__detail9_IdentityESt8equal_toIS1_ESt4hashIS1_ENS3_18_Mod_range_hashingENS3_20_Default_ranged_hashENS3_20_Prime_rehash_policyENS3_17_Hashtable_traitsILb1ELb1ELb1EEEEC5EmRKS8_RKS6_RKS2_] contains 4 sections:
   [Index]    Name
   [  567]   .text._ZNSt10_HashtableIN5dwarf6DW_TAGES1_SaIS1_ENSt8__detail9_IdentityESt8equal_toIS1_ESt4hashIS1_ENS3_18_Mod_range_hashingENS3_20_Default_ranged_hashENS3_20_Prime_rehash_policyENS3_17_Hashtable_traitsILb1ELb1ELb1EEEEC2EmRKS8_RKS6_RKS2_
   [  568]   .rela.text._ZNSt10_HashtableIN5dwarf6DW_TAGES1_SaIS1_ENSt8__detail9_IdentityESt8equal_toIS1_ESt4hashIS1_ENS3_18_Mod_range_hashingENS3_20_Default_ranged_hashENS3_20_Prime_rehash_policyENS3_17_Hashtable_traitsILb1ELb1ELb1EEEEC2EmRKS8_RKS6_RKS2_
   [  569]   .gcc_except_table._ZNSt10_HashtableIN5dwarf6DW_TAGES1_SaIS1_ENSt8__detail9_IdentityESt8equal_toIS1_ESt4hashIS1_ENS3_18_Mod_range_hashingENS3_20_Default_ranged_hashENS3_20_Prime_rehash_policyENS3_17_Hashtable_traitsILb1ELb1ELb1EEEEC2EmRKS8_RKS6_RKS2_
   [  570]   .rela.gcc_except_table._ZNSt10_HashtableIN5dwarf6DW_TAGES1_SaIS1_ENSt8__detail9_IdentityESt8equal_toIS1_ESt4hashIS1_ENS3_18_Mod_range_hashingENS3_20_Default_ranged_hashENS3_20_Prime_rehash_policyENS3_17_Hashtable_traitsILb1ELb1ELb1EEEEC2EmRKS8_RKS6_RKS2_

COMDAT group section [  121] `.group' [_ZNSt8__detail12_Insert_baseIN5dwarf6DW_TAGES2_SaIS2_ENS_9_IdentityESt8equal_toIS2_ESt4hashIS2_ENS_18_Mod_range_hashingENS_20_Default_ranged_hashENS_20_Prime_rehash_policyENS_17_Hashtable_traitsILb1ELb1ELb1EEEE6insertERKS2_] contains 2 sections:
   [Index]    Name
   [  571]   .text._ZNSt8__detail12_Insert_baseIN5dwarf6DW_TAGES2_SaIS2_ENS_9_IdentityESt8equal_toIS2_ESt4hashIS2_ENS_18_Mod_range_hashingENS_20_Default_ranged_hashENS_20_Prime_rehash_policyENS_17_Hashtable_traitsILb1ELb1ELb1EEEE6insertERKS2_
   [  572]   .rela.text._ZNSt8__detail12_Insert_baseIN5dwarf6DW_TAGES2_SaIS2_ENS_9_IdentityESt8equal_toIS2_ESt4hashIS2_ENS_18_Mod_range_hashingENS_20_Default_ranged_hashENS_20_Prime_rehash_policyENS_17_Hashtable_traitsILb1ELb1ELb1EEEE6insertERKS2_

COMDAT group section [  122] `.group' [_ZNKSt8__detail10_Hash_nodeIN5dwarf6DW_TAGELb1EE7_M_nextEv] contains 1 sections:
   [Index]    Name
   [  573]   .text._ZNKSt8__detail10_Hash_nodeIN5dwarf6DW_TAGELb1EE7_M_nextEv

COMDAT group section [  123] `.group' [_ZNSt8__detail16_Hashtable_allocISaINS_10_Hash_nodeIN5dwarf6DW_TAGELb1EEEEE18_M_deallocate_nodeEPS4_] contains 2 sections:
   [Index]    Name
   [  574]   .text._ZNSt8__detail16_Hashtable_allocISaINS_10_Hash_nodeIN5dwarf6DW_TAGELb1EEEEE18_M_deallocate_nodeEPS4_
   [  575]   .rela.text._ZNSt8__detail16_Hashtable_allocISaINS_10_Hash_nodeIN5dwarf6DW_TAGELb1EEEEE18_M_deallocate_nodeEPS4_

COMDAT group section [  124] `.group' [_ZNKSt10_HashtableIN5dwarf6DW_TAGES1_SaIS1_ENSt8__detail9_IdentityESt8equal_toIS1_ESt4hashIS1_ENS3_18_Mod_range_hashingENS3_20_Default_ranged_hashENS3_20_Prime_rehash_policyENS3_17_Hashtable_traitsILb1ELb1ELb1EEEE21_M_uses_single_bucketEPPNS3_15_Hash_node_baseE] contains 1 sections:
   [Index]    Name
   [  576]   .text._ZNKSt10_HashtableIN5dwarf6DW_TAGES1_SaIS1_ENSt8__detail9_IdentityESt8equal_toIS1_ESt4hashIS1_ENS3_18_Mod_range_hashingENS3_20_Default_ranged_hashENS3_20_Prime_rehash_policyENS3_17_Hashtable_traitsILb1ELb1ELb1EEEE21_M_uses_single_bucketEPPNS3_15_Hash

COMDAT group section [  125] `.group' [_ZNSt8__detail16_Hashtable_allocISaINS_10_Hash_nodeIN5dwarf6DW_TAGELb1EEEEE21_M_deallocate_bucketsEPPNS_15_Hash_node_baseEm] contains 4 sections:
   [Index]    Name
   [  577]   .text._ZNSt8__detail16_Hashtable_allocISaINS_10_Hash_nodeIN5dwarf6DW_TAGELb1EEEEE21_M_deallocate_bucketsEPPNS_15_Hash_node_baseEm
   [  578]   .rela.text._ZNSt8__detail16_Hashtable_allocISaINS_10_Hash_nodeIN5dwarf6DW_TAGELb1EEEEE21_M_deallocate_bucketsEPPNS_15_Hash_node_baseEm
   [  579]   .gcc_except_table._ZNSt8__detail16_Hashtable_allocISaINS_10_Hash_nodeIN5dwarf6DW_TAGELb1EEEEE21_M_deallocate_bucketsEPPNS_15_Hash_node_baseEm
   [  580]   .rela.gcc_except_table._ZNSt8__detail16_Hashtable_allocISaINS_10_Hash_nodeIN5dwarf6DW_TAGELb1EEEEE21_M_deallocate_bucketsEPPNS_15_Hash_node_baseEm

COMDAT group section [  126] `.group' [_ZNSt14__shared_countILN9__gnu_cxx12_Lock_policyE1EEC5IN5dwarf11die_str_map4implESaIvEJRKNS4_3dieERNS4_5DW_ATERKSt16initializer_listINS4_6DW_TAGEEEEERPT_St20_Sp_alloc_shared_tagIT0_EDpOT1_] contains 4 sections:
   [Index]    Name
   [  581]   .text._ZNSt14__shared_countILN9__gnu_cxx12_Lock_policyE1EEC2IN5dwarf11die_str_map4implESaIvEJRKNS4_3dieERNS4_5DW_ATERKSt16initializer_listINS4_6DW_TAGEEEEERPT_St20_Sp_alloc_shared_tagIT0_EDpOT1_
   [  582]   .rela.text._ZNSt14__shared_countILN9__gnu_cxx12_Lock_policyE1EEC2IN5dwarf11die_str_map4implESaIvEJRKNS4_3dieERNS4_5DW_ATERKSt16initializer_listINS4_6DW_TAGEEEEERPT_St20_Sp_alloc_shared_tagIT0_EDpOT1_
   [  583]   .gcc_except_table._ZNSt14__shared_countILN9__gnu_cxx12_Lock_policyE1EEC2IN5dwarf11die_str_map4implESaIvEJRKNS4_3dieERNS4_5DW_ATERKSt16initializer_listINS4_6DW_TAGEEEEERPT_St20_Sp_alloc_shared_tagIT0_EDpOT1_
   [  584]   .rela.gcc_except_table._ZNSt14__shared_countILN9__gnu_cxx12_Lock_policyE1EEC2IN5dwarf11die_str_map4implESaIvEJRKNS4_3dieERNS4_5DW_ATERKSt16initializer_listINS4_6DW_TAGEEEEERPT_St20_Sp_alloc_shared_tagIT0_EDpOT1_

COMDAT group section [  127] `.group' [_ZNSt12__shared_ptrIN5dwarf11die_str_map4implELN9__gnu_cxx12_Lock_policyE1EE31_M_enable_shared_from_this_withIS2_S2_EENSt9enable_ifIXntsrNS5_15__has_esft_baseIT0_vEE5valueEvE4typeEPT_] contains 1 sections:
   [Index]    Name
   [  585]   .text._ZNSt12__shared_ptrIN5dwarf11die_str_map4implELN9__gnu_cxx12_Lock_policyE1EE31_M_enable_shared_from_this_withIS2_S2_EENSt9enable_ifIXntsrNS5_15__has_esft_baseIT0_vEE5valueEvE4typeEPT_

COMDAT group section [  128] `.group' [_ZNSt8__detail22_Hashtable_hash_traitsIN5dwarf11string_hashEE22__small_size_thresholdEv] contains 1 sections:
   [Index]    Name
   [  586]   .text._ZNSt8__detail22_Hashtable_hash_traitsIN5dwarf11string_hashEE22__small_size_thresholdEv

COMDAT group section [  129] `.group' [_ZNSt8__detail19_Node_iterator_baseISt4pairIKPKcN5dwarf3dieEELb1EE7_M_incrEv] contains 2 sections:
   [Index]    Name
   [  587]   .text._ZNSt8__detail19_Node_iterator_baseISt4pairIKPKcN5dwarf3dieEELb1EE7_M_incrEv
   [  588]   .rela.text._ZNSt8__detail19_Node_iterator_baseISt4pairIKPKcN5dwarf3dieEELb1EE7_M_incrEv

COMDAT group section [  130] `.group' [_ZNKSt8__detail15_Hashtable_baseIPKcSt4pairIKS2_N5dwarf3dieEENS_10_Select1stENS5_9string_eqENS5_11string_hashENS_18_Mod_range_hashingENS_20_Default_ranged_hashENS_17_Hashtable_traitsILb1ELb0ELb1EEEE5_M_eqEv] contains 2 sections:
   [Index]    Name
   [  589]   .text._ZNKSt8__detail15_Hashtable_baseIPKcSt4pairIKS2_N5dwarf3dieEENS_10_Select1stENS5_9string_eqENS5_11string_hashENS_18_Mod_range_hashingENS_20_Default_ranged_hashENS_17_Hashtable_traitsILb1ELb0ELb1EEEE5_M_eqEv
   [  590]   .rela.text._ZNKSt8__detail15_Hashtable_baseIPKcSt4pairIKS2_N5dwarf3dieEENS_10_Select1stENS5_9string_eqENS5_11string_hashENS_18_Mod_range_hashingENS_20_Default_ranged_hashENS_17_Hashtable_traitsILb1ELb0ELb1EEEE5_M_eqEv

COMDAT group section [  131] `.group' [_ZNKSt8__detail21_Hash_node_value_baseISt4pairIKPKcN5dwarf3dieEEE4_M_vEv] contains 2 sections:
   [Index]    Name
   [  591]   .text._ZNKSt8__detail21_Hash_node_value_baseISt4pairIKPKcN5dwarf3dieEEE4_M_vEv
   [  592]   .rela.text._ZNKSt8__detail21_Hash_node_value_baseISt4pairIKPKcN5dwarf3dieEEE4_M_vEv

COMDAT group section [  132] `.group' [_ZNKSt8__detail10_Select1stclIRKSt4pairIKPKcN5dwarf3dieEEEEONS0_10__1st_typeIT_E4typeEOSC_] contains 2 sections:
   [Index]    Name
   [  593]   .text._ZNKSt8__detail10_Select1stclIRKSt4pairIKPKcN5dwarf3dieEEEEONS0_10__1st_typeIT_E4typeEOSC_
   [  594]   .rela.text._ZNKSt8__detail10_Select1stclIRKSt4pairIKPKcN5dwarf3dieEEEEONS0_10__1st_typeIT_E4typeEOSC_

COMDAT group section [  133] `.group' [_ZNKSt8__detail15_Hash_code_baseIPKcSt4pairIKS2_N5dwarf3dieEENS_10_Select1stENS5_11string_hashENS_18_Mod_range_hashingENS_20_Default_ranged_hashELb1EE7_M_hashEv] contains 2 sections:
   [Index]    Name
   [  595]   .text._ZNKSt8__detail15_Hash_code_baseIPKcSt4pairIKS2_N5dwarf3dieEENS_10_Select1stENS5_11string_hashENS_18_Mod_range_hashingENS_20_Default_ranged_hashELb1EE7_M_hashEv
   [  596]   .rela.text._ZNKSt8__detail15_Hash_code_baseIPKcSt4pairIKS2_N5dwarf3dieEENS_10_Select1stENS5_11string_hashENS_18_Mod_range_hashingENS_20_Default_ranged_hashELb1EE7_M_hashEv

COMDAT group section [  134] `.group' [_ZNKSt8__detail15_Hash_code_baseIPKcSt4pairIKS2_N5dwarf3dieEENS_10_Select1stENS5_11string_hashENS_18_Mod_range_hashingENS_20_Default_ranged_hashELb1EE15_M_bucket_indexEmm] contains 2 sections:
   [Index]    Name
   [  597]   .text._ZNKSt8__detail15_Hash_code_baseIPKcSt4pairIKS2_N5dwarf3dieEENS_10_Select1stENS5_11string_hashENS_18_Mod_range_hashingENS_20_Default_ranged_hashELb1EE15_M_bucket_indexEmm
   [  598]   .rela.text._ZNKSt8__detail15_Hash_code_baseIPKcSt4pairIKS2_N5dwarf3dieEENS_10_Select1stENS5_11string_hashENS_18_Mod_range_hashingENS_20_Default_ranged_hashELb1EE15_M_bucket_indexEmm

COMDAT group section [  135] `.group' [_ZNKSt10_HashtableIPKcSt4pairIKS1_N5dwarf3dieEESaIS6_ENSt8__detail10_Select1stENS4_9string_eqENS4_11string_hashENS8_18_Mod_range_hashingENS8_20_Default_ranged_hashENS8_20_Prime_rehash_policyENS8_17_Hashtable_traitsILb1ELb0ELb1EEEE19_M_find_before_nodeEmRS3_m] contains 2 sections:
   [Index]    Name
   [  599]   .text._ZNKSt10_HashtableIPKcSt4pairIKS1_N5dwarf3dieEESaIS6_ENSt8__detail10_Select1stENS4_9string_eqENS4_11string_hashENS8_18_Mod_range_hashingENS8_20_Default_ranged_hashENS8_20_Prime_rehash_policyENS8_17_Hashtable_traitsILb1ELb0ELb1EEEE19_M_find_before_nod
   [  600]   .rela.text._ZNKSt10_HashtableIPKcSt4pairIKS1_N5dwarf3dieEESaIS6_ENSt8__detail10_Select1stENS4_9string_eqENS4_11string_hashENS8_18_Mod_range_hashingENS8_20_Default_ranged_hashENS8_20_Prime_rehash_policyENS8_17_Hashtable_traitsILb1ELb0ELb1EEEE19_M_find_befor

COMDAT group section [  136] `.group' [_ZNSt8__detail19_Node_iterator_baseISt4pairIKPKcN5dwarf3dieEELb1EEC5EPNS_10_Hash_nodeIS7_Lb1EEE] contains 1 sections:
   [Index]    Name
   [  601]   .text._ZNSt8__detail19_Node_iterator_baseISt4pairIKPKcN5dwarf3dieEELb1EEC2EPNS_10_Hash_nodeIS7_Lb1EEE

COMDAT group section [  137] `.group' [_ZN9__gnu_cxx16__aligned_bufferISt4pairIKPKcN5dwarf3dieEEE7_M_addrEv] contains 1 sections:
   [Index]    Name
   [  602]   .text._ZN9__gnu_cxx16__aligned_bufferISt4pairIKPKcN5dwarf3dieEEE7_M_addrEv

COMDAT group section [  138] `.group' [_ZNKSt10_HashtableIN5dwarf6DW_TAGES1_SaIS1_ENSt8__detail9_IdentityESt8equal_toIS1_ESt4hashIS1_ENS3_18_Mod_range_hashingENS3_20_Default_ranged_hashENS3_20_Prime_rehash_policyENS3_17_Hashtable_traitsILb1ELb1ELb1EEEE4sizeEv] contains 1 sections:
   [Index]    Name
   [  603]   .text._ZNKSt10_HashtableIN5dwarf6DW_TAGES1_SaIS1_ENSt8__detail9_IdentityESt8equal_toIS1_ESt4hashIS1_ENS3_18_Mod_range_hashingENS3_20_Default_ranged_hashENS3_20_Prime_rehash_policyENS3_17_Hashtable_traitsILb1ELb1ELb1EEEE4sizeEv

COMDAT group section [  139] `.group' [_ZNSt10_HashtableIN5dwarf6DW_TAGES1_SaIS1_ENSt8__detail9_IdentityESt8equal_toIS1_ESt4hashIS1_ENS3_18_Mod_range_hashingENS3_20_Default_ranged_hashENS3_20_Prime_rehash_policyENS3_17_Hashtable_traitsILb1ELb1ELb1EEEE22__small_size_thresholdEv] contains 2 sections:
   [Index]    Name
   [  604]   .text._ZNSt10_HashtableIN5dwarf6DW_TAGES1_SaIS1_ENSt8__detail9_IdentityESt8equal_toIS1_ESt4hashIS1_ENS3_18_Mod_range_hashingENS3_20_Default_ranged_hashENS3_20_Prime_rehash_policyENS3_17_Hashtable_traitsILb1ELb1ELb1EEEE22__small_size_thresholdEv
   [  605]   .rela.text._ZNSt10_HashtableIN5dwarf6DW_TAGES1_SaIS1_ENSt8__detail9_IdentityESt8equal_toIS1_ESt4hashIS1_ENS3_18_Mod_range_hashingENS3_20_Default_ranged_hashENS3_20_Prime_rehash_policyENS3_17_Hashtable_traitsILb1ELb1ELb1EEEE22__small_size_thresholdEv

COMDAT group section [  140] `.group' [_ZNKSt10_HashtableIN5dwarf6DW_TAGES1_SaIS1_ENSt8__detail9_IdentityESt8equal_toIS1_ESt4hashIS1_ENS3_18_Mod_range_hashingENS3_20_Default_ranged_hashENS3_20_Prime_rehash_policyENS3_17_Hashtable_traitsILb1ELb1ELb1EEEE5beginEv] contains 2 sections:
   [Index]    Name
   [  606]   .text._ZNKSt10_HashtableIN5dwarf6DW_TAGES1_SaIS1_ENSt8__detail9_IdentityESt8equal_toIS1_ESt4hashIS1_ENS3_18_Mod_range_hashingENS3_20_Default_ranged_hashENS3_20_Prime_rehash_policyENS3_17_Hashtable_traitsILb1ELb1ELb1EEEE5beginEv
   [  607]   .rela.text._ZNKSt10_HashtableIN5dwarf6DW_TAGES1_SaIS1_ENSt8__detail9_IdentityESt8equal_toIS1_ESt4hashIS1_ENS3_18_Mod_range_hashingENS3_20_Default_ranged_hashENS3_20_Prime_rehash_policyENS3_17_Hashtable_traitsILb1ELb1ELb1EEEE5beginEv

COMDAT group section [  141] `.group' [_ZNKSt10_HashtableIN5dwarf6DW_TAGES1_SaIS1_ENSt8__detail9_IdentityESt8equal_toIS1_ESt4hashIS1_ENS3_18_Mod_range_hashingENS3_20_Default_ranged_hashENS3_20_Prime_rehash_policyENS3_17_Hashtable_traitsILb1ELb1ELb1EEEE3endEv] contains 2 sections:
   [Index]    Name
   [  608]   .text._ZNKSt10_HashtableIN5dwarf6DW_TAGES1_SaIS1_ENSt8__detail9_IdentityESt8equal_toIS1_ESt4hashIS1_ENS3_18_Mod_range_hashingENS3_20_Default_ranged_hashENS3_20_Prime_rehash_policyENS3_17_Hashtable_traitsILb1ELb1ELb1EEEE3endEv
   [  609]   .rela.text._ZNKSt10_HashtableIN5dwarf6DW_TAGES1_SaIS1_ENSt8__detail9_IdentityESt8equal_toIS1_ESt4hashIS1_ENS3_18_Mod_range_hashingENS3_20_Default_ranged_hashENS3_20_Prime_rehash_policyENS3_17_Hashtable_traitsILb1ELb1ELb1EEEE3endEv

COMDAT group section [  142] `.group' [_ZNSt8__detailneERKNS_19_Node_iterator_baseIN5dwarf6DW_TAGELb1EEES5_] contains 1 sections:
   [Index]    Name
   [  610]   .text._ZNSt8__detailneERKNS_19_Node_iterator_baseIN5dwarf6DW_TAGELb1EEES5_

COMDAT group section [  143] `.group' [_ZNKSt8__detail15_Hashtable_baseIN5dwarf6DW_TAGES2_NS_9_IdentityESt8equal_toIS2_ESt4hashIS2_ENS_18_Mod_range_hashingENS_20_Default_ranged_hashENS_17_Hashtable_traitsILb1ELb1ELb1EEEE13_M_key_equalsERKS2_RKNS_16_Hash_node_valueIS2_Lb1EEE] contains 2 sections:
   [Index]    Name
   [  611]   .text._ZNKSt8__detail15_Hashtable_baseIN5dwarf6DW_TAGES2_NS_9_IdentityESt8equal_toIS2_ESt4hashIS2_ENS_18_Mod_range_hashingENS_20_Default_ranged_hashENS_17_Hashtable_traitsILb1ELb1ELb1EEEE13_M_key_equalsERKS2_RKNS_16_Hash_node_valueIS2_Lb1EEE
   [  612]   .rela.text._ZNKSt8__detail15_Hashtable_baseIN5dwarf6DW_TAGES2_NS_9_IdentityESt8equal_toIS2_ESt4hashIS2_ENS_18_Mod_range_hashingENS_20_Default_ranged_hashENS_17_Hashtable_traitsILb1ELb1ELb1EEEE13_M_key_equalsERKS2_RKNS_16_Hash_node_valueIS2_Lb1EEE

COMDAT group section [  144] `.group' [_ZNKSt8__detail15_Hash_code_baseIN5dwarf6DW_TAGES2_NS_9_IdentityESt4hashIS2_ENS_18_Mod_range_hashingENS_20_Default_ranged_hashELb1EE12_M_hash_codeERKS2_] contains 2 sections:
   [Index]    Name
   [  613]   .text._ZNKSt8__detail15_Hash_code_baseIN5dwarf6DW_TAGES2_NS_9_IdentityESt4hashIS2_ENS_18_Mod_range_hashingENS_20_Default_ranged_hashELb1EE12_M_hash_codeERKS2_
   [  614]   .rela.text._ZNKSt8__detail15_Hash_code_baseIN5dwarf6DW_TAGES2_NS_9_IdentityESt4hashIS2_ENS_18_Mod_range_hashingENS_20_Default_ranged_hashELb1EE12_M_hash_codeERKS2_

COMDAT group section [  145] `.group' [_ZNKSt10_HashtableIN5dwarf6DW_TAGES1_SaIS1_ENSt8__detail9_IdentityESt8equal_toIS1_ESt4hashIS1_ENS3_18_Mod_range_hashingENS3_20_Default_ranged_hashENS3_20_Prime_rehash_policyENS3_17_Hashtable_traitsILb1ELb1ELb1EEEE15_M_bucket_indexEm] contains 2 sections:
   [Index]    Name
   [  615]   .text._ZNKSt10_HashtableIN5dwarf6DW_TAGES1_SaIS1_ENSt8__detail9_IdentityESt8equal_toIS1_ESt4hashIS1_ENS3_18_Mod_range_hashingENS3_20_Default_ranged_hashENS3_20_Prime_rehash_policyENS3_17_Hashtable_traitsILb1ELb1ELb1EEEE15_M_bucket_indexEm
   [  616]   .rela.text._ZNKSt10_HashtableIN5dwarf6DW_TAGES1_SaIS1_ENSt8__detail9_IdentityESt8equal_toIS1_ESt4hashIS1_ENS3_18_Mod_range_hashingENS3_20_Default_ranged_hashENS3_20_Prime_rehash_policyENS3_17_Hashtable_traitsILb1ELb1ELb1EEEE15_M_bucket_indexEm

COMDAT group section [  146] `.group' [_ZNKSt10_HashtableIN5dwarf6DW_TAGES1_SaIS1_ENSt8__detail9_IdentityESt8equal_toIS1_ESt4hashIS1_ENS3_18_Mod_range_hashingENS3_20_Default_ranged_hashENS3_20_Prime_rehash_policyENS3_17_Hashtable_traitsILb1ELb1ELb1EEEE12_M_find_nodeEmRKS1_m] contains 2 sections:
   [Index]    Name
   [  617]   .text._ZNKSt10_HashtableIN5dwarf6DW_TAGES1_SaIS1_ENSt8__detail9_IdentityESt8equal_toIS1_ESt4hashIS1_ENS3_18_Mod_range_hashingENS3_20_Default_ranged_hashENS3_20_Prime_rehash_policyENS3_17_Hashtable_traitsILb1ELb1ELb1EEEE12_M_find_nodeEmRKS1_m
   [  618]   .rela.text._ZNKSt10_HashtableIN5dwarf6DW_TAGES1_SaIS1_ENSt8__detail9_IdentityESt8equal_toIS1_ESt4hashIS1_ENS3_18_Mod_range_hashingENS3_20_Default_ranged_hashENS3_20_Prime_rehash_policyENS3_17_Hashtable_traitsILb1ELb1ELb1EEEE12_M_find_nodeEmRKS1_m

COMDAT group section [  147] `.group' [_ZNSt8__detail20_Node_const_iteratorIN5dwarf6DW_TAGELb1ELb1EEC5EPNS_10_Hash_nodeIS2_Lb1EEE] contains 2 sections:
   [Index]    Name
   [  619]   .text._ZNSt8__detail20_Node_const_iteratorIN5dwarf6DW_TAGELb1ELb1EEC2EPNS_10_Hash_nodeIS2_Lb1EEE
   [  620]   .rela.text._ZNSt8__detail20_Node_const_iteratorIN5dwarf6DW_TAGELb1ELb1EEC2EPNS_10_Hash_nodeIS2_Lb1EEE

COMDAT group section [  148] `.group' [_ZNSt8__detail19_Node_iterator_baseIN5dwarf6DW_TAGELb1EE7_M_incrEv] contains 2 sections:
   [Index]    Name
   [  621]   .text._ZNSt8__detail19_Node_iterator_baseIN5dwarf6DW_TAGELb1EE7_M_incrEv
   [  622]   .rela.text._ZNSt8__detail19_Node_iterator_baseIN5dwarf6DW_TAGELb1EE7_M_incrEv

COMDAT group section [  149] `.group' [_ZNKSt8__detail21_Hash_node_value_baseIN5dwarf6DW_TAGEE4_M_vEv] contains 2 sections:
   [Index]    Name
   [  623]   .text._ZNKSt8__detail21_Hash_node_value_baseIN5dwarf6DW_TAGEE4_M_vEv
   [  624]   .rela.text._ZNKSt8__detail21_Hash_node_value_baseIN5dwarf6DW_TAGEE4_M_vEv

COMDAT group section [  150] `.group' [_ZNKSt8__detail9_IdentityclIRKN5dwarf6DW_TAGEEEOT_S7_] contains 2 sections:
   [Index]    Name
   [  625]   .text._ZNKSt8__detail9_IdentityclIRKN5dwarf6DW_TAGEEEOT_S7_
   [  626]   .rela.text._ZNKSt8__detail9_IdentityclIRKN5dwarf6DW_TAGEEEOT_S7_

COMDAT group section [  151] `.group' [_ZNSt11_Tuple_implILm0EJRKPKcEEC5ES3_] contains 2 sections:
   [Index]    Name
   [  627]   .text._ZNSt11_Tuple_implILm0EJRKPKcEEC2ES3_
   [  628]   .rela.text._ZNSt11_Tuple_implILm0EJRKPKcEEC2ES3_

COMDAT group section [  152] `.group' [_ZSt7forwardIRKSt21piecewise_construct_tEOT_RNSt16remove_referenceIS3_E4typeE] contains 1 sections:
   [Index]    Name
   [  629]   .text._ZSt7forwardIRKSt21piecewise_construct_tEOT_RNSt16remove_referenceIS3_E4typeE

COMDAT group section [  153] `.group' [_ZSt7forwardISt5tupleIJRKPKcEEEOT_RNSt16remove_referenceIS6_E4typeE] contains 1 sections:
   [Index]    Name
   [  630]   .text._ZSt7forwardISt5tupleIJRKPKcEEEOT_RNSt16remove_referenceIS6_E4typeE

COMDAT group section [  154] `.group' [_ZSt7forwardISt5tupleIJEEEOT_RNSt16remove_referenceIS2_E4typeE] contains 1 sections:
   [Index]    Name
   [  631]   .text._ZSt7forwardISt5tupleIJEEEOT_RNSt16remove_referenceIS2_E4typeE

COMDAT group section [  155] `.group' [_ZNSt8__detail10_Hash_nodeISt4pairIKPKcN5dwarf3dieEELb1EEC5Ev] contains 2 sections:
   [Index]    Name
   [  632]   .text._ZNSt8__detail10_Hash_nodeISt4pairIKPKcN5dwarf3dieEELb1EEC2Ev
   [  633]   .rela.text._ZNSt8__detail10_Hash_nodeISt4pairIKPKcN5dwarf3dieEELb1EEC2Ev

COMDAT group section [  156] `.group' [_ZNSt8__detail16_Hashtable_allocISaINS_10_Hash_nodeISt4pairIKPKcN5dwarf3dieEELb1EEEEE16_M_allocate_nodeIJRKSt21piecewise_construct_tSt5tupleIJRS5_EESG_IJEEEEEPS9_DpOT_] contains 4 sections:
   [Index]    Name
   [  634]   .text._ZNSt8__detail16_Hashtable_allocISaINS_10_Hash_nodeISt4pairIKPKcN5dwarf3dieEELb1EEEEE16_M_allocate_nodeIJRKSt21piecewise_construct_tSt5tupleIJRS5_EESG_IJEEEEEPS9_DpOT_
   [  635]   .rela.text._ZNSt8__detail16_Hashtable_allocISaINS_10_Hash_nodeISt4pairIKPKcN5dwarf3dieEELb1EEEEE16_M_allocate_nodeIJRKSt21piecewise_construct_tSt5tupleIJRS5_EESG_IJEEEEEPS9_DpOT_
   [  636]   .gcc_except_table._ZNSt8__detail16_Hashtable_allocISaINS_10_Hash_nodeISt4pairIKPKcN5dwarf3dieEELb1EEEEE16_M_allocate_nodeIJRKSt21piecewise_construct_tSt5tupleIJRS5_EESG_IJEEEEEPS9_DpOT_
   [  637]   .rela.gcc_except_table._ZNSt8__detail16_Hashtable_allocISaINS_10_Hash_nodeISt4pairIKPKcN5dwarf3dieEELb1EEEEE16_M_allocate_nodeIJRKSt21piecewise_construct_tSt5tupleIJRS5_EESG_IJEEEEEPS9_DpOT_

COMDAT group section [  157] `.group' [_ZNSt10_HashtableIPKcSt4pairIKS1_N5dwarf3dieEESaIS6_ENSt8__detail10_Select1stENS4_9string_eqENS4_11string_hashENS8_18_Mod_range_hashingENS8_20_Default_ranged_hashENS8_20_Prime_rehash_policyENS8_17_Hashtable_traitsILb1ELb0ELb1EEEE9_M_rehashEmRKm] contains 4 sections:
   [Index]    Name
   [  638]   .text._ZNSt10_HashtableIPKcSt4pairIKS1_N5dwarf3dieEESaIS6_ENSt8__detail10_Select1stENS4_9string_eqENS4_11string_hashENS8_18_Mod_range_hashingENS8_20_Default_ranged_hashENS8_20_Prime_rehash_policyENS8_17_Hashtable_traitsILb1ELb0ELb1EEEE9_M_rehashEmRKm
   [  639]   .rela.text._ZNSt10_HashtableIPKcSt4pairIKS1_N5dwarf3dieEESaIS6_ENSt8__detail10_Select1stENS4_9string_eqENS4_11string_hashENS8_18_Mod_range_hashingENS8_20_Default_ranged_hashENS8_20_Prime_rehash_policyENS8_17_Hashtable_traitsILb1ELb0ELb1EEEE9_M_rehashEmRKm
   [  640]   .gcc_except_table._ZNSt10_HashtableIPKcSt4pairIKS1_N5dwarf3dieEESaIS6_ENSt8__detail10_Select1stENS4_9string_eqENS4_11string_hashENS8_18_Mod_range_hashingENS8_20_Default_ranged_hashENS8_20_Prime_rehash_policyENS8_17_Hashtable_traitsILb1ELb0ELb1EEEE9_M_rehas
   [  641]   .rela.gcc_except_table._ZNSt10_HashtableIPKcSt4pairIKS1_N5dwarf3dieEESaIS6_ENSt8__detail10_Select1stENS4_9string_eqENS4_11string_hashENS8_18_Mod_range_hashingENS8_20_Default_ranged_hashENS8_20_Prime_rehash_policyENS8_17_Hashtable_traitsILb1ELb0ELb1EEEE9_M_

COMDAT group section [  158] `.group' [_ZNKSt8__detail15_Hash_code_baseIPKcSt4pairIKS2_N5dwarf3dieEENS_10_Select1stENS5_11string_hashENS_18_Mod_range_hashingENS_20_Default_ranged_hashELb1EE13_M_store_codeERNS_21_Hash_node_code_cacheILb1EEEm] contains 1 sections:
   [Index]    Name
   [  642]   .text._ZNKSt8__detail15_Hash_code_baseIPKcSt4pairIKS2_N5dwarf3dieEENS_10_Select1stENS5_11string_hashENS_18_Mod_range_hashingENS_20_Default_ranged_hashELb1EE13_M_store_codeERNS_21_Hash_node_code_cacheILb1EEEm

COMDAT group section [  159] `.group' [_ZNSt10_HashtableIPKcSt4pairIKS1_N5dwarf3dieEESaIS6_ENSt8__detail10_Select1stENS4_9string_eqENS4_11string_hashENS8_18_Mod_range_hashingENS8_20_Default_ranged_hashENS8_20_Prime_rehash_policyENS8_17_Hashtable_traitsILb1ELb0ELb1EEEE22_M_insert_bucket_beginEmPNS8_10_Hash_nodeIS6_Lb1EEE] contains 2 sections:
   [Index]    Name
   [  643]   .text._ZNSt10_HashtableIPKcSt4pairIKS1_N5dwarf3dieEESaIS6_ENSt8__detail10_Select1stENS4_9string_eqENS4_11string_hashENS8_18_Mod_range_hashingENS8_20_Default_ranged_hashENS8_20_Prime_rehash_policyENS8_17_Hashtable_traitsILb1ELb0ELb1EEEE22_M_insert_bucket_be
   [  644]   .rela.text._ZNSt10_HashtableIPKcSt4pairIKS1_N5dwarf3dieEESaIS6_ENSt8__detail10_Select1stENS4_9string_eqENS4_11string_hashENS8_18_Mod_range_hashingENS8_20_Default_ranged_hashENS8_20_Prime_rehash_policyENS8_17_Hashtable_traitsILb1ELb0ELb1EEEE22_M_insert_buck

COMDAT group section [  160] `.group' [_ZNSt8__detail16_Hashtable_allocISaINS_10_Hash_nodeISt4pairIKPKcN5dwarf3dieEELb1EEEEE17_M_node_allocatorEv] contains 2 sections:
   [Index]    Name
   [  645]   .text._ZNSt8__detail16_Hashtable_allocISaINS_10_Hash_nodeISt4pairIKPKcN5dwarf3dieEELb1EEEEE17_M_node_allocatorEv
   [  646]   .rela.text._ZNSt8__detail16_Hashtable_allocISaINS_10_Hash_nodeISt4pairIKPKcN5dwarf3dieEELb1EEEEE17_M_node_allocatorEv

COMDAT group section [  161] `.group' [_ZNSt16allocator_traitsISaINSt8__detail10_Hash_nodeISt4pairIKPKcN5dwarf3dieEELb1EEEEE7destroyIS8_EEvRSA_PT_] contains 2 sections:
   [Index]    Name
   [  647]   .text._ZNSt16allocator_traitsISaINSt8__detail10_Hash_nodeISt4pairIKPKcN5dwarf3dieEELb1EEEEE7destroyIS8_EEvRSA_PT_
   [  648]   .rela.text._ZNSt16allocator_traitsISaINSt8__detail10_Hash_nodeISt4pairIKPKcN5dwarf3dieEELb1EEEEE7destroyIS8_EEvRSA_PT_

COMDAT group section [  162] `.group' [_ZNSt8__detail16_Hashtable_allocISaINS_10_Hash_nodeISt4pairIKPKcN5dwarf3dieEELb1EEEEE22_M_deallocate_node_ptrEPS9_] contains 2 sections:
   [Index]    Name
   [  649]   .text._ZNSt8__detail16_Hashtable_allocISaINS_10_Hash_nodeISt4pairIKPKcN5dwarf3dieEELb1EEEEE22_M_deallocate_node_ptrEPS9_
   [  650]   .rela.text._ZNSt8__detail16_Hashtable_allocISaINS_10_Hash_nodeISt4pairIKPKcN5dwarf3dieEELb1EEEEE22_M_deallocate_node_ptrEPS9_

COMDAT group section [  163] `.group' [_ZNSt19__ptr_traits_ptr_toIPPNSt8__detail15_Hash_node_baseES2_Lb0EE10pointer_toERS2_] contains 2 sections:
   [Index]    Name
   [  651]   .text._ZNSt19__ptr_traits_ptr_toIPPNSt8__detail15_Hash_node_baseES2_Lb0EE10pointer_toERS2_
   [  652]   .rela.text._ZNSt19__ptr_traits_ptr_toIPPNSt8__detail15_Hash_node_baseES2_Lb0EE10pointer_toERS2_

COMDAT group section [  164] `.group' [_ZNSaIPNSt8__detail15_Hash_node_baseEEC5INS_10_Hash_nodeISt4pairIKPKcN5dwarf3dieEELb1EEEEERKSaIT_E] contains 2 sections:
   [Index]    Name
   [  653]   .text._ZNSaIPNSt8__detail15_Hash_node_baseEEC2INS_10_Hash_nodeISt4pairIKPKcN5dwarf3dieEELb1EEEEERKSaIT_E
   [  654]   .rela.text._ZNSaIPNSt8__detail15_Hash_node_baseEEC2INS_10_Hash_nodeISt4pairIKPKcN5dwarf3dieEELb1EEEEERKSaIT_E

COMDAT group section [  165] `.group' [_ZNSaIPNSt8__detail15_Hash_node_baseEED5Ev] contains 2 sections:
   [Index]    Name
   [  655]   .text._ZNSaIPNSt8__detail15_Hash_node_baseEED2Ev
   [  656]   .rela.text._ZNSaIPNSt8__detail15_Hash_node_baseEED2Ev

COMDAT group section [  166] `.group' [_ZNSt16allocator_traitsISaIPNSt8__detail15_Hash_node_baseEEE10deallocateERS3_PS2_m] contains 2 sections:
   [Index]    Name
   [  657]   .text._ZNSt16allocator_traitsISaIPNSt8__detail15_Hash_node_baseEEE10deallocateERS3_PS2_m
   [  658]   .rela.text._ZNSt16allocator_traitsISaIPNSt8__detail15_Hash_node_baseEEE10deallocateERS3_PS2_m

COMDAT group section [  167] `.group' [_ZNSt10_HashtableIN5dwarf6DW_TAGES1_SaIS1_ENSt8__detail9_IdentityESt8equal_toIS1_ESt4hashIS1_ENS3_18_Mod_range_hashingENS3_20_Default_ranged_hashENS3_20_Prime_rehash_policyENS3_17_Hashtable_traitsILb1ELb1ELb1EEEEC5ERKS8_RKS6_RKS2_] contains 4 sections:
   [Index]    Name
   [  659]   .text._ZNSt10_HashtableIN5dwarf6DW_TAGES1_SaIS1_ENSt8__detail9_IdentityESt8equal_toIS1_ESt4hashIS1_ENS3_18_Mod_range_hashingENS3_20_Default_ranged_hashENS3_20_Prime_rehash_policyENS3_17_Hashtable_traitsILb1ELb1ELb1EEEEC2ERKS8_RKS6_RKS2_
   [  660]   .rela.text._ZNSt10_HashtableIN5dwarf6DW_TAGES1_SaIS1_ENSt8__detail9_IdentityESt8equal_toIS1_ESt4hashIS1_ENS3_18_Mod_range_hashingENS3_20_Default_ranged_hashENS3_20_Prime_rehash_policyENS3_17_Hashtable_traitsILb1ELb1ELb1EEEEC2ERKS8_RKS6_RKS2_
   [  661]   .gcc_except_table._ZNSt10_HashtableIN5dwarf6DW_TAGES1_SaIS1_ENSt8__detail9_IdentityESt8equal_toIS1_ESt4hashIS1_ENS3_18_Mod_range_hashingENS3_20_Default_ranged_hashENS3_20_Prime_rehash_policyENS3_17_Hashtable_traitsILb1ELb1ELb1EEEEC2ERKS8_RKS6_RKS2_
   [  662]   .rela.gcc_except_table._ZNSt10_HashtableIN5dwarf6DW_TAGES1_SaIS1_ENSt8__detail9_IdentityESt8equal_toIS1_ESt4hashIS1_ENS3_18_Mod_range_hashingENS3_20_Default_ranged_hashENS3_20_Prime_rehash_policyENS3_17_Hashtable_traitsILb1ELb1ELb1EEEEC2ERKS8_RKS6_RKS2_

COMDAT group section [  168] `.group' [_ZNSt10_HashtableIN5dwarf6DW_TAGES1_SaIS1_ENSt8__detail9_IdentityESt8equal_toIS1_ESt4hashIS1_ENS3_18_Mod_range_hashingENS3_20_Default_ranged_hashENS3_20_Prime_rehash_policyENS3_17_Hashtable_traitsILb1ELb1ELb1EEEE19_M_allocate_bucketsEm] contains 2 sections:
   [Index]    Name
   [  663]   .text._ZNSt10_HashtableIN5dwarf6DW_TAGES1_SaIS1_ENSt8__detail9_IdentityESt8equal_toIS1_ESt4hashIS1_ENS3_18_Mod_range_hashingENS3_20_Default_ranged_hashENS3_20_Prime_rehash_policyENS3_17_Hashtable_traitsILb1ELb1ELb1EEEE19_M_allocate_bucketsEm
   [  664]   .rela.text._ZNSt10_HashtableIN5dwarf6DW_TAGES1_SaIS1_ENSt8__detail9_IdentityESt8equal_toIS1_ESt4hashIS1_ENS3_18_Mod_range_hashingENS3_20_Default_ranged_hashENS3_20_Prime_rehash_policyENS3_17_Hashtable_traitsILb1ELb1ELb1EEEE19_M_allocate_bucketsEm

COMDAT group section [  169] `.group' [_ZNSt8__detail12_Insert_baseIN5dwarf6DW_TAGES2_SaIS2_ENS_9_IdentityESt8equal_toIS2_ESt4hashIS2_ENS_18_Mod_range_hashingENS_20_Default_ranged_hashENS_20_Prime_rehash_policyENS_17_Hashtable_traitsILb1ELb1ELb1EEEE20_M_conjure_hashtableEv] contains 1 sections:
   [Index]    Name
   [  665]   .text._ZNSt8__detail12_Insert_baseIN5dwarf6DW_TAGES2_SaIS2_ENS_9_IdentityESt8equal_toIS2_ESt4hashIS2_ENS_18_Mod_range_hashingENS_20_Default_ranged_hashENS_20_Prime_rehash_policyENS_17_Hashtable_traitsILb1ELb1ELb1EEEE20_M_conjure_hashtableEv

COMDAT group section [  170] `.group' [_ZNSt8__detail10_AllocNodeISaINS_10_Hash_nodeIN5dwarf6DW_TAGELb1EEEEEC5ERNS_16_Hashtable_allocIS5_EE] contains 1 sections:
   [Index]    Name
   [  666]   .text._ZNSt8__detail10_AllocNodeISaINS_10_Hash_nodeIN5dwarf6DW_TAGELb1EEEEEC2ERNS_16_Hashtable_allocIS5_EE

COMDAT group section [  171] `.group' [_ZNSt10_HashtableIN5dwarf6DW_TAGES1_SaIS1_ENSt8__detail9_IdentityESt8equal_toIS1_ESt4hashIS1_ENS3_18_Mod_range_hashingENS3_20_Default_ranged_hashENS3_20_Prime_rehash_policyENS3_17_Hashtable_traitsILb1ELb1ELb1EEEE9_M_insertIRKS1_NS3_10_AllocNodeISaINS3_10_Hash_nodeIS1_Lb1EEEEEEEESt4pairINS3_14_Node_iteratorIS1_Lb1ELb1EEEbEOT_RKT0_St17integral_constantIbLb1EE] contains 2 sections:
   [Index]    Name
   [  667]   .text._ZNSt10_HashtableIN5dwarf6DW_TAGES1_SaIS1_ENSt8__detail9_IdentityESt8equal_toIS1_ESt4hashIS1_ENS3_18_Mod_range_hashingENS3_20_Default_ranged_hashENS3_20_Prime_rehash_policyENS3_17_Hashtable_traitsILb1ELb1ELb1EEEE9_M_insertIRKS1_NS3_10_AllocNodeISaINS
   [  668]   .rela.text._ZNSt10_HashtableIN5dwarf6DW_TAGES1_SaIS1_ENSt8__detail9_IdentityESt8equal_toIS1_ESt4hashIS1_ENS3_18_Mod_range_hashingENS3_20_Default_ranged_hashENS3_20_Prime_rehash_policyENS3_17_Hashtable_traitsILb1ELb1ELb1EEEE9_M_insertIRKS1_NS3_10_AllocNodeI

COMDAT group section [  172] `.group' [_ZNSt8__detail16_Hashtable_allocISaINS_10_Hash_nodeIN5dwarf6DW_TAGELb1EEEEE17_M_node_allocatorEv] contains 2 sections:
   [Index]    Name
   [  669]   .text._ZNSt8__detail16_Hashtable_allocISaINS_10_Hash_nodeIN5dwarf6DW_TAGELb1EEEEE17_M_node_allocatorEv
   [  670]   .rela.text._ZNSt8__detail16_Hashtable_allocISaINS_10_Hash_nodeIN5dwarf6DW_TAGELb1EEEEE17_M_node_allocatorEv

COMDAT group section [  173] `.group' [_ZNSt8__detail21_Hash_node_value_baseIN5dwarf6DW_TAGEE9_M_valptrEv] contains 2 sections:
   [Index]    Name
   [  671]   .text._ZNSt8__detail21_Hash_node_value_baseIN5dwarf6DW_TAGEE9_M_valptrEv
   [  672]   .rela.text._ZNSt8__detail21_Hash_node_value_baseIN5dwarf6DW_TAGEE9_M_valptrEv

COMDAT group section [  174] `.group' [_ZNSt16allocator_traitsISaINSt8__detail10_Hash_nodeIN5dwarf6DW_TAGELb1EEEEE7destroyIS3_EEvRS5_PT_] contains 2 sections:
   [Index]    Name
   [  673]   .text._ZNSt16allocator_traitsISaINSt8__detail10_Hash_nodeIN5dwarf6DW_TAGELb1EEEEE7destroyIS3_EEvRS5_PT_
   [  674]   .rela.text._ZNSt16allocator_traitsISaINSt8__detail10_Hash_nodeIN5dwarf6DW_TAGELb1EEEEE7destroyIS3_EEvRS5_PT_

COMDAT group section [  175] `.group' [_ZNSt8__detail16_Hashtable_allocISaINS_10_Hash_nodeIN5dwarf6DW_TAGELb1EEEEE22_M_deallocate_node_ptrEPS4_] contains 2 sections:
   [Index]    Name
   [  675]   .text._ZNSt8__detail16_Hashtable_allocISaINS_10_Hash_nodeIN5dwarf6DW_TAGELb1EEEEE22_M_deallocate_node_ptrEPS4_
   [  676]   .rela.text._ZNSt8__detail16_Hashtable_allocISaINS_10_Hash_nodeIN5dwarf6DW_TAGELb1EEEEE22_M_deallocate_node_ptrEPS4_

COMDAT group section [  176] `.group' [_ZNSaIPNSt8__detail15_Hash_node_baseEEC5INS_10_Hash_nodeIN5dwarf6DW_TAGELb1EEEEERKSaIT_E] contains 2 sections:
   [Index]    Name
   [  677]   .text._ZNSaIPNSt8__detail15_Hash_node_baseEEC2INS_10_Hash_nodeIN5dwarf6DW_TAGELb1EEEEERKSaIT_E
   [  678]   .rela.text._ZNSaIPNSt8__detail15_Hash_node_baseEEC2INS_10_Hash_nodeIN5dwarf6DW_TAGELb1EEEEERKSaIT_E

COMDAT group section [  177] `.group' [_ZNSaISt23_Sp_counted_ptr_inplaceIN5dwarf11die_str_map4implESaIvELN9__gnu_cxx12_Lock_policyE1EEEC5IvEERKSaIT_E] contains 2 sections:
   [Index]    Name
   [  679]   .text._ZNSaISt23_Sp_counted_ptr_inplaceIN5dwarf11die_str_map4implESaIvELN9__gnu_cxx12_Lock_policyE1EEEC2IvEERKSaIT_E
   [  680]   .rela.text._ZNSaISt23_Sp_counted_ptr_inplaceIN5dwarf11die_str_map4implESaIvELN9__gnu_cxx12_Lock_policyE1EEEC2IvEERKSaIT_E

COMDAT group section [  178] `.group' [_ZNSaISt23_Sp_counted_ptr_inplaceIN5dwarf11die_str_map4implESaIvELN9__gnu_cxx12_Lock_policyE1EEED5Ev] contains 2 sections:
   [Index]    Name
   [  681]   .text._ZNSaISt23_Sp_counted_ptr_inplaceIN5dwarf11die_str_map4implESaIvELN9__gnu_cxx12_Lock_policyE1EEED2Ev
   [  682]   .rela.text._ZNSaISt23_Sp_counted_ptr_inplaceIN5dwarf11die_str_map4implESaIvELN9__gnu_cxx12_Lock_policyE1EEED2Ev

COMDAT group section [  179] `.group' [_ZSt18__allocate_guardedISaISt23_Sp_counted_ptr_inplaceIN5dwarf11die_str_map4implESaIvELN9__gnu_cxx12_Lock_policyE1EEEESt15__allocated_ptrIT_ERSA_] contains 2 sections:
   [Index]    Name
   [  683]   .text._ZSt18__allocate_guardedISaISt23_Sp_counted_ptr_inplaceIN5dwarf11die_str_map4implESaIvELN9__gnu_cxx12_Lock_policyE1EEEESt15__allocated_ptrIT_ERSA_
   [  684]   .rela.text._ZSt18__allocate_guardedISaISt23_Sp_counted_ptr_inplaceIN5dwarf11die_str_map4implESaIvELN9__gnu_cxx12_Lock_policyE1EEEESt15__allocated_ptrIT_ERSA_

COMDAT group section [  180] `.group' [_ZNSt15__allocated_ptrISaISt23_Sp_counted_ptr_inplaceIN5dwarf11die_str_map4implESaIvELN9__gnu_cxx12_Lock_policyE1EEEED5Ev] contains 3 sections:
   [Index]    Name
   [  685]   .text._ZNSt15__allocated_ptrISaISt23_Sp_counted_ptr_inplaceIN5dwarf11die_str_map4implESaIvELN9__gnu_cxx12_Lock_policyE1EEEED2Ev
   [  686]   .rela.text._ZNSt15__allocated_ptrISaISt23_Sp_counted_ptr_inplaceIN5dwarf11die_str_map4implESaIvELN9__gnu_cxx12_Lock_policyE1EEEED2Ev
   [  687]   .gcc_except_table._ZNSt15__allocated_ptrISaISt23_Sp_counted_ptr_inplaceIN5dwarf11die_str_map4implESaIvELN9__gnu_cxx12_Lock_policyE1EEEED2Ev

COMDAT group section [  181] `.group' [_ZNSt15__allocated_ptrISaISt23_Sp_counted_ptr_inplaceIN5dwarf11die_str_map4implESaIvELN9__gnu_cxx12_Lock_policyE1EEEE3getEv] contains 2 sections:
   [Index]    Name
   [  688]   .text._ZNSt15__allocated_ptrISaISt23_Sp_counted_ptr_inplaceIN5dwarf11die_str_map4implESaIvELN9__gnu_cxx12_Lock_policyE1EEEE3getEv
   [  689]   .rela.text._ZNSt15__allocated_ptrISaISt23_Sp_counted_ptr_inplaceIN5dwarf11die_str_map4implESaIvELN9__gnu_cxx12_Lock_policyE1EEEE3getEv

COMDAT group section [  182] `.group' [_ZNSt23_Sp_counted_ptr_inplaceIN5dwarf11die_str_map4implESaIvELN9__gnu_cxx12_Lock_policyE1EEC5IJRKNS0_3dieERNS0_5DW_ATERKSt16initializer_listINS0_6DW_TAGEEEEES3_DpOT_] contains 4 sections:
   [Index]    Name
   [  690]   .text._ZNSt23_Sp_counted_ptr_inplaceIN5dwarf11die_str_map4implESaIvELN9__gnu_cxx12_Lock_policyE1EEC2IJRKNS0_3dieERNS0_5DW_ATERKSt16initializer_listINS0_6DW_TAGEEEEES3_DpOT_
   [  691]   .rela.text._ZNSt23_Sp_counted_ptr_inplaceIN5dwarf11die_str_map4implESaIvELN9__gnu_cxx12_Lock_policyE1EEC2IJRKNS0_3dieERNS0_5DW_ATERKSt16initializer_listINS0_6DW_TAGEEEEES3_DpOT_
   [  692]   .gcc_except_table._ZNSt23_Sp_counted_ptr_inplaceIN5dwarf11die_str_map4implESaIvELN9__gnu_cxx12_Lock_policyE1EEC2IJRKNS0_3dieERNS0_5DW_ATERKSt16initializer_listINS0_6DW_TAGEEEEES3_DpOT_
   [  693]   .rela.gcc_except_table._ZNSt23_Sp_counted_ptr_inplaceIN5dwarf11die_str_map4implESaIvELN9__gnu_cxx12_Lock_policyE1EEC2IJRKNS0_3dieERNS0_5DW_ATERKSt16initializer_listINS0_6DW_TAGEEEEES3_DpOT_

COMDAT group section [  183] `.group' [_ZNSt15__allocated_ptrISaISt23_Sp_counted_ptr_inplaceIN5dwarf11die_str_map4implESaIvELN9__gnu_cxx12_Lock_policyE1EEEEaSEDn] contains 1 sections:
   [Index]    Name
   [  694]   .text._ZNSt15__allocated_ptrISaISt23_Sp_counted_ptr_inplaceIN5dwarf11die_str_map4implESaIvELN9__gnu_cxx12_Lock_policyE1EEEEaSEDn

COMDAT group section [  184] `.group' [_ZNSt23_Sp_counted_ptr_inplaceIN5dwarf11die_str_map4implESaIvELN9__gnu_cxx12_Lock_policyE1EE6_M_ptrEv] contains 2 sections:
   [Index]    Name
   [  695]   .text._ZNSt23_Sp_counted_ptr_inplaceIN5dwarf11die_str_map4implESaIvELN9__gnu_cxx12_Lock_policyE1EE6_M_ptrEv
   [  696]   .rela.text._ZNSt23_Sp_counted_ptr_inplaceIN5dwarf11die_str_map4implESaIvELN9__gnu_cxx12_Lock_policyE1EE6_M_ptrEv

COMDAT group section [  185] `.group' [_ZNKSt8__detail21_Hashtable_ebo_helperILi0EN5dwarf9string_eqELb1EE7_M_cgetEv] contains 1 sections:
   [Index]    Name
   [  697]   .text._ZNKSt8__detail21_Hashtable_ebo_helperILi0EN5dwarf9string_eqELb1EE7_M_cgetEv

COMDAT group section [  186] `.group' [_ZNKSt8__detail21_Hash_node_value_baseISt4pairIKPKcN5dwarf3dieEEE9_M_valptrEv] contains 2 sections:
   [Index]    Name
   [  698]   .text._ZNKSt8__detail21_Hash_node_value_baseISt4pairIKPKcN5dwarf3dieEEE9_M_valptrEv
   [  699]   .rela.text._ZNKSt8__detail21_Hash_node_value_baseISt4pairIKPKcN5dwarf3dieEEE9_M_valptrEv

COMDAT group section [  187] `.group' [_ZSt7forwardIRKSt4pairIKPKcN5dwarf3dieEEEOT_RNSt16remove_referenceIS9_E4typeE] contains 1 sections:
   [Index]    Name
   [  700]   .text._ZSt7forwardIRKSt4pairIKPKcN5dwarf3dieEEEOT_RNSt16remove_referenceIS9_E4typeE

COMDAT group section [  188] `.group' [_ZNKSt8__detail21_Hashtable_ebo_helperILi1EN5dwarf11string_hashELb1EE7_M_cgetEv] contains 1 sections:
   [Index]    Name
   [  701]   .text._ZNKSt8__detail21_Hashtable_ebo_helperILi1EN5dwarf11string_hashELb1EE7_M_cgetEv

COMDAT group section [  189] `.group' [_ZNKSt8__detail15_Hashtable_baseIPKcSt4pairIKS2_N5dwarf3dieEENS_10_Select1stENS5_9string_eqENS5_11string_hashENS_18_Mod_range_hashingENS_20_Default_ranged_hashENS_17_Hashtable_traitsILb1ELb0ELb1EEEE9_M_equalsERS4_mRKNS_16_Hash_node_valueIS7_Lb1EEE] contains 2 sections:
   [Index]    Name
   [  702]   .text._ZNKSt8__detail15_Hashtable_baseIPKcSt4pairIKS2_N5dwarf3dieEENS_10_Select1stENS5_9string_eqENS5_11string_hashENS_18_Mod_range_hashingENS_20_Default_ranged_hashENS_17_Hashtable_traitsILb1ELb0ELb1EEEE9_M_equalsERS4_mRKNS_16_Hash_node_valueIS7_Lb1EEE
   [  703]   .rela.text._ZNKSt8__detail15_Hashtable_baseIPKcSt4pairIKS2_N5dwarf3dieEENS_10_Select1stENS5_9string_eqENS5_11string_hashENS_18_Mod_range_hashingENS_20_Default_ranged_hashENS_17_Hashtable_traitsILb1ELb0ELb1EEEE9_M_equalsERS4_mRKNS_16_Hash_node_valueIS7_Lb1E

COMDAT group section [  190] `.group' [_ZNKSt10_HashtableIPKcSt4pairIKS1_N5dwarf3dieEESaIS6_ENSt8__detail10_Select1stENS4_9string_eqENS4_11string_hashENS8_18_Mod_range_hashingENS8_20_Default_ranged_hashENS8_20_Prime_rehash_policyENS8_17_Hashtable_traitsILb1ELb0ELb1EEEE15_M_bucket_indexERKNS8_16_Hash_node_valueIS6_Lb1EEE] contains 2 sections:
   [Index]    Name
   [  704]   .text._ZNKSt10_HashtableIPKcSt4pairIKS1_N5dwarf3dieEESaIS6_ENSt8__detail10_Select1stENS4_9string_eqENS4_11string_hashENS8_18_Mod_range_hashingENS8_20_Default_ranged_hashENS8_20_Prime_rehash_policyENS8_17_Hashtable_traitsILb1ELb0ELb1EEEE15_M_bucket_indexERK
   [  705]   .rela.text._ZNKSt10_HashtableIPKcSt4pairIKS1_N5dwarf3dieEESaIS6_ENSt8__detail10_Select1stENS4_9string_eqENS4_11string_hashENS8_18_Mod_range_hashingENS8_20_Default_ranged_hashENS8_20_Prime_rehash_policyENS8_17_Hashtable_traitsILb1ELb0ELb1EEEE15_M_bucket_ind

COMDAT group section [  191] `.group' [_ZNSt8__detail22_Hashtable_hash_traitsISt4hashIN5dwarf6DW_TAGEEE22__small_size_thresholdEv] contains 1 sections:
   [Index]    Name
   [  706]   .text._ZNSt8__detail22_Hashtable_hash_traitsISt4hashIN5dwarf6DW_TAGEEE22__small_size_thresholdEv

COMDAT group section [  192] `.group' [_ZNKSt8__detail15_Hashtable_baseIN5dwarf6DW_TAGES2_NS_9_IdentityESt8equal_toIS2_ESt4hashIS2_ENS_18_Mod_range_hashingENS_20_Default_ranged_hashENS_17_Hashtable_traitsILb1ELb1ELb1EEEE5_M_eqEv] contains 2 sections:
   [Index]    Name
   [  707]   .text._ZNKSt8__detail15_Hashtable_baseIN5dwarf6DW_TAGES2_NS_9_IdentityESt8equal_toIS2_ESt4hashIS2_ENS_18_Mod_range_hashingENS_20_Default_ranged_hashENS_17_Hashtable_traitsILb1ELb1ELb1EEEE5_M_eqEv
   [  708]   .rela.text._ZNKSt8__detail15_Hashtable_baseIN5dwarf6DW_TAGES2_NS_9_IdentityESt8equal_toIS2_ESt4hashIS2_ENS_18_Mod_range_hashingENS_20_Default_ranged_hashENS_17_Hashtable_traitsILb1ELb1ELb1EEEE5_M_eqEv

COMDAT group section [  193] `.group' [_ZNKSt8equal_toIN5dwarf6DW_TAGEEclERKS1_S4_] contains 1 sections:
   [Index]    Name
   [  709]   .text._ZNKSt8equal_toIN5dwarf6DW_TAGEEclERKS1_S4_

COMDAT group section [  194] `.group' [_ZNKSt8__detail15_Hash_code_baseIN5dwarf6DW_TAGES2_NS_9_IdentityESt4hashIS2_ENS_18_Mod_range_hashingENS_20_Default_ranged_hashELb1EE7_M_hashEv] contains 2 sections:
   [Index]    Name
   [  710]   .text._ZNKSt8__detail15_Hash_code_baseIN5dwarf6DW_TAGES2_NS_9_IdentityESt4hashIS2_ENS_18_Mod_range_hashingENS_20_Default_ranged_hashELb1EE7_M_hashEv
   [  711]   .rela.text._ZNKSt8__detail15_Hash_code_baseIN5dwarf6DW_TAGES2_NS_9_IdentityESt4hashIS2_ENS_18_Mod_range_hashingENS_20_Default_ranged_hashELb1EE7_M_hashEv

COMDAT group section [  195] `.group' [_ZNKSt8__detail15_Hash_code_baseIN5dwarf6DW_TAGES2_NS_9_IdentityESt4hashIS2_ENS_18_Mod_range_hashingENS_20_Default_ranged_hashELb1EE15_M_bucket_indexEmm] contains 2 sections:
   [Index]    Name
   [  712]   .text._ZNKSt8__detail15_Hash_code_baseIN5dwarf6DW_TAGES2_NS_9_IdentityESt4hashIS2_ENS_18_Mod_range_hashingENS_20_Default_ranged_hashELb1EE15_M_bucket_indexEmm
   [  713]   .rela.text._ZNKSt8__detail15_Hash_code_baseIN5dwarf6DW_TAGES2_NS_9_IdentityESt4hashIS2_ENS_18_Mod_range_hashingENS_20_Default_ranged_hashELb1EE15_M_bucket_indexEmm

COMDAT group section [  196] `.group' [_ZNKSt10_HashtableIN5dwarf6DW_TAGES1_SaIS1_ENSt8__detail9_IdentityESt8equal_toIS1_ESt4hashIS1_ENS3_18_Mod_range_hashingENS3_20_Default_ranged_hashENS3_20_Prime_rehash_policyENS3_17_Hashtable_traitsILb1ELb1ELb1EEEE19_M_find_before_nodeEmRKS1_m] contains 2 sections:
   [Index]    Name
   [  714]   .text._ZNKSt10_HashtableIN5dwarf6DW_TAGES1_SaIS1_ENSt8__detail9_IdentityESt8equal_toIS1_ESt4hashIS1_ENS3_18_Mod_range_hashingENS3_20_Default_ranged_hashENS3_20_Prime_rehash_policyENS3_17_Hashtable_traitsILb1ELb1ELb1EEEE19_M_find_before_nodeEmRKS1_m
   [  715]   .rela.text._ZNKSt10_HashtableIN5dwarf6DW_TAGES1_SaIS1_ENSt8__detail9_IdentityESt8equal_toIS1_ESt4hashIS1_ENS3_18_Mod_range_hashingENS3_20_Default_ranged_hashENS3_20_Prime_rehash_policyENS3_17_Hashtable_traitsILb1ELb1ELb1EEEE19_M_find_before_nodeEmRKS1_m

COMDAT group section [  197] `.group' [_ZNSt8__detail19_Node_iterator_baseIN5dwarf6DW_TAGELb1EEC5EPNS_10_Hash_nodeIS2_Lb1EEE] contains 1 sections:
   [Index]    Name
   [  716]   .text._ZNSt8__detail19_Node_iterator_baseIN5dwarf6DW_TAGELb1EEC2EPNS_10_Hash_nodeIS2_Lb1EEE

COMDAT group section [  198] `.group' [_ZNKSt8__detail21_Hash_node_value_baseIN5dwarf6DW_TAGEE9_M_valptrEv] contains 2 sections:
   [Index]    Name
   [  717]   .text._ZNKSt8__detail21_Hash_node_value_baseIN5dwarf6DW_TAGEE9_M_valptrEv
   [  718]   .rela.text._ZNKSt8__detail21_Hash_node_value_baseIN5dwarf6DW_TAGEE9_M_valptrEv

COMDAT group section [  199] `.group' [_ZSt7forwardIRKN5dwarf6DW_TAGEEOT_RNSt16remove_referenceIS4_E4typeE] contains 1 sections:
   [Index]    Name
   [  719]   .text._ZSt7forwardIRKN5dwarf6DW_TAGEEOT_RNSt16remove_referenceIS4_E4typeE

COMDAT group section [  200] `.group' [_ZNSt10_Head_baseILm0ERKPKcLb0EEC5ES3_] contains 1 sections:
   [Index]    Name
   [  720]   .text._ZNSt10_Head_baseILm0ERKPKcLb0EEC2ES3_

COMDAT group section [  201] `.group' [_ZNSt16allocator_traitsISaINSt8__detail10_Hash_nodeISt4pairIKPKcN5dwarf3dieEELb1EEEEE8allocateERSA_m] contains 2 sections:
   [Index]    Name
   [  721]   .text._ZNSt16allocator_traitsISaINSt8__detail10_Hash_nodeISt4pairIKPKcN5dwarf3dieEELb1EEEEE8allocateERSA_m
   [  722]   .rela.text._ZNSt16allocator_traitsISaINSt8__detail10_Hash_nodeISt4pairIKPKcN5dwarf3dieEELb1EEEEE8allocateERSA_m

COMDAT group section [  202] `.group' [_ZSt12__to_addressINSt8__detail10_Hash_nodeISt4pairIKPKcN5dwarf3dieEELb1EEEEPT_SB_] contains 1 sections:
   [Index]    Name
   [  723]   .text._ZSt12__to_addressINSt8__detail10_Hash_nodeISt4pairIKPKcN5dwarf3dieEELb1EEEEPT_SB_

COMDAT group section [  203] `.group' [_ZNSt16allocator_traitsISaINSt8__detail10_Hash_nodeISt4pairIKPKcN5dwarf3dieEELb1EEEEE9constructIS8_JRKSt21piecewise_construct_tSt5tupleIJRS5_EESG_IJEEEEEvRSA_PT_DpOT0_] contains 2 sections:
   [Index]    Name
   [  724]   .text._ZNSt16allocator_traitsISaINSt8__detail10_Hash_nodeISt4pairIKPKcN5dwarf3dieEELb1EEEEE9constructIS8_JRKSt21piecewise_construct_tSt5tupleIJRS5_EESG_IJEEEEEvRSA_PT_DpOT0_
   [  725]   .rela.text._ZNSt16allocator_traitsISaINSt8__detail10_Hash_nodeISt4pairIKPKcN5dwarf3dieEELb1EEEEE9constructIS8_JRKSt21piecewise_construct_tSt5tupleIJRS5_EESG_IJEEEEEvRSA_PT_DpOT0_

COMDAT group section [  204] `.group' [_ZNSt16allocator_traitsISaINSt8__detail10_Hash_nodeISt4pairIKPKcN5dwarf3dieEELb1EEEEE10deallocateERSA_PS9_m] contains 2 sections:
   [Index]    Name
   [  726]   .text._ZNSt16allocator_traitsISaINSt8__detail10_Hash_nodeISt4pairIKPKcN5dwarf3dieEELb1EEEEE10deallocateERSA_PS9_m
   [  727]   .rela.text._ZNSt16allocator_traitsISaINSt8__detail10_Hash_nodeISt4pairIKPKcN5dwarf3dieEELb1EEEEE10deallocateERSA_PS9_m

COMDAT group section [  205] `.group' [_ZNSt10_HashtableIPKcSt4pairIKS1_N5dwarf3dieEESaIS6_ENSt8__detail10_Select1stENS4_9string_eqENS4_11string_hashENS8_18_Mod_range_hashingENS8_20_Default_ranged_hashENS8_20_Prime_rehash_policyENS8_17_Hashtable_traitsILb1ELb0ELb1EEEE13_M_rehash_auxEmSt17integral_constantIbLb1EE] contains 2 sections:
   [Index]    Name
   [  728]   .text._ZNSt10_HashtableIPKcSt4pairIKS1_N5dwarf3dieEESaIS6_ENSt8__detail10_Select1stENS4_9string_eqENS4_11string_hashENS8_18_Mod_range_hashingENS8_20_Default_ranged_hashENS8_20_Prime_rehash_policyENS8_17_Hashtable_traitsILb1ELb0ELb1EEEE13_M_rehash_auxEmSt17
   [  729]   .rela.text._ZNSt10_HashtableIPKcSt4pairIKS1_N5dwarf3dieEESaIS6_ENSt8__detail10_Select1stENS4_9string_eqENS4_11string_hashENS8_18_Mod_range_hashingENS8_20_Default_ranged_hashENS8_20_Prime_rehash_policyENS8_17_Hashtable_traitsILb1ELb0ELb1EEEE13_M_rehash_auxE

COMDAT group section [  206] `.group' [_ZNSt11_Mutex_baseILN9__gnu_cxx12_Lock_policyE1EEC5Ev] contains 2 sections:
   [Index]    Name
   [  730]   .text._ZNSt11_Mutex_baseILN9__gnu_cxx12_Lock_policyE1EEC2Ev
   [  731]   .rela.text._ZNSt11_Mutex_baseILN9__gnu_cxx12_Lock_policyE1EEC2Ev

COMDAT group section [  207] `.group' [_ZNSt16_Sp_counted_baseILN9__gnu_cxx12_Lock_policyE1EEC5Ev] contains 2 sections:
   [Index]    Name
   [  732]   .text._ZNSt16_Sp_counted_baseILN9__gnu_cxx12_Lock_policyE1EEC2Ev
   [  733]   .rela.text._ZNSt16_Sp_counted_baseILN9__gnu_cxx12_Lock_policyE1EEC2Ev

COMDAT group section [  208] `.group' [_ZNSt8__detail21_Hashtable_ebo_helperILi0ESaINS_10_Hash_nodeISt4pairIKPKcN5dwarf3dieEELb1EEEELb1EE6_M_getEv] contains 1 sections:
   [Index]    Name
   [  734]   .text._ZNSt8__detail21_Hashtable_ebo_helperILi0ESaINS_10_Hash_nodeISt4pairIKPKcN5dwarf3dieEELb1EEEELb1EE6_M_getEv

COMDAT group section [  209] `.group' [_ZNSt4pairIKPKcN5dwarf3dieEED5Ev] contains 2 sections:
   [Index]    Name
   [  735]   .text._ZNSt4pairIKPKcN5dwarf3dieEED2Ev
   [  736]   .rela.text._ZNSt4pairIKPKcN5dwarf3dieEED2Ev

COMDAT group section [  210] `.group' [_ZNSt15__new_allocatorINSt8__detail10_Hash_nodeISt4pairIKPKcN5dwarf3dieEELb1EEEE7destroyIS8_EEvPT_] contains 2 sections:
   [Index]    Name
   [  737]   .text._ZNSt15__new_allocatorINSt8__detail10_Hash_nodeISt4pairIKPKcN5dwarf3dieEELb1EEEE7destroyIS8_EEvPT_
   [  738]   .rela.text._ZNSt15__new_allocatorINSt8__detail10_Hash_nodeISt4pairIKPKcN5dwarf3dieEELb1EEEE7destroyIS8_EEvPT_

COMDAT group section [  211] `.group' [_ZNSt19__ptr_traits_ptr_toIPNSt8__detail10_Hash_nodeISt4pairIKPKcN5dwarf3dieEELb1EEES9_Lb0EE10pointer_toERS9_] contains 2 sections:
   [Index]    Name
   [  739]   .text._ZNSt19__ptr_traits_ptr_toIPNSt8__detail10_Hash_nodeISt4pairIKPKcN5dwarf3dieEELb1EEES9_Lb0EE10pointer_toERS9_
   [  740]   .rela.text._ZNSt19__ptr_traits_ptr_toIPNSt8__detail10_Hash_nodeISt4pairIKPKcN5dwarf3dieEELb1EEES9_Lb0EE10pointer_toERS9_

COMDAT group section [  212] `.group' [_ZSt9addressofIPNSt8__detail15_Hash_node_baseEEPT_RS3_] contains 2 sections:
   [Index]    Name
   [  741]   .text._ZSt9addressofIPNSt8__detail15_Hash_node_baseEEPT_RS3_
   [  742]   .rela.text._ZSt9addressofIPNSt8__detail15_Hash_node_baseEEPT_RS3_

COMDAT group section [  213] `.group' [_ZNSt15__new_allocatorIPNSt8__detail15_Hash_node_baseEEC5Ev] contains 1 sections:
   [Index]    Name
   [  743]   .text._ZNSt15__new_allocatorIPNSt8__detail15_Hash_node_baseEEC2Ev

COMDAT group section [  214] `.group' [_ZNSt15__new_allocatorIPNSt8__detail15_Hash_node_baseEED5Ev] contains 1 sections:
   [Index]    Name
   [  744]   .text._ZNSt15__new_allocatorIPNSt8__detail15_Hash_node_baseEED2Ev

COMDAT group section [  215] `.group' [_ZNSt15__new_allocatorIPNSt8__detail15_Hash_node_baseEE10deallocateEPS2_m] contains 2 sections:
   [Index]    Name
   [  745]   .text._ZNSt15__new_allocatorIPNSt8__detail15_Hash_node_baseEE10deallocateEPS2_m
   [  746]   .rela.text._ZNSt15__new_allocatorIPNSt8__detail15_Hash_node_baseEE10deallocateEPS2_m

COMDAT group section [  216] `.group' [_ZNSaINSt8__detail10_Hash_nodeIN5dwarf6DW_TAGELb1EEEEC5IS2_EERKSaIT_E] contains 2 sections:
   [Index]    Name
   [  747]   .text._ZNSaINSt8__detail10_Hash_nodeIN5dwarf6DW_TAGELb1EEEEC2IS2_EERKSaIT_E
   [  748]   .rela.text._ZNSaINSt8__detail10_Hash_nodeIN5dwarf6DW_TAGELb1EEEEC2IS2_EERKSaIT_E

COMDAT group section [  217] `.group' [_ZNSt8__detail15_Hashtable_baseIN5dwarf6DW_TAGES2_NS_9_IdentityESt8equal_toIS2_ESt4hashIS2_ENS_18_Mod_range_hashingENS_20_Default_ranged_hashENS_17_Hashtable_traitsILb1ELb1ELb1EEEEC5ERKS7_RKS5_] contains 2 sections:
   [Index]    Name
   [  749]   .text._ZNSt8__detail15_Hashtable_baseIN5dwarf6DW_TAGES2_NS_9_IdentityESt8equal_toIS2_ESt4hashIS2_ENS_18_Mod_range_hashingENS_20_Default_ranged_hashENS_17_Hashtable_traitsILb1ELb1ELb1EEEEC2ERKS7_RKS5_
   [  750]   .rela.text._ZNSt8__detail15_Hashtable_baseIN5dwarf6DW_TAGES2_NS_9_IdentityESt8equal_toIS2_ESt4hashIS2_ENS_18_Mod_range_hashingENS_20_Default_ranged_hashENS_17_Hashtable_traitsILb1ELb1ELb1EEEEC2ERKS7_RKS5_

COMDAT group section [  218] `.group' [_ZNSt8__detail16_Hashtable_allocISaINS_10_Hash_nodeIN5dwarf6DW_TAGELb1EEEEEC5IS5_EEOT_] contains 2 sections:
   [Index]    Name
   [  751]   .text._ZNSt8__detail16_Hashtable_allocISaINS_10_Hash_nodeIN5dwarf6DW_TAGELb1EEEEEC2IS5_EEOT_
   [  752]   .rela.text._ZNSt8__detail16_Hashtable_allocISaINS_10_Hash_nodeIN5dwarf6DW_TAGELb1EEEEEC2IS5_EEOT_

COMDAT group section [  219] `.group' [_ZNSt27_Enable_default_constructorILb1ENSt8__detail15_Hash_node_baseEEC5ESt31_Enable_default_constructor_tag] contains 1 sections:
   [Index]    Name
   [  753]   .text._ZNSt27_Enable_default_constructorILb1ENSt8__detail15_Hash_node_baseEEC2ESt31_Enable_default_constructor_tag

COMDAT group section [  220] `.group' [_ZNSt8__detail16_Hashtable_allocISaINS_10_Hash_nodeIN5dwarf6DW_TAGELb1EEEEE19_M_allocate_bucketsEm] contains 4 sections:
   [Index]    Name
   [  754]   .text._ZNSt8__detail16_Hashtable_allocISaINS_10_Hash_nodeIN5dwarf6DW_TAGELb1EEEEE19_M_allocate_bucketsEm
   [  755]   .rela.text._ZNSt8__detail16_Hashtable_allocISaINS_10_Hash_nodeIN5dwarf6DW_TAGELb1EEEEE19_M_allocate_bucketsEm
   [  756]   .gcc_except_table._ZNSt8__detail16_Hashtable_allocISaINS_10_Hash_nodeIN5dwarf6DW_TAGELb1EEEEE19_M_allocate_bucketsEm
   [  757]   .rela.gcc_except_table._ZNSt8__detail16_Hashtable_allocISaINS_10_Hash_nodeIN5dwarf6DW_TAGELb1EEEEE19_M_allocate_bucketsEm

COMDAT group section [  221] `.group' [_ZNSt10_HashtableIN5dwarf6DW_TAGES1_SaIS1_ENSt8__detail9_IdentityESt8equal_toIS1_ESt4hashIS1_ENS3_18_Mod_range_hashingENS3_20_Default_ranged_hashENS3_20_Prime_rehash_policyENS3_17_Hashtable_traitsILb1ELb1ELb1EEEE14_S_forward_keyERKS1_] contains 1 sections:
   [Index]    Name
   [  758]   .text._ZNSt10_HashtableIN5dwarf6DW_TAGES1_SaIS1_ENSt8__detail9_IdentityESt8equal_toIS1_ESt4hashIS1_ENS3_18_Mod_range_hashingENS3_20_Default_ranged_hashENS3_20_Prime_rehash_policyENS3_17_Hashtable_traitsILb1ELb1ELb1EEEE14_S_forward_keyERKS1_

COMDAT group section [  222] `.group' [_ZNSt10_HashtableIN5dwarf6DW_TAGES1_SaIS1_ENSt8__detail9_IdentityESt8equal_toIS1_ESt4hashIS1_ENS3_18_Mod_range_hashingENS3_20_Default_ranged_hashENS3_20_Prime_rehash_policyENS3_17_Hashtable_traitsILb1ELb1ELb1EEEE16_M_insert_uniqueIRKS1_SH_NS3_10_AllocNodeISaINS3_10_Hash_nodeIS1_Lb1EEEEEEEESt4pairINS3_14_Node_iteratorIS1_Lb1ELb1EEEbEOT_OT0_RKT1_] contains 4 sections:
   [Index]    Name
   [  759]   .text._ZNSt10_HashtableIN5dwarf6DW_TAGES1_SaIS1_ENSt8__detail9_IdentityESt8equal_toIS1_ESt4hashIS1_ENS3_18_Mod_range_hashingENS3_20_Default_ranged_hashENS3_20_Prime_rehash_policyENS3_17_Hashtable_traitsILb1ELb1ELb1EEEE16_M_insert_uniqueIRKS1_SH_NS3_10_Allo
   [  760]   .rela.text._ZNSt10_HashtableIN5dwarf6DW_TAGES1_SaIS1_ENSt8__detail9_IdentityESt8equal_toIS1_ESt4hashIS1_ENS3_18_Mod_range_hashingENS3_20_Default_ranged_hashENS3_20_Prime_rehash_policyENS3_17_Hashtable_traitsILb1ELb1ELb1EEEE16_M_insert_uniqueIRKS1_SH_NS3_10
   [  761]   .gcc_except_table._ZNSt10_HashtableIN5dwarf6DW_TAGES1_SaIS1_ENSt8__detail9_IdentityESt8equal_toIS1_ESt4hashIS1_ENS3_18_Mod_range_hashingENS3_20_Default_ranged_hashENS3_20_Prime_rehash_policyENS3_17_Hashtable_traitsILb1ELb1ELb1EEEE16_M_insert_uniqueIRKS1_SH
   [  762]   .rela.gcc_except_table._ZNSt10_HashtableIN5dwarf6DW_TAGES1_SaIS1_ENSt8__detail9_IdentityESt8equal_toIS1_ESt4hashIS1_ENS3_18_Mod_range_hashingENS3_20_Default_ranged_hashENS3_20_Prime_rehash_policyENS3_17_Hashtable_traitsILb1ELb1ELb1EEEE16_M_insert_uniqueIRK

COMDAT group section [  223] `.group' [_ZNSt8__detail21_Hashtable_ebo_helperILi0ESaINS_10_Hash_nodeIN5dwarf6DW_TAGELb1EEEELb1EE6_M_getEv] contains 1 sections:
   [Index]    Name
   [  763]   .text._ZNSt8__detail21_Hashtable_ebo_helperILi0ESaINS_10_Hash_nodeIN5dwarf6DW_TAGELb1EEEELb1EE6_M_getEv

COMDAT group section [  224] `.group' [_ZN9__gnu_cxx16__aligned_bufferIN5dwarf6DW_TAGEE6_M_ptrEv] contains 2 sections:
   [Index]    Name
   [  764]   .text._ZN9__gnu_cxx16__aligned_bufferIN5dwarf6DW_TAGEE6_M_ptrEv
   [  765]   .rela.text._ZN9__gnu_cxx16__aligned_bufferIN5dwarf6DW_TAGEE6_M_ptrEv

COMDAT group section [  225] `.group' [_ZNSt15__new_allocatorINSt8__detail10_Hash_nodeIN5dwarf6DW_TAGELb1EEEE7destroyIS3_EEvPT_] contains 1 sections:
   [Index]    Name
   [  766]   .text._ZNSt15__new_allocatorINSt8__detail10_Hash_nodeIN5dwarf6DW_TAGELb1EEEE7destroyIS3_EEvPT_

COMDAT group section [  226] `.group' [_ZNSt19__ptr_traits_ptr_toIPNSt8__detail10_Hash_nodeIN5dwarf6DW_TAGELb1EEES4_Lb0EE10pointer_toERS4_] contains 2 sections:
   [Index]    Name
   [  767]   .text._ZNSt19__ptr_traits_ptr_toIPNSt8__detail10_Hash_nodeIN5dwarf6DW_TAGELb1EEES4_Lb0EE10pointer_toERS4_
   [  768]   .rela.text._ZNSt19__ptr_traits_ptr_toIPNSt8__detail10_Hash_nodeIN5dwarf6DW_TAGELb1EEES4_Lb0EE10pointer_toERS4_

COMDAT group section [  227] `.group' [_ZNSt16allocator_traitsISaINSt8__detail10_Hash_nodeIN5dwarf6DW_TAGELb1EEEEE10deallocateERS5_PS4_m] contains 2 sections:
   [Index]    Name
   [  769]   .text._ZNSt16allocator_traitsISaINSt8__detail10_Hash_nodeIN5dwarf6DW_TAGELb1EEEEE10deallocateERS5_PS4_m
   [  770]   .rela.text._ZNSt16allocator_traitsISaINSt8__detail10_Hash_nodeIN5dwarf6DW_TAGELb1EEEEE10deallocateERS5_PS4_m

COMDAT group section [  228] `.group' [_ZNSt15__new_allocatorISt23_Sp_counted_ptr_inplaceIN5dwarf11die_str_map4implESaIvELN9__gnu_cxx12_Lock_policyE1EEEC5Ev] contains 1 sections:
   [Index]    Name
   [  771]   .text._ZNSt15__new_allocatorISt23_Sp_counted_ptr_inplaceIN5dwarf11die_str_map4implESaIvELN9__gnu_cxx12_Lock_policyE1EEEC2Ev

COMDAT group section [  229] `.group' [_ZNSt15__new_allocatorISt23_Sp_counted_ptr_inplaceIN5dwarf11die_str_map4implESaIvELN9__gnu_cxx12_Lock_policyE1EEED5Ev] contains 1 sections:
   [Index]    Name
   [  772]   .text._ZNSt15__new_allocatorISt23_Sp_counted_ptr_inplaceIN5dwarf11die_str_map4implESaIvELN9__gnu_cxx12_Lock_policyE1EEED2Ev

COMDAT group section [  230] `.group' [_ZNSt16allocator_traitsISaISt23_Sp_counted_ptr_inplaceIN5dwarf11die_str_map4implESaIvELN9__gnu_cxx12_Lock_policyE1EEEE8allocateERS8_m] contains 2 sections:
   [Index]    Name
   [  773]   .text._ZNSt16allocator_traitsISaISt23_Sp_counted_ptr_inplaceIN5dwarf11die_str_map4implESaIvELN9__gnu_cxx12_Lock_policyE1EEEE8allocateERS8_m
   [  774]   .rela.text._ZNSt16allocator_traitsISaISt23_Sp_counted_ptr_inplaceIN5dwarf11die_str_map4implESaIvELN9__gnu_cxx12_Lock_policyE1EEEE8allocateERS8_m

COMDAT group section [  231] `.group' [_ZNSt15__allocated_ptrISaISt23_Sp_counted_ptr_inplaceIN5dwarf11die_str_map4implESaIvELN9__gnu_cxx12_Lock_policyE1EEEEC5ERS8_PS7_] contains 2 sections:
   [Index]    Name
   [  775]   .text._ZNSt15__allocated_ptrISaISt23_Sp_counted_ptr_inplaceIN5dwarf11die_str_map4implESaIvELN9__gnu_cxx12_Lock_policyE1EEEEC2ERS8_PS7_
   [  776]   .rela.text._ZNSt15__allocated_ptrISaISt23_Sp_counted_ptr_inplaceIN5dwarf11die_str_map4implESaIvELN9__gnu_cxx12_Lock_policyE1EEEEC2ERS8_PS7_

COMDAT group section [  232] `.group' [_ZNSt16allocator_traitsISaISt23_Sp_counted_ptr_inplaceIN5dwarf11die_str_map4implESaIvELN9__gnu_cxx12_Lock_policyE1EEEE10deallocateERS8_PS7_m] contains 2 sections:
   [Index]    Name
   [  777]   .text._ZNSt16allocator_traitsISaISt23_Sp_counted_ptr_inplaceIN5dwarf11die_str_map4implESaIvELN9__gnu_cxx12_Lock_policyE1EEEE10deallocateERS8_PS7_m
   [  778]   .rela.text._ZNSt16allocator_traitsISaISt23_Sp_counted_ptr_inplaceIN5dwarf11die_str_map4implESaIvELN9__gnu_cxx12_Lock_policyE1EEEE10deallocateERS8_PS7_m

COMDAT group section [  233] `.group' [_ZSt12__to_addressISt23_Sp_counted_ptr_inplaceIN5dwarf11die_str_map4implESaIvELN9__gnu_cxx12_Lock_policyE1EEEPT_S9_] contains 1 sections:
   [Index]    Name
   [  779]   .text._ZSt12__to_addressISt23_Sp_counted_ptr_inplaceIN5dwarf11die_str_map4implESaIvELN9__gnu_cxx12_Lock_policyE1EEEPT_S9_

COMDAT group section [  234] `.group' [_ZNSt23_Sp_counted_ptr_inplaceIN5dwarf11die_str_map4implESaIvELN9__gnu_cxx12_Lock_policyE1EE5_ImplC5ES3_] contains 2 sections:
   [Index]    Name
   [  780]   .text._ZNSt23_Sp_counted_ptr_inplaceIN5dwarf11die_str_map4implESaIvELN9__gnu_cxx12_Lock_policyE1EE5_ImplC2ES3_
   [  781]   .rela.text._ZNSt23_Sp_counted_ptr_inplaceIN5dwarf11die_str_map4implESaIvELN9__gnu_cxx12_Lock_policyE1EE5_ImplC2ES3_

COMDAT group section [  235] `.group' [_ZNSt16allocator_traitsISaIvEE9constructIN5dwarf11die_str_map4implEJRKNS3_3dieERNS3_5DW_ATERKSt16initializer_listINS3_6DW_TAGEEEEEvRS0_PT_DpOT0_] contains 2 sections:
   [Index]    Name
   [  782]   .text._ZNSt16allocator_traitsISaIvEE9constructIN5dwarf11die_str_map4implEJRKNS3_3dieERNS3_5DW_ATERKSt16initializer_listINS3_6DW_TAGEEEEEvRS0_PT_DpOT0_
   [  783]   .rela.text._ZNSt16allocator_traitsISaIvEE9constructIN5dwarf11die_str_map4implEJRKNS3_3dieERNS3_5DW_ATERKSt16initializer_listINS3_6DW_TAGEEEEEvRS0_PT_DpOT0_

COMDAT group section [  236] `.group' [_ZN9__gnu_cxx16__aligned_bufferIN5dwarf11die_str_map4implEE6_M_ptrEv] contains 2 sections:
   [Index]    Name
   [  784]   .text._ZN9__gnu_cxx16__aligned_bufferIN5dwarf11die_str_map4implEE6_M_ptrEv
   [  785]   .rela.text._ZN9__gnu_cxx16__aligned_bufferIN5dwarf11die_str_map4implEE6_M_ptrEv

COMDAT group section [  237] `.group' [_ZNK9__gnu_cxx16__aligned_bufferISt4pairIKPKcN5dwarf3dieEEE6_M_ptrEv] contains 2 sections:
   [Index]    Name
   [  786]   .text._ZNK9__gnu_cxx16__aligned_bufferISt4pairIKPKcN5dwarf3dieEEE6_M_ptrEv
   [  787]   .rela.text._ZNK9__gnu_cxx16__aligned_bufferISt4pairIKPKcN5dwarf3dieEEE6_M_ptrEv

COMDAT group section [  238] `.group' [_ZNSt8__detail15_Hashtable_baseIPKcSt4pairIKS2_N5dwarf3dieEENS_10_Select1stENS5_9string_eqENS5_11string_hashENS_18_Mod_range_hashingENS_20_Default_ranged_hashENS_17_Hashtable_traitsILb1ELb0ELb1EEEE9_S_equalsEmRKNS_21_Hash_node_code_cacheILb1EEE] contains 1 sections:
   [Index]    Name
   [  788]   .text._ZNSt8__detail15_Hashtable_baseIPKcSt4pairIKS2_N5dwarf3dieEENS_10_Select1stENS5_9string_eqENS5_11string_hashENS_18_Mod_range_hashingENS_20_Default_ranged_hashENS_17_Hashtable_traitsILb1ELb0ELb1EEEE9_S_equalsEmRKNS_21_Hash_node_code_cacheILb1EEE

COMDAT group section [  239] `.group' [_ZNKSt8__detail15_Hash_code_baseIPKcSt4pairIKS2_N5dwarf3dieEENS_10_Select1stENS5_11string_hashENS_18_Mod_range_hashingENS_20_Default_ranged_hashELb1EE15_M_bucket_indexERKNS_16_Hash_node_valueIS7_Lb1EEEm] contains 2 sections:
   [Index]    Name
   [  789]   .text._ZNKSt8__detail15_Hash_code_baseIPKcSt4pairIKS2_N5dwarf3dieEENS_10_Select1stENS5_11string_hashENS_18_Mod_range_hashingENS_20_Default_ranged_hashELb1EE15_M_bucket_indexERKNS_16_Hash_node_valueIS7_Lb1EEEm
   [  790]   .rela.text._ZNKSt8__detail15_Hash_code_baseIPKcSt4pairIKS2_N5dwarf3dieEENS_10_Select1stENS5_11string_hashENS_18_Mod_range_hashingENS_20_Default_ranged_hashELb1EE15_M_bucket_indexERKNS_16_Hash_node_valueIS7_Lb1EEEm

COMDAT group section [  240] `.group' [_ZNKSt8__detail21_Hashtable_ebo_helperILi0ESt8equal_toIN5dwarf6DW_TAGEELb1EE7_M_cgetEv] contains 1 sections:
   [Index]    Name
   [  791]   .text._ZNKSt8__detail21_Hashtable_ebo_helperILi0ESt8equal_toIN5dwarf6DW_TAGEELb1EE7_M_cgetEv

COMDAT group section [  241] `.group' [_ZNKSt8__detail21_Hashtable_ebo_helperILi1ESt4hashIN5dwarf6DW_TAGEELb1EE7_M_cgetEv] contains 1 sections:
   [Index]    Name
   [  792]   .text._ZNKSt8__detail21_Hashtable_ebo_helperILi1ESt4hashIN5dwarf6DW_TAGEELb1EE7_M_cgetEv

COMDAT group section [  242] `.group' [_ZNKSt8__detail15_Hashtable_baseIN5dwarf6DW_TAGES2_NS_9_IdentityESt8equal_toIS2_ESt4hashIS2_ENS_18_Mod_range_hashingENS_20_Default_ranged_hashENS_17_Hashtable_traitsILb1ELb1ELb1EEEE9_M_equalsERKS2_mRKNS_16_Hash_node_valueIS2_Lb1EEE] contains 2 sections:
   [Index]    Name
   [  793]   .text._ZNKSt8__detail15_Hashtable_baseIN5dwarf6DW_TAGES2_NS_9_IdentityESt8equal_toIS2_ESt4hashIS2_ENS_18_Mod_range_hashingENS_20_Default_ranged_hashENS_17_Hashtable_traitsILb1ELb1ELb1EEEE9_M_equalsERKS2_mRKNS_16_Hash_node_valueIS2_Lb1EEE
   [  794]   .rela.text._ZNKSt8__detail15_Hashtable_baseIN5dwarf6DW_TAGES2_NS_9_IdentityESt8equal_toIS2_ESt4hashIS2_ENS_18_Mod_range_hashingENS_20_Default_ranged_hashENS_17_Hashtable_traitsILb1ELb1ELb1EEEE9_M_equalsERKS2_mRKNS_16_Hash_node_valueIS2_Lb1EEE

COMDAT group section [  243] `.group' [_ZNKSt10_HashtableIN5dwarf6DW_TAGES1_SaIS1_ENSt8__detail9_IdentityESt8equal_toIS1_ESt4hashIS1_ENS3_18_Mod_range_hashingENS3_20_Default_ranged_hashENS3_20_Prime_rehash_policyENS3_17_Hashtable_traitsILb1ELb1ELb1EEEE15_M_bucket_indexERKNS3_16_Hash_node_valueIS1_Lb1EEE] contains 2 sections:
   [Index]    Name
   [  795]   .text._ZNKSt10_HashtableIN5dwarf6DW_TAGES1_SaIS1_ENSt8__detail9_IdentityESt8equal_toIS1_ESt4hashIS1_ENS3_18_Mod_range_hashingENS3_20_Default_ranged_hashENS3_20_Prime_rehash_policyENS3_17_Hashtable_traitsILb1ELb1ELb1EEEE15_M_bucket_indexERKNS3_16_Hash_node_
   [  796]   .rela.text._ZNKSt10_HashtableIN5dwarf6DW_TAGES1_SaIS1_ENSt8__detail9_IdentityESt8equal_toIS1_ESt4hashIS1_ENS3_18_Mod_range_hashingENS3_20_Default_ranged_hashENS3_20_Prime_rehash_policyENS3_17_Hashtable_traitsILb1ELb1ELb1EEEE15_M_bucket_indexERKNS3_16_Hash_

COMDAT group section [  244] `.group' [_ZNK9__gnu_cxx16__aligned_bufferIN5dwarf6DW_TAGEE6_M_ptrEv] contains 2 sections:
   [Index]    Name
   [  797]   .text._ZNK9__gnu_cxx16__aligned_bufferIN5dwarf6DW_TAGEE6_M_ptrEv
   [  798]   .rela.text._ZNK9__gnu_cxx16__aligned_bufferIN5dwarf6DW_TAGEE6_M_ptrEv

COMDAT group section [  245] `.group' [_ZNSt15__new_allocatorINSt8__detail10_Hash_nodeISt4pairIKPKcN5dwarf3dieEELb1EEEE8allocateEmPKv] contains 2 sections:
   [Index]    Name
   [  799]   .text._ZNSt15__new_allocatorINSt8__detail10_Hash_nodeISt4pairIKPKcN5dwarf3dieEELb1EEEE8allocateEmPKv
   [  800]   .rela.text._ZNSt15__new_allocatorINSt8__detail10_Hash_nodeISt4pairIKPKcN5dwarf3dieEELb1EEEE8allocateEmPKv

COMDAT group section [  246] `.group' [_ZNSt5tupleIJRKPKcEEC5EOS4_] contains 2 sections:
   [Index]    Name
   [  801]   .text._ZNSt5tupleIJRKPKcEEC2EOS4_
   [  802]   .rela.text._ZNSt5tupleIJRKPKcEEC2EOS4_

COMDAT group section [  247] `.group' [_ZNSt15__new_allocatorINSt8__detail10_Hash_nodeISt4pairIKPKcN5dwarf3dieEELb1EEEE9constructIS8_JRKSt21piecewise_construct_tSt5tupleIJRS5_EESF_IJEEEEEvPT_DpOT0_] contains 4 sections:
   [Index]    Name
   [  803]   .text._ZNSt15__new_allocatorINSt8__detail10_Hash_nodeISt4pairIKPKcN5dwarf3dieEELb1EEEE9constructIS8_JRKSt21piecewise_construct_tSt5tupleIJRS5_EESF_IJEEEEEvPT_DpOT0_
   [  804]   .rela.text._ZNSt15__new_allocatorINSt8__detail10_Hash_nodeISt4pairIKPKcN5dwarf3dieEELb1EEEE9constructIS8_JRKSt21piecewise_construct_tSt5tupleIJRS5_EESF_IJEEEEEvPT_DpOT0_
   [  805]   .gcc_except_table._ZNSt15__new_allocatorINSt8__detail10_Hash_nodeISt4pairIKPKcN5dwarf3dieEELb1EEEE9constructIS8_JRKSt21piecewise_construct_tSt5tupleIJRS5_EESF_IJEEEEEvPT_DpOT0_
   [  806]   .rela.gcc_except_table._ZNSt15__new_allocatorINSt8__detail10_Hash_nodeISt4pairIKPKcN5dwarf3dieEELb1EEEE9constructIS8_JRKSt21piecewise_construct_tSt5tupleIJRS5_EESF_IJEEEEEvPT_DpOT0_

COMDAT group section [  248] `.group' [_ZNSt15__new_allocatorINSt8__detail10_Hash_nodeISt4pairIKPKcN5dwarf3dieEELb1EEEE10deallocateEPS9_m] contains 2 sections:
   [Index]    Name
   [  807]   .text._ZNSt15__new_allocatorINSt8__detail10_Hash_nodeISt4pairIKPKcN5dwarf3dieEELb1EEEE10deallocateEPS9_m
   [  808]   .rela.text._ZNSt15__new_allocatorINSt8__detail10_Hash_nodeISt4pairIKPKcN5dwarf3dieEELb1EEEE10deallocateEPS9_m

COMDAT group section [  249] `.group' [_ZNSt10_HashtableIPKcSt4pairIKS1_N5dwarf3dieEESaIS6_ENSt8__detail10_Select1stENS4_9string_eqENS4_11string_hashENS8_18_Mod_range_hashingENS8_20_Default_ranged_hashENS8_20_Prime_rehash_policyENS8_17_Hashtable_traitsILb1ELb0ELb1EEEE19_M_allocate_bucketsEm] contains 2 sections:
   [Index]    Name
   [  809]   .text._ZNSt10_HashtableIPKcSt4pairIKS1_N5dwarf3dieEESaIS6_ENSt8__detail10_Select1stENS4_9string_eqENS4_11string_hashENS8_18_Mod_range_hashingENS8_20_Default_ranged_hashENS8_20_Prime_rehash_policyENS8_17_Hashtable_traitsILb1ELb0ELb1EEEE19_M_allocate_buckets
   [  810]   .rela.text._ZNSt10_HashtableIPKcSt4pairIKS1_N5dwarf3dieEESaIS6_ENSt8__detail10_Select1stENS4_9string_eqENS4_11string_hashENS8_18_Mod_range_hashingENS8_20_Default_ranged_hashENS8_20_Prime_rehash_policyENS8_17_Hashtable_traitsILb1ELb0ELb1EEEE19_M_allocate_bu

COMDAT group section [  250] `.group' [_ZNSt14_Sp_ebo_helperILi0ESaIvELb1EEC5ERKS0_] contains 1 sections:
   [Index]    Name
   [  811]   .text._ZNSt14_Sp_ebo_helperILi0ESaIvELb1EEC2ERKS0_

COMDAT group section [  251] `.group' [_ZSt9addressofINSt8__detail10_Hash_nodeISt4pairIKPKcN5dwarf3dieEELb1EEEEPT_RSA_] contains 2 sections:
   [Index]    Name
   [  812]   .text._ZSt9addressofINSt8__detail10_Hash_nodeISt4pairIKPKcN5dwarf3dieEELb1EEEEPT_RSA_
   [  813]   .rela.text._ZSt9addressofINSt8__detail10_Hash_nodeISt4pairIKPKcN5dwarf3dieEELb1EEEEPT_RSA_

COMDAT group section [  252] `.group' [_ZSt11__addressofIPNSt8__detail15_Hash_node_baseEEPT_RS3_] contains 1 sections:
   [Index]    Name
   [  814]   .text._ZSt11__addressofIPNSt8__detail15_Hash_node_baseEEPT_RS3_

COMDAT group section [  253] `.group' [_ZNSt15__new_allocatorINSt8__detail10_Hash_nodeIN5dwarf6DW_TAGELb1EEEEC5Ev] contains 1 sections:
   [Index]    Name
   [  815]   .text._ZNSt15__new_allocatorINSt8__detail10_Hash_nodeIN5dwarf6DW_TAGELb1EEEEC2Ev

COMDAT group section [  254] `.group' [_ZNSt8__detail15_Hash_code_baseIN5dwarf6DW_TAGES2_NS_9_IdentityESt4hashIS2_ENS_18_Mod_range_hashingENS_20_Default_ranged_hashELb1EEC5ERKS5_] contains 2 sections:
   [Index]    Name
   [  816]   .text._ZNSt8__detail15_Hash_code_baseIN5dwarf6DW_TAGES2_NS_9_IdentityESt4hashIS2_ENS_18_Mod_range_hashingENS_20_Default_ranged_hashELb1EEC2ERKS5_
   [  817]   .rela.text._ZNSt8__detail15_Hash_code_baseIN5dwarf6DW_TAGES2_NS_9_IdentityESt4hashIS2_ENS_18_Mod_range_hashingENS_20_Default_ranged_hashELb1EEC2ERKS5_

COMDAT group section [  255] `.group' [_ZNSt8__detail21_Hashtable_ebo_helperILi0ESt8equal_toIN5dwarf6DW_TAGEELb1EEC5IRKS4_EEOT_] contains 2 sections:
   [Index]    Name
   [  818]   .text._ZNSt8__detail21_Hashtable_ebo_helperILi0ESt8equal_toIN5dwarf6DW_TAGEELb1EEC2IRKS4_EEOT_
   [  819]   .rela.text._ZNSt8__detail21_Hashtable_ebo_helperILi0ESt8equal_toIN5dwarf6DW_TAGEELb1EEC2IRKS4_EEOT_

COMDAT group section [  256] `.group' [_ZSt7forwardISaINSt8__detail10_Hash_nodeIN5dwarf6DW_TAGELb1EEEEEOT_RNSt16remove_referenceIS6_E4typeE] contains 1 sections:
   [Index]    Name
   [  820]   .text._ZSt7forwardISaINSt8__detail10_Hash_nodeIN5dwarf6DW_TAGELb1EEEEEOT_RNSt16remove_referenceIS6_E4typeE

COMDAT group section [  257] `.group' [_ZNSt8__detail21_Hashtable_ebo_helperILi0ESaINS_10_Hash_nodeIN5dwarf6DW_TAGELb1EEEELb1EEC5IS5_EEOT_] contains 2 sections:
   [Index]    Name
   [  821]   .text._ZNSt8__detail21_Hashtable_ebo_helperILi0ESaINS_10_Hash_nodeIN5dwarf6DW_TAGELb1EEEELb1EEC2IS5_EEOT_
   [  822]   .rela.text._ZNSt8__detail21_Hashtable_ebo_helperILi0ESaINS_10_Hash_nodeIN5dwarf6DW_TAGELb1EEEELb1EEC2IS5_EEOT_

COMDAT group section [  258] `.group' [_ZNSt16allocator_traitsISaIPNSt8__detail15_Hash_node_baseEEE8allocateERS3_m] contains 2 sections:
   [Index]    Name
   [  823]   .text._ZNSt16allocator_traitsISaIPNSt8__detail15_Hash_node_baseEEE8allocateERS3_m
   [  824]   .rela.text._ZNSt16allocator_traitsISaIPNSt8__detail15_Hash_node_baseEEE8allocateERS3_m

COMDAT group section [  259] `.group' [_ZSt12__to_addressIPNSt8__detail15_Hash_node_baseEEPT_S4_] contains 1 sections:
   [Index]    Name
   [  825]   .text._ZSt12__to_addressIPNSt8__detail15_Hash_node_baseEEPT_S4_

COMDAT group section [  260] `.group' [_ZNSt10_HashtableIN5dwarf6DW_TAGES1_SaIS1_ENSt8__detail9_IdentityESt8equal_toIS1_ESt4hashIS1_ENS3_18_Mod_range_hashingENS3_20_Default_ranged_hashENS3_20_Prime_rehash_policyENS3_17_Hashtable_traitsILb1ELb1ELb1EEEE5beginEv] contains 2 sections:
   [Index]    Name
   [  826]   .text._ZNSt10_HashtableIN5dwarf6DW_TAGES1_SaIS1_ENSt8__detail9_IdentityESt8equal_toIS1_ESt4hashIS1_ENS3_18_Mod_range_hashingENS3_20_Default_ranged_hashENS3_20_Prime_rehash_policyENS3_17_Hashtable_traitsILb1ELb1ELb1EEEE5beginEv
   [  827]   .rela.text._ZNSt10_HashtableIN5dwarf6DW_TAGES1_SaIS1_ENSt8__detail9_IdentityESt8equal_toIS1_ESt4hashIS1_ENS3_18_Mod_range_hashingENS3_20_Default_ranged_hashENS3_20_Prime_rehash_policyENS3_17_Hashtable_traitsILb1ELb1ELb1EEEE5beginEv

COMDAT group section [  261] `.group' [_ZNSt10_HashtableIN5dwarf6DW_TAGES1_SaIS1_ENSt8__detail9_IdentityESt8equal_toIS1_ESt4hashIS1_ENS3_18_Mod_range_hashingENS3_20_Default_ranged_hashENS3_20_Prime_rehash_policyENS3_17_Hashtable_traitsILb1ELb1ELb1EEEE3endEv] contains 2 sections:
   [Index]    Name
   [  828]   .text._ZNSt10_HashtableIN5dwarf6DW_TAGES1_SaIS1_ENSt8__detail9_IdentityESt8equal_toIS1_ESt4hashIS1_ENS3_18_Mod_range_hashingENS3_20_Default_ranged_hashENS3_20_Prime_rehash_policyENS3_17_Hashtable_traitsILb1ELb1ELb1EEEE3endEv
   [  829]   .rela.text._ZNSt10_HashtableIN5dwarf6DW_TAGES1_SaIS1_ENSt8__detail9_IdentityESt8equal_toIS1_ESt4hashIS1_ENS3_18_Mod_range_hashingENS3_20_Default_ranged_hashENS3_20_Prime_rehash_policyENS3_17_Hashtable_traitsILb1ELb1ELb1EEEE3endEv

COMDAT group section [  262] `.group' [_ZNSt8__detail14_Node_iteratorIN5dwarf6DW_TAGELb1ELb1EEppEv] contains 2 sections:
   [Index]    Name
   [  830]   .text._ZNSt8__detail14_Node_iteratorIN5dwarf6DW_TAGELb1ELb1EEppEv
   [  831]   .rela.text._ZNSt8__detail14_Node_iteratorIN5dwarf6DW_TAGELb1ELb1EEppEv

COMDAT group section [  263] `.group' [_ZNKSt8__detail15_Hashtable_baseIN5dwarf6DW_TAGES2_NS_9_IdentityESt8equal_toIS2_ESt4hashIS2_ENS_18_Mod_range_hashingENS_20_Default_ranged_hashENS_17_Hashtable_traitsILb1ELb1ELb1EEEE16_M_key_equals_trIS2_EEbRKT_RKNS_16_Hash_node_valueIS2_Lb1EEE] contains 2 sections:
   [Index]    Name
   [  832]   .text._ZNKSt8__detail15_Hashtable_baseIN5dwarf6DW_TAGES2_NS_9_IdentityESt8equal_toIS2_ESt4hashIS2_ENS_18_Mod_range_hashingENS_20_Default_ranged_hashENS_17_Hashtable_traitsILb1ELb1ELb1EEEE16_M_key_equals_trIS2_EEbRKT_RKNS_16_Hash_node_valueIS2_Lb1EEE
   [  833]   .rela.text._ZNKSt8__detail15_Hashtable_baseIN5dwarf6DW_TAGES2_NS_9_IdentityESt8equal_toIS2_ESt4hashIS2_ENS_18_Mod_range_hashingENS_20_Default_ranged_hashENS_17_Hashtable_traitsILb1ELb1ELb1EEEE16_M_key_equals_trIS2_EEbRKT_RKNS_16_Hash_node_valueIS2_Lb1EEE

COMDAT group section [  264] `.group' [_ZNSt4pairINSt8__detail14_Node_iteratorIN5dwarf6DW_TAGELb1ELb1EEEbEC5IRS4_bLb1EEEOT_OT0_] contains 2 sections:
   [Index]    Name
   [  834]   .text._ZNSt4pairINSt8__detail14_Node_iteratorIN5dwarf6DW_TAGELb1ELb1EEEbEC2IRS4_bLb1EEEOT_OT0_
   [  835]   .rela.text._ZNSt4pairINSt8__detail14_Node_iteratorIN5dwarf6DW_TAGELb1ELb1EEEbEC2IRS4_bLb1EEEOT_OT0_

COMDAT group section [  265] `.group' [_ZNKSt8__detail15_Hash_code_baseIN5dwarf6DW_TAGES2_NS_9_IdentityESt4hashIS2_ENS_18_Mod_range_hashingENS_20_Default_ranged_hashELb1EE15_M_hash_code_trIS2_EEmRKT_] contains 2 sections:
   [Index]    Name
   [  836]   .text._ZNKSt8__detail15_Hash_code_baseIN5dwarf6DW_TAGES2_NS_9_IdentityESt4hashIS2_ENS_18_Mod_range_hashingENS_20_Default_ranged_hashELb1EE15_M_hash_code_trIS2_EEmRKT_
   [  837]   .rela.text._ZNKSt8__detail15_Hash_code_baseIN5dwarf6DW_TAGES2_NS_9_IdentityESt4hashIS2_ENS_18_Mod_range_hashingENS_20_Default_ranged_hashELb1EE15_M_hash_code_trIS2_EEmRKT_

COMDAT group section [  266] `.group' [_ZNKSt10_HashtableIN5dwarf6DW_TAGES1_SaIS1_ENSt8__detail9_IdentityESt8equal_toIS1_ESt4hashIS1_ENS3_18_Mod_range_hashingENS3_20_Default_ranged_hashENS3_20_Prime_rehash_policyENS3_17_Hashtable_traitsILb1ELb1ELb1EEEE15_M_find_node_trIS1_EEPNS3_10_Hash_nodeIS1_Lb1EEEmRKT_m] contains 2 sections:
   [Index]    Name
   [  838]   .text._ZNKSt10_HashtableIN5dwarf6DW_TAGES1_SaIS1_ENSt8__detail9_IdentityESt8equal_toIS1_ESt4hashIS1_ENS3_18_Mod_range_hashingENS3_20_Default_ranged_hashENS3_20_Prime_rehash_policyENS3_17_Hashtable_traitsILb1ELb1ELb1EEEE15_M_find_node_trIS1_EEPNS3_10_Hash_n
   [  839]   .rela.text._ZNKSt10_HashtableIN5dwarf6DW_TAGES1_SaIS1_ENSt8__detail9_IdentityESt8equal_toIS1_ESt4hashIS1_ENS3_18_Mod_range_hashingENS3_20_Default_ranged_hashENS3_20_Prime_rehash_policyENS3_17_Hashtable_traitsILb1ELb1ELb1EEEE15_M_find_node_trIS1_EEPNS3_10_H

COMDAT group section [  267] `.group' [_ZNSt8__detail14_Node_iteratorIN5dwarf6DW_TAGELb1ELb1EEC5EPNS_10_Hash_nodeIS2_Lb1EEE] contains 2 sections:
   [Index]    Name
   [  840]   .text._ZNSt8__detail14_Node_iteratorIN5dwarf6DW_TAGELb1ELb1EEC2EPNS_10_Hash_nodeIS2_Lb1EEE
   [  841]   .rela.text._ZNSt8__detail14_Node_iteratorIN5dwarf6DW_TAGELb1ELb1EEC2EPNS_10_Hash_nodeIS2_Lb1EEE

COMDAT group section [  268] `.group' [_ZNSt4pairINSt8__detail14_Node_iteratorIN5dwarf6DW_TAGELb1ELb1EEEbEC5IS4_bLb1EEEOT_OT0_] contains 2 sections:
   [Index]    Name
   [  842]   .text._ZNSt4pairINSt8__detail14_Node_iteratorIN5dwarf6DW_TAGELb1ELb1EEEbEC2IS4_bLb1EEEOT_OT0_
   [  843]   .rela.text._ZNSt4pairINSt8__detail14_Node_iteratorIN5dwarf6DW_TAGELb1ELb1EEEbEC2IS4_bLb1EEEOT_OT0_

COMDAT group section [  269] `.group' [_ZNSt8__detail12_NodeBuilderINS_9_IdentityEE8_S_buildIRKN5dwarf6DW_TAGES7_NS_10_AllocNodeISaINS_10_Hash_nodeIS5_Lb1EEEEEEEEPNT1_11__node_typeEOT_OT0_RKSD_] contains 2 sections:
   [Index]    Name
   [  844]   .text._ZNSt8__detail12_NodeBuilderINS_9_IdentityEE8_S_buildIRKN5dwarf6DW_TAGES7_NS_10_AllocNodeISaINS_10_Hash_nodeIS5_Lb1EEEEEEEEPNT1_11__node_typeEOT_OT0_RKSD_
   [  845]   .rela.text._ZNSt8__detail12_NodeBuilderINS_9_IdentityEE8_S_buildIRKN5dwarf6DW_TAGES7_NS_10_AllocNodeISaINS_10_Hash_nodeIS5_Lb1EEEEEEEEPNT1_11__node_typeEOT_OT0_RKSD_

COMDAT group section [  270] `.group' [_ZNSt10_HashtableIN5dwarf6DW_TAGES1_SaIS1_ENSt8__detail9_IdentityESt8equal_toIS1_ESt4hashIS1_ENS3_18_Mod_range_hashingENS3_20_Default_ranged_hashENS3_20_Prime_rehash_policyENS3_17_Hashtable_traitsILb1ELb1ELb1EEEE12_Scoped_nodeC5EPNS3_10_Hash_nodeIS1_Lb1EEEPNS3_16_Hashtable_allocISaISH_EEE] contains 1 sections:
   [Index]    Name
   [  846]   .text._ZNSt10_HashtableIN5dwarf6DW_TAGES1_SaIS1_ENSt8__detail9_IdentityESt8equal_toIS1_ESt4hashIS1_ENS3_18_Mod_range_hashingENS3_20_Default_ranged_hashENS3_20_Prime_rehash_policyENS3_17_Hashtable_traitsILb1ELb1ELb1EEEE12_Scoped_nodeC2EPNS3_10_Hash_nodeIS1_

COMDAT group section [  271] `.group' [_ZNSt10_HashtableIN5dwarf6DW_TAGES1_SaIS1_ENSt8__detail9_IdentityESt8equal_toIS1_ESt4hashIS1_ENS3_18_Mod_range_hashingENS3_20_Default_ranged_hashENS3_20_Prime_rehash_policyENS3_17_Hashtable_traitsILb1ELb1ELb1EEEE12_Scoped_nodeD5Ev] contains 3 sections:
   [Index]    Name
   [  847]   .text._ZNSt10_HashtableIN5dwarf6DW_TAGES1_SaIS1_ENSt8__detail9_IdentityESt8equal_toIS1_ESt4hashIS1_ENS3_18_Mod_range_hashingENS3_20_Default_ranged_hashENS3_20_Prime_rehash_policyENS3_17_Hashtable_traitsILb1ELb1ELb1EEEE12_Scoped_nodeD2Ev
   [  848]   .rela.text._ZNSt10_HashtableIN5dwarf6DW_TAGES1_SaIS1_ENSt8__detail9_IdentityESt8equal_toIS1_ESt4hashIS1_ENS3_18_Mod_range_hashingENS3_20_Default_ranged_hashENS3_20_Prime_rehash_policyENS3_17_Hashtable_traitsILb1ELb1ELb1EEEE12_Scoped_nodeD2Ev
   [  849]   .gcc_except_table._ZNSt10_HashtableIN5dwarf6DW_TAGES1_SaIS1_ENSt8__detail9_IdentityESt8equal_toIS1_ESt4hashIS1_ENS3_18_Mod_range_hashingENS3_20_Default_ranged_hashENS3_20_Prime_rehash_policyENS3_17_Hashtable_traitsILb1ELb1ELb1EEEE12_Scoped_nodeD2Ev

COMDAT group section [  272] `.group' [_ZNSt10_HashtableIN5dwarf6DW_TAGES1_SaIS1_ENSt8__detail9_IdentityESt8equal_toIS1_ESt4hashIS1_ENS3_18_Mod_range_hashingENS3_20_Default_ranged_hashENS3_20_Prime_rehash_policyENS3_17_Hashtable_traitsILb1ELb1ELb1EEEE21_M_insert_unique_nodeEmmPNS3_10_Hash_nodeIS1_Lb1EEEm] contains 2 sections:
   [Index]    Name
   [  850]   .text._ZNSt10_HashtableIN5dwarf6DW_TAGES1_SaIS1_ENSt8__detail9_IdentityESt8equal_toIS1_ESt4hashIS1_ENS3_18_Mod_range_hashingENS3_20_Default_ranged_hashENS3_20_Prime_rehash_policyENS3_17_Hashtable_traitsILb1ELb1ELb1EEEE21_M_insert_unique_nodeEmmPNS3_10_Hash
   [  851]   .rela.text._ZNSt10_HashtableIN5dwarf6DW_TAGES1_SaIS1_ENSt8__detail9_IdentityESt8equal_toIS1_ESt4hashIS1_ENS3_18_Mod_range_hashingENS3_20_Default_ranged_hashENS3_20_Prime_rehash_policyENS3_17_Hashtable_traitsILb1ELb1ELb1EEEE21_M_insert_unique_nodeEmmPNS3_10

COMDAT group section [  273] `.group' [_ZN9__gnu_cxx16__aligned_bufferIN5dwarf6DW_TAGEE7_M_addrEv] contains 1 sections:
   [Index]    Name
   [  852]   .text._ZN9__gnu_cxx16__aligned_bufferIN5dwarf6DW_TAGEE7_M_addrEv

COMDAT group section [  274] `.group' [_ZSt9addressofINSt8__detail10_Hash_nodeIN5dwarf6DW_TAGELb1EEEEPT_RS5_] contains 2 sections:
   [Index]    Name
   [  853]   .text._ZSt9addressofINSt8__detail10_Hash_nodeIN5dwarf6DW_TAGELb1EEEEPT_RS5_
   [  854]   .rela.text._ZSt9addressofINSt8__detail10_Hash_nodeIN5dwarf6DW_TAGELb1EEEEPT_RS5_

COMDAT group section [  275] `.group' [_ZNSt15__new_allocatorINSt8__detail10_Hash_nodeIN5dwarf6DW_TAGELb1EEEE10deallocateEPS4_m] contains 2 sections:
   [Index]    Name
   [  855]   .text._ZNSt15__new_allocatorINSt8__detail10_Hash_nodeIN5dwarf6DW_TAGELb1EEEE10deallocateEPS4_m
   [  856]   .rela.text._ZNSt15__new_allocatorINSt8__detail10_Hash_nodeIN5dwarf6DW_TAGELb1EEEE10deallocateEPS4_m

COMDAT group section [  276] `.group' [_ZNSt15__new_allocatorISt23_Sp_counted_ptr_inplaceIN5dwarf11die_str_map4implESaIvELN9__gnu_cxx12_Lock_policyE1EEE8allocateEmPKv] contains 2 sections:
   [Index]    Name
   [  857]   .text._ZNSt15__new_allocatorISt23_Sp_counted_ptr_inplaceIN5dwarf11die_str_map4implESaIvELN9__gnu_cxx12_Lock_policyE1EEE8allocateEmPKv
   [  858]   .rela.text._ZNSt15__new_allocatorISt23_Sp_counted_ptr_inplaceIN5dwarf11die_str_map4implESaIvELN9__gnu_cxx12_Lock_policyE1EEE8allocateEmPKv

COMDAT group section [  277] `.group' [_ZSt11__addressofISaISt23_Sp_counted_ptr_inplaceIN5dwarf11die_str_map4implESaIvELN9__gnu_cxx12_Lock_policyE1EEEEPT_RS9_] contains 1 sections:
   [Index]    Name
   [  859]   .text._ZSt11__addressofISaISt23_Sp_counted_ptr_inplaceIN5dwarf11die_str_map4implESaIvELN9__gnu_cxx12_Lock_policyE1EEEEPT_RS9_

COMDAT group section [  278] `.group' [_ZNSt15__new_allocatorISt23_Sp_counted_ptr_inplaceIN5dwarf11die_str_map4implESaIvELN9__gnu_cxx12_Lock_policyE1EEE10deallocateEPS7_m] contains 2 sections:
   [Index]    Name
   [  860]   .text._ZNSt15__new_allocatorISt23_Sp_counted_ptr_inplaceIN5dwarf11die_str_map4implESaIvELN9__gnu_cxx12_Lock_policyE1EEE10deallocateEPS7_m
   [  861]   .rela.text._ZNSt15__new_allocatorISt23_Sp_counted_ptr_inplaceIN5dwarf11die_str_map4implESaIvELN9__gnu_cxx12_Lock_policyE1EEE10deallocateEPS7_m

COMDAT group section [  279] `.group' [_ZSt10_ConstructIN5dwarf11die_str_map4implEJRKNS0_3dieERNS0_5DW_ATERKSt16initializer_listINS0_6DW_TAGEEEEvPT_DpOT0_] contains 4 sections:
   [Index]    Name
   [  862]   .text._ZSt10_ConstructIN5dwarf11die_str_map4implEJRKNS0_3dieERNS0_5DW_ATERKSt16initializer_listINS0_6DW_TAGEEEEvPT_DpOT0_
   [  863]   .rela.text._ZSt10_ConstructIN5dwarf11die_str_map4implEJRKNS0_3dieERNS0_5DW_ATERKSt16initializer_listINS0_6DW_TAGEEEEvPT_DpOT0_
   [  864]   .gcc_except_table._ZSt10_ConstructIN5dwarf11die_str_map4implEJRKNS0_3dieERNS0_5DW_ATERKSt16initializer_listINS0_6DW_TAGEEEEvPT_DpOT0_
   [  865]   .rela.gcc_except_table._ZSt10_ConstructIN5dwarf11die_str_map4implEJRKNS0_3dieERNS0_5DW_ATERKSt16initializer_listINS0_6DW_TAGEEEEvPT_DpOT0_

COMDAT group section [  280] `.group' [_ZN9__gnu_cxx16__aligned_bufferIN5dwarf11die_str_map4implEE7_M_addrEv] contains 1 sections:
   [Index]    Name
   [  866]   .text._ZN9__gnu_cxx16__aligned_bufferIN5dwarf11die_str_map4implEE7_M_addrEv

COMDAT group section [  281] `.group' [_ZNK9__gnu_cxx16__aligned_bufferISt4pairIKPKcN5dwarf3dieEEE7_M_addrEv] contains 1 sections:
   [Index]    Name
   [  867]   .text._ZNK9__gnu_cxx16__aligned_bufferISt4pairIKPKcN5dwarf3dieEEE7_M_addrEv

COMDAT group section [  282] `.group' [_ZNSt8__detail15_Hashtable_baseIN5dwarf6DW_TAGES2_NS_9_IdentityESt8equal_toIS2_ESt4hashIS2_ENS_18_Mod_range_hashingENS_20_Default_ranged_hashENS_17_Hashtable_traitsILb1ELb1ELb1EEEE9_S_equalsEmRKNS_21_Hash_node_code_cacheILb1EEE] contains 1 sections:
   [Index]    Name
   [  868]   .text._ZNSt8__detail15_Hashtable_baseIN5dwarf6DW_TAGES2_NS_9_IdentityESt8equal_toIS2_ESt4hashIS2_ENS_18_Mod_range_hashingENS_20_Default_ranged_hashENS_17_Hashtable_traitsILb1ELb1ELb1EEEE9_S_equalsEmRKNS_21_Hash_node_code_cacheILb1EEE

COMDAT group section [  283] `.group' [_ZNKSt8__detail15_Hash_code_baseIN5dwarf6DW_TAGES2_NS_9_IdentityESt4hashIS2_ENS_18_Mod_range_hashingENS_20_Default_ranged_hashELb1EE15_M_bucket_indexERKNS_16_Hash_node_valueIS2_Lb1EEEm] contains 2 sections:
   [Index]    Name
   [  869]   .text._ZNKSt8__detail15_Hash_code_baseIN5dwarf6DW_TAGES2_NS_9_IdentityESt4hashIS2_ENS_18_Mod_range_hashingENS_20_Default_ranged_hashELb1EE15_M_bucket_indexERKNS_16_Hash_node_valueIS2_Lb1EEEm
   [  870]   .rela.text._ZNKSt8__detail15_Hash_code_baseIN5dwarf6DW_TAGES2_NS_9_IdentityESt4hashIS2_ENS_18_Mod_range_hashingENS_20_Default_ranged_hashELb1EE15_M_bucket_indexERKNS_16_Hash_node_valueIS2_Lb1EEEm

COMDAT group section [  284] `.group' [_ZNK9__gnu_cxx16__aligned_bufferIN5dwarf6DW_TAGEE7_M_addrEv] contains 1 sections:
   [Index]    Name
   [  871]   .text._ZNK9__gnu_cxx16__aligned_bufferIN5dwarf6DW_TAGEE7_M_addrEv

COMDAT group section [  285] `.group' [_ZNKSt15__new_allocatorINSt8__detail10_Hash_nodeISt4pairIKPKcN5dwarf3dieEELb1EEEE11_M_max_sizeEv] contains 2 sections:
   [Index]    Name
   [  872]   .text._ZNKSt15__new_allocatorINSt8__detail10_Hash_nodeISt4pairIKPKcN5dwarf3dieEELb1EEEE11_M_max_sizeEv
   [  873]   .rela.text._ZNKSt15__new_allocatorINSt8__detail10_Hash_nodeISt4pairIKPKcN5dwarf3dieEELb1EEEE11_M_max_sizeEv

COMDAT group section [  286] `.group' [_ZNSt11_Tuple_implILm0EJRKPKcEEC5EOS4_] contains 1 sections:
   [Index]    Name
   [  874]   .text._ZNSt11_Tuple_implILm0EJRKPKcEEC2EOS4_

COMDAT group section [  287] `.group' [_ZNSt4pairIKPKcN5dwarf3dieEEC5IJRS2_EJEEESt21piecewise_construct_tSt5tupleIJDpT_EES9_IJDpT0_EE] contains 2 sections:
   [Index]    Name
   [  875]   .text._ZNSt4pairIKPKcN5dwarf3dieEEC2IJRS2_EJEEESt21piecewise_construct_tSt5tupleIJDpT_EES9_IJDpT0_EE
   [  876]   .rela.text._ZNSt4pairIKPKcN5dwarf3dieEEC2IJRS2_EJEEESt21piecewise_construct_tSt5tupleIJDpT_EES9_IJDpT0_EE

COMDAT group section [  288] `.group' [_ZNSt8__detail16_Hashtable_allocISaINS_10_Hash_nodeISt4pairIKPKcN5dwarf3dieEELb1EEEEE19_M_allocate_bucketsEm] contains 4 sections:
   [Index]    Name
   [  877]   .text._ZNSt8__detail16_Hashtable_allocISaINS_10_Hash_nodeISt4pairIKPKcN5dwarf3dieEELb1EEEEE19_M_allocate_bucketsEm
   [  878]   .rela.text._ZNSt8__detail16_Hashtable_allocISaINS_10_Hash_nodeISt4pairIKPKcN5dwarf3dieEELb1EEEEE19_M_allocate_bucketsEm
   [  879]   .gcc_except_table._ZNSt8__detail16_Hashtable_allocISaINS_10_Hash_nodeISt4pairIKPKcN5dwarf3dieEELb1EEEEE19_M_allocate_bucketsEm
   [  880]   .rela.gcc_except_table._ZNSt8__detail16_Hashtable_allocISaINS_10_Hash_nodeISt4pairIKPKcN5dwarf3dieEELb1EEEEE19_M_allocate_bucketsEm

COMDAT group section [  289] `.group' [_ZSt11__addressofINSt8__detail10_Hash_nodeISt4pairIKPKcN5dwarf3dieEELb1EEEEPT_RSA_] contains 1 sections:
   [Index]    Name
   [  881]   .text._ZSt11__addressofINSt8__detail10_Hash_nodeISt4pairIKPKcN5dwarf3dieEELb1EEEEPT_RSA_

COMDAT group section [  290] `.group' [_ZNSt8__detail21_Hashtable_ebo_helperILi1ESt4hashIN5dwarf6DW_TAGEELb1EEC5IRKS4_EEOT_] contains 2 sections:
   [Index]    Name
   [  882]   .text._ZNSt8__detail21_Hashtable_ebo_helperILi1ESt4hashIN5dwarf6DW_TAGEELb1EEC2IRKS4_EEOT_
   [  883]   .rela.text._ZNSt8__detail21_Hashtable_ebo_helperILi1ESt4hashIN5dwarf6DW_TAGEELb1EEC2IRKS4_EEOT_

COMDAT group section [  291] `.group' [_ZSt7forwardIRKSt8equal_toIN5dwarf6DW_TAGEEEOT_RNSt16remove_referenceIS6_E4typeE] contains 1 sections:
   [Index]    Name
   [  884]   .text._ZSt7forwardIRKSt8equal_toIN5dwarf6DW_TAGEEEOT_RNSt16remove_referenceIS6_E4typeE

COMDAT group section [  292] `.group' [_ZNSaINSt8__detail10_Hash_nodeIN5dwarf6DW_TAGELb1EEEEC5ERKS4_] contains 2 sections:
   [Index]    Name
   [  885]   .text._ZNSaINSt8__detail10_Hash_nodeIN5dwarf6DW_TAGELb1EEEEC2ERKS4_
   [  886]   .rela.text._ZNSaINSt8__detail10_Hash_nodeIN5dwarf6DW_TAGELb1EEEEC2ERKS4_

COMDAT group section [  293] `.group' [_ZNSt15__new_allocatorIPNSt8__detail15_Hash_node_baseEE8allocateEmPKv] contains 2 sections:
   [Index]    Name
   [  887]   .text._ZNSt15__new_allocatorIPNSt8__detail15_Hash_node_baseEE8allocateEmPKv
   [  888]   .rela.text._ZNSt15__new_allocatorIPNSt8__detail15_Hash_node_baseEE8allocateEmPKv

COMDAT group section [  294] `.group' [_ZSt7forwardIRNSt8__detail14_Node_iteratorIN5dwarf6DW_TAGELb1ELb1EEEEOT_RNSt16remove_referenceIS6_E4typeE] contains 1 sections:
   [Index]    Name
   [  889]   .text._ZSt7forwardIRNSt8__detail14_Node_iteratorIN5dwarf6DW_TAGELb1ELb1EEEEOT_RNSt16remove_referenceIS6_E4typeE

COMDAT group section [  295] `.group' [_ZNKSt10_HashtableIN5dwarf6DW_TAGES1_SaIS1_ENSt8__detail9_IdentityESt8equal_toIS1_ESt4hashIS1_ENS3_18_Mod_range_hashingENS3_20_Default_ranged_hashENS3_20_Prime_rehash_policyENS3_17_Hashtable_traitsILb1ELb1ELb1EEEE22_M_find_before_node_trIS1_EEPNS3_15_Hash_node_baseEmRKT_m] contains 2 sections:
   [Index]    Name
   [  890]   .text._ZNKSt10_HashtableIN5dwarf6DW_TAGES1_SaIS1_ENSt8__detail9_IdentityESt8equal_toIS1_ESt4hashIS1_ENS3_18_Mod_range_hashingENS3_20_Default_ranged_hashENS3_20_Prime_rehash_policyENS3_17_Hashtable_traitsILb1ELb1ELb1EEEE22_M_find_before_node_trIS1_EEPNS3_15
   [  891]   .rela.text._ZNKSt10_HashtableIN5dwarf6DW_TAGES1_SaIS1_ENSt8__detail9_IdentityESt8equal_toIS1_ESt4hashIS1_ENS3_18_Mod_range_hashingENS3_20_Default_ranged_hashENS3_20_Prime_rehash_policyENS3_17_Hashtable_traitsILb1ELb1ELb1EEEE22_M_find_before_node_trIS1_EEPN

COMDAT group section [  296] `.group' [_ZSt7forwardINSt8__detail14_Node_iteratorIN5dwarf6DW_TAGELb1ELb1EEEEOT_RNSt16remove_referenceIS5_E4typeE] contains 1 sections:
   [Index]    Name
   [  892]   .text._ZSt7forwardINSt8__detail14_Node_iteratorIN5dwarf6DW_TAGELb1ELb1EEEEOT_RNSt16remove_referenceIS5_E4typeE

COMDAT group section [  297] `.group' [_ZNKSt8__detail10_AllocNodeISaINS_10_Hash_nodeIN5dwarf6DW_TAGELb1EEEEEclIJRKS3_EEEPS4_DpOT_] contains 2 sections:
   [Index]    Name
   [  893]   .text._ZNKSt8__detail10_AllocNodeISaINS_10_Hash_nodeIN5dwarf6DW_TAGELb1EEEEEclIJRKS3_EEEPS4_DpOT_
   [  894]   .rela.text._ZNKSt8__detail10_AllocNodeISaINS_10_Hash_nodeIN5dwarf6DW_TAGELb1EEEEEclIJRKS3_EEEPS4_DpOT_

COMDAT group section [  298] `.group' [_ZNSt10_HashtableIN5dwarf6DW_TAGES1_SaIS1_ENSt8__detail9_IdentityESt8equal_toIS1_ESt4hashIS1_ENS3_18_Mod_range_hashingENS3_20_Default_ranged_hashENS3_20_Prime_rehash_policyENS3_17_Hashtable_traitsILb1ELb1ELb1EEEE9_M_rehashEmRKm] contains 4 sections:
   [Index]    Name
   [  895]   .text._ZNSt10_HashtableIN5dwarf6DW_TAGES1_SaIS1_ENSt8__detail9_IdentityESt8equal_toIS1_ESt4hashIS1_ENS3_18_Mod_range_hashingENS3_20_Default_ranged_hashENS3_20_Prime_rehash_policyENS3_17_Hashtable_traitsILb1ELb1ELb1EEEE9_M_rehashEmRKm
   [  896]   .rela.text._ZNSt10_HashtableIN5dwarf6DW_TAGES1_SaIS1_ENSt8__detail9_IdentityESt8equal_toIS1_ESt4hashIS1_ENS3_18_Mod_range_hashingENS3_20_Default_ranged_hashENS3_20_Prime_rehash_policyENS3_17_Hashtable_traitsILb1ELb1ELb1EEEE9_M_rehashEmRKm
   [  897]   .gcc_except_table._ZNSt10_HashtableIN5dwarf6DW_TAGES1_SaIS1_ENSt8__detail9_IdentityESt8equal_toIS1_ESt4hashIS1_ENS3_18_Mod_range_hashingENS3_20_Default_ranged_hashENS3_20_Prime_rehash_policyENS3_17_Hashtable_traitsILb1ELb1ELb1EEEE9_M_rehashEmRKm
   [  898]   .rela.gcc_except_table._ZNSt10_HashtableIN5dwarf6DW_TAGES1_SaIS1_ENSt8__detail9_IdentityESt8equal_toIS1_ESt4hashIS1_ENS3_18_Mod_range_hashingENS3_20_Default_ranged_hashENS3_20_Prime_rehash_policyENS3_17_Hashtable_traitsILb1ELb1ELb1EEEE9_M_rehashEmRKm

COMDAT group section [  299] `.group' [_ZNKSt8__detail15_Hash_code_baseIN5dwarf6DW_TAGES2_NS_9_IdentityESt4hashIS2_ENS_18_Mod_range_hashingENS_20_Default_ranged_hashELb1EE13_M_store_codeERNS_21_Hash_node_code_cacheILb1EEEm] contains 1 sections:
   [Index]    Name
   [  899]   .text._ZNKSt8__detail15_Hash_code_baseIN5dwarf6DW_TAGES2_NS_9_IdentityESt4hashIS2_ENS_18_Mod_range_hashingENS_20_Default_ranged_hashELb1EE13_M_store_codeERNS_21_Hash_node_code_cacheILb1EEEm

COMDAT group section [  300] `.group' [_ZNSt10_HashtableIN5dwarf6DW_TAGES1_SaIS1_ENSt8__detail9_IdentityESt8equal_toIS1_ESt4hashIS1_ENS3_18_Mod_range_hashingENS3_20_Default_ranged_hashENS3_20_Prime_rehash_policyENS3_17_Hashtable_traitsILb1ELb1ELb1EEEE22_M_insert_bucket_beginEmPNS3_10_Hash_nodeIS1_Lb1EEE] contains 2 sections:
   [Index]    Name
   [  900]   .text._ZNSt10_HashtableIN5dwarf6DW_TAGES1_SaIS1_ENSt8__detail9_IdentityESt8equal_toIS1_ESt4hashIS1_ENS3_18_Mod_range_hashingENS3_20_Default_ranged_hashENS3_20_Prime_rehash_policyENS3_17_Hashtable_traitsILb1ELb1ELb1EEEE22_M_insert_bucket_beginEmPNS3_10_Hash
   [  901]   .rela.text._ZNSt10_HashtableIN5dwarf6DW_TAGES1_SaIS1_ENSt8__detail9_IdentityESt8equal_toIS1_ESt4hashIS1_ENS3_18_Mod_range_hashingENS3_20_Default_ranged_hashENS3_20_Prime_rehash_policyENS3_17_Hashtable_traitsILb1ELb1ELb1EEEE22_M_insert_bucket_beginEmPNS3_10

COMDAT group section [  301] `.group' [_ZSt11__addressofINSt8__detail10_Hash_nodeIN5dwarf6DW_TAGELb1EEEEPT_RS5_] contains 1 sections:
   [Index]    Name
   [  902]   .text._ZSt11__addressofINSt8__detail10_Hash_nodeIN5dwarf6DW_TAGELb1EEEEPT_RS5_

COMDAT group section [  302] `.group' [_ZNKSt15__new_allocatorISt23_Sp_counted_ptr_inplaceIN5dwarf11die_str_map4implESaIvELN9__gnu_cxx12_Lock_policyE1EEE11_M_max_sizeEv] contains 1 sections:
   [Index]    Name
   [  903]   .text._ZNKSt15__new_allocatorISt23_Sp_counted_ptr_inplaceIN5dwarf11die_str_map4implESaIvELN9__gnu_cxx12_Lock_policyE1EEE11_M_max_sizeEv

COMDAT group section [  303] `.group' [_ZNSt4pairIKPKcN5dwarf3dieEEC5IJRS2_EJLm0EEJEJEEERSt5tupleIJDpT_EERS8_IJDpT1_EESt12_Index_tupleIJXspT0_EEESH_IJXspT2_EEE] contains 2 sections:
   [Index]    Name
   [  904]   .text._ZNSt4pairIKPKcN5dwarf3dieEEC2IJRS2_EJLm0EEJEJEEERSt5tupleIJDpT_EERS8_IJDpT1_EESt12_Index_tupleIJXspT0_EEESH_IJXspT2_EEE
   [  905]   .rela.text._ZNSt4pairIKPKcN5dwarf3dieEEC2IJRS2_EJLm0EEJEJEEERSt5tupleIJDpT_EERS8_IJDpT1_EESt12_Index_tupleIJXspT0_EEESH_IJXspT2_EEE

COMDAT group section [  304] `.group' [_ZSt7forwardIRKSt4hashIN5dwarf6DW_TAGEEEOT_RNSt16remove_referenceIS6_E4typeE] contains 1 sections:
   [Index]    Name
   [  906]   .text._ZSt7forwardIRKSt4hashIN5dwarf6DW_TAGEEEOT_RNSt16remove_referenceIS6_E4typeE

COMDAT group section [  305] `.group' [_ZNSt15__new_allocatorINSt8__detail10_Hash_nodeIN5dwarf6DW_TAGELb1EEEEC5ERKS5_] contains 1 sections:
   [Index]    Name
   [  907]   .text._ZNSt15__new_allocatorINSt8__detail10_Hash_nodeIN5dwarf6DW_TAGELb1EEEEC2ERKS5_

COMDAT group section [  306] `.group' [_ZNKSt15__new_allocatorIPNSt8__detail15_Hash_node_baseEE11_M_max_sizeEv] contains 1 sections:
   [Index]    Name
   [  908]   .text._ZNKSt15__new_allocatorIPNSt8__detail15_Hash_node_baseEE11_M_max_sizeEv

COMDAT group section [  307] `.group' [_ZNKSt8__detail15_Hashtable_baseIN5dwarf6DW_TAGES2_NS_9_IdentityESt8equal_toIS2_ESt4hashIS2_ENS_18_Mod_range_hashingENS_20_Default_ranged_hashENS_17_Hashtable_traitsILb1ELb1ELb1EEEE12_M_equals_trIS2_EEbRKT_mRKNS_16_Hash_node_valueIS2_Lb1EEE] contains 2 sections:
   [Index]    Name
   [  909]   .text._ZNKSt8__detail15_Hashtable_baseIN5dwarf6DW_TAGES2_NS_9_IdentityESt8equal_toIS2_ESt4hashIS2_ENS_18_Mod_range_hashingENS_20_Default_ranged_hashENS_17_Hashtable_traitsILb1ELb1ELb1EEEE12_M_equals_trIS2_EEbRKT_mRKNS_16_Hash_node_valueIS2_Lb1EEE
   [  910]   .rela.text._ZNKSt8__detail15_Hashtable_baseIN5dwarf6DW_TAGES2_NS_9_IdentityESt8equal_toIS2_ESt4hashIS2_ENS_18_Mod_range_hashingENS_20_Default_ranged_hashENS_17_Hashtable_traitsILb1ELb1ELb1EEEE12_M_equals_trIS2_EEbRKT_mRKNS_16_Hash_node_valueIS2_Lb1EEE

COMDAT group section [  308] `.group' [_ZNSt8__detail10_Hash_nodeIN5dwarf6DW_TAGELb1EEC5Ev] contains 2 sections:
   [Index]    Name
   [  911]   .text._ZNSt8__detail10_Hash_nodeIN5dwarf6DW_TAGELb1EEC2Ev
   [  912]   .rela.text._ZNSt8__detail10_Hash_nodeIN5dwarf6DW_TAGELb1EEC2Ev

COMDAT group section [  309] `.group' [_ZNSt8__detail16_Hashtable_allocISaINS_10_Hash_nodeIN5dwarf6DW_TAGELb1EEEEE16_M_allocate_nodeIJRKS3_EEEPS4_DpOT_] contains 2 sections:
   [Index]    Name
   [  913]   .text._ZNSt8__detail16_Hashtable_allocISaINS_10_Hash_nodeIN5dwarf6DW_TAGELb1EEEEE16_M_allocate_nodeIJRKS3_EEEPS4_DpOT_
   [  914]   .rela.text._ZNSt8__detail16_Hashtable_allocISaINS_10_Hash_nodeIN5dwarf6DW_TAGELb1EEEEE16_M_allocate_nodeIJRKS3_EEEPS4_DpOT_

COMDAT group section [  310] `.group' [_ZNSt10_HashtableIN5dwarf6DW_TAGES1_SaIS1_ENSt8__detail9_IdentityESt8equal_toIS1_ESt4hashIS1_ENS3_18_Mod_range_hashingENS3_20_Default_ranged_hashENS3_20_Prime_rehash_policyENS3_17_Hashtable_traitsILb1ELb1ELb1EEEE13_M_rehash_auxEmSt17integral_constantIbLb1EE] contains 2 sections:
   [Index]    Name
   [  915]   .text._ZNSt10_HashtableIN5dwarf6DW_TAGES1_SaIS1_ENSt8__detail9_IdentityESt8equal_toIS1_ESt4hashIS1_ENS3_18_Mod_range_hashingENS3_20_Default_ranged_hashENS3_20_Prime_rehash_policyENS3_17_Hashtable_traitsILb1ELb1ELb1EEEE13_M_rehash_auxEmSt17integral_constant
   [  916]   .rela.text._ZNSt10_HashtableIN5dwarf6DW_TAGES1_SaIS1_ENSt8__detail9_IdentityESt8equal_toIS1_ESt4hashIS1_ENS3_18_Mod_range_hashingENS3_20_Default_ranged_hashENS3_20_Prime_rehash_policyENS3_17_Hashtable_traitsILb1ELb1ELb1EEEE13_M_rehash_auxEmSt17integral_con

COMDAT group section [  311] `.group' [_ZSt3getILm0EJRKPKcEERNSt13tuple_elementIXT_ESt5tupleIJDpT0_EEE4typeERS8_] contains 2 sections:
   [Index]    Name
   [  917]   .text._ZSt3getILm0EJRKPKcEERNSt13tuple_elementIXT_ESt5tupleIJDpT0_EEE4typeERS8_
   [  918]   .rela.text._ZSt3getILm0EJRKPKcEERNSt13tuple_elementIXT_ESt5tupleIJDpT0_EEE4typeERS8_

COMDAT group section [  312] `.group' [_ZSt7forwardIRKPKcEOT_RNSt16remove_referenceIS4_E4typeE] contains 1 sections:
   [Index]    Name
   [  919]   .text._ZSt7forwardIRKPKcEOT_RNSt16remove_referenceIS4_E4typeE

COMDAT group section [  313] `.group' [_ZNSt16allocator_traitsISaINSt8__detail10_Hash_nodeIN5dwarf6DW_TAGELb1EEEEE8allocateERS5_m] contains 2 sections:
   [Index]    Name
   [  920]   .text._ZNSt16allocator_traitsISaINSt8__detail10_Hash_nodeIN5dwarf6DW_TAGELb1EEEEE8allocateERS5_m
   [  921]   .rela.text._ZNSt16allocator_traitsISaINSt8__detail10_Hash_nodeIN5dwarf6DW_TAGELb1EEEEE8allocateERS5_m

COMDAT group section [  314] `.group' [_ZSt12__to_addressINSt8__detail10_Hash_nodeIN5dwarf6DW_TAGELb1EEEEPT_S6_] contains 1 sections:
   [Index]    Name
   [  922]   .text._ZSt12__to_addressINSt8__detail10_Hash_nodeIN5dwarf6DW_TAGELb1EEEEPT_S6_

COMDAT group section [  315] `.group' [_ZNSt16allocator_traitsISaINSt8__detail10_Hash_nodeIN5dwarf6DW_TAGELb1EEEEE9constructIS3_JRKS3_EEEvRS5_PT_DpOT0_] contains 2 sections:
   [Index]    Name
   [  923]   .text._ZNSt16allocator_traitsISaINSt8__detail10_Hash_nodeIN5dwarf6DW_TAGELb1EEEEE9constructIS3_JRKS3_EEEvRS5_PT_DpOT0_
   [  924]   .rela.text._ZNSt16allocator_traitsISaINSt8__detail10_Hash_nodeIN5dwarf6DW_TAGELb1EEEEE9constructIS3_JRKS3_EEEvRS5_PT_DpOT0_

COMDAT group section [  316] `.group' [_ZSt12__get_helperILm0ERKPKcJEERT0_RSt11_Tuple_implIXT_EJS4_DpT1_EE] contains 2 sections:
   [Index]    Name
   [  925]   .text._ZSt12__get_helperILm0ERKPKcJEERT0_RSt11_Tuple_implIXT_EJS4_DpT1_EE
   [  926]   .rela.text._ZSt12__get_helperILm0ERKPKcJEERT0_RSt11_Tuple_implIXT_EJS4_DpT1_EE

COMDAT group section [  317] `.group' [_ZNSt15__new_allocatorINSt8__detail10_Hash_nodeIN5dwarf6DW_TAGELb1EEEE8allocateEmPKv] contains 2 sections:
   [Index]    Name
   [  927]   .text._ZNSt15__new_allocatorINSt8__detail10_Hash_nodeIN5dwarf6DW_TAGELb1EEEE8allocateEmPKv
   [  928]   .rela.text._ZNSt15__new_allocatorINSt8__detail10_Hash_nodeIN5dwarf6DW_TAGELb1EEEE8allocateEmPKv

COMDAT group section [  318] `.group' [_ZNSt15__new_allocatorINSt8__detail10_Hash_nodeIN5dwarf6DW_TAGELb1EEEE9constructIS3_JRKS3_EEEvPT_DpOT0_] contains 2 sections:
   [Index]    Name
   [  929]   .text._ZNSt15__new_allocatorINSt8__detail10_Hash_nodeIN5dwarf6DW_TAGELb1EEEE9constructIS3_JRKS3_EEEvPT_DpOT0_
   [  930]   .rela.text._ZNSt15__new_allocatorINSt8__detail10_Hash_nodeIN5dwarf6DW_TAGELb1EEEE9constructIS3_JRKS3_EEEvPT_DpOT0_

COMDAT group section [  319] `.group' [_ZNSt11_Tuple_implILm0EJRKPKcEE7_M_headERS4_] contains 2 sections:
   [Index]    Name
   [  931]   .text._ZNSt11_Tuple_implILm0EJRKPKcEE7_M_headERS4_
   [  932]   .rela.text._ZNSt11_Tuple_implILm0EJRKPKcEE7_M_headERS4_

COMDAT group section [  320] `.group' [_ZNKSt15__new_allocatorINSt8__detail10_Hash_nodeIN5dwarf6DW_TAGELb1EEEE11_M_max_sizeEv] contains 2 sections:
   [Index]    Name
   [  933]   .text._ZNKSt15__new_allocatorINSt8__detail10_Hash_nodeIN5dwarf6DW_TAGELb1EEEE11_M_max_sizeEv
   [  934]   .rela.text._ZNKSt15__new_allocatorINSt8__detail10_Hash_nodeIN5dwarf6DW_TAGELb1EEEE11_M_max_sizeEv

COMDAT group section [  321] `.group' [_ZNSt10_Head_baseILm0ERKPKcLb0EE7_M_headERS4_] contains 1 sections:
   [Index]    Name
   [  935]   .text._ZNSt10_Head_baseILm0ERKPKcLb0EE7_M_headERS4_

COMDAT group section [  322] `.group' [_ZTVSt23_Sp_counted_ptr_inplaceIN5dwarf11die_str_map4implESaIvELN9__gnu_cxx12_Lock_policyE1EE] contains 2 sections:
   [Index]    Name
   [  936]   .data.rel.ro._ZTVSt23_Sp_counted_ptr_inplaceIN5dwarf11die_str_map4implESaIvELN9__gnu_cxx12_Lock_policyE1EE
   [  937]   .rela.data.rel.ro._ZTVSt23_Sp_counted_ptr_inplaceIN5dwarf11die_str_map4implESaIvELN9__gnu_cxx12_Lock_policyE1EE

COMDAT group section [  323] `.group' [_ZTVSt16_Sp_counted_baseILN9__gnu_cxx12_Lock_policyE1EE] contains 2 sections:
   [Index]    Name
   [  938]   .data.rel.ro._ZTVSt16_Sp_counted_baseILN9__gnu_cxx12_Lock_policyE1EE
   [  939]   .rela.data.rel.ro._ZTVSt16_Sp_counted_baseILN9__gnu_cxx12_Lock_policyE1EE

COMDAT group section [  324] `.group' [_ZTISt23_Sp_counted_ptr_inplaceIN5dwarf11die_str_map4implESaIvELN9__gnu_cxx12_Lock_policyE1EE] contains 2 sections:
   [Index]    Name
   [  940]   .data.rel.ro._ZTISt23_Sp_counted_ptr_inplaceIN5dwarf11die_str_map4implESaIvELN9__gnu_cxx12_Lock_policyE1EE
   [  941]   .rela.data.rel.ro._ZTISt23_Sp_counted_ptr_inplaceIN5dwarf11die_str_map4implESaIvELN9__gnu_cxx12_Lock_policyE1EE

COMDAT group section [  325] `.group' [_ZTSSt23_Sp_counted_ptr_inplaceIN5dwarf11die_str_map4implESaIvELN9__gnu_cxx12_Lock_policyE1EE] contains 1 sections:
   [Index]    Name
   [  942]   .rodata._ZTSSt23_Sp_counted_ptr_inplaceIN5dwarf11die_str_map4implESaIvELN9__gnu_cxx12_Lock_policyE1EE

COMDAT group section [  326] `.group' [_ZTISt16_Sp_counted_baseILN9__gnu_cxx12_Lock_policyE1EE] contains 2 sections:
   [Index]    Name
   [  943]   .data.rel.ro._ZTISt16_Sp_counted_baseILN9__gnu_cxx12_Lock_policyE1EE
   [  944]   .rela.data.rel.ro._ZTISt16_Sp_counted_baseILN9__gnu_cxx12_Lock_policyE1EE

COMDAT group section [  327] `.group' [_ZTSSt16_Sp_counted_baseILN9__gnu_cxx12_Lock_policyE1EE] contains 1 sections:
   [Index]    Name
   [  945]   .rodata._ZTSSt16_Sp_counted_baseILN9__gnu_cxx12_Lock_policyE1EE

COMDAT group section [  328] `.group' [_ZNSt23_Sp_counted_ptr_inplaceIN5dwarf11die_str_map4implESaIvELN9__gnu_cxx12_Lock_policyE1EED5Ev] contains 4 sections:
   [Index]    Name
   [  946]   .text._ZNSt23_Sp_counted_ptr_inplaceIN5dwarf11die_str_map4implESaIvELN9__gnu_cxx12_Lock_policyE1EED2Ev
   [  947]   .rela.text._ZNSt23_Sp_counted_ptr_inplaceIN5dwarf11die_str_map4implESaIvELN9__gnu_cxx12_Lock_policyE1EED2Ev
   [  948]   .text._ZNSt23_Sp_counted_ptr_inplaceIN5dwarf11die_str_map4implESaIvELN9__gnu_cxx12_Lock_policyE1EED0Ev
   [  949]   .rela.text._ZNSt23_Sp_counted_ptr_inplaceIN5dwarf11die_str_map4implESaIvELN9__gnu_cxx12_Lock_policyE1EED0Ev

COMDAT group section [  329] `.group' [_ZNSt23_Sp_counted_ptr_inplaceIN5dwarf11die_str_map4implESaIvELN9__gnu_cxx12_Lock_policyE1EE10_M_disposeEv] contains 2 sections:
   [Index]    Name
   [  950]   .text._ZNSt23_Sp_counted_ptr_inplaceIN5dwarf11die_str_map4implESaIvELN9__gnu_cxx12_Lock_policyE1EE10_M_disposeEv
   [  951]   .rela.text._ZNSt23_Sp_counted_ptr_inplaceIN5dwarf11die_str_map4implESaIvELN9__gnu_cxx12_Lock_policyE1EE10_M_disposeEv

COMDAT group section [  330] `.group' [_ZNSt23_Sp_counted_ptr_inplaceIN5dwarf11die_str_map4implESaIvELN9__gnu_cxx12_Lock_policyE1EE10_M_destroyEv] contains 2 sections:
   [Index]    Name
   [  952]   .text._ZNSt23_Sp_counted_ptr_inplaceIN5dwarf11die_str_map4implESaIvELN9__gnu_cxx12_Lock_policyE1EE10_M_destroyEv
   [  953]   .rela.text._ZNSt23_Sp_counted_ptr_inplaceIN5dwarf11die_str_map4implESaIvELN9__gnu_cxx12_Lock_policyE1EE10_M_destroyEv

COMDAT group section [  331] `.group' [_ZNSt23_Sp_counted_ptr_inplaceIN5dwarf11die_str_map4implESaIvELN9__gnu_cxx12_Lock_policyE1EE14_M_get_deleterERKSt9type_info] contains 2 sections:
   [Index]    Name
   [  954]   .text._ZNSt23_Sp_counted_ptr_inplaceIN5dwarf11die_str_map4implESaIvELN9__gnu_cxx12_Lock_policyE1EE14_M_get_deleterERKSt9type_info
   [  955]   .rela.text._ZNSt23_Sp_counted_ptr_inplaceIN5dwarf11die_str_map4implESaIvELN9__gnu_cxx12_Lock_policyE1EE14_M_get_deleterERKSt9type_info

COMDAT group section [  332] `.group' [_ZNSt23_Sp_counted_ptr_inplaceIN5dwarf11die_str_map4implESaIvELN9__gnu_cxx12_Lock_policyE1EE5_Impl8_M_allocEv] contains 2 sections:
   [Index]    Name
   [  956]   .text._ZNSt23_Sp_counted_ptr_inplaceIN5dwarf11die_str_map4implESaIvELN9__gnu_cxx12_Lock_policyE1EE5_Impl8_M_allocEv
   [  957]   .rela.text._ZNSt23_Sp_counted_ptr_inplaceIN5dwarf11die_str_map4implESaIvELN9__gnu_cxx12_Lock_policyE1EE5_Impl8_M_allocEv

COMDAT group section [  333] `.group' [_ZNSt16allocator_traitsISaIvEE7destroyIN5dwarf11die_str_map4implEEEvRS0_PT_] contains 2 sections:
   [Index]    Name
   [  958]   .text._ZNSt16allocator_traitsISaIvEE7destroyIN5dwarf11die_str_map4implEEEvRS0_PT_
   [  959]   .rela.text._ZNSt16allocator_traitsISaIvEE7destroyIN5dwarf11die_str_map4implEEEvRS0_PT_

COMDAT group section [  334] `.group' [_ZNSt14_Sp_ebo_helperILi0ESaIvELb1EE6_S_getERS1_] contains 1 sections:
   [Index]    Name
   [  960]   .text._ZNSt14_Sp_ebo_helperILi0ESaIvELb1EE6_S_getERS1_

COMDAT group section [  335] `.group' [_ZN5dwarf11die_str_map4implD5Ev] contains 2 sections:
   [Index]    Name
   [  961]   .text._ZN5dwarf11die_str_map4implD2Ev
   [  962]   .rela.text._ZN5dwarf11die_str_map4implD2Ev

COMDAT group section [  336] `.group' [_ZSt8_DestroyIN5dwarf11die_str_map4implEEvPT_] contains 2 sections:
   [Index]    Name
   [  963]   .text._ZSt8_DestroyIN5dwarf11die_str_map4implEEvPT_
   [  964]   .rela.text._ZSt8_DestroyIN5dwarf11die_str_map4implEEvPT_

COMDAT group section [  337] `.group' [_ZTISt19_Sp_make_shared_tag] contains 2 sections:
   [Index]    Name
   [  965]   .data.rel.ro._ZTISt19_Sp_make_shared_tag
   [  966]   .rela.data.rel.ro._ZTISt19_Sp_make_shared_tag

COMDAT group section [  338] `.group' [_ZTSSt19_Sp_make_shared_tag] contains 1 sections:
   [Index]    Name
   [  967]   .rodata._ZTSSt19_Sp_make_shared_tag

COMDAT group section [  339] `.group' [_ZTISt11_Mutex_baseILN9__gnu_cxx12_Lock_policyE1EE] contains 2 sections:
   [Index]    Name
   [  968]   .data.rel.ro._ZTISt11_Mutex_baseILN9__gnu_cxx12_Lock_policyE1EE
   [  969]   .rela.data.rel.ro._ZTISt11_Mutex_baseILN9__gnu_cxx12_Lock_policyE1EE

COMDAT group section [  340] `.group' [_ZTSSt11_Mutex_baseILN9__gnu_cxx12_Lock_policyE1EE] contains 1 sections:
   [Index]    Name
   [  970]   .rodata._ZTSSt11_Mutex_baseILN9__gnu_cxx12_Lock_policyE1EE

COMDAT group section [  341] `.group' [_ZTIN9__gnu_cxx7__mutexE] contains 2 sections:
   [Index]    Name
   [  971]   .data.rel.ro._ZTIN9__gnu_cxx7__mutexE
   [  972]   .rela.data.rel.ro._ZTIN9__gnu_cxx7__mutexE

COMDAT group section [  342] `.group' [_ZTSN9__gnu_cxx7__mutexE] contains 1 sections:
   [Index]    Name
   [  973]   .rodata._ZTSN9__gnu_cxx7__mutexE

COMDAT group section [  343] `.group' [DW.ref.__gxx_personality_v0] contains 2 sections:
   [Index]    Name
   [  974]   .data.rel.local.DW.ref.__gxx_personality_v0
   [  975]   .rela.data.rel.local.DW.ref.__gxx_personality_v0

There are no program headers in this file.

There is no dynamic section in this file.

Relocation section '.rela.text' at offset 0x2f528 contains 99 entries:
    Offset             Info             Type               Symbol's Value  Symbol's Name + Addend
000000000000003c  00000b4e00000014 R_RISCV_GOT_HI20       0000000000000000 _ZSt11make_sharedIN5dwarf11die_str_map4implEJRKNS0_3dieERNS0_5DW_ATERKSt16initializer_listINS0_6DW_TAGEEEESt10shared_ptrINSt9enable_ifIXntsrSt8is_arrayIT_E5valueESG_E4typeEEDpOT0_ + 0
0000000000000040  000005f500000018 R_RISCV_PCREL_LO12_I   000000000000003c .L0  + 0
0000000000000040  0000000000000033 R_RISCV_RELAX                             0
0000000000000074  000005f600000017 R_RISCV_PCREL_HI20     0000000000000018 .LC0 + 0
0000000000000074  0000000000000033 R_RISCV_RELAX                             0
0000000000000078  000005f700000018 R_RISCV_PCREL_LO12_I   0000000000000074 .L0  + 0
0000000000000078  0000000000000033 R_RISCV_RELAX                             0
00000000000000f8  00000b4f00000013 R_RISCV_CALL_PLT       0000000000000000 _ZN5dwarf11die_str_mapC1ERKNS_3dieENS_5DW_ATERKSt16initializer_listINS_6DW_TAGEE + 0
00000000000000f8  0000000000000033 R_RISCV_RELAX                             0
0000000000000138  00000b5400000014 R_RISCV_GOT_HI20       0000000000000000 _ZNKSt19__shared_ptr_accessIN5dwarf11die_str_map4implELN9__gnu_cxx12_Lock_policyE1ELb0ELb0EEptEv + 0
000000000000013c  000005f800000018 R_RISCV_PCREL_LO12_I   0000000000000138 .L0  + 0
000000000000013c  0000000000000033 R_RISCV_RELAX                             0
0000000000000158  00000b5500000014 R_RISCV_GOT_HI20       0000000000000000 _ZNSt13unordered_mapIPKcN5dwarf3dieENS2_11string_hashENS2_9string_eqESaISt4pairIKS1_S3_EEE4findERS7_ + 0
000000000000015c  000005f900000018 R_RISCV_PCREL_LO12_I   0000000000000158 .L0  + 0
000000000000015c  0000000000000033 R_RISCV_RELAX                             0
0000000000000174  00000b5400000014 R_RISCV_GOT_HI20       0000000000000000 _ZNKSt19__shared_ptr_accessIN5dwarf11die_str_map4implELN9__gnu_cxx12_Lock_policyE1ELb0ELb0EEptEv + 0
0000000000000178  000005fa00000018 R_RISCV_PCREL_LO12_I   0000000000000174 .L0  + 0
0000000000000178  0000000000000033 R_RISCV_RELAX                             0
0000000000000188  00000b5600000014 R_RISCV_GOT_HI20       0000000000000000 _ZNSt13unordered_mapIPKcN5dwarf3dieENS2_11string_hashENS2_9string_eqESaISt4pairIKS1_S3_EEE3endEv + 0
000000000000018c  000005fb00000018 R_RISCV_PCREL_LO12_I   0000000000000188 .L0  + 0
000000000000018c  0000000000000033 R_RISCV_RELAX                             0
00000000000001ac  00000b5700000014 R_RISCV_GOT_HI20       0000000000000000 _ZNSt8__detailneERKNS_19_Node_iterator_baseISt4pairIKPKcN5dwarf3dieEELb1EEESA_ + 0
00000000000001b0  000005fc00000018 R_RISCV_PCREL_LO12_I   00000000000001ac .L0  + 0
00000000000001b0  0000000000000033 R_RISCV_RELAX                             0
00000000000001bc  0000060f00000010 R_RISCV_BRANCH         00000000000003f4 .L77 + 0
00000000000001c8  00000b5800000014 R_RISCV_GOT_HI20       0000000000000000 _ZNKSt8__detail14_Node_iteratorISt4pairIKPKcN5dwarf3dieEELb0ELb1EEptEv + 0
00000000000001cc  000005fd00000018 R_RISCV_PCREL_LO12_I   00000000000001c8 .L0  + 0
00000000000001cc  0000000000000033 R_RISCV_RELAX                             0
00000000000001dc  0000061000000011 R_RISCV_JAL            0000000000000464 .L87 + 0
00000000000001e8  00000b5400000014 R_RISCV_GOT_HI20       0000000000000000 _ZNKSt19__shared_ptr_accessIN5dwarf11die_str_map4implELN9__gnu_cxx12_Lock_policyE1ELb0ELb0EEptEv + 0
00000000000001ec  000005fe00000018 R_RISCV_PCREL_LO12_I   00000000000001e8 .L0  + 0
00000000000001ec  0000000000000033 R_RISCV_RELAX                             0
0000000000000200  00000b1500000014 R_RISCV_GOT_HI20       0000000000000000 _ZNK5dwarf3die8iteratordeEv + 0
0000000000000204  000005ff00000018 R_RISCV_PCREL_LO12_I   0000000000000200 .L0  + 0
0000000000000204  0000000000000033 R_RISCV_RELAX                             0
0000000000000218  00000b5400000014 R_RISCV_GOT_HI20       0000000000000000 _ZNKSt19__shared_ptr_accessIN5dwarf11die_str_map4implELN9__gnu_cxx12_Lock_policyE1ELb0ELb0EEptEv + 0
000000000000021c  0000060000000018 R_RISCV_PCREL_LO12_I   0000000000000218 .L0  + 0
000000000000021c  0000000000000033 R_RISCV_RELAX                             0
0000000000000230  00000b5900000013 R_RISCV_CALL_PLT       0000000000000000 _ZN5dwarf3die8iteratorppEv + 0
0000000000000230  0000000000000033 R_RISCV_RELAX                             0
0000000000000240  00000b5400000014 R_RISCV_GOT_HI20       0000000000000000 _ZNKSt19__shared_ptr_accessIN5dwarf11die_str_map4implELN9__gnu_cxx12_Lock_policyE1ELb0ELb0EEptEv + 0
0000000000000244  0000060100000018 R_RISCV_PCREL_LO12_I   0000000000000240 .L0  + 0
0000000000000244  0000000000000033 R_RISCV_RELAX                             0
0000000000000260  00000b5a00000014 R_RISCV_GOT_HI20       0000000000000000 _ZNKSt13unordered_setIN5dwarf6DW_TAGESt4hashIS1_ESt8equal_toIS1_ESaIS1_EE5countERKS1_ + 0
0000000000000264  0000060200000018 R_RISCV_PCREL_LO12_I   0000000000000260 .L0  + 0
0000000000000264  0000000000000033 R_RISCV_RELAX                             0
0000000000000270  0000061100000010 R_RISCV_BRANCH         00000000000002b0 .L78 + 0
000000000000027c  00000b5400000014 R_RISCV_GOT_HI20       0000000000000000 _ZNKSt19__shared_ptr_accessIN5dwarf11die_str_map4implELN9__gnu_cxx12_Lock_policyE1ELb0ELb0EEptEv + 0
0000000000000280  0000060300000018 R_RISCV_PCREL_LO12_I   000000000000027c .L0  + 0
0000000000000280  0000000000000033 R_RISCV_RELAX                             0
0000000000000298  00000b5b00000013 R_RISCV_CALL_PLT       0000000000000000 _ZNK5dwarf3die3hasENS_5DW_ATE + 0
0000000000000298  0000000000000033 R_RISCV_RELAX                             0
00000000000002ac  0000061200000010 R_RISCV_BRANCH         00000000000002b8 .L79 + 0
00000000000002b4  0000061300000011 R_RISCV_JAL            00000000000002bc .L80 + 0
00000000000002bc  0000061400000010 R_RISCV_BRANCH         00000000000003e8 .L88 + 0
00000000000002c8  00000b5400000014 R_RISCV_GOT_HI20       0000000000000000 _ZNKSt19__shared_ptr_accessIN5dwarf11die_str_map4implELN9__gnu_cxx12_Lock_policyE1ELb0ELb0EEptEv + 0
00000000000002cc  0000060400000018 R_RISCV_PCREL_LO12_I   00000000000002c8 .L0  + 0
00000000000002cc  0000000000000033 R_RISCV_RELAX                             0
00000000000002ec  00000b5c00000013 R_RISCV_CALL_PLT       0000000000000000 _ZNK5dwarf3dieixENS_5DW_ATE + 0
00000000000002ec  0000000000000033 R_RISCV_RELAX                             0
00000000000002fc  00000b1f00000014 R_RISCV_GOT_HI20       0000000000000000 _ZNK5dwarf5value8get_typeEv + 0
0000000000000300  0000060500000018 R_RISCV_PCREL_LO12_I   00000000000002fc .L0  + 0
0000000000000300  0000000000000033 R_RISCV_RELAX                             0
0000000000000320  0000061500000010 R_RISCV_BRANCH         00000000000003f0 .L89 + 0
0000000000000330  00000b5d00000013 R_RISCV_CALL_PLT       0000000000000000 _ZNK5dwarf5value7as_cstrEPm + 0
0000000000000330  0000000000000033 R_RISCV_RELAX                             0
0000000000000348  00000b5400000014 R_RISCV_GOT_HI20       0000000000000000 _ZNKSt19__shared_ptr_accessIN5dwarf11die_str_map4implELN9__gnu_cxx12_Lock_policyE1ELb0ELb0EEptEv + 0
000000000000034c  0000060600000018 R_RISCV_PCREL_LO12_I   0000000000000348 .L0  + 0
000000000000034c  0000000000000033 R_RISCV_RELAX                             0
0000000000000368  00000b5e00000014 R_RISCV_GOT_HI20       0000000000000000 _ZNSt13unordered_mapIPKcN5dwarf3dieENS2_11string_hashENS2_9string_eqESaISt4pairIKS1_S3_EEEixERS7_ + 0
000000000000036c  0000060700000018 R_RISCV_PCREL_LO12_I   0000000000000368 .L0  + 0
000000000000036c  0000000000000033 R_RISCV_RELAX                             0
0000000000000380  00000b5100000014 R_RISCV_GOT_HI20       0000000000000000 _ZN5dwarf3dieaSERKS0_ + 0
0000000000000384  0000060800000018 R_RISCV_PCREL_LO12_I   0000000000000380 .L0  + 0
0000000000000384  0000000000000033 R_RISCV_RELAX                             0
000000000000039c  00000b0d00000013 R_RISCV_CALL_PLT       0000000000000000 strcmp + 0
000000000000039c  0000000000000033 R_RISCV_RELAX                             0
00000000000003a8  0000060f00000010 R_RISCV_BRANCH         00000000000003f4 .L77 + 0
00000000000003b4  00000b5400000014 R_RISCV_GOT_HI20       0000000000000000 _ZNKSt19__shared_ptr_accessIN5dwarf11die_str_map4implELN9__gnu_cxx12_Lock_policyE1ELb0ELb0EEptEv + 0
00000000000003b8  0000060900000018 R_RISCV_PCREL_LO12_I   00000000000003b4 .L0  + 0
00000000000003b8  0000000000000033 R_RISCV_RELAX                             0
00000000000003d4  00000b5e00000014 R_RISCV_GOT_HI20       0000000000000000 _ZNSt13unordered_mapIPKcN5dwarf3dieENS2_11string_hashENS2_9string_eqESaISt4pairIKS1_S3_EEEixERS7_ + 0
00000000000003d8  0000060a00000018 R_RISCV_PCREL_LO12_I   00000000000003d4 .L0  + 0
00000000000003d8  0000000000000033 R_RISCV_RELAX                             0
00000000000003e4  0000061000000011 R_RISCV_JAL            0000000000000464 .L87 + 0
00000000000003ec  0000060f00000011 R_RISCV_JAL            00000000000003f4 .L77 + 0
00000000000003fc  00000b5400000014 R_RISCV_GOT_HI20       0000000000000000 _ZNKSt19__shared_ptr_accessIN5dwarf11die_str_map4implELN9__gnu_cxx12_Lock_policyE1ELb0ELb0EEptEv + 0
0000000000000400  0000060b00000018 R_RISCV_PCREL_LO12_I   00000000000003fc .L0  + 0
0000000000000400  0000000000000033 R_RISCV_RELAX                             0
0000000000000418  00000b5400000014 R_RISCV_GOT_HI20       0000000000000000 _ZNKSt19__shared_ptr_accessIN5dwarf11die_str_map4implELN9__gnu_cxx12_Lock_policyE1ELb0ELb0EEptEv + 0
000000000000041c  0000060c00000018 R_RISCV_PCREL_LO12_I   0000000000000418 .L0  + 0
000000000000041c  0000000000000033 R_RISCV_RELAX                             0
0000000000000434  00000b1600000014 R_RISCV_GOT_HI20       0000000000000000 _ZNK5dwarf3die8iteratorneERKS1_ + 0
0000000000000438  0000060d00000018 R_RISCV_PCREL_LO12_I   0000000000000434 .L0  + 0
0000000000000438  0000000000000033 R_RISCV_RELAX                             0
0000000000000444  0000061600000010 R_RISCV_BRANCH         00000000000001e0 .L86 + 0
0000000000000450  00000b5400000014 R_RISCV_GOT_HI20       0000000000000000 _ZNKSt19__shared_ptr_accessIN5dwarf11die_str_map4implELN9__gnu_cxx12_Lock_policyE1ELb0ELb0EEptEv + 0
0000000000000454  0000060e00000018 R_RISCV_PCREL_LO12_I   0000000000000450 .L0  + 0
0000000000000454  0000000000000033 R_RISCV_RELAX                             0

Relocation section '.rela.text._ZNKSt9type_info4nameEv' at offset 0x2fe70 contains 2 entries:
    Offset             Info             Type               Symbol's Value  Symbol's Name + Addend
0000000000000024  0000061700000010 R_RISCV_BRANCH         0000000000000038 .L7 + 0
0000000000000034  0000061800000011 R_RISCV_JAL            0000000000000040 .L9 + 0

Relocation section '.rela.text._ZNKSt9type_infoeqERKS_' at offset 0x2fea0 contains 15 entries:
    Offset             Info             Type               Symbol's Value  Symbol's Name + Addend
000000000000001c  00000b0800000014 R_RISCV_GOT_HI20       0000000000000000 _ZSt23__is_constant_evaluatedv + 0
0000000000000020  0000061900000018 R_RISCV_PCREL_LO12_I   000000000000001c .L0  + 0
0000000000000020  0000000000000033 R_RISCV_RELAX                             0
000000000000002c  0000061b00000010 R_RISCV_BRANCH         0000000000000048 .L11 + 0
0000000000000044  0000061c00000011 R_RISCV_JAL            00000000000000c0 .L12 + 0
0000000000000058  0000061d00000010 R_RISCV_BRANCH         0000000000000064 .L13 + 0
0000000000000060  0000061c00000011 R_RISCV_JAL            00000000000000c0 .L12 + 0
0000000000000078  0000061e00000010 R_RISCV_BRANCH         00000000000000b8 .L14 + 0
0000000000000088  00000b0b00000014 R_RISCV_GOT_HI20       0000000000000000 _ZNKSt9type_info4nameEv + 0
000000000000008c  0000061a00000018 R_RISCV_PCREL_LO12_I   0000000000000088 .L0  + 0
000000000000008c  0000000000000033 R_RISCV_RELAX                             0
00000000000000a0  00000b0d00000013 R_RISCV_CALL_PLT       0000000000000000 strcmp + 0
00000000000000a0  0000000000000033 R_RISCV_RELAX                             0
00000000000000ac  0000061e00000010 R_RISCV_BRANCH         00000000000000b8 .L14 + 0
00000000000000b4  0000061f00000011 R_RISCV_JAL            00000000000000bc .L16 + 0

Relocation section '.rela.text._ZNSt19_Sp_make_shared_tag5_S_tiEv' at offset 0x30008 contains 3 entries:
    Offset             Info             Type               Symbol's Value  Symbol's Name + Addend
000000000000000c  00000b1000000014 R_RISCV_GOT_HI20       0000000000000000 _ZZNSt19_Sp_make_shared_tag5_S_tiEvE5__tag + 0
0000000000000010  0000062000000018 R_RISCV_PCREL_LO12_I   000000000000000c .L0  + 0
0000000000000010  0000000000000033 R_RISCV_RELAX                             0

Relocation section '.rela.text._ZN5dwarf3dieC2Ev' at offset 0x30050 contains 3 entries:
    Offset             Info             Type               Symbol's Value  Symbol's Name + Addend
0000000000000030  00000b1300000014 R_RISCV_GOT_HI20       0000000000000000 _ZN5dwarf12small_vectorImLj6EEC1Ev + 0
0000000000000034  0000062100000018 R_RISCV_PCREL_LO12_I   0000000000000030 .L0  + 0
0000000000000034  0000000000000033 R_RISCV_RELAX                             0

Relocation section '.rela.text._ZNK5dwarf3die8iteratorneERKS1_' at offset 0x30098 contains 7 entries:
    Offset             Info             Type               Symbol's Value  Symbol's Name + Addend
0000000000000024  0000062200000010 R_RISCV_BRANCH         0000000000000030 .L24 + 0
000000000000002c  0000062300000011 R_RISCV_JAL            000000000000007c .L25 + 0
0000000000000038  0000062400000010 R_RISCV_BRANCH         0000000000000044 .L26 + 0
0000000000000040  0000062300000011 R_RISCV_JAL            000000000000007c .L25 + 0
0000000000000054  0000062500000010 R_RISCV_BRANCH         000000000000006c .L27 + 0
0000000000000068  0000062600000010 R_RISCV_BRANCH         0000000000000074 .L28 + 0
0000000000000070  0000062700000011 R_RISCV_JAL            0000000000000078 .L30 + 0

Relocation section '.rela.text._ZN5dwarf3dieD2Ev' at offset 0x30140 contains 3 entries:
    Offset             Info             Type               Symbol's Value  Symbol's Name + Addend
0000000000000020  00000b1800000014 R_RISCV_GOT_HI20       0000000000000000 _ZN5dwarf12small_vectorImLj6EED1Ev + 0
0000000000000024  0000062800000018 R_RISCV_PCREL_LO12_I   0000000000000020 .L0  + 0
0000000000000024  0000000000000033 R_RISCV_RELAX                             0

Relocation section '.rela.text._ZN5dwarf3die8iteratorC2Ev' at offset 0x30188 contains 3 entries:
    Offset             Info             Type               Symbol's Value  Symbol's Name + Addend
000000000000001c  00000b1400000014 R_RISCV_GOT_HI20       0000000000000000 _ZN5dwarf3dieC1Ev + 0
0000000000000020  0000062900000018 R_RISCV_PCREL_LO12_I   000000000000001c .L0  + 0
0000000000000020  0000000000000033 R_RISCV_RELAX                             0

Relocation section '.rela.text._ZN5dwarf3die8iteratorD2Ev' at offset 0x301d0 contains 3 entries:
    Offset             Info             Type               Symbol's Value  Symbol's Name + Addend
000000000000001c  00000b1900000014 R_RISCV_GOT_HI20       0000000000000000 _ZN5dwarf3dieD1Ev + 0
0000000000000020  0000062a00000018 R_RISCV_PCREL_LO12_I   000000000000001c .L0  + 0
0000000000000020  0000000000000033 R_RISCV_RELAX                             0

Relocation section '.rela.text._ZNK5dwarf3die3endEv' at offset 0x30218 contains 3 entries:
    Offset             Info             Type               Symbol's Value  Symbol's Name + Addend
0000000000000058  00000b1b00000014 R_RISCV_GOT_HI20       0000000000000000 _ZN5dwarf3die8iteratorC1Ev + 0
000000000000005c  0000062b00000018 R_RISCV_PCREL_LO12_I   0000000000000058 .L0  + 0
000000000000005c  0000000000000033 R_RISCV_RELAX                             0

Relocation section '.rela.text._ZNK5dwarf11string_hashclEPKc' at offset 0x30260 contains 2 entries:
    Offset             Info             Type               Symbol's Value  Symbol's Name + Addend
0000000000000018  0000062c00000011 R_RISCV_JAL            0000000000000050 .L48 + 0
0000000000000058  0000062d00000010 R_RISCV_BRANCH         000000000000001c .L49 + 0

Relocation section '.rela.text._ZNK5dwarf9string_eqclEPKcS2_' at offset 0x30290 contains 2 entries:
    Offset             Info             Type               Symbol's Value  Symbol's Name + Addend
0000000000000024  00000b0d00000013 R_RISCV_CALL_PLT       0000000000000000 strcmp + 0
0000000000000024  0000000000000033 R_RISCV_RELAX                             0

Relocation section '.rela.text._ZNSt8__detail15_Hash_code_baseIPKcSt4pairIKS2_N5dwarf3dieEENS_10_Select1stENS5_11string_hashENS_18_Mod_range_hashingENS_20_Default_ranged_hashELb1EEC2Ev' at offset 0x302c0 contains 3 entries:
    Offset             Info             Type               Symbol's Value  Symbol's Name + Addend
0000000000000018  00000b2b00000014 R_RISCV_GOT_HI20       0000000000000000 _ZNSt8__detail21_Hashtable_ebo_helperILi1EN5dwarf11string_hashELb1EEC2Ev + 0
000000000000001c  0000062e00000018 R_RISCV_PCREL_LO12_I   0000000000000018 .L0  + 0
000000000000001c  0000000000000033 R_RISCV_RELAX                             0

Relocation section '.rela.text._ZNSt8__detail15_Hashtable_baseIPKcSt4pairIKS2_N5dwarf3dieEENS_10_Select1stENS5_9string_eqENS5_11string_hashENS_18_Mod_range_hashingENS_20_Default_ranged_hashENS_17_Hashtable_traitsILb1ELb0ELb1EEEEC2Ev' at offset 0x30308 contains 6 entries:
    Offset             Info             Type               Symbol's Value  Symbol's Name + Addend
0000000000000018  00000b2a00000014 R_RISCV_GOT_HI20       0000000000000000 _ZNSt8__detail15_Hash_code_baseIPKcSt4pairIKS2_N5dwarf3dieEENS_10_Select1stENS5_11string_hashENS_18_Mod_range_hashingENS_20_Default_ranged_hashELb1EEC2Ev + 0
000000000000001c  0000062f00000018 R_RISCV_PCREL_LO12_I   0000000000000018 .L0  + 0
000000000000001c  0000000000000033 R_RISCV_RELAX                             0
0000000000000028  00000b2e00000014 R_RISCV_GOT_HI20       0000000000000000 _ZNSt8__detail21_Hashtable_ebo_helperILi0EN5dwarf9string_eqELb1EEC2Ev + 0
000000000000002c  0000063000000018 R_RISCV_PCREL_LO12_I   0000000000000028 .L0  + 0
000000000000002c  0000000000000033 R_RISCV_RELAX                             0

Relocation section '.rela.text._ZNSt8__detail21_Hashtable_ebo_helperILi0ESaINS_10_Hash_nodeISt4pairIKPKcN5dwarf3dieEELb1EEEELb1EED2Ev' at offset 0x30398 contains 3 entries:
    Offset             Info             Type               Symbol's Value  Symbol's Name + Addend
0000000000000018  00000b3100000014 R_RISCV_GOT_HI20       0000000000000000 _ZNSaINSt8__detail10_Hash_nodeISt4pairIKPKcN5dwarf3dieEELb1EEEED2Ev + 0
000000000000001c  0000063100000018 R_RISCV_PCREL_LO12_I   0000000000000018 .L0  + 0
000000000000001c  0000000000000033 R_RISCV_RELAX                             0

Relocation section '.rela.text._ZNSt8__detail16_Hashtable_allocISaINS_10_Hash_nodeISt4pairIKPKcN5dwarf3dieEELb1EEEEEC2Ev' at offset 0x303e0 contains 3 entries:
    Offset             Info             Type               Symbol's Value  Symbol's Name + Addend
0000000000000018  00000b3400000014 R_RISCV_GOT_HI20       0000000000000000 _ZNSt8__detail21_Hashtable_ebo_helperILi0ESaINS_10_Hash_nodeISt4pairIKPKcN5dwarf3dieEELb1EEEELb1EEC2Ev + 0
000000000000001c  0000063200000018 R_RISCV_PCREL_LO12_I   0000000000000018 .L0  + 0
000000000000001c  0000000000000033 R_RISCV_RELAX                             0

Relocation section '.rela.text._ZNSt8__detail16_Hashtable_allocISaINS_10_Hash_nodeISt4pairIKPKcN5dwarf3dieEELb1EEEEED2Ev' at offset 0x30428 contains 3 entries:
    Offset             Info             Type               Symbol's Value  Symbol's Name + Addend
0000000000000018  00000b3000000014 R_RISCV_GOT_HI20       0000000000000000 _ZNSt8__detail21_Hashtable_ebo_helperILi0ESaINS_10_Hash_nodeISt4pairIKPKcN5dwarf3dieEELb1EEEELb1EED2Ev + 0
000000000000001c  0000063300000018 R_RISCV_PCREL_LO12_I   0000000000000018 .L0  + 0
000000000000001c  0000000000000033 R_RISCV_RELAX                             0

Relocation section '.rela.text._ZNSt10_HashtableIPKcSt4pairIKS1_N5dwarf3dieEESaIS6_ENSt8__detail10_Select1stENS4_9string_eqENS4_11string_hashENS8_18_Mod_range_hashingENS8_20_Default_ranged_hashENS8_20_Prime_rehash_policyENS8_17_Hashtable_traitsILb1ELb0ELb1EEEEC2Ev' at offset 0x30470 contains 16 entries:
    Offset             Info             Type               Symbol's Value  Symbol's Name + Addend
0000000000000018  00000b2d00000014 R_RISCV_GOT_HI20       0000000000000000 _ZNSt8__detail15_Hashtable_baseIPKcSt4pairIKS2_N5dwarf3dieEENS_10_Select1stENS5_9string_eqENS5_11string_hashENS_18_Mod_range_hashingENS_20_Default_ranged_hashENS_17_Hashtable_traitsILb1ELb0ELb1EEEEC2Ev + 0
000000000000001c  0000063400000018 R_RISCV_PCREL_LO12_I   0000000000000018 .L0  + 0
000000000000001c  0000000000000033 R_RISCV_RELAX                             0
0000000000000028  00000b3300000014 R_RISCV_GOT_HI20       0000000000000000 _ZNSt8__detail16_Hashtable_allocISaINS_10_Hash_nodeISt4pairIKPKcN5dwarf3dieEELb1EEEEEC2Ev + 0
000000000000002c  0000063500000018 R_RISCV_PCREL_LO12_I   0000000000000028 .L0  + 0
000000000000002c  0000000000000033 R_RISCV_RELAX                             0
000000000000005c  00000b2100000014 R_RISCV_GOT_HI20       0000000000000000 _ZNSt8__detail15_Hash_node_baseC1Ev + 0
0000000000000060  0000063600000018 R_RISCV_PCREL_LO12_I   000000000000005c .L0  + 0
0000000000000060  0000000000000033 R_RISCV_RELAX                             0
0000000000000078  0000063700000017 R_RISCV_PCREL_HI20     0000000000000070 .LC1 + 0
0000000000000078  0000000000000033 R_RISCV_RELAX                             0
000000000000007c  0000063800000018 R_RISCV_PCREL_LO12_I   0000000000000078 .L0  + 0
000000000000007c  0000000000000033 R_RISCV_RELAX                             0
000000000000008c  00000b2400000014 R_RISCV_GOT_HI20       0000000000000000 _ZNSt8__detail20_Prime_rehash_policyC1Ef + 0
0000000000000090  0000063900000018 R_RISCV_PCREL_LO12_I   000000000000008c .L0  + 0
0000000000000090  0000000000000033 R_RISCV_RELAX                             0

Relocation section '.rela.text._ZNSt13unordered_mapIPKcN5dwarf3dieENS2_11string_hashENS2_9string_eqESaISt4pairIKS1_S3_EEEC2Ev' at offset 0x305f0 contains 3 entries:
    Offset             Info             Type               Symbol's Value  Symbol's Name + Addend
000000000000001c  00000b3900000014 R_RISCV_GOT_HI20       0000000000000000 _ZNSt10_HashtableIPKcSt4pairIKS1_N5dwarf3dieEESaIS6_ENSt8__detail10_Select1stENS4_9string_eqENS4_11string_hashENS8_18_Mod_range_hashingENS8_20_Default_ranged_hashENS8_20_Prime_rehash_policyENS8_17_Hashtable_traitsILb1ELb0ELb1EEEEC1Ev + 0
0000000000000020  0000063a00000018 R_RISCV_PCREL_LO12_I   000000000000001c .L0  + 0
0000000000000020  0000000000000033 R_RISCV_RELAX                             0

Relocation section '.rela.text._ZNSt13unordered_mapIPKcN5dwarf3dieENS2_11string_hashENS2_9string_eqESaISt4pairIKS1_S3_EEED2Ev' at offset 0x30638 contains 3 entries:
    Offset             Info             Type               Symbol's Value  Symbol's Name + Addend
000000000000001c  00000b3d00000014 R_RISCV_GOT_HI20       0000000000000000 _ZNSt10_HashtableIPKcSt4pairIKS1_N5dwarf3dieEESaIS6_ENSt8__detail10_Select1stENS4_9string_eqENS4_11string_hashENS8_18_Mod_range_hashingENS8_20_Default_ranged_hashENS8_20_Prime_rehash_policyENS8_17_Hashtable_traitsILb1ELb0ELb1EEEED1Ev + 0
0000000000000020  0000063b00000018 R_RISCV_PCREL_LO12_I   000000000000001c .L0  + 0
0000000000000020  0000000000000033 R_RISCV_RELAX                             0

Relocation section '.rela.text._ZNSt13unordered_setIN5dwarf6DW_TAGESt4hashIS1_ESt8equal_toIS1_ESaIS1_EED2Ev' at offset 0x30680 contains 3 entries:
    Offset             Info             Type               Symbol's Value  Symbol's Name + Addend
000000000000001c  00000b4000000014 R_RISCV_GOT_HI20       0000000000000000 _ZNSt10_HashtableIN5dwarf6DW_TAGES1_SaIS1_ENSt8__detail9_IdentityESt8equal_toIS1_ESt4hashIS1_ENS3_18_Mod_range_hashingENS3_20_Default_ranged_hashENS3_20_Prime_rehash_policyENS3_17_Hashtable_traitsILb1ELb1ELb1EEEED1Ev + 0
0000000000000020  0000063c00000018 R_RISCV_PCREL_LO12_I   000000000000001c .L0  + 0
0000000000000020  0000000000000033 R_RISCV_RELAX                             0

Relocation section '.rela.text._ZN5dwarf11die_str_map4implC2ERKNS_3dieENS_5DW_ATERKSt16initializer_listINS_6DW_TAGEE' at offset 0x306c8 contains 39 entries:
    Offset             Info             Type               Symbol's Value  Symbol's Name + Addend
0000000000000038  00000b3b00000014 R_RISCV_GOT_HI20       0000000000000000 _ZNSt13unordered_mapIPKcN5dwarf3dieENS2_11string_hashENS2_9string_eqESaISt4pairIKS1_S3_EEEC1Ev + 0
000000000000003c  0000063d00000018 R_RISCV_PCREL_LO12_I   0000000000000038 .L0  + 0
000000000000003c  0000000000000033 R_RISCV_RELAX                             0
000000000000005c  00000b4400000014 R_RISCV_GOT_HI20       0000000000000000 _ZNKSt16initializer_listIN5dwarf6DW_TAGEE5beginEv + 0
0000000000000060  0000063e00000018 R_RISCV_PCREL_LO12_I   000000000000005c .L0  + 0
0000000000000060  0000000000000033 R_RISCV_RELAX                             0
0000000000000070  00000b4500000014 R_RISCV_GOT_HI20       0000000000000000 _ZNKSt16initializer_listIN5dwarf6DW_TAGEE3endEv + 0
0000000000000074  0000063f00000018 R_RISCV_PCREL_LO12_I   0000000000000070 .L0  + 0
0000000000000074  0000000000000033 R_RISCV_RELAX                             0
0000000000000088  00000b4600000014 R_RISCV_GOT_HI20       0000000000000000 _ZNSaIN5dwarf6DW_TAGEEC1Ev + 0
000000000000008c  0000064000000018 R_RISCV_PCREL_LO12_I   0000000000000088 .L0  + 0
000000000000008c  0000000000000033 R_RISCV_RELAX                             0
00000000000000b4  00000b4700000014 R_RISCV_GOT_HI20       0000000000000000 _ZNSt13unordered_setIN5dwarf6DW_TAGESt4hashIS1_ESt8equal_toIS1_ESaIS1_EEC1IPKS1_EET_SB_mRKS3_RKS5_RKS6_ + 0
00000000000000b8  0000064100000018 R_RISCV_PCREL_LO12_I   00000000000000b4 .L0  + 0
00000000000000b8  0000000000000033 R_RISCV_RELAX                             0
00000000000000c8  00000b4800000014 R_RISCV_GOT_HI20       0000000000000000 _ZNSaIN5dwarf6DW_TAGEED1Ev + 0
00000000000000cc  0000064200000018 R_RISCV_PCREL_LO12_I   00000000000000c8 .L0  + 0
00000000000000cc  0000000000000033 R_RISCV_RELAX                             0
00000000000000e4  00000b4900000013 R_RISCV_CALL_PLT       0000000000000000 _ZNK5dwarf3die5beginEv + 0
00000000000000e4  0000000000000033 R_RISCV_RELAX                             0
00000000000000fc  00000b1e00000014 R_RISCV_GOT_HI20       0000000000000000 _ZNK5dwarf3die3endEv + 0
0000000000000100  0000064300000018 R_RISCV_PCREL_LO12_I   00000000000000fc .L0  + 0
0000000000000100  0000000000000033 R_RISCV_RELAX                             0
0000000000000114  00000b1400000014 R_RISCV_GOT_HI20       0000000000000000 _ZN5dwarf3dieC1Ev + 0
0000000000000118  0000064400000018 R_RISCV_PCREL_LO12_I   0000000000000114 .L0  + 0
0000000000000118  0000000000000033 R_RISCV_RELAX                             0
0000000000000120  0000064800000011 R_RISCV_JAL            0000000000000180 .L68 + 0
0000000000000130  00000b4800000014 R_RISCV_GOT_HI20       0000000000000000 _ZNSaIN5dwarf6DW_TAGEED1Ev + 0
0000000000000134  0000064500000018 R_RISCV_PCREL_LO12_I   0000000000000130 .L0  + 0
0000000000000134  0000000000000033 R_RISCV_RELAX                             0
000000000000013c  0000064900000011 R_RISCV_JAL            000000000000015c .L64 + 0
0000000000000150  00000b4100000014 R_RISCV_GOT_HI20       0000000000000000 _ZNSt13unordered_setIN5dwarf6DW_TAGESt4hashIS1_ESt8equal_toIS1_ESaIS1_EED1Ev + 0
0000000000000154  0000064600000018 R_RISCV_PCREL_LO12_I   0000000000000150 .L0  + 0
0000000000000154  0000000000000033 R_RISCV_RELAX                             0
0000000000000164  00000b3e00000014 R_RISCV_GOT_HI20       0000000000000000 _ZNSt13unordered_mapIPKcN5dwarf3dieENS2_11string_hashENS2_9string_eqESaISt4pairIKS1_S3_EEED1Ev + 0
0000000000000168  0000064700000018 R_RISCV_PCREL_LO12_I   0000000000000164 .L0  + 0
0000000000000168  0000000000000033 R_RISCV_RELAX                             0
0000000000000178  00000b4a00000013 R_RISCV_CALL_PLT       0000000000000000 _Unwind_Resume + 0
0000000000000178  0000000000000033 R_RISCV_RELAX                             0

Relocation section '.rela.gcc_except_table._ZN5dwarf11die_str_map4implC2ERKNS_3dieENS_5DW_ATERKSt16initializer_listINS_6DW_TAGEE' at offset 0x30a70 contains 16 entries:
    Offset             Info             Type               Symbol's Value  Symbol's Name + Addend
0000000000000004  0000064a00000023 R_RISCV_ADD32          00000000000000bc .LEHB0 + 0
0000000000000004  0000064b00000027 R_RISCV_SUB32          0000000000000000 .LFB3193 + 0
0000000000000008  0000064c00000023 R_RISCV_ADD32          00000000000000c0 .LEHE0 + 0
0000000000000008  0000064a00000027 R_RISCV_SUB32          00000000000000bc .LEHB0 + 0
000000000000000c  0000064d00000023 R_RISCV_ADD32          0000000000000124 .L66 + 0
000000000000000c  0000064b00000027 R_RISCV_SUB32          0000000000000000 .LFB3193 + 0
0000000000000011  0000064e00000023 R_RISCV_ADD32          00000000000000e4 .LEHB1 + 0
0000000000000011  0000064b00000027 R_RISCV_SUB32          0000000000000000 .LFB3193 + 0
0000000000000015  0000064f00000023 R_RISCV_ADD32          00000000000000ec .LEHE1 + 0
0000000000000015  0000064e00000027 R_RISCV_SUB32          00000000000000e4 .LEHB1 + 0
0000000000000019  0000065000000023 R_RISCV_ADD32          0000000000000140 .L67 + 0
0000000000000019  0000064b00000027 R_RISCV_SUB32          0000000000000000 .LFB3193 + 0
000000000000001e  0000065100000023 R_RISCV_ADD32          0000000000000178 .LEHB2 + 0
000000000000001e  0000064b00000027 R_RISCV_SUB32          0000000000000000 .LFB3193 + 0
0000000000000022  0000065200000023 R_RISCV_ADD32          0000000000000180 .LEHE2 + 0
0000000000000022  0000065100000027 R_RISCV_SUB32          0000000000000178 .LEHB2 + 0

Relocation section '.rela.text._ZN5dwarf3dieaSERKS0_' at offset 0x30bf0 contains 3 entries:
    Offset             Info             Type               Symbol's Value  Symbol's Name + Addend
0000000000000070  00000b5200000014 R_RISCV_GOT_HI20       0000000000000000 _ZN5dwarf12small_vectorImLj6EEaSERKS1_ + 0
0000000000000074  0000065300000018 R_RISCV_PCREL_LO12_I   0000000000000070 .L0  + 0
0000000000000074  0000000000000033 R_RISCV_RELAX                             0

Relocation section '.rela.text._ZN5dwarf12small_vectorImLj6EED2Ev' at offset 0x30c38 contains 7 entries:
    Offset             Info             Type               Symbol's Value  Symbol's Name + Addend
0000000000000018  00000b6100000014 R_RISCV_GOT_HI20       0000000000000000 _ZN5dwarf12small_vectorImLj6EE5clearEv + 0
000000000000001c  0000065400000018 R_RISCV_PCREL_LO12_I   0000000000000018 .L0  + 0
000000000000001c  0000000000000033 R_RISCV_RELAX                             0
0000000000000030  0000065500000010 R_RISCV_BRANCH         0000000000000054 .L93 + 0
000000000000003c  0000065500000010 R_RISCV_BRANCH         0000000000000054 .L93 + 0
000000000000004c  00000b6200000013 R_RISCV_CALL_PLT       0000000000000000 _ZdaPv + 0
000000000000004c  0000000000000033 R_RISCV_RELAX                             0

Relocation section '.rela.text._ZNKSt16initializer_listIN5dwarf6DW_TAGEE3endEv' at offset 0x30ce0 contains 6 entries:
    Offset             Info             Type               Symbol's Value  Symbol's Name + Addend
000000000000001c  00000b4400000014 R_RISCV_GOT_HI20       0000000000000000 _ZNKSt16initializer_listIN5dwarf6DW_TAGEE5beginEv + 0
0000000000000020  0000065600000018 R_RISCV_PCREL_LO12_I   000000000000001c .L0  + 0
0000000000000020  0000000000000033 R_RISCV_RELAX                             0
0000000000000030  00000b6300000014 R_RISCV_GOT_HI20       0000000000000000 _ZNKSt16initializer_listIN5dwarf6DW_TAGEE4sizeEv + 0
0000000000000034  0000065700000018 R_RISCV_PCREL_LO12_I   0000000000000030 .L0  + 0
0000000000000034  0000000000000033 R_RISCV_RELAX                             0

Relocation section '.rela.text._ZNSt8__detail21_Hashtable_ebo_helperILi0ESaINS_10_Hash_nodeISt4pairIKPKcN5dwarf3dieEELb1EEEELb1EEC2Ev' at offset 0x30d70 contains 3 entries:
    Offset             Info             Type               Symbol's Value  Symbol's Name + Addend
0000000000000018  00000b6600000014 R_RISCV_GOT_HI20       0000000000000000 _ZNSaINSt8__detail10_Hash_nodeISt4pairIKPKcN5dwarf3dieEELb1EEEEC2Ev + 0
000000000000001c  0000065800000018 R_RISCV_PCREL_LO12_I   0000000000000018 .L0  + 0
000000000000001c  0000000000000033 R_RISCV_RELAX                             0

Relocation section '.rela.text._ZNSaINSt8__detail10_Hash_nodeISt4pairIKPKcN5dwarf3dieEELb1EEEED2Ev' at offset 0x30db8 contains 3 entries:
    Offset             Info             Type               Symbol's Value  Symbol's Name + Addend
0000000000000018  00000b6800000014 R_RISCV_GOT_HI20       0000000000000000 _ZNSt15__new_allocatorINSt8__detail10_Hash_nodeISt4pairIKPKcN5dwarf3dieEELb1EEEED2Ev + 0
000000000000001c  0000065900000018 R_RISCV_PCREL_LO12_I   0000000000000018 .L0  + 0
000000000000001c  0000000000000033 R_RISCV_RELAX                             0

Relocation section '.rela.text._ZNSt10_HashtableIPKcSt4pairIKS1_N5dwarf3dieEESaIS6_ENSt8__detail10_Select1stENS4_9string_eqENS4_11string_hashENS8_18_Mod_range_hashingENS8_20_Default_ranged_hashENS8_20_Prime_rehash_policyENS8_17_Hashtable_traitsILb1ELb0ELb1EEEED2Ev' at offset 0x30e00 contains 9 entries:
    Offset             Info             Type               Symbol's Value  Symbol's Name + Addend
0000000000000018  00000b6b00000014 R_RISCV_GOT_HI20       0000000000000000 _ZNSt10_HashtableIPKcSt4pairIKS1_N5dwarf3dieEESaIS6_ENSt8__detail10_Select1stENS4_9string_eqENS4_11string_hashENS8_18_Mod_range_hashingENS8_20_Default_ranged_hashENS8_20_Prime_rehash_policyENS8_17_Hashtable_traitsILb1ELb0ELb1EEEE5clearEv + 0
000000000000001c  0000065a00000018 R_RISCV_PCREL_LO12_I   0000000000000018 .L0  + 0
000000000000001c  0000000000000033 R_RISCV_RELAX                             0
0000000000000028  00000b6c00000014 R_RISCV_GOT_HI20       0000000000000000 _ZNSt10_HashtableIPKcSt4pairIKS1_N5dwarf3dieEESaIS6_ENSt8__detail10_Select1stENS4_9string_eqENS4_11string_hashENS8_18_Mod_range_hashingENS8_20_Default_ranged_hashENS8_20_Prime_rehash_policyENS8_17_Hashtable_traitsILb1ELb0ELb1EEEE21_M_deallocate_bucketsEv + 0
000000000000002c  0000065b00000018 R_RISCV_PCREL_LO12_I   0000000000000028 .L0  + 0
000000000000002c  0000000000000033 R_RISCV_RELAX                             0
0000000000000038  00000b3600000014 R_RISCV_GOT_HI20       0000000000000000 _ZNSt8__detail16_Hashtable_allocISaINS_10_Hash_nodeISt4pairIKPKcN5dwarf3dieEELb1EEEEED2Ev + 0
000000000000003c  0000065c00000018 R_RISCV_PCREL_LO12_I   0000000000000038 .L0  + 0
000000000000003c  0000000000000033 R_RISCV_RELAX                             0

Relocation section '.rela.text._ZNSaIN5dwarf6DW_TAGEEC2Ev' at offset 0x30ed8 contains 3 entries:
    Offset             Info             Type               Symbol's Value  Symbol's Name + Addend
0000000000000018  00000b6e00000014 R_RISCV_GOT_HI20       0000000000000000 _ZNSt15__new_allocatorIN5dwarf6DW_TAGEEC2Ev + 0
000000000000001c  0000065d00000018 R_RISCV_PCREL_LO12_I   0000000000000018 .L0  + 0
000000000000001c  0000000000000033 R_RISCV_RELAX                             0

Relocation section '.rela.text._ZNSaIN5dwarf6DW_TAGEED2Ev' at offset 0x30f20 contains 3 entries:
    Offset             Info             Type               Symbol's Value  Symbol's Name + Addend
0000000000000018  00000b7000000014 R_RISCV_GOT_HI20       0000000000000000 _ZNSt15__new_allocatorIN5dwarf6DW_TAGEED2Ev + 0
000000000000001c  0000065e00000018 R_RISCV_PCREL_LO12_I   0000000000000018 .L0  + 0
000000000000001c  0000000000000033 R_RISCV_RELAX                             0

Relocation section '.rela.text._ZNSt13unordered_setIN5dwarf6DW_TAGESt4hashIS1_ESt8equal_toIS1_ESaIS1_EEC2IPKS1_EET_SB_mRKS3_RKS5_RKS6_' at offset 0x30f68 contains 3 entries:
    Offset             Info             Type               Symbol's Value  Symbol's Name + Addend
0000000000000048  00000b7200000014 R_RISCV_GOT_HI20       0000000000000000 _ZNSt10_HashtableIN5dwarf6DW_TAGES1_SaIS1_ENSt8__detail9_IdentityESt8equal_toIS1_ESt4hashIS1_ENS3_18_Mod_range_hashingENS3_20_Default_ranged_hashENS3_20_Prime_rehash_policyENS3_17_Hashtable_traitsILb1ELb1ELb1EEEEC1IPKS1_EET_SI_mRKS8_RKS6_RKS2_ + 0
000000000000004c  0000065f00000018 R_RISCV_PCREL_LO12_I   0000000000000048 .L0  + 0
000000000000004c  0000000000000033 R_RISCV_RELAX                             0

Relocation section '.rela.text._ZNSt8__detail21_Hashtable_ebo_helperILi0ESaINS_10_Hash_nodeIN5dwarf6DW_TAGELb1EEEELb1EED2Ev' at offset 0x30fb0 contains 3 entries:
    Offset             Info             Type               Symbol's Value  Symbol's Name + Addend
0000000000000018  00000b7400000014 R_RISCV_GOT_HI20       0000000000000000 _ZNSaINSt8__detail10_Hash_nodeIN5dwarf6DW_TAGELb1EEEED2Ev + 0
000000000000001c  0000066000000018 R_RISCV_PCREL_LO12_I   0000000000000018 .L0  + 0
000000000000001c  0000000000000033 R_RISCV_RELAX                             0

Relocation section '.rela.text._ZNSt8__detail16_Hashtable_allocISaINS_10_Hash_nodeIN5dwarf6DW_TAGELb1EEEEED2Ev' at offset 0x30ff8 contains 3 entries:
    Offset             Info             Type               Symbol's Value  Symbol's Name + Addend
0000000000000018  00000b7300000014 R_RISCV_GOT_HI20       0000000000000000 _ZNSt8__detail21_Hashtable_ebo_helperILi0ESaINS_10_Hash_nodeIN5dwarf6DW_TAGELb1EEEELb1EED2Ev + 0
000000000000001c  0000066100000018 R_RISCV_PCREL_LO12_I   0000000000000018 .L0  + 0
000000000000001c  0000000000000033 R_RISCV_RELAX                             0

Relocation section '.rela.text._ZNSt10_HashtableIN5dwarf6DW_TAGES1_SaIS1_ENSt8__detail9_IdentityESt8equal_toIS1_ESt4hashIS1_ENS3_18_Mod_range_hashingENS3_20_Default_ranged_hashENS3_20_Prime_rehash_policyENS3_17_Hashtable_traitsILb1ELb1ELb1EEEED2Ev' at offset 0x31040 contains 9 entries:
    Offset             Info             Type               Symbol's Value  Symbol's Name + Addend
0000000000000018  00000b7900000014 R_RISCV_GOT_HI20       0000000000000000 _ZNSt10_HashtableIN5dwarf6DW_TAGES1_SaIS1_ENSt8__detail9_IdentityESt8equal_toIS1_ESt4hashIS1_ENS3_18_Mod_range_hashingENS3_20_Default_ranged_hashENS3_20_Prime_rehash_policyENS3_17_Hashtable_traitsILb1ELb1ELb1EEEE5clearEv + 0
000000000000001c  0000066200000018 R_RISCV_PCREL_LO12_I   0000000000000018 .L0  + 0
000000000000001c  0000000000000033 R_RISCV_RELAX                             0
0000000000000028  00000b7a00000014 R_RISCV_GOT_HI20       0000000000000000 _ZNSt10_HashtableIN5dwarf6DW_TAGES1_SaIS1_ENSt8__detail9_IdentityESt8equal_toIS1_ESt4hashIS1_ENS3_18_Mod_range_hashingENS3_20_Default_ranged_hashENS3_20_Prime_rehash_policyENS3_17_Hashtable_traitsILb1ELb1ELb1EEEE21_M_deallocate_bucketsEv + 0
000000000000002c  0000066300000018 R_RISCV_PCREL_LO12_I   0000000000000028 .L0  + 0
000000000000002c  0000000000000033 R_RISCV_RELAX                             0
0000000000000038  00000b7600000014 R_RISCV_GOT_HI20       0000000000000000 _ZNSt8__detail16_Hashtable_allocISaINS_10_Hash_nodeIN5dwarf6DW_TAGELb1EEEEED2Ev + 0
000000000000003c  0000066400000018 R_RISCV_PCREL_LO12_I   0000000000000038 .L0  + 0
000000000000003c  0000000000000033 R_RISCV_RELAX                             0

Relocation section '.rela.text._ZSt11make_sharedIN5dwarf11die_str_map4implEJRKNS0_3dieERNS0_5DW_ATERKSt16initializer_listINS0_6DW_TAGEEEESt10shared_ptrINSt9enable_ifIXntsrSt8is_arrayIT_E5valueESG_E4typeEEDpOT0_' at offset 0x31118 contains 12 entries:
    Offset             Info             Type               Symbol's Value  Symbol's Name + Addend
0000000000000038  00000b7b00000014 R_RISCV_GOT_HI20       0000000000000000 _ZSt7forwardIRKN5dwarf3dieEEOT_RNSt16remove_referenceIS4_E4typeE + 0
000000000000003c  0000066500000018 R_RISCV_PCREL_LO12_I   0000000000000038 .L0  + 0
000000000000003c  0000000000000033 R_RISCV_RELAX                             0
000000000000004c  00000b7c00000014 R_RISCV_GOT_HI20       0000000000000000 _ZSt7forwardIRN5dwarf5DW_ATEEOT_RNSt16remove_referenceIS3_E4typeE + 0
0000000000000050  0000066600000018 R_RISCV_PCREL_LO12_I   000000000000004c .L0  + 0
0000000000000050  0000000000000033 R_RISCV_RELAX                             0
0000000000000060  00000b7d00000014 R_RISCV_GOT_HI20       0000000000000000 _ZSt7forwardIRKSt16initializer_listIN5dwarf6DW_TAGEEEOT_RNSt16remove_referenceIS6_E4typeE + 0
0000000000000064  0000066700000018 R_RISCV_PCREL_LO12_I   0000000000000060 .L0  + 0
0000000000000064  0000000000000033 R_RISCV_RELAX                             0
0000000000000084  00000b7e00000014 R_RISCV_GOT_HI20       0000000000000000 _ZNSt10shared_ptrIN5dwarf11die_str_map4implEEC1ISaIvEJRKNS0_3dieERNS0_5DW_ATERKSt16initializer_listINS0_6DW_TAGEEEEESt20_Sp_alloc_shared_tagIT_EDpOT0_ + 0
0000000000000088  0000066800000018 R_RISCV_PCREL_LO12_I   0000000000000084 .L0  + 0
0000000000000088  0000000000000033 R_RISCV_RELAX                             0

Relocation section '.rela.text._ZNKSt19__shared_ptr_accessIN5dwarf11die_str_map4implELN9__gnu_cxx12_Lock_policyE1ELb0ELb0EEptEv' at offset 0x31238 contains 3 entries:
    Offset             Info             Type               Symbol's Value  Symbol's Name + Addend
0000000000000018  00000b7f00000014 R_RISCV_GOT_HI20       0000000000000000 _ZNKSt19__shared_ptr_accessIN5dwarf11die_str_map4implELN9__gnu_cxx12_Lock_policyE1ELb0ELb0EE6_M_getEv + 0
000000000000001c  0000066900000018 R_RISCV_PCREL_LO12_I   0000000000000018 .L0  + 0
000000000000001c  0000000000000033 R_RISCV_RELAX                             0

Relocation section '.rela.text._ZNSt13unordered_mapIPKcN5dwarf3dieENS2_11string_hashENS2_9string_eqESaISt4pairIKS1_S3_EEE4findERS7_' at offset 0x31280 contains 3 entries:
    Offset             Info             Type               Symbol's Value  Symbol's Name + Addend
0000000000000024  00000b8000000014 R_RISCV_GOT_HI20       0000000000000000 _ZNSt10_HashtableIPKcSt4pairIKS1_N5dwarf3dieEESaIS6_ENSt8__detail10_Select1stENS4_9string_eqENS4_11string_hashENS8_18_Mod_range_hashingENS8_20_Default_ranged_hashENS8_20_Prime_rehash_policyENS8_17_Hashtable_traitsILb1ELb0ELb1EEEE4findERS3_ + 0
0000000000000028  0000066a00000018 R_RISCV_PCREL_LO12_I   0000000000000024 .L0  + 0
0000000000000028  0000000000000033 R_RISCV_RELAX                             0

Relocation section '.rela.text._ZNSt13unordered_mapIPKcN5dwarf3dieENS2_11string_hashENS2_9string_eqESaISt4pairIKS1_S3_EEE3endEv' at offset 0x312c8 contains 3 entries:
    Offset             Info             Type               Symbol's Value  Symbol's Name + Addend
000000000000001c  00000b8100000014 R_RISCV_GOT_HI20       0000000000000000 _ZNSt10_HashtableIPKcSt4pairIKS1_N5dwarf3dieEESaIS6_ENSt8__detail10_Select1stENS4_9string_eqENS4_11string_hashENS8_18_Mod_range_hashingENS8_20_Default_ranged_hashENS8_20_Prime_rehash_policyENS8_17_Hashtable_traitsILb1ELb0ELb1EEEE3endEv + 0
0000000000000020  0000066b00000018 R_RISCV_PCREL_LO12_I   000000000000001c .L0  + 0
0000000000000020  0000000000000033 R_RISCV_RELAX                             0

Relocation section '.rela.text._ZNKSt8__detail14_Node_iteratorISt4pairIKPKcN5dwarf3dieEELb0ELb1EEptEv' at offset 0x31310 contains 3 entries:
    Offset             Info             Type               Symbol's Value  Symbol's Name + Addend
0000000000000024  00000b8200000014 R_RISCV_GOT_HI20       0000000000000000 _ZNSt8__detail21_Hash_node_value_baseISt4pairIKPKcN5dwarf3dieEEE9_M_valptrEv + 0
0000000000000028  0000066c00000018 R_RISCV_PCREL_LO12_I   0000000000000024 .L0  + 0
0000000000000028  0000000000000033 R_RISCV_RELAX                             0

Relocation section '.rela.text._ZNKSt13unordered_setIN5dwarf6DW_TAGESt4hashIS1_ESt8equal_toIS1_ESaIS1_EE5countERKS1_' at offset 0x31358 contains 3 entries:
    Offset             Info             Type               Symbol's Value  Symbol's Name + Addend
0000000000000024  00000b8300000014 R_RISCV_GOT_HI20       0000000000000000 _ZNKSt10_HashtableIN5dwarf6DW_TAGES1_SaIS1_ENSt8__detail9_IdentityESt8equal_toIS1_ESt4hashIS1_ENS3_18_Mod_range_hashingENS3_20_Default_ranged_hashENS3_20_Prime_rehash_policyENS3_17_Hashtable_traitsILb1ELb1ELb1EEEE5countERKS1_ + 0
0000000000000028  0000066d00000018 R_RISCV_PCREL_LO12_I   0000000000000024 .L0  + 0
0000000000000028  0000000000000033 R_RISCV_RELAX                             0

Relocation section '.rela.text._ZNSt13unordered_mapIPKcN5dwarf3dieENS2_11string_hashENS2_9string_eqESaISt4pairIKS1_S3_EEEixERS7_' at offset 0x313a0 contains 3 entries:
    Offset             Info             Type               Symbol's Value  Symbol's Name + Addend
0000000000000024  00000b8400000014 R_RISCV_GOT_HI20       0000000000000000 _ZNSt8__detail9_Map_baseIPKcSt4pairIKS2_N5dwarf3dieEESaIS7_ENS_10_Select1stENS5_9string_eqENS5_11string_hashENS_18_Mod_range_hashingENS_20_Default_ranged_hashENS_20_Prime_rehash_policyENS_17_Hashtable_traitsILb1ELb0ELb1EEELb1EEixERS4_ + 0
0000000000000028  0000066e00000018 R_RISCV_PCREL_LO12_I   0000000000000024 .L0  + 0
0000000000000028  0000000000000033 R_RISCV_RELAX                             0

Relocation section '.rela.text._ZN5dwarf12small_vectorImLj6EEaSERKS1_' at offset 0x313e8 contains 17 entries:
    Offset             Info             Type               Symbol's Value  Symbol's Name + Addend
0000000000000020  00000b8500000014 R_RISCV_GOT_HI20       0000000000000000 _ZNK5dwarf12small_vectorImLj6EE4sizeEv + 0
0000000000000024  0000066f00000018 R_RISCV_PCREL_LO12_I   0000000000000020 .L0  + 0
0000000000000024  0000000000000033 R_RISCV_RELAX                             0
0000000000000034  00000b6100000014 R_RISCV_GOT_HI20       0000000000000000 _ZN5dwarf12small_vectorImLj6EE5clearEv + 0
0000000000000038  0000067000000018 R_RISCV_PCREL_LO12_I   0000000000000034 .L0  + 0
0000000000000038  0000000000000033 R_RISCV_RELAX                             0
0000000000000048  00000b8600000014 R_RISCV_GOT_HI20       0000000000000000 _ZN5dwarf12small_vectorImLj6EE7reserveEm + 0
000000000000004c  0000067100000018 R_RISCV_PCREL_LO12_I   0000000000000048 .L0  + 0
000000000000004c  0000000000000033 R_RISCV_RELAX                             0
0000000000000058  0000067400000011 R_RISCV_JAL            00000000000000b4 .L126 + 0
0000000000000078  00000b0900000014 R_RISCV_GOT_HI20       0000000000000000 _ZnwmPv + 0
000000000000007c  0000067200000018 R_RISCV_PCREL_LO12_I   0000000000000078 .L0  + 0
000000000000007c  0000000000000033 R_RISCV_RELAX                             0
0000000000000090  00000b8700000014 R_RISCV_GOT_HI20       0000000000000000 _ZNK5dwarf12small_vectorImLj6EEixEm + 0
0000000000000094  0000067300000018 R_RISCV_PCREL_LO12_I   0000000000000090 .L0  + 0
0000000000000094  0000000000000033 R_RISCV_RELAX                             0
00000000000000bc  0000067500000010 R_RISCV_BRANCH         000000000000005c .L127 + 0

Relocation section '.rela.text._ZNSt16_Sp_counted_baseILN9__gnu_cxx12_Lock_policyE1EE10_M_destroyEv' at offset 0x31580 contains 1 entry:
    Offset             Info             Type               Symbol's Value  Symbol's Name + Addend
0000000000000018  0000067600000010 R_RISCV_BRANCH         0000000000000034 .L131 + 0

Relocation section '.rela.text._ZN5dwarf12small_vectorImLj6EE5clearEv' at offset 0x31598 contains 2 entries:
    Offset             Info             Type               Symbol's Value  Symbol's Name + Addend
000000000000001c  0000067700000011 R_RISCV_JAL            000000000000002c .L133 + 0
0000000000000038  0000067800000010 R_RISCV_BRANCH         0000000000000020 .L134 + 0

Relocation section '.rela.text._ZNSaINSt8__detail10_Hash_nodeISt4pairIKPKcN5dwarf3dieEELb1EEEEC2Ev' at offset 0x315c8 contains 3 entries:
    Offset             Info             Type               Symbol's Value  Symbol's Name + Addend
0000000000000018  00000b8a00000014 R_RISCV_GOT_HI20       0000000000000000 _ZNSt15__new_allocatorINSt8__detail10_Hash_nodeISt4pairIKPKcN5dwarf3dieEELb1EEEEC2Ev + 0
000000000000001c  0000067900000018 R_RISCV_PCREL_LO12_I   0000000000000018 .L0  + 0
000000000000001c  0000000000000033 R_RISCV_RELAX                             0

Relocation section '.rela.text._ZNSt10_HashtableIPKcSt4pairIKS1_N5dwarf3dieEESaIS6_ENSt8__detail10_Select1stENS4_9string_eqENS4_11string_hashENS8_18_Mod_range_hashingENS8_20_Default_ranged_hashENS8_20_Prime_rehash_policyENS8_17_Hashtable_traitsILb1ELb0ELb1EEEE5clearEv' at offset 0x31610 contains 8 entries:
    Offset             Info             Type               Symbol's Value  Symbol's Name + Addend
0000000000000018  00000b8d00000014 R_RISCV_GOT_HI20       0000000000000000 _ZNKSt10_HashtableIPKcSt4pairIKS1_N5dwarf3dieEESaIS6_ENSt8__detail10_Select1stENS4_9string_eqENS4_11string_hashENS8_18_Mod_range_hashingENS8_20_Default_ranged_hashENS8_20_Prime_rehash_policyENS8_17_Hashtable_traitsILb1ELb0ELb1EEEE8_M_beginEv + 0
000000000000001c  0000067a00000018 R_RISCV_PCREL_LO12_I   0000000000000018 .L0  + 0
000000000000001c  0000000000000033 R_RISCV_RELAX                             0
0000000000000030  00000b8e00000014 R_RISCV_GOT_HI20       0000000000000000 _ZNSt8__detail16_Hashtable_allocISaINS_10_Hash_nodeISt4pairIKPKcN5dwarf3dieEELb1EEEEE19_M_deallocate_nodesEPS9_ + 0
0000000000000034  0000067b00000018 R_RISCV_PCREL_LO12_I   0000000000000030 .L0  + 0
0000000000000034  0000000000000033 R_RISCV_RELAX                             0
000000000000005c  00000b8f00000013 R_RISCV_CALL_PLT       0000000000000000 memset + 0
000000000000005c  0000000000000033 R_RISCV_RELAX                             0

Relocation section '.rela.text._ZNSt10_HashtableIPKcSt4pairIKS1_N5dwarf3dieEESaIS6_ENSt8__detail10_Select1stENS4_9string_eqENS4_11string_hashENS8_18_Mod_range_hashingENS8_20_Default_ranged_hashENS8_20_Prime_rehash_policyENS8_17_Hashtable_traitsILb1ELb0ELb1EEEE21_M_deallocate_' at offset 0x316d0 contains 3 entries:
    Offset             Info             Type               Symbol's Value  Symbol's Name + Addend
0000000000000030  00000b9000000014 R_RISCV_GOT_HI20       0000000000000000 _ZNSt10_HashtableIPKcSt4pairIKS1_N5dwarf3dieEESaIS6_ENSt8__detail10_Select1stENS4_9string_eqENS4_11string_hashENS8_18_Mod_range_hashingENS8_20_Default_ranged_hashENS8_20_Prime_rehash_policyENS8_17_Hashtable_traitsILb1ELb0ELb1EEEE21_M_deallocate_bucketsEPPNS8_15_Hash_node_baseEm + 0
0000000000000034  0000067c00000018 R_RISCV_PCREL_LO12_I   0000000000000030 .L0  + 0
0000000000000034  0000000000000033 R_RISCV_RELAX                             0

Relocation section '.rela.text._ZNSt10_HashtableIN5dwarf6DW_TAGES1_SaIS1_ENSt8__detail9_IdentityESt8equal_toIS1_ESt4hashIS1_ENS3_18_Mod_range_hashingENS3_20_Default_ranged_hashENS3_20_Prime_rehash_policyENS3_17_Hashtable_traitsILb1ELb1ELb1EEEEC2IPKS1_EET_SI_mRKS8_RKS6_RKS2_' at offset 0x31718 contains 3 entries:
    Offset             Info             Type               Symbol's Value  Symbol's Name + Addend
0000000000000048  00000b9400000014 R_RISCV_GOT_HI20       0000000000000000 _ZNSt10_HashtableIN5dwarf6DW_TAGES1_SaIS1_ENSt8__detail9_IdentityESt8equal_toIS1_ESt4hashIS1_ENS3_18_Mod_range_hashingENS3_20_Default_ranged_hashENS3_20_Prime_rehash_policyENS3_17_Hashtable_traitsILb1ELb1ELb1EEEEC1IPKS1_EET_SI_mRKS8_RKS6_RKS2_St17integral_constantIbLb1EE + 0
000000000000004c  0000067d00000018 R_RISCV_PCREL_LO12_I   0000000000000048 .L0  + 0
000000000000004c  0000000000000033 R_RISCV_RELAX                             0

Relocation section '.rela.text._ZNSaINSt8__detail10_Hash_nodeIN5dwarf6DW_TAGELb1EEEED2Ev' at offset 0x31760 contains 3 entries:
    Offset             Info             Type               Symbol's Value  Symbol's Name + Addend
0000000000000018  00000b9500000014 R_RISCV_GOT_HI20       0000000000000000 _ZNSt15__new_allocatorINSt8__detail10_Hash_nodeIN5dwarf6DW_TAGELb1EEEED2Ev + 0
000000000000001c  0000067e00000018 R_RISCV_PCREL_LO12_I   0000000000000018 .L0  + 0
000000000000001c  0000000000000033 R_RISCV_RELAX                             0

Relocation section '.rela.text._ZNSt10_HashtableIN5dwarf6DW_TAGES1_SaIS1_ENSt8__detail9_IdentityESt8equal_toIS1_ESt4hashIS1_ENS3_18_Mod_range_hashingENS3_20_Default_ranged_hashENS3_20_Prime_rehash_policyENS3_17_Hashtable_traitsILb1ELb1ELb1EEEE5clearEv' at offset 0x317a8 contains 8 entries:
    Offset             Info             Type               Symbol's Value  Symbol's Name + Addend
0000000000000018  00000b9700000014 R_RISCV_GOT_HI20       0000000000000000 _ZNKSt10_HashtableIN5dwarf6DW_TAGES1_SaIS1_ENSt8__detail9_IdentityESt8equal_toIS1_ESt4hashIS1_ENS3_18_Mod_range_hashingENS3_20_Default_ranged_hashENS3_20_Prime_rehash_policyENS3_17_Hashtable_traitsILb1ELb1ELb1EEEE8_M_beginEv + 0
000000000000001c  0000067f00000018 R_RISCV_PCREL_LO12_I   0000000000000018 .L0  + 0
000000000000001c  0000000000000033 R_RISCV_RELAX                             0
0000000000000030  00000b9800000014 R_RISCV_GOT_HI20       0000000000000000 _ZNSt8__detail16_Hashtable_allocISaINS_10_Hash_nodeIN5dwarf6DW_TAGELb1EEEEE19_M_deallocate_nodesEPS4_ + 0
0000000000000034  0000068000000018 R_RISCV_PCREL_LO12_I   0000000000000030 .L0  + 0
0000000000000034  0000000000000033 R_RISCV_RELAX                             0
000000000000005c  00000b8f00000013 R_RISCV_CALL_PLT       0000000000000000 memset + 0
000000000000005c  0000000000000033 R_RISCV_RELAX                             0

Relocation section '.rela.text._ZNSt10_HashtableIN5dwarf6DW_TAGES1_SaIS1_ENSt8__detail9_IdentityESt8equal_toIS1_ESt4hashIS1_ENS3_18_Mod_range_hashingENS3_20_Default_ranged_hashENS3_20_Prime_rehash_policyENS3_17_Hashtable_traitsILb1ELb1ELb1EEEE21_M_deallocate_bucketsEv' at offset 0x31868 contains 3 entries:
    Offset             Info             Type               Symbol's Value  Symbol's Name + Addend
0000000000000030  00000b9900000014 R_RISCV_GOT_HI20       0000000000000000 _ZNSt10_HashtableIN5dwarf6DW_TAGES1_SaIS1_ENSt8__detail9_IdentityESt8equal_toIS1_ESt4hashIS1_ENS3_18_Mod_range_hashingENS3_20_Default_ranged_hashENS3_20_Prime_rehash_policyENS3_17_Hashtable_traitsILb1ELb1ELb1EEEE21_M_deallocate_bucketsEPPNS3_15_Hash_node_baseEm + 0
0000000000000034  0000068100000018 R_RISCV_PCREL_LO12_I   0000000000000030 .L0  + 0
0000000000000034  0000000000000033 R_RISCV_RELAX                             0

Relocation section '.rela.text._ZNSt10shared_ptrIN5dwarf11die_str_map4implEEC2ISaIvEJRKNS0_3dieERNS0_5DW_ATERKSt16initializer_listINS0_6DW_TAGEEEEESt20_Sp_alloc_shared_tagIT_EDpOT0_' at offset 0x318b0 contains 12 entries:
    Offset             Info             Type               Symbol's Value  Symbol's Name + Addend
0000000000000038  00000b7b00000014 R_RISCV_GOT_HI20       0000000000000000 _ZSt7forwardIRKN5dwarf3dieEEOT_RNSt16remove_referenceIS4_E4typeE + 0
000000000000003c  0000068200000018 R_RISCV_PCREL_LO12_I   0000000000000038 .L0  + 0
000000000000003c  0000000000000033 R_RISCV_RELAX                             0
000000000000004c  00000b7c00000014 R_RISCV_GOT_HI20       0000000000000000 _ZSt7forwardIRN5dwarf5DW_ATEEOT_RNSt16remove_referenceIS3_E4typeE + 0
0000000000000050  0000068300000018 R_RISCV_PCREL_LO12_I   000000000000004c .L0  + 0
0000000000000050  0000000000000033 R_RISCV_RELAX                             0
0000000000000060  00000b7d00000014 R_RISCV_GOT_HI20       0000000000000000 _ZSt7forwardIRKSt16initializer_listIN5dwarf6DW_TAGEEEOT_RNSt16remove_referenceIS6_E4typeE + 0
0000000000000064  0000068400000018 R_RISCV_PCREL_LO12_I   0000000000000060 .L0  + 0
0000000000000064  0000000000000033 R_RISCV_RELAX                             0
0000000000000084  00000b9b00000014 R_RISCV_GOT_HI20       0000000000000000 _ZNSt12__shared_ptrIN5dwarf11die_str_map4implELN9__gnu_cxx12_Lock_policyE1EEC2ISaIvEJRKNS0_3dieERNS0_5DW_ATERKSt16initializer_listINS0_6DW_TAGEEEEESt20_Sp_alloc_shared_tagIT_EDpOT0_ + 0
0000000000000088  0000068500000018 R_RISCV_PCREL_LO12_I   0000000000000084 .L0  + 0
0000000000000088  0000000000000033 R_RISCV_RELAX                             0

Relocation section '.rela.text._ZNKSt19__shared_ptr_accessIN5dwarf11die_str_map4implELN9__gnu_cxx12_Lock_policyE1ELb0ELb0EE6_M_getEv' at offset 0x319d0 contains 3 entries:
    Offset             Info             Type               Symbol's Value  Symbol's Name + Addend
0000000000000018  00000b9c00000014 R_RISCV_GOT_HI20       0000000000000000 _ZNKSt12__shared_ptrIN5dwarf11die_str_map4implELN9__gnu_cxx12_Lock_policyE1EE3getEv + 0
000000000000001c  0000068600000018 R_RISCV_PCREL_LO12_I   0000000000000018 .L0  + 0
000000000000001c  0000000000000033 R_RISCV_RELAX                             0

Relocation section '.rela.text._ZNSt10_HashtableIPKcSt4pairIKS1_N5dwarf3dieEESaIS6_ENSt8__detail10_Select1stENS4_9string_eqENS4_11string_hashENS8_18_Mod_range_hashingENS8_20_Default_ranged_hashENS8_20_Prime_rehash_policyENS8_17_Hashtable_traitsILb1ELb0ELb1EEEE4findERS3_' at offset 0x31a18 contains 42 entries:
    Offset             Info             Type               Symbol's Value  Symbol's Name + Addend
0000000000000020  00000b9d00000014 R_RISCV_GOT_HI20       0000000000000000 _ZNKSt10_HashtableIPKcSt4pairIKS1_N5dwarf3dieEESaIS6_ENSt8__detail10_Select1stENS4_9string_eqENS4_11string_hashENS8_18_Mod_range_hashingENS8_20_Default_ranged_hashENS8_20_Prime_rehash_policyENS8_17_Hashtable_traitsILb1ELb0ELb1EEEE4sizeEv + 0
0000000000000024  0000068700000018 R_RISCV_PCREL_LO12_I   0000000000000020 .L0  + 0
0000000000000024  0000000000000033 R_RISCV_RELAX                             0
0000000000000030  00000b9e00000014 R_RISCV_GOT_HI20       0000000000000000 _ZNSt10_HashtableIPKcSt4pairIKS1_N5dwarf3dieEESaIS6_ENSt8__detail10_Select1stENS4_9string_eqENS4_11string_hashENS8_18_Mod_range_hashingENS8_20_Default_ranged_hashENS8_20_Prime_rehash_policyENS8_17_Hashtable_traitsILb1ELb0ELb1EEEE22__small_size_thresholdEv + 0
0000000000000034  0000068800000018 R_RISCV_PCREL_LO12_I   0000000000000030 .L0  + 0
0000000000000034  0000000000000033 R_RISCV_RELAX                             0
000000000000004c  0000069300000010 R_RISCV_BRANCH         0000000000000104 .L159 + 0
0000000000000054  00000b9f00000014 R_RISCV_GOT_HI20       0000000000000000 _ZNSt10_HashtableIPKcSt4pairIKS1_N5dwarf3dieEESaIS6_ENSt8__detail10_Select1stENS4_9string_eqENS4_11string_hashENS8_18_Mod_range_hashingENS8_20_Default_ranged_hashENS8_20_Prime_rehash_policyENS8_17_Hashtable_traitsILb1ELb0ELb1EEEE5beginEv + 0
0000000000000058  0000068900000018 R_RISCV_PCREL_LO12_I   0000000000000054 .L0  + 0
0000000000000058  0000000000000033 R_RISCV_RELAX                             0
0000000000000068  0000069400000011 R_RISCV_JAL            00000000000000b0 .L160 + 0
0000000000000080  00000ba000000014 R_RISCV_GOT_HI20       0000000000000000 _ZNKSt8__detail15_Hashtable_baseIPKcSt4pairIKS2_N5dwarf3dieEENS_10_Select1stENS5_9string_eqENS5_11string_hashENS_18_Mod_range_hashingENS_20_Default_ranged_hashENS_17_Hashtable_traitsILb1ELb0ELb1EEEE13_M_key_equalsERS4_RKNS_16_Hash_node_valueIS7_Lb1EEE + 0
0000000000000084  0000068a00000018 R_RISCV_PCREL_LO12_I   0000000000000080 .L0  + 0
0000000000000084  0000000000000033 R_RISCV_RELAX                             0
0000000000000090  0000069500000010 R_RISCV_BRANCH         000000000000009c .L161 + 0
0000000000000098  0000069600000011 R_RISCV_JAL            0000000000000178 .L162 + 0
00000000000000a4  00000ba100000014 R_RISCV_GOT_HI20       0000000000000000 _ZNSt8__detail14_Node_iteratorISt4pairIKPKcN5dwarf3dieEELb0ELb1EEppEv + 0
00000000000000a8  0000068b00000018 R_RISCV_PCREL_LO12_I   00000000000000a4 .L0  + 0
00000000000000a8  0000000000000033 R_RISCV_RELAX                             0
00000000000000b4  00000b8100000014 R_RISCV_GOT_HI20       0000000000000000 _ZNSt10_HashtableIPKcSt4pairIKS1_N5dwarf3dieEESaIS6_ENSt8__detail10_Select1stENS4_9string_eqENS4_11string_hashENS8_18_Mod_range_hashingENS8_20_Default_ranged_hashENS8_20_Prime_rehash_policyENS8_17_Hashtable_traitsILb1ELb0ELb1EEEE3endEv + 0
00000000000000b8  0000068c00000018 R_RISCV_PCREL_LO12_I   00000000000000b4 .L0  + 0
00000000000000b8  0000000000000033 R_RISCV_RELAX                             0
00000000000000d8  00000b5700000014 R_RISCV_GOT_HI20       0000000000000000 _ZNSt8__detailneERKNS_19_Node_iterator_baseISt4pairIKPKcN5dwarf3dieEELb1EEESA_ + 0
00000000000000dc  0000068d00000018 R_RISCV_PCREL_LO12_I   00000000000000d8 .L0  + 0
00000000000000dc  0000000000000033 R_RISCV_RELAX                             0
00000000000000e8  0000069700000010 R_RISCV_BRANCH         000000000000006c .L163 + 0
00000000000000f0  00000b8100000014 R_RISCV_GOT_HI20       0000000000000000 _ZNSt10_HashtableIPKcSt4pairIKS1_N5dwarf3dieEESaIS6_ENSt8__detail10_Select1stENS4_9string_eqENS4_11string_hashENS8_18_Mod_range_hashingENS8_20_Default_ranged_hashENS8_20_Prime_rehash_policyENS8_17_Hashtable_traitsILb1ELb0ELb1EEEE3endEv + 0
00000000000000f4  0000068e00000018 R_RISCV_PCREL_LO12_I   00000000000000f0 .L0  + 0
00000000000000f4  0000000000000033 R_RISCV_RELAX                             0
0000000000000100  0000069600000011 R_RISCV_JAL            0000000000000178 .L162 + 0
000000000000010c  00000ba200000014 R_RISCV_GOT_HI20       0000000000000000 _ZNKSt8__detail15_Hash_code_baseIPKcSt4pairIKS2_N5dwarf3dieEENS_10_Select1stENS5_11string_hashENS_18_Mod_range_hashingENS_20_Default_ranged_hashELb1EE12_M_hash_codeERS4_ + 0
0000000000000110  0000068f00000018 R_RISCV_PCREL_LO12_I   000000000000010c .L0  + 0
0000000000000110  0000000000000033 R_RISCV_RELAX                             0
0000000000000128  00000ba300000014 R_RISCV_GOT_HI20       0000000000000000 _ZNKSt10_HashtableIPKcSt4pairIKS1_N5dwarf3dieEESaIS6_ENSt8__detail10_Select1stENS4_9string_eqENS4_11string_hashENS8_18_Mod_range_hashingENS8_20_Default_ranged_hashENS8_20_Prime_rehash_policyENS8_17_Hashtable_traitsILb1ELb0ELb1EEEE15_M_bucket_indexEm + 0
000000000000012c  0000069000000018 R_RISCV_PCREL_LO12_I   0000000000000128 .L0  + 0
000000000000012c  0000000000000033 R_RISCV_RELAX                             0
000000000000014c  00000ba400000014 R_RISCV_GOT_HI20       0000000000000000 _ZNKSt10_HashtableIPKcSt4pairIKS1_N5dwarf3dieEESaIS6_ENSt8__detail10_Select1stENS4_9string_eqENS4_11string_hashENS8_18_Mod_range_hashingENS8_20_Default_ranged_hashENS8_20_Prime_rehash_policyENS8_17_Hashtable_traitsILb1ELb0ELb1EEEE12_M_find_nodeEmRS3_m + 0
0000000000000150  0000069100000018 R_RISCV_PCREL_LO12_I   000000000000014c .L0  + 0
0000000000000150  0000000000000033 R_RISCV_RELAX                             0
0000000000000168  00000ba500000014 R_RISCV_GOT_HI20       0000000000000000 _ZNSt8__detail14_Node_iteratorISt4pairIKPKcN5dwarf3dieEELb0ELb1EEC1EPNS_10_Hash_nodeIS7_Lb1EEE + 0
000000000000016c  0000069200000018 R_RISCV_PCREL_LO12_I   0000000000000168 .L0  + 0
000000000000016c  0000000000000033 R_RISCV_RELAX                             0

Relocation section '.rela.text._ZNSt10_HashtableIPKcSt4pairIKS1_N5dwarf3dieEESaIS6_ENSt8__detail10_Select1stENS4_9string_eqENS4_11string_hashENS8_18_Mod_range_hashingENS8_20_Default_ranged_hashENS8_20_Prime_rehash_policyENS8_17_Hashtable_traitsILb1ELb0ELb1EEEE3endEv' at offset 0x31e08 contains 3 entries:
    Offset             Info             Type               Symbol's Value  Symbol's Name + Addend
0000000000000020  00000ba500000014 R_RISCV_GOT_HI20       0000000000000000 _ZNSt8__detail14_Node_iteratorISt4pairIKPKcN5dwarf3dieEELb0ELb1EEC1EPNS_10_Hash_nodeIS7_Lb1EEE + 0
0000000000000024  0000069800000018 R_RISCV_PCREL_LO12_I   0000000000000020 .L0  + 0
0000000000000024  0000000000000033 R_RISCV_RELAX                             0

Relocation section '.rela.text._ZNSt8__detail21_Hash_node_value_baseISt4pairIKPKcN5dwarf3dieEEE9_M_valptrEv' at offset 0x31e50 contains 3 entries:
    Offset             Info             Type               Symbol's Value  Symbol's Name + Addend
000000000000001c  00000ba600000014 R_RISCV_GOT_HI20       0000000000000000 _ZN9__gnu_cxx16__aligned_bufferISt4pairIKPKcN5dwarf3dieEEE6_M_ptrEv + 0
0000000000000020  0000069900000018 R_RISCV_PCREL_LO12_I   000000000000001c .L0  + 0
0000000000000020  0000000000000033 R_RISCV_RELAX                             0

Relocation section '.rela.text._ZNKSt10_HashtableIN5dwarf6DW_TAGES1_SaIS1_ENSt8__detail9_IdentityESt8equal_toIS1_ESt4hashIS1_ENS3_18_Mod_range_hashingENS3_20_Default_ranged_hashENS3_20_Prime_rehash_policyENS3_17_Hashtable_traitsILb1ELb1ELb1EEEE5countERKS1_' at offset 0x31e98 contains 5 entries:
    Offset             Info             Type               Symbol's Value  Symbol's Name + Addend
0000000000000020  00000ba700000014 R_RISCV_GOT_HI20       0000000000000000 _ZNKSt10_HashtableIN5dwarf6DW_TAGES1_SaIS1_ENSt8__detail9_IdentityESt8equal_toIS1_ESt4hashIS1_ENS3_18_Mod_range_hashingENS3_20_Default_ranged_hashENS3_20_Prime_rehash_policyENS3_17_Hashtable_traitsILb1ELb1ELb1EEEE4findERKS1_ + 0
0000000000000024  0000069a00000018 R_RISCV_PCREL_LO12_I   0000000000000020 .L0  + 0
0000000000000024  0000000000000033 R_RISCV_RELAX                             0
0000000000000038  0000069b00000010 R_RISCV_BRANCH         0000000000000044 .L169 + 0
0000000000000040  0000069c00000011 R_RISCV_JAL            0000000000000048 .L171 + 0

Relocation section '.rela.text._ZNSt8__detail9_Map_baseIPKcSt4pairIKS2_N5dwarf3dieEESaIS7_ENS_10_Select1stENS5_9string_eqENS5_11string_hashENS_18_Mod_range_hashingENS_20_Default_ranged_hashENS_20_Prime_rehash_policyENS_17_Hashtable_traitsILb1ELb0ELb1EEELb1EEixERS4_' at offset 0x31f10 contains 39 entries:
    Offset             Info             Type               Symbol's Value  Symbol's Name + Addend
000000000000002c  00000ba200000014 R_RISCV_GOT_HI20       0000000000000000 _ZNKSt8__detail15_Hash_code_baseIPKcSt4pairIKS2_N5dwarf3dieEENS_10_Select1stENS5_11string_hashENS_18_Mod_range_hashingENS_20_Default_ranged_hashELb1EE12_M_hash_codeERS4_ + 0
0000000000000030  0000069d00000018 R_RISCV_PCREL_LO12_I   000000000000002c .L0  + 0
0000000000000030  0000000000000033 R_RISCV_RELAX                             0
0000000000000048  00000ba300000014 R_RISCV_GOT_HI20       0000000000000000 _ZNKSt10_HashtableIPKcSt4pairIKS1_N5dwarf3dieEESaIS6_ENSt8__detail10_Select1stENS4_9string_eqENS4_11string_hashENS8_18_Mod_range_hashingENS8_20_Default_ranged_hashENS8_20_Prime_rehash_policyENS8_17_Hashtable_traitsILb1ELb0ELb1EEEE15_M_bucket_indexEm + 0
000000000000004c  0000069e00000018 R_RISCV_PCREL_LO12_I   0000000000000048 .L0  + 0
000000000000004c  0000000000000033 R_RISCV_RELAX                             0
000000000000006c  00000ba400000014 R_RISCV_GOT_HI20       0000000000000000 _ZNKSt10_HashtableIPKcSt4pairIKS1_N5dwarf3dieEESaIS6_ENSt8__detail10_Select1stENS4_9string_eqENS4_11string_hashENS8_18_Mod_range_hashingENS8_20_Default_ranged_hashENS8_20_Prime_rehash_policyENS8_17_Hashtable_traitsILb1ELb0ELb1EEEE12_M_find_nodeEmRS3_m + 0
0000000000000070  0000069f00000018 R_RISCV_PCREL_LO12_I   000000000000006c .L0  + 0
0000000000000070  0000000000000033 R_RISCV_RELAX                             0
0000000000000084  000006a800000010 R_RISCV_BRANCH         00000000000000ac .L173 + 0
0000000000000094  00000ba800000014 R_RISCV_GOT_HI20       0000000000000000 _ZNSt8__detail21_Hash_node_value_baseISt4pairIKPKcN5dwarf3dieEEE4_M_vEv + 0
0000000000000098  000006a000000018 R_RISCV_PCREL_LO12_I   0000000000000094 .L0  + 0
0000000000000098  0000000000000033 R_RISCV_RELAX                             0
00000000000000a8  000006a900000011 R_RISCV_JAL            0000000000000150 .L175 + 0
00000000000000bc  00000ba900000014 R_RISCV_GOT_HI20       0000000000000000 _ZNSt5tupleIJRKPKcEEC1ILb1ELb1EEES3_ + 0
00000000000000c0  000006a100000018 R_RISCV_PCREL_LO12_I   00000000000000bc .L0  + 0
00000000000000c0  0000000000000033 R_RISCV_RELAX                             0
00000000000000d4  0000001200000017 R_RISCV_PCREL_HI20     0000000000000000 _ZStL19piecewise_construct + 0
00000000000000d4  0000000000000033 R_RISCV_RELAX                             0
00000000000000d8  000006a200000018 R_RISCV_PCREL_LO12_I   00000000000000d4 .L0  + 0
00000000000000d8  0000000000000033 R_RISCV_RELAX                             0
00000000000000e4  00000baa00000014 R_RISCV_GOT_HI20       0000000000000000 _ZNSt10_HashtableIPKcSt4pairIKS1_N5dwarf3dieEESaIS6_ENSt8__detail10_Select1stENS4_9string_eqENS4_11string_hashENS8_18_Mod_range_hashingENS8_20_Default_ranged_hashENS8_20_Prime_rehash_policyENS8_17_Hashtable_traitsILb1ELb0ELb1EEEE12_Scoped_nodeC1IJRKSt21piecewise_construct_tSt5tupleIJRS3_EESN_IJEEEEEPNS8_16_Hashtable_allocISaINS8_10_Hash_nodeIS6_Lb1EEEEEEDpOT_ + 0
00000000000000e8  000006a300000018 R_RISCV_PCREL_LO12_I   00000000000000e4 .L0  + 0
00000000000000e8  0000000000000033 R_RISCV_RELAX                             0
0000000000000108  00000bab00000014 R_RISCV_GOT_HI20       0000000000000000 _ZNSt10_HashtableIPKcSt4pairIKS1_N5dwarf3dieEESaIS6_ENSt8__detail10_Select1stENS4_9string_eqENS4_11string_hashENS8_18_Mod_range_hashingENS8_20_Default_ranged_hashENS8_20_Prime_rehash_policyENS8_17_Hashtable_traitsILb1ELb0ELb1EEEE21_M_insert_unique_nodeEmmPNS8_10_Hash_nodeIS6_Lb1EEEm + 0
000000000000010c  000006a400000018 R_RISCV_PCREL_LO12_I   0000000000000108 .L0  + 0
000000000000010c  0000000000000033 R_RISCV_RELAX                             0
0000000000000128  00000b5800000014 R_RISCV_GOT_HI20       0000000000000000 _ZNKSt8__detail14_Node_iteratorISt4pairIKPKcN5dwarf3dieEELb0ELb1EEptEv + 0
000000000000012c  000006a500000018 R_RISCV_PCREL_LO12_I   0000000000000128 .L0  + 0
000000000000012c  0000000000000033 R_RISCV_RELAX                             0
0000000000000144  00000bac00000014 R_RISCV_GOT_HI20       0000000000000000 _ZNSt10_HashtableIPKcSt4pairIKS1_N5dwarf3dieEESaIS6_ENSt8__detail10_Select1stENS4_9string_eqENS4_11string_hashENS8_18_Mod_range_hashingENS8_20_Default_ranged_hashENS8_20_Prime_rehash_policyENS8_17_Hashtable_traitsILb1ELb0ELb1EEEE12_Scoped_nodeD1Ev + 0
0000000000000148  000006a600000018 R_RISCV_PCREL_LO12_I   0000000000000144 .L0  + 0
0000000000000148  0000000000000033 R_RISCV_RELAX                             0
0000000000000154  000006aa00000011 R_RISCV_JAL            0000000000000180 .L178 + 0
0000000000000164  00000bac00000014 R_RISCV_GOT_HI20       0000000000000000 _ZNSt10_HashtableIPKcSt4pairIKS1_N5dwarf3dieEESaIS6_ENSt8__detail10_Select1stENS4_9string_eqENS4_11string_hashENS8_18_Mod_range_hashingENS8_20_Default_ranged_hashENS8_20_Prime_rehash_policyENS8_17_Hashtable_traitsILb1ELb0ELb1EEEE12_Scoped_nodeD1Ev + 0
0000000000000168  000006a700000018 R_RISCV_PCREL_LO12_I   0000000000000164 .L0  + 0
0000000000000168  0000000000000033 R_RISCV_RELAX                             0
0000000000000178  00000b4a00000013 R_RISCV_CALL_PLT       0000000000000000 _Unwind_Resume + 0
0000000000000178  0000000000000033 R_RISCV_RELAX                             0

Relocation section '.rela.gcc_except_table._ZNSt8__detail9_Map_baseIPKcSt4pairIKS2_N5dwarf3dieEESaIS7_ENS_10_Select1stENS5_9string_eqENS5_11string_hashENS_18_Mod_range_hashingENS_20_Default_ranged_hashENS_20_Prime_rehash_policyENS_17_Hashtable_traitsILb1ELb0ELb1EEELb1EEixERS4' at offset 0x322b8 contains 14 entries:
    Offset             Info             Type               Symbol's Value  Symbol's Name + Addend
0000000000000004  000006ab00000023 R_RISCV_ADD32          0000000000000034 .LEHB3 + 0
0000000000000004  000006ac00000027 R_RISCV_SUB32          0000000000000000 .LFB3659 + 0
0000000000000008  000006ad00000023 R_RISCV_ADD32          00000000000000f0 .LEHE3 + 0
0000000000000008  000006ab00000027 R_RISCV_SUB32          0000000000000034 .LEHB3 + 0
0000000000000011  000006ae00000023 R_RISCV_ADD32          0000000000000110 .LEHB4 + 0
0000000000000011  000006ac00000027 R_RISCV_SUB32          0000000000000000 .LFB3659 + 0
0000000000000015  000006af00000023 R_RISCV_ADD32          0000000000000114 .LEHE4 + 0
0000000000000015  000006ae00000027 R_RISCV_SUB32          0000000000000110 .LEHB4 + 0
0000000000000019  000006b000000023 R_RISCV_ADD32          0000000000000158 .L177 + 0
0000000000000019  000006ac00000027 R_RISCV_SUB32          0000000000000000 .LFB3659 + 0
000000000000001e  000006b100000023 R_RISCV_ADD32          0000000000000178 .LEHB5 + 0
000000000000001e  000006ac00000027 R_RISCV_SUB32          0000000000000000 .LFB3659 + 0
0000000000000022  000006b200000023 R_RISCV_ADD32          0000000000000180 .LEHE5 + 0
0000000000000022  000006b100000027 R_RISCV_SUB32          0000000000000178 .LEHB5 + 0

Relocation section '.rela.text._ZN5dwarf12small_vectorImLj6EE7reserveEm' at offset 0x32408 contains 16 entries:
    Offset             Info             Type               Symbol's Value  Symbol's Name + Addend
0000000000000038  000006b400000010 R_RISCV_BRANCH         0000000000000170 .L190 + 0
000000000000005c  000006b500000010 R_RISCV_BRANCH         0000000000000078 .L185 + 0
0000000000000068  000006b500000011 R_RISCV_JAL            0000000000000078 .L185 + 0
0000000000000080  000006b600000010 R_RISCV_BRANCH         000000000000006c .L186 + 0
0000000000000090  00000bad00000013 R_RISCV_CALL_PLT       0000000000000000 _Znam + 0
0000000000000090  0000000000000033 R_RISCV_RELAX                             0
00000000000000b4  000006b700000011 R_RISCV_JAL            00000000000000f8 .L187 + 0
00000000000000c4  00000b0900000014 R_RISCV_GOT_HI20       0000000000000000 _ZnwmPv + 0
00000000000000c8  000006b300000018 R_RISCV_PCREL_LO12_I   00000000000000c4 .L0  + 0
00000000000000c8  0000000000000033 R_RISCV_RELAX                             0
0000000000000104  000006b800000010 R_RISCV_BRANCH         00000000000000b8 .L188 + 0
0000000000000114  000006b900000010 R_RISCV_BRANCH         0000000000000138 .L189 + 0
0000000000000120  000006b900000010 R_RISCV_BRANCH         0000000000000138 .L189 + 0
0000000000000130  00000b6200000013 R_RISCV_CALL_PLT       0000000000000000 _ZdaPv + 0
0000000000000130  0000000000000033 R_RISCV_RELAX                             0
000000000000016c  000006ba00000011 R_RISCV_JAL            0000000000000174 .L181 + 0

Relocation section '.rela.text._ZNSt16_Sp_counted_baseILN9__gnu_cxx12_Lock_policyE1EED2Ev' at offset 0x32588 contains 3 entries:
    Offset             Info             Type               Symbol's Value  Symbol's Name + Addend
0000000000000010  00000baf00000014 R_RISCV_GOT_HI20       0000000000000000 _ZTVSt16_Sp_counted_baseILN9__gnu_cxx12_Lock_policyE1EE + 0
0000000000000014  000006bb00000018 R_RISCV_PCREL_LO12_I   0000000000000010 .L0  + 0
0000000000000014  0000000000000033 R_RISCV_RELAX                             0

Relocation section '.rela.text._ZNSt16_Sp_counted_baseILN9__gnu_cxx12_Lock_policyE1EED0Ev' at offset 0x325d0 contains 5 entries:
    Offset             Info             Type               Symbol's Value  Symbol's Name + Addend
0000000000000018  00000bb000000014 R_RISCV_GOT_HI20       0000000000000000 _ZNSt16_Sp_counted_baseILN9__gnu_cxx12_Lock_policyE1EED1Ev + 0
000000000000001c  000006bc00000018 R_RISCV_PCREL_LO12_I   0000000000000018 .L0  + 0
000000000000001c  0000000000000033 R_RISCV_RELAX                             0
0000000000000028  00000bb200000013 R_RISCV_CALL_PLT       0000000000000000 _ZdlPv + 0
0000000000000028  0000000000000033 R_RISCV_RELAX                             0

Relocation section '.rela.text._ZNSt8__detail16_Hashtable_allocISaINS_10_Hash_nodeISt4pairIKPKcN5dwarf3dieEELb1EEEEE19_M_deallocate_nodesEPS9_' at offset 0x32648 contains 8 entries:
    Offset             Info             Type               Symbol's Value  Symbol's Name + Addend
0000000000000018  000006bf00000011 R_RISCV_JAL            000000000000004c .L199 + 0
0000000000000028  00000bb400000014 R_RISCV_GOT_HI20       0000000000000000 _ZNKSt8__detail10_Hash_nodeISt4pairIKPKcN5dwarf3dieEELb1EE7_M_nextEv + 0
000000000000002c  000006bd00000018 R_RISCV_PCREL_LO12_I   0000000000000028 .L0  + 0
000000000000002c  0000000000000033 R_RISCV_RELAX                             0
0000000000000040  00000bb500000014 R_RISCV_GOT_HI20       0000000000000000 _ZNSt8__detail16_Hashtable_allocISaINS_10_Hash_nodeISt4pairIKPKcN5dwarf3dieEELb1EEEEE18_M_deallocate_nodeEPS9_ + 0
0000000000000044  000006be00000018 R_RISCV_PCREL_LO12_I   0000000000000040 .L0  + 0
0000000000000044  0000000000000033 R_RISCV_RELAX                             0
0000000000000050  000006c000000010 R_RISCV_BRANCH         000000000000001c .L200 + 0

Relocation section '.rela.text._ZNSt10_HashtableIPKcSt4pairIKS1_N5dwarf3dieEESaIS6_ENSt8__detail10_Select1stENS4_9string_eqENS4_11string_hashENS8_18_Mod_range_hashingENS8_20_Default_ranged_hashENS8_20_Prime_rehash_policyENS8_17_Hashtable_traitsILb1ELb0ELb1EEEE21_M_deallocate_' at offset 0x32708 contains 8 entries:
    Offset             Info             Type               Symbol's Value  Symbol's Name + Addend
0000000000000024  00000bb600000014 R_RISCV_GOT_HI20       0000000000000000 _ZNKSt10_HashtableIPKcSt4pairIKS1_N5dwarf3dieEESaIS6_ENSt8__detail10_Select1stENS4_9string_eqENS4_11string_hashENS8_18_Mod_range_hashingENS8_20_Default_ranged_hashENS8_20_Prime_rehash_policyENS8_17_Hashtable_traitsILb1ELb0ELb1EEEE21_M_uses_single_bucketEPPNS8_15_Hash_node_baseE + 0
0000000000000028  000006c100000018 R_RISCV_PCREL_LO12_I   0000000000000024 .L0  + 0
0000000000000028  0000000000000033 R_RISCV_RELAX                             0
0000000000000034  000006c300000010 R_RISCV_BRANCH         0000000000000054 .L204 + 0
0000000000000044  00000bb700000014 R_RISCV_GOT_HI20       0000000000000000 _ZNSt8__detail16_Hashtable_allocISaINS_10_Hash_nodeISt4pairIKPKcN5dwarf3dieEELb1EEEEE21_M_deallocate_bucketsEPPNS_15_Hash_node_baseEm + 0
0000000000000048  000006c200000018 R_RISCV_PCREL_LO12_I   0000000000000044 .L0  + 0
0000000000000048  0000000000000033 R_RISCV_RELAX                             0
0000000000000050  000006c400000011 R_RISCV_JAL            0000000000000058 .L201 + 0

Relocation section '.rela.text._ZNSt10_HashtableIN5dwarf6DW_TAGES1_SaIS1_ENSt8__detail9_IdentityESt8equal_toIS1_ESt4hashIS1_ENS3_18_Mod_range_hashingENS3_20_Default_ranged_hashENS3_20_Prime_rehash_policyENS3_17_Hashtable_traitsILb1ELb1ELb1EEEEC2IPKS1_EET_SI_mRKS8_RKS6_RKS2_St' at offset 0x327c8 contains 14 entries:
    Offset             Info             Type               Symbol's Value  Symbol's Name + Addend
0000000000000048  00000bb900000014 R_RISCV_GOT_HI20       0000000000000000 _ZNSt10_HashtableIN5dwarf6DW_TAGES1_SaIS1_ENSt8__detail9_IdentityESt8equal_toIS1_ESt4hashIS1_ENS3_18_Mod_range_hashingENS3_20_Default_ranged_hashENS3_20_Prime_rehash_policyENS3_17_Hashtable_traitsILb1ELb1ELb1EEEEC1EmRKS8_RKS6_RKS2_ + 0
000000000000004c  000006c500000018 R_RISCV_PCREL_LO12_I   0000000000000048 .L0  + 0
000000000000004c  0000000000000033 R_RISCV_RELAX                             0
0000000000000054  000006c800000011 R_RISCV_JAL            0000000000000088 .L206 + 0
0000000000000060  00000bba00000014 R_RISCV_GOT_HI20       0000000000000000 _ZNSt8__detail12_Insert_baseIN5dwarf6DW_TAGES2_SaIS2_ENS_9_IdentityESt8equal_toIS2_ESt4hashIS2_ENS_18_Mod_range_hashingENS_20_Default_ranged_hashENS_20_Prime_rehash_policyENS_17_Hashtable_traitsILb1ELb1ELb1EEEE6insertERKS2_ + 0
0000000000000064  000006c600000018 R_RISCV_PCREL_LO12_I   0000000000000060 .L0  + 0
0000000000000064  0000000000000033 R_RISCV_RELAX                             0
0000000000000090  000006c900000010 R_RISCV_BRANCH         0000000000000058 .L207 + 0
0000000000000094  000006ca00000011 R_RISCV_JAL            00000000000000bc .L210 + 0
00000000000000a0  00000b4000000014 R_RISCV_GOT_HI20       0000000000000000 _ZNSt10_HashtableIN5dwarf6DW_TAGES1_SaIS1_ENSt8__detail9_IdentityESt8equal_toIS1_ESt4hashIS1_ENS3_18_Mod_range_hashingENS3_20_Default_ranged_hashENS3_20_Prime_rehash_policyENS3_17_Hashtable_traitsILb1ELb1ELb1EEEED1Ev + 0
00000000000000a4  000006c700000018 R_RISCV_PCREL_LO12_I   00000000000000a0 .L0  + 0
00000000000000a4  0000000000000033 R_RISCV_RELAX                             0
00000000000000b4  00000b4a00000013 R_RISCV_CALL_PLT       0000000000000000 _Unwind_Resume + 0
00000000000000b4  0000000000000033 R_RISCV_RELAX                             0

Relocation section '.rela.gcc_except_table._ZNSt10_HashtableIN5dwarf6DW_TAGES1_SaIS1_ENSt8__detail9_IdentityESt8equal_toIS1_ESt4hashIS1_ENS3_18_Mod_range_hashingENS3_20_Default_ranged_hashENS3_20_Prime_rehash_policyENS3_17_Hashtable_traitsILb1ELb1ELb1EEEEC2IPKS1_EET_SI_mRKS8_' at offset 0x32918 contains 14 entries:
    Offset             Info             Type               Symbol's Value  Symbol's Name + Addend
0000000000000004  000006cb00000023 R_RISCV_ADD32          0000000000000050 .LEHB6 + 0
0000000000000004  000006cc00000027 R_RISCV_SUB32          0000000000000000 .LFB3733 + 0
0000000000000008  000006cd00000023 R_RISCV_ADD32          0000000000000054 .LEHE6 + 0
0000000000000008  000006cb00000027 R_RISCV_SUB32          0000000000000050 .LEHB6 + 0
0000000000000011  000006ce00000023 R_RISCV_ADD32          0000000000000068 .LEHB7 + 0
0000000000000011  000006cc00000027 R_RISCV_SUB32          0000000000000000 .LFB3733 + 0
0000000000000015  000006cf00000023 R_RISCV_ADD32          000000000000006c .LEHE7 + 0
0000000000000015  000006ce00000027 R_RISCV_SUB32          0000000000000068 .LEHB7 + 0
0000000000000019  000006d000000023 R_RISCV_ADD32          0000000000000098 .L209 + 0
0000000000000019  000006cc00000027 R_RISCV_SUB32          0000000000000000 .LFB3733 + 0
000000000000001e  000006d100000023 R_RISCV_ADD32          00000000000000b4 .LEHB8 + 0
000000000000001e  000006cc00000027 R_RISCV_SUB32          0000000000000000 .LFB3733 + 0
0000000000000022  000006d200000023 R_RISCV_ADD32          00000000000000bc .LEHE8 + 0
0000000000000022  000006d100000027 R_RISCV_SUB32          00000000000000b4 .LEHB8 + 0

Relocation section '.rela.text._ZNSt8__detail16_Hashtable_allocISaINS_10_Hash_nodeIN5dwarf6DW_TAGELb1EEEEE19_M_deallocate_nodesEPS4_' at offset 0x32a68 contains 8 entries:
    Offset             Info             Type               Symbol's Value  Symbol's Name + Addend
0000000000000018  000006d500000011 R_RISCV_JAL            000000000000004c .L215 + 0
0000000000000028  00000bbc00000014 R_RISCV_GOT_HI20       0000000000000000 _ZNKSt8__detail10_Hash_nodeIN5dwarf6DW_TAGELb1EE7_M_nextEv + 0
000000000000002c  000006d300000018 R_RISCV_PCREL_LO12_I   0000000000000028 .L0  + 0
000000000000002c  0000000000000033 R_RISCV_RELAX                             0
0000000000000040  00000bbd00000014 R_RISCV_GOT_HI20       0000000000000000 _ZNSt8__detail16_Hashtable_allocISaINS_10_Hash_nodeIN5dwarf6DW_TAGELb1EEEEE18_M_deallocate_nodeEPS4_ + 0
0000000000000044  000006d400000018 R_RISCV_PCREL_LO12_I   0000000000000040 .L0  + 0
0000000000000044  0000000000000033 R_RISCV_RELAX                             0
0000000000000050  000006d600000010 R_RISCV_BRANCH         000000000000001c .L216 + 0

Relocation section '.rela.text._ZNSt10_HashtableIN5dwarf6DW_TAGES1_SaIS1_ENSt8__detail9_IdentityESt8equal_toIS1_ESt4hashIS1_ENS3_18_Mod_range_hashingENS3_20_Default_ranged_hashENS3_20_Prime_rehash_policyENS3_17_Hashtable_traitsILb1ELb1ELb1EEEE21_M_deallocate_bucketsEPPNS3_15_' at offset 0x32b28 contains 8 entries:
    Offset             Info             Type               Symbol's Value  Symbol's Name + Addend
0000000000000024  00000bbe00000014 R_RISCV_GOT_HI20       0000000000000000 _ZNKSt10_HashtableIN5dwarf6DW_TAGES1_SaIS1_ENSt8__detail9_IdentityESt8equal_toIS1_ESt4hashIS1_ENS3_18_Mod_range_hashingENS3_20_Default_ranged_hashENS3_20_Prime_rehash_policyENS3_17_Hashtable_traitsILb1ELb1ELb1EEEE21_M_uses_single_bucketEPPNS3_15_Hash_node_baseE + 0
0000000000000028  000006d700000018 R_RISCV_PCREL_LO12_I   0000000000000024 .L0  + 0
0000000000000028  0000000000000033 R_RISCV_RELAX                             0
0000000000000034  000006d900000010 R_RISCV_BRANCH         0000000000000054 .L220 + 0
0000000000000044  00000bbf00000014 R_RISCV_GOT_HI20       0000000000000000 _ZNSt8__detail16_Hashtable_allocISaINS_10_Hash_nodeIN5dwarf6DW_TAGELb1EEEEE21_M_deallocate_bucketsEPPNS_15_Hash_node_baseEm + 0
0000000000000048  000006d800000018 R_RISCV_PCREL_LO12_I   0000000000000044 .L0  + 0
0000000000000048  0000000000000033 R_RISCV_RELAX                             0
0000000000000050  000006da00000011 R_RISCV_JAL            0000000000000058 .L217 + 0

Relocation section '.rela.text._ZNSt12__shared_ptrIN5dwarf11die_str_map4implELN9__gnu_cxx12_Lock_policyE1EEC2ISaIvEJRKNS0_3dieERNS0_5DW_ATERKSt16initializer_listINS0_6DW_TAGEEEEESt20_Sp_alloc_shared_tagIT_EDpOT0_' at offset 0x32be8 contains 15 entries:
    Offset             Info             Type               Symbol's Value  Symbol's Name + Addend
000000000000004c  00000b7b00000014 R_RISCV_GOT_HI20       0000000000000000 _ZSt7forwardIRKN5dwarf3dieEEOT_RNSt16remove_referenceIS4_E4typeE + 0
0000000000000050  000006db00000018 R_RISCV_PCREL_LO12_I   000000000000004c .L0  + 0
0000000000000050  0000000000000033 R_RISCV_RELAX                             0
0000000000000060  00000b7c00000014 R_RISCV_GOT_HI20       0000000000000000 _ZSt7forwardIRN5dwarf5DW_ATEEOT_RNSt16remove_referenceIS3_E4typeE + 0
0000000000000064  000006dc00000018 R_RISCV_PCREL_LO12_I   0000000000000060 .L0  + 0
0000000000000064  0000000000000033 R_RISCV_RELAX                             0
0000000000000074  00000b7d00000014 R_RISCV_GOT_HI20       0000000000000000 _ZSt7forwardIRKSt16initializer_listIN5dwarf6DW_TAGEEEOT_RNSt16remove_referenceIS6_E4typeE + 0
0000000000000078  000006dd00000018 R_RISCV_PCREL_LO12_I   0000000000000074 .L0  + 0
0000000000000078  0000000000000033 R_RISCV_RELAX                             0
0000000000000098  00000bc000000014 R_RISCV_GOT_HI20       0000000000000000 _ZNSt14__shared_countILN9__gnu_cxx12_Lock_policyE1EEC1IN5dwarf11die_str_map4implESaIvEJRKNS4_3dieERNS4_5DW_ATERKSt16initializer_listINS4_6DW_TAGEEEEERPT_St20_Sp_alloc_shared_tagIT0_EDpOT1_ + 0
000000000000009c  000006de00000018 R_RISCV_PCREL_LO12_I   0000000000000098 .L0  + 0
000000000000009c  0000000000000033 R_RISCV_RELAX                             0
00000000000000b4  00000bc100000014 R_RISCV_GOT_HI20       0000000000000000 _ZNSt12__shared_ptrIN5dwarf11die_str_map4implELN9__gnu_cxx12_Lock_policyE1EE31_M_enable_shared_from_this_withIS2_S2_EENSt9enable_ifIXntsrNS5_15__has_esft_baseIT0_vEE5valueEvE4typeEPT_ + 0
00000000000000b8  000006df00000018 R_RISCV_PCREL_LO12_I   00000000000000b4 .L0  + 0
00000000000000b8  0000000000000033 R_RISCV_RELAX                             0

Relocation section '.rela.text._ZNSt10_HashtableIPKcSt4pairIKS1_N5dwarf3dieEESaIS6_ENSt8__detail10_Select1stENS4_9string_eqENS4_11string_hashENS8_18_Mod_range_hashingENS8_20_Default_ranged_hashENS8_20_Prime_rehash_policyENS8_17_Hashtable_traitsILb1ELb0ELb1EEEE22__small_size_t' at offset 0x32d50 contains 3 entries:
    Offset             Info             Type               Symbol's Value  Symbol's Name + Addend
0000000000000010  00000bc300000014 R_RISCV_GOT_HI20       0000000000000000 _ZNSt8__detail22_Hashtable_hash_traitsIN5dwarf11string_hashEE22__small_size_thresholdEv + 0
0000000000000014  000006e000000018 R_RISCV_PCREL_LO12_I   0000000000000010 .L0  + 0
0000000000000014  0000000000000033 R_RISCV_RELAX                             0

Relocation section '.rela.text._ZNSt10_HashtableIPKcSt4pairIKS1_N5dwarf3dieEESaIS6_ENSt8__detail10_Select1stENS4_9string_eqENS4_11string_hashENS8_18_Mod_range_hashingENS8_20_Default_ranged_hashENS8_20_Prime_rehash_policyENS8_17_Hashtable_traitsILb1ELb0ELb1EEEE5beginEv' at offset 0x32d98 contains 6 entries:
    Offset             Info             Type               Symbol's Value  Symbol's Name + Addend
0000000000000018  00000b8d00000014 R_RISCV_GOT_HI20       0000000000000000 _ZNKSt10_HashtableIPKcSt4pairIKS1_N5dwarf3dieEESaIS6_ENSt8__detail10_Select1stENS4_9string_eqENS4_11string_hashENS8_18_Mod_range_hashingENS8_20_Default_ranged_hashENS8_20_Prime_rehash_policyENS8_17_Hashtable_traitsILb1ELb0ELb1EEEE8_M_beginEv + 0
000000000000001c  000006e100000018 R_RISCV_PCREL_LO12_I   0000000000000018 .L0  + 0
000000000000001c  0000000000000033 R_RISCV_RELAX                             0
0000000000000034  00000ba500000014 R_RISCV_GOT_HI20       0000000000000000 _ZNSt8__detail14_Node_iteratorISt4pairIKPKcN5dwarf3dieEELb0ELb1EEC1EPNS_10_Hash_nodeIS7_Lb1EEE + 0
0000000000000038  000006e200000018 R_RISCV_PCREL_LO12_I   0000000000000034 .L0  + 0
0000000000000038  0000000000000033 R_RISCV_RELAX                             0

Relocation section '.rela.text._ZNSt8__detail14_Node_iteratorISt4pairIKPKcN5dwarf3dieEELb0ELb1EEppEv' at offset 0x32e28 contains 3 entries:
    Offset             Info             Type               Symbol's Value  Symbol's Name + Addend
000000000000001c  00000bc400000014 R_RISCV_GOT_HI20       0000000000000000 _ZNSt8__detail19_Node_iterator_baseISt4pairIKPKcN5dwarf3dieEELb1EE7_M_incrEv + 0
0000000000000020  000006e300000018 R_RISCV_PCREL_LO12_I   000000000000001c .L0  + 0
0000000000000020  0000000000000033 R_RISCV_RELAX                             0

Relocation section '.rela.text._ZNKSt8__detail15_Hashtable_baseIPKcSt4pairIKS2_N5dwarf3dieEENS_10_Select1stENS5_9string_eqENS5_11string_hashENS_18_Mod_range_hashingENS_20_Default_ranged_hashENS_17_Hashtable_traitsILb1ELb0ELb1EEEE13_M_key_equalsERS4_RKNS_16_Hash_node_valueIS7_' at offset 0x32e70 contains 12 entries:
    Offset             Info             Type               Symbol's Value  Symbol's Name + Addend
0000000000000028  00000bc500000014 R_RISCV_GOT_HI20       0000000000000000 _ZNKSt8__detail15_Hashtable_baseIPKcSt4pairIKS2_N5dwarf3dieEENS_10_Select1stENS5_9string_eqENS5_11string_hashENS_18_Mod_range_hashingENS_20_Default_ranged_hashENS_17_Hashtable_traitsILb1ELb0ELb1EEEE5_M_eqEv + 0
000000000000002c  000006e400000018 R_RISCV_PCREL_LO12_I   0000000000000028 .L0  + 0
000000000000002c  0000000000000033 R_RISCV_RELAX                             0
0000000000000048  00000bc600000014 R_RISCV_GOT_HI20       0000000000000000 _ZNKSt8__detail21_Hash_node_value_baseISt4pairIKPKcN5dwarf3dieEEE4_M_vEv + 0
000000000000004c  000006e500000018 R_RISCV_PCREL_LO12_I   0000000000000048 .L0  + 0
000000000000004c  0000000000000033 R_RISCV_RELAX                             0
0000000000000064  00000bc700000014 R_RISCV_GOT_HI20       0000000000000000 _ZNKSt8__detail10_Select1stclIRKSt4pairIKPKcN5dwarf3dieEEEEONS0_10__1st_typeIT_E4typeEOSC_ + 0
0000000000000068  000006e600000018 R_RISCV_PCREL_LO12_I   0000000000000064 .L0  + 0
0000000000000068  0000000000000033 R_RISCV_RELAX                             0
0000000000000084  00000b2900000014 R_RISCV_GOT_HI20       0000000000000000 _ZNK5dwarf9string_eqclEPKcS2_ + 0
0000000000000088  000006e700000018 R_RISCV_PCREL_LO12_I   0000000000000084 .L0  + 0
0000000000000088  0000000000000033 R_RISCV_RELAX                             0

Relocation section '.rela.text._ZNKSt8__detail15_Hash_code_baseIPKcSt4pairIKS2_N5dwarf3dieEENS_10_Select1stENS5_11string_hashENS_18_Mod_range_hashingENS_20_Default_ranged_hashELb1EE12_M_hash_codeERS4_' at offset 0x32f90 contains 6 entries:
    Offset             Info             Type               Symbol's Value  Symbol's Name + Addend
000000000000001c  00000bc800000014 R_RISCV_GOT_HI20       0000000000000000 _ZNKSt8__detail15_Hash_code_baseIPKcSt4pairIKS2_N5dwarf3dieEENS_10_Select1stENS5_11string_hashENS_18_Mod_range_hashingENS_20_Default_ranged_hashELb1EE7_M_hashEv + 0
0000000000000020  000006e800000018 R_RISCV_PCREL_LO12_I   000000000000001c .L0  + 0
0000000000000020  0000000000000033 R_RISCV_RELAX                             0
000000000000003c  00000b2800000014 R_RISCV_GOT_HI20       0000000000000000 _ZNK5dwarf11string_hashclEPKc + 0
0000000000000040  000006e900000018 R_RISCV_PCREL_LO12_I   000000000000003c .L0  + 0
0000000000000040  0000000000000033 R_RISCV_RELAX                             0

Relocation section '.rela.text._ZNKSt10_HashtableIPKcSt4pairIKS1_N5dwarf3dieEESaIS6_ENSt8__detail10_Select1stENS4_9string_eqENS4_11string_hashENS8_18_Mod_range_hashingENS8_20_Default_ranged_hashENS8_20_Prime_rehash_policyENS8_17_Hashtable_traitsILb1ELb0ELb1EEEE15_M_bucket_ind' at offset 0x33020 contains 3 entries:
    Offset             Info             Type               Symbol's Value  Symbol's Name + Addend
000000000000002c  00000bc900000014 R_RISCV_GOT_HI20       0000000000000000 _ZNKSt8__detail15_Hash_code_baseIPKcSt4pairIKS2_N5dwarf3dieEENS_10_Select1stENS5_11string_hashENS_18_Mod_range_hashingENS_20_Default_ranged_hashELb1EE15_M_bucket_indexEmm + 0
0000000000000030  000006ea00000018 R_RISCV_PCREL_LO12_I   000000000000002c .L0  + 0
0000000000000030  0000000000000033 R_RISCV_RELAX                             0

Relocation section '.rela.text._ZNKSt10_HashtableIPKcSt4pairIKS1_N5dwarf3dieEESaIS6_ENSt8__detail10_Select1stENS4_9string_eqENS4_11string_hashENS8_18_Mod_range_hashingENS8_20_Default_ranged_hashENS8_20_Prime_rehash_policyENS8_17_Hashtable_traitsILb1ELb0ELb1EEEE12_M_find_nodeE' at offset 0x33068 contains 5 entries:
    Offset             Info             Type               Symbol's Value  Symbol's Name + Addend
0000000000000030  00000bca00000014 R_RISCV_GOT_HI20       0000000000000000 _ZNKSt10_HashtableIPKcSt4pairIKS1_N5dwarf3dieEESaIS6_ENSt8__detail10_Select1stENS4_9string_eqENS4_11string_hashENS8_18_Mod_range_hashingENS8_20_Default_ranged_hashENS8_20_Prime_rehash_policyENS8_17_Hashtable_traitsILb1ELb0ELb1EEEE19_M_find_before_nodeEmRS3_m + 0
0000000000000034  000006eb00000018 R_RISCV_PCREL_LO12_I   0000000000000030 .L0  + 0
0000000000000034  0000000000000033 R_RISCV_RELAX                             0
0000000000000048  000006ec00000010 R_RISCV_BRANCH         0000000000000058 .L239 + 0
0000000000000054  000006ed00000011 R_RISCV_JAL            000000000000005c .L240 + 0

Relocation section '.rela.text._ZNSt8__detail14_Node_iteratorISt4pairIKPKcN5dwarf3dieEELb0ELb1EEC2EPNS_10_Hash_nodeIS7_Lb1EEE' at offset 0x330e0 contains 3 entries:
    Offset             Info             Type               Symbol's Value  Symbol's Name + Addend
0000000000000024  00000bcc00000014 R_RISCV_GOT_HI20       0000000000000000 _ZNSt8__detail19_Node_iterator_baseISt4pairIKPKcN5dwarf3dieEELb1EEC2EPNS_10_Hash_nodeIS7_Lb1EEE + 0
0000000000000028  000006ee00000018 R_RISCV_PCREL_LO12_I   0000000000000024 .L0  + 0
0000000000000028  0000000000000033 R_RISCV_RELAX                             0

Relocation section '.rela.text._ZN9__gnu_cxx16__aligned_bufferISt4pairIKPKcN5dwarf3dieEEE6_M_ptrEv' at offset 0x33128 contains 3 entries:
    Offset             Info             Type               Symbol's Value  Symbol's Name + Addend
0000000000000018  00000bcd00000014 R_RISCV_GOT_HI20       0000000000000000 _ZN9__gnu_cxx16__aligned_bufferISt4pairIKPKcN5dwarf3dieEEE7_M_addrEv + 0
000000000000001c  000006ef00000018 R_RISCV_PCREL_LO12_I   0000000000000018 .L0  + 0
000000000000001c  0000000000000033 R_RISCV_RELAX                             0

Relocation section '.rela.text._ZNKSt10_HashtableIN5dwarf6DW_TAGES1_SaIS1_ENSt8__detail9_IdentityESt8equal_toIS1_ESt4hashIS1_ENS3_18_Mod_range_hashingENS3_20_Default_ranged_hashENS3_20_Prime_rehash_policyENS3_17_Hashtable_traitsILb1ELb1ELb1EEEE4findERKS1_' at offset 0x33170 contains 42 entries:
    Offset             Info             Type               Symbol's Value  Symbol's Name + Addend
0000000000000020  00000bce00000014 R_RISCV_GOT_HI20       0000000000000000 _ZNKSt10_HashtableIN5dwarf6DW_TAGES1_SaIS1_ENSt8__detail9_IdentityESt8equal_toIS1_ESt4hashIS1_ENS3_18_Mod_range_hashingENS3_20_Default_ranged_hashENS3_20_Prime_rehash_policyENS3_17_Hashtable_traitsILb1ELb1ELb1EEEE4sizeEv + 0
0000000000000024  000006f000000018 R_RISCV_PCREL_LO12_I   0000000000000020 .L0  + 0
0000000000000024  0000000000000033 R_RISCV_RELAX                             0
0000000000000030  00000bcf00000014 R_RISCV_GOT_HI20       0000000000000000 _ZNSt10_HashtableIN5dwarf6DW_TAGES1_SaIS1_ENSt8__detail9_IdentityESt8equal_toIS1_ESt4hashIS1_ENS3_18_Mod_range_hashingENS3_20_Default_ranged_hashENS3_20_Prime_rehash_policyENS3_17_Hashtable_traitsILb1ELb1ELb1EEEE22__small_size_thresholdEv + 0
0000000000000034  000006f100000018 R_RISCV_PCREL_LO12_I   0000000000000030 .L0  + 0
0000000000000034  0000000000000033 R_RISCV_RELAX                             0
000000000000004c  000006fc00000010 R_RISCV_BRANCH         0000000000000104 .L245 + 0
0000000000000054  00000bd000000014 R_RISCV_GOT_HI20       0000000000000000 _ZNKSt10_HashtableIN5dwarf6DW_TAGES1_SaIS1_ENSt8__detail9_IdentityESt8equal_toIS1_ESt4hashIS1_ENS3_18_Mod_range_hashingENS3_20_Default_ranged_hashENS3_20_Prime_rehash_policyENS3_17_Hashtable_traitsILb1ELb1ELb1EEEE5beginEv + 0
0000000000000058  000006f200000018 R_RISCV_PCREL_LO12_I   0000000000000054 .L0  + 0
0000000000000058  0000000000000033 R_RISCV_RELAX                             0
0000000000000068  000006fd00000011 R_RISCV_JAL            00000000000000b0 .L246 + 0
0000000000000080  00000bd100000014 R_RISCV_GOT_HI20       0000000000000000 _ZNKSt8__detail15_Hashtable_baseIN5dwarf6DW_TAGES2_NS_9_IdentityESt8equal_toIS2_ESt4hashIS2_ENS_18_Mod_range_hashingENS_20_Default_ranged_hashENS_17_Hashtable_traitsILb1ELb1ELb1EEEE13_M_key_equalsERKS2_RKNS_16_Hash_node_valueIS2_Lb1EEE + 0
0000000000000084  000006f300000018 R_RISCV_PCREL_LO12_I   0000000000000080 .L0  + 0
0000000000000084  0000000000000033 R_RISCV_RELAX                             0
0000000000000090  000006fe00000010 R_RISCV_BRANCH         000000000000009c .L247 + 0
0000000000000098  000006ff00000011 R_RISCV_JAL            0000000000000178 .L248 + 0
00000000000000a4  00000bd200000014 R_RISCV_GOT_HI20       0000000000000000 _ZNSt8__detail20_Node_const_iteratorIN5dwarf6DW_TAGELb1ELb1EEppEv + 0
00000000000000a8  000006f400000018 R_RISCV_PCREL_LO12_I   00000000000000a4 .L0  + 0
00000000000000a8  0000000000000033 R_RISCV_RELAX                             0
00000000000000b4  00000bd300000014 R_RISCV_GOT_HI20       0000000000000000 _ZNKSt10_HashtableIN5dwarf6DW_TAGES1_SaIS1_ENSt8__detail9_IdentityESt8equal_toIS1_ESt4hashIS1_ENS3_18_Mod_range_hashingENS3_20_Default_ranged_hashENS3_20_Prime_rehash_policyENS3_17_Hashtable_traitsILb1ELb1ELb1EEEE3endEv + 0
00000000000000b8  000006f500000018 R_RISCV_PCREL_LO12_I   00000000000000b4 .L0  + 0
00000000000000b8  0000000000000033 R_RISCV_RELAX                             0
00000000000000d8  00000bd400000014 R_RISCV_GOT_HI20       0000000000000000 _ZNSt8__detailneERKNS_19_Node_iterator_baseIN5dwarf6DW_TAGELb1EEES5_ + 0
00000000000000dc  000006f600000018 R_RISCV_PCREL_LO12_I   00000000000000d8 .L0  + 0
00000000000000dc  0000000000000033 R_RISCV_RELAX                             0
00000000000000e8  0000070000000010 R_RISCV_BRANCH         000000000000006c .L249 + 0
00000000000000f0  00000bd300000014 R_RISCV_GOT_HI20       0000000000000000 _ZNKSt10_HashtableIN5dwarf6DW_TAGES1_SaIS1_ENSt8__detail9_IdentityESt8equal_toIS1_ESt4hashIS1_ENS3_18_Mod_range_hashingENS3_20_Default_ranged_hashENS3_20_Prime_rehash_policyENS3_17_Hashtable_traitsILb1ELb1ELb1EEEE3endEv + 0
00000000000000f4  000006f700000018 R_RISCV_PCREL_LO12_I   00000000000000f0 .L0  + 0
00000000000000f4  0000000000000033 R_RISCV_RELAX                             0
0000000000000100  000006ff00000011 R_RISCV_JAL            0000000000000178 .L248 + 0
000000000000010c  00000bd500000014 R_RISCV_GOT_HI20       0000000000000000 _ZNKSt8__detail15_Hash_code_baseIN5dwarf6DW_TAGES2_NS_9_IdentityESt4hashIS2_ENS_18_Mod_range_hashingENS_20_Default_ranged_hashELb1EE12_M_hash_codeERKS2_ + 0
0000000000000110  000006f800000018 R_RISCV_PCREL_LO12_I   000000000000010c .L0  + 0
0000000000000110  0000000000000033 R_RISCV_RELAX                             0
0000000000000128  00000bd600000014 R_RISCV_GOT_HI20       0000000000000000 _ZNKSt10_HashtableIN5dwarf6DW_TAGES1_SaIS1_ENSt8__detail9_IdentityESt8equal_toIS1_ESt4hashIS1_ENS3_18_Mod_range_hashingENS3_20_Default_ranged_hashENS3_20_Prime_rehash_policyENS3_17_Hashtable_traitsILb1ELb1ELb1EEEE15_M_bucket_indexEm + 0
000000000000012c  000006f900000018 R_RISCV_PCREL_LO12_I   0000000000000128 .L0  + 0
000000000000012c  0000000000000033 R_RISCV_RELAX                             0
000000000000014c  00000bd700000014 R_RISCV_GOT_HI20       0000000000000000 _ZNKSt10_HashtableIN5dwarf6DW_TAGES1_SaIS1_ENSt8__detail9_IdentityESt8equal_toIS1_ESt4hashIS1_ENS3_18_Mod_range_hashingENS3_20_Default_ranged_hashENS3_20_Prime_rehash_policyENS3_17_Hashtable_traitsILb1ELb1ELb1EEEE12_M_find_nodeEmRKS1_m + 0
0000000000000150  000006fa00000018 R_RISCV_PCREL_LO12_I   000000000000014c .L0  + 0
0000000000000150  0000000000000033 R_RISCV_RELAX                             0
0000000000000168  00000bd800000014 R_RISCV_GOT_HI20       0000000000000000 _ZNSt8__detail20_Node_const_iteratorIN5dwarf6DW_TAGELb1ELb1EEC1EPNS_10_Hash_nodeIS2_Lb1EEE + 0
000000000000016c  000006fb00000018 R_RISCV_PCREL_LO12_I   0000000000000168 .L0  + 0
000000000000016c  0000000000000033 R_RISCV_RELAX                             0

Relocation section '.rela.text._ZNSt8__detail20_Node_const_iteratorIN5dwarf6DW_TAGELb1ELb1EEppEv' at offset 0x33560 contains 3 entries:
    Offset             Info             Type               Symbol's Value  Symbol's Name + Addend
000000000000001c  00000bd900000014 R_RISCV_GOT_HI20       0000000000000000 _ZNSt8__detail19_Node_iterator_baseIN5dwarf6DW_TAGELb1EE7_M_incrEv + 0
0000000000000020  0000070100000018 R_RISCV_PCREL_LO12_I   000000000000001c .L0  + 0
0000000000000020  0000000000000033 R_RISCV_RELAX                             0

Relocation section '.rela.text._ZNSt8__detail21_Hash_node_value_baseISt4pairIKPKcN5dwarf3dieEEE4_M_vEv' at offset 0x335a8 contains 3 entries:
    Offset             Info             Type               Symbol's Value  Symbol's Name + Addend
0000000000000018  00000b8200000014 R_RISCV_GOT_HI20       0000000000000000 _ZNSt8__detail21_Hash_node_value_baseISt4pairIKPKcN5dwarf3dieEEE9_M_valptrEv + 0
000000000000001c  0000070200000018 R_RISCV_PCREL_LO12_I   0000000000000018 .L0  + 0
000000000000001c  0000000000000033 R_RISCV_RELAX                             0

Relocation section '.rela.text._ZNSt5tupleIJRKPKcEEC2ILb1ELb1EEES3_' at offset 0x335f0 contains 3 entries:
    Offset             Info             Type               Symbol's Value  Symbol's Name + Addend
0000000000000024  00000bdb00000014 R_RISCV_GOT_HI20       0000000000000000 _ZNSt11_Tuple_implILm0EJRKPKcEEC2ES3_ + 0
0000000000000028  0000070300000018 R_RISCV_PCREL_LO12_I   0000000000000024 .L0  + 0
0000000000000028  0000000000000033 R_RISCV_RELAX                             0

Relocation section '.rela.text._ZNSt10_HashtableIPKcSt4pairIKS1_N5dwarf3dieEESaIS6_ENSt8__detail10_Select1stENS4_9string_eqENS4_11string_hashENS8_18_Mod_range_hashingENS8_20_Default_ranged_hashENS8_20_Prime_rehash_policyENS8_17_Hashtable_traitsILb1ELb0ELb1EEEE12_Scoped_nodeC2' at offset 0x33638 contains 12 entries:
    Offset             Info             Type               Symbol's Value  Symbol's Name + Addend
0000000000000044  00000bdd00000014 R_RISCV_GOT_HI20       0000000000000000 _ZSt7forwardIRKSt21piecewise_construct_tEOT_RNSt16remove_referenceIS3_E4typeE + 0
0000000000000048  0000070400000018 R_RISCV_PCREL_LO12_I   0000000000000044 .L0  + 0
0000000000000048  0000000000000033 R_RISCV_RELAX                             0
0000000000000058  00000bde00000014 R_RISCV_GOT_HI20       0000000000000000 _ZSt7forwardISt5tupleIJRKPKcEEEOT_RNSt16remove_referenceIS6_E4typeE + 0
000000000000005c  0000070500000018 R_RISCV_PCREL_LO12_I   0000000000000058 .L0  + 0
000000000000005c  0000000000000033 R_RISCV_RELAX                             0
000000000000006c  00000bdf00000014 R_RISCV_GOT_HI20       0000000000000000 _ZSt7forwardISt5tupleIJEEEOT_RNSt16remove_referenceIS2_E4typeE + 0
0000000000000070  0000070600000018 R_RISCV_PCREL_LO12_I   000000000000006c .L0  + 0
0000000000000070  0000000000000033 R_RISCV_RELAX                             0
000000000000008c  00000be000000014 R_RISCV_GOT_HI20       0000000000000000 _ZNSt8__detail16_Hashtable_allocISaINS_10_Hash_nodeISt4pairIKPKcN5dwarf3dieEELb1EEEEE16_M_allocate_nodeIJRKSt21piecewise_construct_tSt5tupleIJRS5_EESG_IJEEEEEPS9_DpOT_ + 0
0000000000000090  0000070700000018 R_RISCV_PCREL_LO12_I   000000000000008c .L0  + 0
0000000000000090  0000000000000033 R_RISCV_RELAX                             0

Relocation section '.rela.text._ZNSt10_HashtableIPKcSt4pairIKS1_N5dwarf3dieEESaIS6_ENSt8__detail10_Select1stENS4_9string_eqENS4_11string_hashENS8_18_Mod_range_hashingENS8_20_Default_ranged_hashENS8_20_Prime_rehash_policyENS8_17_Hashtable_traitsILb1ELb0ELb1EEEE12_Scoped_nodeD2' at offset 0x33758 contains 4 entries:
    Offset             Info             Type               Symbol's Value  Symbol's Name + Addend
000000000000001c  0000070900000010 R_RISCV_BRANCH         0000000000000044 .L258 + 0
0000000000000038  00000bb500000014 R_RISCV_GOT_HI20       0000000000000000 _ZNSt8__detail16_Hashtable_allocISaINS_10_Hash_nodeISt4pairIKPKcN5dwarf3dieEELb1EEEEE18_M_deallocate_nodeEPS9_ + 0
000000000000003c  0000070800000018 R_RISCV_PCREL_LO12_I   0000000000000038 .L0  + 0
000000000000003c  0000000000000033 R_RISCV_RELAX                             0

Relocation section '.rela.text._ZNSt10_HashtableIPKcSt4pairIKS1_N5dwarf3dieEESaIS6_ENSt8__detail10_Select1stENS4_9string_eqENS4_11string_hashENS8_18_Mod_range_hashingENS8_20_Default_ranged_hashENS8_20_Prime_rehash_policyENS8_17_Hashtable_traitsILb1ELb0ELb1EEEE21_M_insert_uniq' at offset 0x337b8 contains 21 entries:
    Offset             Info             Type               Symbol's Value  Symbol's Name + Addend
0000000000000030  00000b2500000014 R_RISCV_GOT_HI20       0000000000000000 _ZNKSt8__detail20_Prime_rehash_policy8_M_stateEv + 0
0000000000000034  0000070a00000018 R_RISCV_PCREL_LO12_I   0000000000000030 .L0  + 0
0000000000000034  0000000000000033 R_RISCV_RELAX                             0
0000000000000070  00000be200000013 R_RISCV_CALL_PLT       0000000000000000 _ZNKSt8__detail20_Prime_rehash_policy14_M_need_rehashEmmm + 0
0000000000000070  0000000000000033 R_RISCV_RELAX                             0
000000000000008c  0000071000000010 R_RISCV_BRANCH         00000000000000c8 .L260 + 0
00000000000000a0  00000be300000014 R_RISCV_GOT_HI20       0000000000000000 _ZNSt10_HashtableIPKcSt4pairIKS1_N5dwarf3dieEESaIS6_ENSt8__detail10_Select1stENS4_9string_eqENS4_11string_hashENS8_18_Mod_range_hashingENS8_20_Default_ranged_hashENS8_20_Prime_rehash_policyENS8_17_Hashtable_traitsILb1ELb0ELb1EEEE9_M_rehashEmRKm + 0
00000000000000a4  0000070b00000018 R_RISCV_PCREL_LO12_I   00000000000000a0 .L0  + 0
00000000000000a4  0000000000000033 R_RISCV_RELAX                             0
00000000000000b4  00000ba300000014 R_RISCV_GOT_HI20       0000000000000000 _ZNKSt10_HashtableIPKcSt4pairIKS1_N5dwarf3dieEESaIS6_ENSt8__detail10_Select1stENS4_9string_eqENS4_11string_hashENS8_18_Mod_range_hashingENS8_20_Default_ranged_hashENS8_20_Prime_rehash_policyENS8_17_Hashtable_traitsILb1ELb0ELb1EEEE15_M_bucket_indexEm + 0
00000000000000b8  0000070c00000018 R_RISCV_PCREL_LO12_I   00000000000000b4 .L0  + 0
00000000000000b8  0000000000000033 R_RISCV_RELAX                             0
00000000000000dc  00000be400000014 R_RISCV_GOT_HI20       0000000000000000 _ZNKSt8__detail15_Hash_code_baseIPKcSt4pairIKS2_N5dwarf3dieEENS_10_Select1stENS5_11string_hashENS_18_Mod_range_hashingENS_20_Default_ranged_hashELb1EE13_M_store_codeERNS_21_Hash_node_code_cacheILb1EEEm + 0
00000000000000e0  0000070d00000018 R_RISCV_PCREL_LO12_I   00000000000000dc .L0  + 0
00000000000000e0  0000000000000033 R_RISCV_RELAX                             0
00000000000000f4  00000be500000014 R_RISCV_GOT_HI20       0000000000000000 _ZNSt10_HashtableIPKcSt4pairIKS1_N5dwarf3dieEESaIS6_ENSt8__detail10_Select1stENS4_9string_eqENS4_11string_hashENS8_18_Mod_range_hashingENS8_20_Default_ranged_hashENS8_20_Prime_rehash_policyENS8_17_Hashtable_traitsILb1ELb0ELb1EEEE22_M_insert_bucket_beginEmPNS8_10_Hash_nodeIS6_Lb1EEE + 0
00000000000000f8  0000070e00000018 R_RISCV_PCREL_LO12_I   00000000000000f4 .L0  + 0
00000000000000f8  0000000000000033 R_RISCV_RELAX                             0
0000000000000120  00000ba500000014 R_RISCV_GOT_HI20       0000000000000000 _ZNSt8__detail14_Node_iteratorISt4pairIKPKcN5dwarf3dieEELb0ELb1EEC1EPNS_10_Hash_nodeIS7_Lb1EEE + 0
0000000000000124  0000070f00000018 R_RISCV_PCREL_LO12_I   0000000000000120 .L0  + 0
0000000000000124  0000000000000033 R_RISCV_RELAX                             0

Relocation section '.rela.text._ZNSt8__detail16_Hashtable_allocISaINS_10_Hash_nodeISt4pairIKPKcN5dwarf3dieEELb1EEEEE18_M_deallocate_nodeEPS9_' at offset 0x339b0 contains 12 entries:
    Offset             Info             Type               Symbol's Value  Symbol's Name + Addend
0000000000000020  00000be600000014 R_RISCV_GOT_HI20       0000000000000000 _ZNSt8__detail16_Hashtable_allocISaINS_10_Hash_nodeISt4pairIKPKcN5dwarf3dieEELb1EEEEE17_M_node_allocatorEv + 0
0000000000000024  0000071100000018 R_RISCV_PCREL_LO12_I   0000000000000020 .L0  + 0
0000000000000024  0000000000000033 R_RISCV_RELAX                             0
000000000000003c  00000b8200000014 R_RISCV_GOT_HI20       0000000000000000 _ZNSt8__detail21_Hash_node_value_baseISt4pairIKPKcN5dwarf3dieEEE9_M_valptrEv + 0
0000000000000040  0000071200000018 R_RISCV_PCREL_LO12_I   000000000000003c .L0  + 0
0000000000000040  0000000000000033 R_RISCV_RELAX                             0
0000000000000054  00000be700000014 R_RISCV_GOT_HI20       0000000000000000 _ZNSt16allocator_traitsISaINSt8__detail10_Hash_nodeISt4pairIKPKcN5dwarf3dieEELb1EEEEE7destroyIS8_EEvRSA_PT_ + 0
0000000000000058  0000071300000018 R_RISCV_PCREL_LO12_I   0000000000000054 .L0  + 0
0000000000000058  0000000000000033 R_RISCV_RELAX                             0
0000000000000068  00000be800000014 R_RISCV_GOT_HI20       0000000000000000 _ZNSt8__detail16_Hashtable_allocISaINS_10_Hash_nodeISt4pairIKPKcN5dwarf3dieEELb1EEEEE22_M_deallocate_node_ptrEPS9_ + 0
000000000000006c  0000071400000018 R_RISCV_PCREL_LO12_I   0000000000000068 .L0  + 0
000000000000006c  0000000000000033 R_RISCV_RELAX                             0

Relocation section '.rela.text._ZNSt8__detail16_Hashtable_allocISaINS_10_Hash_nodeISt4pairIKPKcN5dwarf3dieEELb1EEEEE21_M_deallocate_bucketsEPPNS_15_Hash_node_baseEm' at offset 0x33ad0 contains 21 entries:
    Offset             Info             Type               Symbol's Value  Symbol's Name + Addend
0000000000000024  00000be900000014 R_RISCV_GOT_HI20       0000000000000000 _ZNSt19__ptr_traits_ptr_toIPPNSt8__detail15_Hash_node_baseES2_Lb0EE10pointer_toERS2_ + 0
0000000000000028  0000071500000018 R_RISCV_PCREL_LO12_I   0000000000000024 .L0  + 0
0000000000000028  0000000000000033 R_RISCV_RELAX                             0
0000000000000038  00000be600000014 R_RISCV_GOT_HI20       0000000000000000 _ZNSt8__detail16_Hashtable_allocISaINS_10_Hash_nodeISt4pairIKPKcN5dwarf3dieEELb1EEEEE17_M_node_allocatorEv + 0
000000000000003c  0000071600000018 R_RISCV_PCREL_LO12_I   0000000000000038 .L0  + 0
000000000000003c  0000000000000033 R_RISCV_RELAX                             0
0000000000000054  00000bea00000014 R_RISCV_GOT_HI20       0000000000000000 _ZNSaIPNSt8__detail15_Hash_node_baseEEC1INS_10_Hash_nodeISt4pairIKPKcN5dwarf3dieEELb1EEEEERKSaIT_E + 0
0000000000000058  0000071700000018 R_RISCV_PCREL_LO12_I   0000000000000054 .L0  + 0
0000000000000058  0000000000000033 R_RISCV_RELAX                             0
0000000000000070  00000beb00000014 R_RISCV_GOT_HI20       0000000000000000 _ZNSt16allocator_traitsISaIPNSt8__detail15_Hash_node_baseEEE10deallocateERS3_PS2_m + 0
0000000000000074  0000071800000018 R_RISCV_PCREL_LO12_I   0000000000000070 .L0  + 0
0000000000000074  0000000000000033 R_RISCV_RELAX                             0
0000000000000084  00000bec00000014 R_RISCV_GOT_HI20       0000000000000000 _ZNSaIPNSt8__detail15_Hash_node_baseEED1Ev + 0
0000000000000088  0000071900000018 R_RISCV_PCREL_LO12_I   0000000000000084 .L0  + 0
0000000000000088  0000000000000033 R_RISCV_RELAX                             0
0000000000000090  0000071b00000011 R_RISCV_JAL            00000000000000bc .L270 + 0
00000000000000a0  00000bec00000014 R_RISCV_GOT_HI20       0000000000000000 _ZNSaIPNSt8__detail15_Hash_node_baseEED1Ev + 0
00000000000000a4  0000071a00000018 R_RISCV_PCREL_LO12_I   00000000000000a0 .L0  + 0
00000000000000a4  0000000000000033 R_RISCV_RELAX                             0
00000000000000b4  00000b4a00000013 R_RISCV_CALL_PLT       0000000000000000 _Unwind_Resume + 0
00000000000000b4  0000000000000033 R_RISCV_RELAX                             0

Relocation section '.rela.gcc_except_table._ZNSt8__detail16_Hashtable_allocISaINS_10_Hash_nodeISt4pairIKPKcN5dwarf3dieEELb1EEEEE21_M_deallocate_bucketsEPPNS_15_Hash_node_baseEm' at offset 0x33cc8 contains 14 entries:
    Offset             Info             Type               Symbol's Value  Symbol's Name + Addend
0000000000000004  0000071c00000023 R_RISCV_ADD32          0000000000000040 .LEHB9 + 0
0000000000000004  0000071d00000027 R_RISCV_SUB32          0000000000000000 .LFB3803 + 0
0000000000000008  0000071e00000023 R_RISCV_ADD32          0000000000000044 .LEHE9 + 0
0000000000000008  0000071c00000027 R_RISCV_SUB32          0000000000000040 .LEHB9 + 0
0000000000000011  0000071f00000023 R_RISCV_ADD32          0000000000000078 .LEHB10 + 0
0000000000000011  0000071d00000027 R_RISCV_SUB32          0000000000000000 .LFB3803 + 0
0000000000000015  0000072000000023 R_RISCV_ADD32          000000000000007c .LEHE10 + 0
0000000000000015  0000071f00000027 R_RISCV_SUB32          0000000000000078 .LEHB10 + 0
0000000000000019  0000072100000023 R_RISCV_ADD32          0000000000000094 .L269 + 0
0000000000000019  0000071d00000027 R_RISCV_SUB32          0000000000000000 .LFB3803 + 0
000000000000001e  0000072200000023 R_RISCV_ADD32          00000000000000b4 .LEHB11 + 0
000000000000001e  0000071d00000027 R_RISCV_SUB32          0000000000000000 .LFB3803 + 0
0000000000000022  0000072300000023 R_RISCV_ADD32          00000000000000bc .LEHE11 + 0
0000000000000022  0000072200000027 R_RISCV_SUB32          00000000000000b4 .LEHB11 + 0

Relocation section '.rela.text._ZNSt10_HashtableIN5dwarf6DW_TAGES1_SaIS1_ENSt8__detail9_IdentityESt8equal_toIS1_ESt4hashIS1_ENS3_18_Mod_range_hashingENS3_20_Default_ranged_hashENS3_20_Prime_rehash_policyENS3_17_Hashtable_traitsILb1ELb1ELb1EEEEC2EmRKS8_RKS6_RKS2_' at offset 0x33e18 contains 15 entries:
    Offset             Info             Type               Symbol's Value  Symbol's Name + Addend
0000000000000038  00000bee00000014 R_RISCV_GOT_HI20       0000000000000000 _ZNSt10_HashtableIN5dwarf6DW_TAGES1_SaIS1_ENSt8__detail9_IdentityESt8equal_toIS1_ESt4hashIS1_ENS3_18_Mod_range_hashingENS3_20_Default_ranged_hashENS3_20_Prime_rehash_policyENS3_17_Hashtable_traitsILb1ELb1ELb1EEEEC1ERKS8_RKS6_RKS2_ + 0
000000000000003c  0000072400000018 R_RISCV_PCREL_LO12_I   0000000000000038 .L0  + 0
000000000000003c  0000000000000033 R_RISCV_RELAX                             0
0000000000000054  00000bef00000013 R_RISCV_CALL_PLT       0000000000000000 _ZNKSt8__detail20_Prime_rehash_policy11_M_next_bktEm + 0
0000000000000054  0000000000000033 R_RISCV_RELAX                             0
0000000000000070  0000072700000010 R_RISCV_BRANCH         00000000000000c8 .L275 + 0
000000000000007c  00000bf000000014 R_RISCV_GOT_HI20       0000000000000000 _ZNSt10_HashtableIN5dwarf6DW_TAGES1_SaIS1_ENSt8__detail9_IdentityESt8equal_toIS1_ESt4hashIS1_ENS3_18_Mod_range_hashingENS3_20_Default_ranged_hashENS3_20_Prime_rehash_policyENS3_17_Hashtable_traitsILb1ELb1ELb1EEEE19_M_allocate_bucketsEm + 0
0000000000000080  0000072500000018 R_RISCV_PCREL_LO12_I   000000000000007c .L0  + 0
0000000000000080  0000000000000033 R_RISCV_RELAX                             0
00000000000000a0  0000072700000011 R_RISCV_JAL            00000000000000c8 .L275 + 0
00000000000000ac  00000b4000000014 R_RISCV_GOT_HI20       0000000000000000 _ZNSt10_HashtableIN5dwarf6DW_TAGES1_SaIS1_ENSt8__detail9_IdentityESt8equal_toIS1_ESt4hashIS1_ENS3_18_Mod_range_hashingENS3_20_Default_ranged_hashENS3_20_Prime_rehash_policyENS3_17_Hashtable_traitsILb1ELb1ELb1EEEED1Ev + 0
00000000000000b0  0000072600000018 R_RISCV_PCREL_LO12_I   00000000000000ac .L0  + 0
00000000000000b0  0000000000000033 R_RISCV_RELAX                             0
00000000000000c0  00000b4a00000013 R_RISCV_CALL_PLT       0000000000000000 _Unwind_Resume + 0
00000000000000c0  0000000000000033 R_RISCV_RELAX                             0

Relocation section '.rela.gcc_except_table._ZNSt10_HashtableIN5dwarf6DW_TAGES1_SaIS1_ENSt8__detail9_IdentityESt8equal_toIS1_ESt4hashIS1_ENS3_18_Mod_range_hashingENS3_20_Default_ranged_hashENS3_20_Prime_rehash_policyENS3_17_Hashtable_traitsILb1ELb1ELb1EEEEC2EmRKS8_RKS6_RKS2_' at offset 0x33f80 contains 14 entries:
    Offset             Info             Type               Symbol's Value  Symbol's Name + Addend
0000000000000004  0000072800000023 R_RISCV_ADD32          0000000000000040 .LEHB12 + 0
0000000000000004  0000072900000027 R_RISCV_SUB32          0000000000000000 .LFB3805 + 0
0000000000000008  0000072a00000023 R_RISCV_ADD32          0000000000000044 .LEHE12 + 0
0000000000000008  0000072800000027 R_RISCV_SUB32          0000000000000040 .LEHB12 + 0
0000000000000011  0000072b00000023 R_RISCV_ADD32          0000000000000054 .LEHB13 + 0
0000000000000011  0000072900000027 R_RISCV_SUB32          0000000000000000 .LFB3805 + 0
0000000000000015  0000072c00000023 R_RISCV_ADD32          0000000000000088 .LEHE13 + 0
0000000000000015  0000072b00000027 R_RISCV_SUB32          0000000000000054 .LEHB13 + 0
0000000000000019  0000072d00000023 R_RISCV_ADD32          00000000000000a4 .L274 + 0
0000000000000019  0000072900000027 R_RISCV_SUB32          0000000000000000 .LFB3805 + 0
000000000000001e  0000072e00000023 R_RISCV_ADD32          00000000000000c0 .LEHB14 + 0
000000000000001e  0000072900000027 R_RISCV_SUB32          0000000000000000 .LFB3805 + 0
0000000000000022  0000072f00000023 R_RISCV_ADD32          00000000000000c8 .LEHE14 + 0
0000000000000022  0000072e00000027 R_RISCV_SUB32          00000000000000c0 .LEHB14 + 0

Relocation section '.rela.text._ZNSt8__detail12_Insert_baseIN5dwarf6DW_TAGES2_SaIS2_ENS_9_IdentityESt8equal_toIS2_ESt4hashIS2_ENS_18_Mod_range_hashingENS_20_Default_ranged_hashENS_20_Prime_rehash_policyENS_17_Hashtable_traitsILb1ELb1ELb1EEEE6insertERKS2_' at offset 0x340d0 contains 9 entries:
    Offset             Info             Type               Symbol's Value  Symbol's Name + Addend
0000000000000028  00000bf100000014 R_RISCV_GOT_HI20       0000000000000000 _ZNSt8__detail12_Insert_baseIN5dwarf6DW_TAGES2_SaIS2_ENS_9_IdentityESt8equal_toIS2_ESt4hashIS2_ENS_18_Mod_range_hashingENS_20_Default_ranged_hashENS_20_Prime_rehash_policyENS_17_Hashtable_traitsILb1ELb1ELb1EEEE20_M_conjure_hashtableEv + 0
000000000000002c  0000073000000018 R_RISCV_PCREL_LO12_I   0000000000000028 .L0  + 0
000000000000002c  0000000000000033 R_RISCV_RELAX                             0
0000000000000044  00000bf200000014 R_RISCV_GOT_HI20       0000000000000000 _ZNSt8__detail10_AllocNodeISaINS_10_Hash_nodeIN5dwarf6DW_TAGELb1EEEEEC1ERNS_16_Hashtable_allocIS5_EE + 0
0000000000000048  0000073100000018 R_RISCV_PCREL_LO12_I   0000000000000044 .L0  + 0
0000000000000048  0000000000000033 R_RISCV_RELAX                             0
0000000000000064  00000bf300000014 R_RISCV_GOT_HI20       0000000000000000 _ZNSt10_HashtableIN5dwarf6DW_TAGES1_SaIS1_ENSt8__detail9_IdentityESt8equal_toIS1_ESt4hashIS1_ENS3_18_Mod_range_hashingENS3_20_Default_ranged_hashENS3_20_Prime_rehash_policyENS3_17_Hashtable_traitsILb1ELb1ELb1EEEE9_M_insertIRKS1_NS3_10_AllocNodeISaINS3_10_Hash_nodeIS1_Lb1EEEEEEEESt4pairINS3_14_Node_iteratorIS1_Lb1ELb1EEEbEOT_RKT0_St17integral_constantIbLb1EE + 0
0000000000000068  0000073200000018 R_RISCV_PCREL_LO12_I   0000000000000064 .L0  + 0
0000000000000068  0000000000000033 R_RISCV_RELAX                             0

Relocation section '.rela.text._ZNSt8__detail16_Hashtable_allocISaINS_10_Hash_nodeIN5dwarf6DW_TAGELb1EEEEE18_M_deallocate_nodeEPS4_' at offset 0x341a8 contains 12 entries:
    Offset             Info             Type               Symbol's Value  Symbol's Name + Addend
0000000000000020  00000bf400000014 R_RISCV_GOT_HI20       0000000000000000 _ZNSt8__detail16_Hashtable_allocISaINS_10_Hash_nodeIN5dwarf6DW_TAGELb1EEEEE17_M_node_allocatorEv + 0
0000000000000024  0000073300000018 R_RISCV_PCREL_LO12_I   0000000000000020 .L0  + 0
0000000000000024  0000000000000033 R_RISCV_RELAX                             0
000000000000003c  00000bf500000014 R_RISCV_GOT_HI20       0000000000000000 _ZNSt8__detail21_Hash_node_value_baseIN5dwarf6DW_TAGEE9_M_valptrEv + 0
0000000000000040  0000073400000018 R_RISCV_PCREL_LO12_I   000000000000003c .L0  + 0
0000000000000040  0000000000000033 R_RISCV_RELAX                             0
0000000000000054  00000bf600000014 R_RISCV_GOT_HI20       0000000000000000 _ZNSt16allocator_traitsISaINSt8__detail10_Hash_nodeIN5dwarf6DW_TAGELb1EEEEE7destroyIS3_EEvRS5_PT_ + 0
0000000000000058  0000073500000018 R_RISCV_PCREL_LO12_I   0000000000000054 .L0  + 0
0000000000000058  0000000000000033 R_RISCV_RELAX                             0
0000000000000068  00000bf700000014 R_RISCV_GOT_HI20       0000000000000000 _ZNSt8__detail16_Hashtable_allocISaINS_10_Hash_nodeIN5dwarf6DW_TAGELb1EEEEE22_M_deallocate_node_ptrEPS4_ + 0
000000000000006c  0000073600000018 R_RISCV_PCREL_LO12_I   0000000000000068 .L0  + 0
000000000000006c  0000000000000033 R_RISCV_RELAX                             0

Relocation section '.rela.text._ZNSt8__detail16_Hashtable_allocISaINS_10_Hash_nodeIN5dwarf6DW_TAGELb1EEEEE21_M_deallocate_bucketsEPPNS_15_Hash_node_baseEm' at offset 0x342c8 contains 21 entries:
    Offset             Info             Type               Symbol's Value  Symbol's Name + Addend
0000000000000024  00000be900000014 R_RISCV_GOT_HI20       0000000000000000 _ZNSt19__ptr_traits_ptr_toIPPNSt8__detail15_Hash_node_baseES2_Lb0EE10pointer_toERS2_ + 0
0000000000000028  0000073700000018 R_RISCV_PCREL_LO12_I   0000000000000024 .L0  + 0
0000000000000028  0000000000000033 R_RISCV_RELAX                             0
0000000000000038  00000bf400000014 R_RISCV_GOT_HI20       0000000000000000 _ZNSt8__detail16_Hashtable_allocISaINS_10_Hash_nodeIN5dwarf6DW_TAGELb1EEEEE17_M_node_allocatorEv + 0
000000000000003c  0000073800000018 R_RISCV_PCREL_LO12_I   0000000000000038 .L0  + 0
000000000000003c  0000000000000033 R_RISCV_RELAX                             0
0000000000000054  00000bf800000014 R_RISCV_GOT_HI20       0000000000000000 _ZNSaIPNSt8__detail15_Hash_node_baseEEC1INS_10_Hash_nodeIN5dwarf6DW_TAGELb1EEEEERKSaIT_E + 0
0000000000000058  0000073900000018 R_RISCV_PCREL_LO12_I   0000000000000054 .L0  + 0
0000000000000058  0000000000000033 R_RISCV_RELAX                             0
0000000000000070  00000beb00000014 R_RISCV_GOT_HI20       0000000000000000 _ZNSt16allocator_traitsISaIPNSt8__detail15_Hash_node_baseEEE10deallocateERS3_PS2_m + 0
0000000000000074  0000073a00000018 R_RISCV_PCREL_LO12_I   0000000000000070 .L0  + 0
0000000000000074  0000000000000033 R_RISCV_RELAX                             0
0000000000000084  00000bec00000014 R_RISCV_GOT_HI20       0000000000000000 _ZNSaIPNSt8__detail15_Hash_node_baseEED1Ev + 0
0000000000000088  0000073b00000018 R_RISCV_PCREL_LO12_I   0000000000000084 .L0  + 0
0000000000000088  0000000000000033 R_RISCV_RELAX                             0
0000000000000090  0000073d00000011 R_RISCV_JAL            00000000000000bc .L286 + 0
00000000000000a0  00000bec00000014 R_RISCV_GOT_HI20       0000000000000000 _ZNSaIPNSt8__detail15_Hash_node_baseEED1Ev + 0
00000000000000a4  0000073c00000018 R_RISCV_PCREL_LO12_I   00000000000000a0 .L0  + 0
00000000000000a4  0000000000000033 R_RISCV_RELAX                             0
00000000000000b4  00000b4a00000013 R_RISCV_CALL_PLT       0000000000000000 _Unwind_Resume + 0
00000000000000b4  0000000000000033 R_RISCV_RELAX                             0

Relocation section '.rela.gcc_except_table._ZNSt8__detail16_Hashtable_allocISaINS_10_Hash_nodeIN5dwarf6DW_TAGELb1EEEEE21_M_deallocate_bucketsEPPNS_15_Hash_node_baseEm' at offset 0x344c0 contains 14 entries:
    Offset             Info             Type               Symbol's Value  Symbol's Name + Addend
0000000000000004  0000073e00000023 R_RISCV_ADD32          0000000000000040 .LEHB15 + 0
0000000000000004  0000073f00000027 R_RISCV_SUB32          0000000000000000 .LFB3812 + 0
0000000000000008  0000074000000023 R_RISCV_ADD32          0000000000000044 .LEHE15 + 0
0000000000000008  0000073e00000027 R_RISCV_SUB32          0000000000000040 .LEHB15 + 0
0000000000000011  0000074100000023 R_RISCV_ADD32          0000000000000078 .LEHB16 + 0
0000000000000011  0000073f00000027 R_RISCV_SUB32          0000000000000000 .LFB3812 + 0
0000000000000015  0000074200000023 R_RISCV_ADD32          000000000000007c .LEHE16 + 0
0000000000000015  0000074100000027 R_RISCV_SUB32          0000000000000078 .LEHB16 + 0
0000000000000019  0000074300000023 R_RISCV_ADD32          0000000000000094 .L285 + 0
0000000000000019  0000073f00000027 R_RISCV_SUB32          0000000000000000 .LFB3812 + 0
000000000000001e  0000074400000023 R_RISCV_ADD32          00000000000000b4 .LEHB17 + 0
000000000000001e  0000073f00000027 R_RISCV_SUB32          0000000000000000 .LFB3812 + 0
0000000000000022  0000074500000023 R_RISCV_ADD32          00000000000000bc .LEHE17 + 0
0000000000000022  0000074400000027 R_RISCV_SUB32          00000000000000b4 .LEHB17 + 0

Relocation section '.rela.text._ZNSt14__shared_countILN9__gnu_cxx12_Lock_policyE1EEC2IN5dwarf11die_str_map4implESaIvEJRKNS4_3dieERNS4_5DW_ATERKSt16initializer_listINS4_6DW_TAGEEEEERPT_St20_Sp_alloc_shared_tagIT0_EDpOT1_' at offset 0x34610 contains 50 entries:
    Offset             Info             Type               Symbol's Value  Symbol's Name + Addend
0000000000000050  00000bfa00000014 R_RISCV_GOT_HI20       0000000000000000 _ZNSaISt23_Sp_counted_ptr_inplaceIN5dwarf11die_str_map4implESaIvELN9__gnu_cxx12_Lock_policyE1EEEC1IvEERKSaIT_E + 0
0000000000000054  0000074600000018 R_RISCV_PCREL_LO12_I   0000000000000050 .L0  + 0
0000000000000054  0000000000000033 R_RISCV_RELAX                             0
000000000000006c  00000bfb00000014 R_RISCV_GOT_HI20       0000000000000000 _ZSt18__allocate_guardedISaISt23_Sp_counted_ptr_inplaceIN5dwarf11die_str_map4implESaIvELN9__gnu_cxx12_Lock_policyE1EEEESt15__allocated_ptrIT_ERSA_ + 0
0000000000000070  0000074700000018 R_RISCV_PCREL_LO12_I   000000000000006c .L0  + 0
0000000000000070  0000000000000033 R_RISCV_RELAX                             0
0000000000000080  00000bfc00000014 R_RISCV_GOT_HI20       0000000000000000 _ZNSt15__allocated_ptrISaISt23_Sp_counted_ptr_inplaceIN5dwarf11die_str_map4implESaIvELN9__gnu_cxx12_Lock_policyE1EEEE3getEv + 0
0000000000000084  0000074800000018 R_RISCV_PCREL_LO12_I   0000000000000080 .L0  + 0
0000000000000084  0000000000000033 R_RISCV_RELAX                             0
000000000000009c  00000b0900000014 R_RISCV_GOT_HI20       0000000000000000 _ZnwmPv + 0
00000000000000a0  0000074900000018 R_RISCV_PCREL_LO12_I   000000000000009c .L0  + 0
00000000000000a0  0000000000000033 R_RISCV_RELAX                             0
00000000000000b4  00000b7b00000014 R_RISCV_GOT_HI20       0000000000000000 _ZSt7forwardIRKN5dwarf3dieEEOT_RNSt16remove_referenceIS4_E4typeE + 0
00000000000000b8  0000074a00000018 R_RISCV_PCREL_LO12_I   00000000000000b4 .L0  + 0
00000000000000b8  0000000000000033 R_RISCV_RELAX                             0
00000000000000c8  00000b7c00000014 R_RISCV_GOT_HI20       0000000000000000 _ZSt7forwardIRN5dwarf5DW_ATEEOT_RNSt16remove_referenceIS3_E4typeE + 0
00000000000000cc  0000074b00000018 R_RISCV_PCREL_LO12_I   00000000000000c8 .L0  + 0
00000000000000cc  0000000000000033 R_RISCV_RELAX                             0
00000000000000dc  00000b7d00000014 R_RISCV_GOT_HI20       0000000000000000 _ZSt7forwardIRKSt16initializer_listIN5dwarf6DW_TAGEEEOT_RNSt16remove_referenceIS6_E4typeE + 0
00000000000000e0  0000074c00000018 R_RISCV_PCREL_LO12_I   00000000000000dc .L0  + 0
00000000000000e0  0000000000000033 R_RISCV_RELAX                             0
0000000000000100  00000bfd00000014 R_RISCV_GOT_HI20       0000000000000000 _ZNSt23_Sp_counted_ptr_inplaceIN5dwarf11die_str_map4implESaIvELN9__gnu_cxx12_Lock_policyE1EEC1IJRKNS0_3dieERNS0_5DW_ATERKSt16initializer_listINS0_6DW_TAGEEEEES3_DpOT_ + 0
0000000000000104  0000074d00000018 R_RISCV_PCREL_LO12_I   0000000000000100 .L0  + 0
0000000000000104  0000000000000033 R_RISCV_RELAX                             0
000000000000011c  00000bfe00000014 R_RISCV_GOT_HI20       0000000000000000 _ZNSt15__allocated_ptrISaISt23_Sp_counted_ptr_inplaceIN5dwarf11die_str_map4implESaIvELN9__gnu_cxx12_Lock_policyE1EEEEaSEDn + 0
0000000000000120  0000074e00000018 R_RISCV_PCREL_LO12_I   000000000000011c .L0  + 0
0000000000000120  0000000000000033 R_RISCV_RELAX                             0
0000000000000138  00000bff00000014 R_RISCV_GOT_HI20       0000000000000000 _ZNSt23_Sp_counted_ptr_inplaceIN5dwarf11die_str_map4implESaIvELN9__gnu_cxx12_Lock_policyE1EE6_M_ptrEv + 0
000000000000013c  0000074f00000018 R_RISCV_PCREL_LO12_I   0000000000000138 .L0  + 0
000000000000013c  0000000000000033 R_RISCV_RELAX                             0
0000000000000158  00000c0000000014 R_RISCV_GOT_HI20       0000000000000000 _ZNSt15__allocated_ptrISaISt23_Sp_counted_ptr_inplaceIN5dwarf11die_str_map4implESaIvELN9__gnu_cxx12_Lock_policyE1EEEED1Ev + 0
000000000000015c  0000075000000018 R_RISCV_PCREL_LO12_I   0000000000000158 .L0  + 0
000000000000015c  0000000000000033 R_RISCV_RELAX                             0
000000000000016c  00000c0100000014 R_RISCV_GOT_HI20       0000000000000000 _ZNSaISt23_Sp_counted_ptr_inplaceIN5dwarf11die_str_map4implESaIvELN9__gnu_cxx12_Lock_policyE1EEED1Ev + 0
0000000000000170  0000075100000018 R_RISCV_PCREL_LO12_I   000000000000016c .L0  + 0
0000000000000170  0000000000000033 R_RISCV_RELAX                             0
0000000000000178  0000075500000011 R_RISCV_JAL            00000000000001dc .L293 + 0
0000000000000180  0000075600000010 R_RISCV_BRANCH         0000000000000198 .L289 + 0
000000000000018c  00000b0a00000014 R_RISCV_GOT_HI20       0000000000000000 _ZdlPvS_ + 0
0000000000000190  0000075200000018 R_RISCV_PCREL_LO12_I   000000000000018c .L0  + 0
0000000000000190  0000000000000033 R_RISCV_RELAX                             0
00000000000001a4  00000c0000000014 R_RISCV_GOT_HI20       0000000000000000 _ZNSt15__allocated_ptrISaISt23_Sp_counted_ptr_inplaceIN5dwarf11die_str_map4implESaIvELN9__gnu_cxx12_Lock_policyE1EEEED1Ev + 0
00000000000001a8  0000075300000018 R_RISCV_PCREL_LO12_I   00000000000001a4 .L0  + 0
00000000000001a8  0000000000000033 R_RISCV_RELAX                             0
00000000000001b0  0000075700000011 R_RISCV_JAL            00000000000001b8 .L290 + 0
00000000000001c0  00000c0100000014 R_RISCV_GOT_HI20       0000000000000000 _ZNSaISt23_Sp_counted_ptr_inplaceIN5dwarf11die_str_map4implESaIvELN9__gnu_cxx12_Lock_policyE1EEED1Ev + 0
00000000000001c4  0000075400000018 R_RISCV_PCREL_LO12_I   00000000000001c0 .L0  + 0
00000000000001c4  0000000000000033 R_RISCV_RELAX                             0
00000000000001d4  00000b4a00000013 R_RISCV_CALL_PLT       0000000000000000 _Unwind_Resume + 0
00000000000001d4  0000000000000033 R_RISCV_RELAX                             0

Relocation section '.rela.gcc_except_table._ZNSt14__shared_countILN9__gnu_cxx12_Lock_policyE1EEC2IN5dwarf11die_str_map4implESaIvEJRKNS4_3dieERNS4_5DW_ATERKSt16initializer_listINS4_6DW_TAGEEEEERPT_St20_Sp_alloc_shared_tagIT0_EDpOT1_' at offset 0x34ac0 contains 16 entries:
    Offset             Info             Type               Symbol's Value  Symbol's Name + Addend
0000000000000004  0000075800000023 R_RISCV_ADD32          0000000000000074 .LEHB18 + 0
0000000000000004  0000075900000027 R_RISCV_SUB32          0000000000000000 .LFB3814 + 0
0000000000000008  0000075a00000023 R_RISCV_ADD32          0000000000000078 .LEHE18 + 0
0000000000000008  0000075800000027 R_RISCV_SUB32          0000000000000074 .LEHB18 + 0
000000000000000c  0000075b00000023 R_RISCV_ADD32          00000000000001b4 .L291 + 0
000000000000000c  0000075900000027 R_RISCV_SUB32          0000000000000000 .LFB3814 + 0
0000000000000011  0000075c00000023 R_RISCV_ADD32          0000000000000108 .LEHB19 + 0
0000000000000011  0000075900000027 R_RISCV_SUB32          0000000000000000 .LFB3814 + 0
0000000000000015  0000075d00000023 R_RISCV_ADD32          000000000000010c .LEHE19 + 0
0000000000000015  0000075c00000027 R_RISCV_SUB32          0000000000000108 .LEHB19 + 0
0000000000000019  0000075e00000023 R_RISCV_ADD32          000000000000017c .L292 + 0
0000000000000019  0000075900000027 R_RISCV_SUB32          0000000000000000 .LFB3814 + 0
000000000000001e  0000075f00000023 R_RISCV_ADD32          00000000000001d4 .LEHB20 + 0
000000000000001e  0000075900000027 R_RISCV_SUB32          0000000000000000 .LFB3814 + 0
0000000000000022  0000076000000023 R_RISCV_ADD32          00000000000001dc .LEHE20 + 0
0000000000000022  0000075f00000027 R_RISCV_SUB32          00000000000001d4 .LEHB20 + 0

Relocation section '.rela.text._ZNSt8__detail19_Node_iterator_baseISt4pairIKPKcN5dwarf3dieEELb1EE7_M_incrEv' at offset 0x34c40 contains 3 entries:
    Offset             Info             Type               Symbol's Value  Symbol's Name + Addend
0000000000000020  00000bb400000014 R_RISCV_GOT_HI20       0000000000000000 _ZNKSt8__detail10_Hash_nodeISt4pairIKPKcN5dwarf3dieEELb1EE7_M_nextEv + 0
0000000000000024  0000076100000018 R_RISCV_PCREL_LO12_I   0000000000000020 .L0  + 0
0000000000000024  0000000000000033 R_RISCV_RELAX                             0

Relocation section '.rela.text._ZNKSt8__detail15_Hashtable_baseIPKcSt4pairIKS2_N5dwarf3dieEENS_10_Select1stENS5_9string_eqENS5_11string_hashENS_18_Mod_range_hashingENS_20_Default_ranged_hashENS_17_Hashtable_traitsILb1ELb0ELb1EEEE5_M_eqEv' at offset 0x34c88 contains 3 entries:
    Offset             Info             Type               Symbol's Value  Symbol's Name + Addend
0000000000000018  00000c0200000014 R_RISCV_GOT_HI20       0000000000000000 _ZNKSt8__detail21_Hashtable_ebo_helperILi0EN5dwarf9string_eqELb1EE7_M_cgetEv + 0
000000000000001c  0000076200000018 R_RISCV_PCREL_LO12_I   0000000000000018 .L0  + 0
000000000000001c  0000000000000033 R_RISCV_RELAX                             0

Relocation section '.rela.text._ZNKSt8__detail21_Hash_node_value_baseISt4pairIKPKcN5dwarf3dieEEE4_M_vEv' at offset 0x34cd0 contains 3 entries:
    Offset             Info             Type               Symbol's Value  Symbol's Name + Addend
0000000000000018  00000c0300000014 R_RISCV_GOT_HI20       0000000000000000 _ZNKSt8__detail21_Hash_node_value_baseISt4pairIKPKcN5dwarf3dieEEE9_M_valptrEv + 0
000000000000001c  0000076300000018 R_RISCV_PCREL_LO12_I   0000000000000018 .L0  + 0
000000000000001c  0000000000000033 R_RISCV_RELAX                             0

Relocation section '.rela.text._ZNKSt8__detail10_Select1stclIRKSt4pairIKPKcN5dwarf3dieEEEEONS0_10__1st_typeIT_E4typeEOSC_' at offset 0x34d18 contains 3 entries:
    Offset             Info             Type               Symbol's Value  Symbol's Name + Addend
000000000000001c  00000c0400000014 R_RISCV_GOT_HI20       0000000000000000 _ZSt7forwardIRKSt4pairIKPKcN5dwarf3dieEEEOT_RNSt16remove_referenceIS9_E4typeE + 0
0000000000000020  0000076400000018 R_RISCV_PCREL_LO12_I   000000000000001c .L0  + 0
0000000000000020  0000000000000033 R_RISCV_RELAX                             0

Relocation section '.rela.text._ZNKSt8__detail15_Hash_code_baseIPKcSt4pairIKS2_N5dwarf3dieEENS_10_Select1stENS5_11string_hashENS_18_Mod_range_hashingENS_20_Default_ranged_hashELb1EE7_M_hashEv' at offset 0x34d60 contains 3 entries:
    Offset             Info             Type               Symbol's Value  Symbol's Name + Addend
0000000000000018  00000c0500000014 R_RISCV_GOT_HI20       0000000000000000 _ZNKSt8__detail21_Hashtable_ebo_helperILi1EN5dwarf11string_hashELb1EE7_M_cgetEv + 0
000000000000001c  0000076500000018 R_RISCV_PCREL_LO12_I   0000000000000018 .L0  + 0
000000000000001c  0000000000000033 R_RISCV_RELAX                             0

Relocation section '.rela.text._ZNKSt8__detail15_Hash_code_baseIPKcSt4pairIKS2_N5dwarf3dieEENS_10_Select1stENS5_11string_hashENS_18_Mod_range_hashingENS_20_Default_ranged_hashELb1EE15_M_bucket_indexEmm' at offset 0x34da8 contains 3 entries:
    Offset             Info             Type               Symbol's Value  Symbol's Name + Addend
000000000000002c  00000b2200000014 R_RISCV_GOT_HI20       0000000000000000 _ZNKSt8__detail18_Mod_range_hashingclEmm + 0
0000000000000030  0000076600000018 R_RISCV_PCREL_LO12_I   000000000000002c .L0  + 0
0000000000000030  0000000000000033 R_RISCV_RELAX                             0

Relocation section '.rela.text._ZNKSt10_HashtableIPKcSt4pairIKS1_N5dwarf3dieEESaIS6_ENSt8__detail10_Select1stENS4_9string_eqENS4_11string_hashENS8_18_Mod_range_hashingENS8_20_Default_ranged_hashENS8_20_Prime_rehash_policyENS8_17_Hashtable_traitsILb1ELb0ELb1EEEE19_M_find_befor' at offset 0x34df0 contains 21 entries:
    Offset             Info             Type               Symbol's Value  Symbol's Name + Addend
0000000000000040  0000076b00000010 R_RISCV_BRANCH         000000000000004c .L309 + 0
0000000000000048  0000076c00000011 R_RISCV_JAL            0000000000000108 .L310 + 0
0000000000000070  00000c0600000014 R_RISCV_GOT_HI20       0000000000000000 _ZNKSt8__detail15_Hashtable_baseIPKcSt4pairIKS2_N5dwarf3dieEENS_10_Select1stENS5_9string_eqENS5_11string_hashENS_18_Mod_range_hashingENS_20_Default_ranged_hashENS_17_Hashtable_traitsILb1ELb0ELb1EEEE9_M_equalsERS4_mRKNS_16_Hash_node_valueIS7_Lb1EEE + 0
0000000000000074  0000076700000018 R_RISCV_PCREL_LO12_I   0000000000000070 .L0  + 0
0000000000000074  0000000000000033 R_RISCV_RELAX                             0
0000000000000080  0000076d00000010 R_RISCV_BRANCH         000000000000008c .L311 + 0
0000000000000088  0000076c00000011 R_RISCV_JAL            0000000000000108 .L310 + 0
0000000000000094  0000076e00000010 R_RISCV_BRANCH         00000000000000d0 .L312 + 0
000000000000009c  00000bb400000014 R_RISCV_GOT_HI20       0000000000000000 _ZNKSt8__detail10_Hash_nodeISt4pairIKPKcN5dwarf3dieEELb1EE7_M_nextEv + 0
00000000000000a0  0000076800000018 R_RISCV_PCREL_LO12_I   000000000000009c .L0  + 0
00000000000000a0  0000000000000033 R_RISCV_RELAX                             0
00000000000000b8  00000c0700000014 R_RISCV_GOT_HI20       0000000000000000 _ZNKSt10_HashtableIPKcSt4pairIKS1_N5dwarf3dieEESaIS6_ENSt8__detail10_Select1stENS4_9string_eqENS4_11string_hashENS8_18_Mod_range_hashingENS8_20_Default_ranged_hashENS8_20_Prime_rehash_policyENS8_17_Hashtable_traitsILb1ELb0ELb1EEEE15_M_bucket_indexERKNS8_16_Hash_node_valueIS6_Lb1EEE + 0
00000000000000bc  0000076900000018 R_RISCV_PCREL_LO12_I   00000000000000b8 .L0  + 0
00000000000000bc  0000000000000033 R_RISCV_RELAX                             0
00000000000000cc  0000076f00000010 R_RISCV_BRANCH         00000000000000d8 .L313 + 0
00000000000000d4  0000077000000011 R_RISCV_JAL            00000000000000dc .L314 + 0
00000000000000dc  0000077100000010 R_RISCV_BRANCH         0000000000000100 .L319 + 0
00000000000000ec  00000bb400000014 R_RISCV_GOT_HI20       0000000000000000 _ZNKSt8__detail10_Hash_nodeISt4pairIKPKcN5dwarf3dieEELb1EE7_M_nextEv + 0
00000000000000f0  0000076a00000018 R_RISCV_PCREL_LO12_I   00000000000000ec .L0  + 0
00000000000000f0  0000000000000033 R_RISCV_RELAX                             0
00000000000000fc  0000077200000011 R_RISCV_JAL            0000000000000058 .L317 + 0

Relocation section '.rela.text._ZNSt10_HashtableIN5dwarf6DW_TAGES1_SaIS1_ENSt8__detail9_IdentityESt8equal_toIS1_ESt4hashIS1_ENS3_18_Mod_range_hashingENS3_20_Default_ranged_hashENS3_20_Prime_rehash_policyENS3_17_Hashtable_traitsILb1ELb1ELb1EEEE22__small_size_thresholdEv' at offset 0x34fe8 contains 3 entries:
    Offset             Info             Type               Symbol's Value  Symbol's Name + Addend
0000000000000010  00000c0900000014 R_RISCV_GOT_HI20       0000000000000000 _ZNSt8__detail22_Hashtable_hash_traitsISt4hashIN5dwarf6DW_TAGEEE22__small_size_thresholdEv + 0
0000000000000014  0000077300000018 R_RISCV_PCREL_LO12_I   0000000000000010 .L0  + 0
0000000000000014  0000000000000033 R_RISCV_RELAX                             0

Relocation section '.rela.text._ZNKSt10_HashtableIN5dwarf6DW_TAGES1_SaIS1_ENSt8__detail9_IdentityESt8equal_toIS1_ESt4hashIS1_ENS3_18_Mod_range_hashingENS3_20_Default_ranged_hashENS3_20_Prime_rehash_policyENS3_17_Hashtable_traitsILb1ELb1ELb1EEEE5beginEv' at offset 0x35030 contains 6 entries:
    Offset             Info             Type               Symbol's Value  Symbol's Name + Addend
0000000000000018  00000b9700000014 R_RISCV_GOT_HI20       0000000000000000 _ZNKSt10_HashtableIN5dwarf6DW_TAGES1_SaIS1_ENSt8__detail9_IdentityESt8equal_toIS1_ESt4hashIS1_ENS3_18_Mod_range_hashingENS3_20_Default_ranged_hashENS3_20_Prime_rehash_policyENS3_17_Hashtable_traitsILb1ELb1ELb1EEEE8_M_beginEv + 0
000000000000001c  0000077400000018 R_RISCV_PCREL_LO12_I   0000000000000018 .L0  + 0
000000000000001c  0000000000000033 R_RISCV_RELAX                             0
0000000000000034  00000bd800000014 R_RISCV_GOT_HI20       0000000000000000 _ZNSt8__detail20_Node_const_iteratorIN5dwarf6DW_TAGELb1ELb1EEC1EPNS_10_Hash_nodeIS2_Lb1EEE + 0
0000000000000038  0000077500000018 R_RISCV_PCREL_LO12_I   0000000000000034 .L0  + 0
0000000000000038  0000000000000033 R_RISCV_RELAX                             0

Relocation section '.rela.text._ZNKSt10_HashtableIN5dwarf6DW_TAGES1_SaIS1_ENSt8__detail9_IdentityESt8equal_toIS1_ESt4hashIS1_ENS3_18_Mod_range_hashingENS3_20_Default_ranged_hashENS3_20_Prime_rehash_policyENS3_17_Hashtable_traitsILb1ELb1ELb1EEEE3endEv' at offset 0x350c0 contains 3 entries:
    Offset             Info             Type               Symbol's Value  Symbol's Name + Addend
0000000000000020  00000bd800000014 R_RISCV_GOT_HI20       0000000000000000 _ZNSt8__detail20_Node_const_iteratorIN5dwarf6DW_TAGELb1ELb1EEC1EPNS_10_Hash_nodeIS2_Lb1EEE + 0
0000000000000024  0000077600000018 R_RISCV_PCREL_LO12_I   0000000000000020 .L0  + 0
0000000000000024  0000000000000033 R_RISCV_RELAX                             0

Relocation section '.rela.text._ZNKSt8__detail15_Hashtable_baseIN5dwarf6DW_TAGES2_NS_9_IdentityESt8equal_toIS2_ESt4hashIS2_ENS_18_Mod_range_hashingENS_20_Default_ranged_hashENS_17_Hashtable_traitsILb1ELb1ELb1EEEE13_M_key_equalsERKS2_RKNS_16_Hash_node_valueIS2_Lb1EEE' at offset 0x35108 contains 12 entries:
    Offset             Info             Type               Symbol's Value  Symbol's Name + Addend
0000000000000024  00000c0a00000014 R_RISCV_GOT_HI20       0000000000000000 _ZNKSt8__detail15_Hashtable_baseIN5dwarf6DW_TAGES2_NS_9_IdentityESt8equal_toIS2_ESt4hashIS2_ENS_18_Mod_range_hashingENS_20_Default_ranged_hashENS_17_Hashtable_traitsILb1ELb1ELb1EEEE5_M_eqEv + 0
0000000000000028  0000077700000018 R_RISCV_PCREL_LO12_I   0000000000000024 .L0  + 0
0000000000000028  0000000000000033 R_RISCV_RELAX                             0
000000000000003c  00000c0b00000014 R_RISCV_GOT_HI20       0000000000000000 _ZNKSt8__detail21_Hash_node_value_baseIN5dwarf6DW_TAGEE4_M_vEv + 0
0000000000000040  0000077800000018 R_RISCV_PCREL_LO12_I   000000000000003c .L0  + 0
0000000000000040  0000000000000033 R_RISCV_RELAX                             0
0000000000000058  00000c0c00000014 R_RISCV_GOT_HI20       0000000000000000 _ZNKSt8__detail9_IdentityclIRKN5dwarf6DW_TAGEEEOT_S7_ + 0
000000000000005c  0000077900000018 R_RISCV_PCREL_LO12_I   0000000000000058 .L0  + 0
000000000000005c  0000000000000033 R_RISCV_RELAX                             0
0000000000000074  00000c0d00000014 R_RISCV_GOT_HI20       0000000000000000 _ZNKSt8equal_toIN5dwarf6DW_TAGEEclERKS1_S4_ + 0
0000000000000078  0000077a00000018 R_RISCV_PCREL_LO12_I   0000000000000074 .L0  + 0
0000000000000078  0000000000000033 R_RISCV_RELAX                             0

Relocation section '.rela.text._ZNKSt8__detail15_Hash_code_baseIN5dwarf6DW_TAGES2_NS_9_IdentityESt4hashIS2_ENS_18_Mod_range_hashingENS_20_Default_ranged_hashELb1EE12_M_hash_codeERKS2_' at offset 0x35228 contains 6 entries:
    Offset             Info             Type               Symbol's Value  Symbol's Name + Addend
000000000000001c  00000c0e00000014 R_RISCV_GOT_HI20       0000000000000000 _ZNKSt8__detail15_Hash_code_baseIN5dwarf6DW_TAGES2_NS_9_IdentityESt4hashIS2_ENS_18_Mod_range_hashingENS_20_Default_ranged_hashELb1EE7_M_hashEv + 0
0000000000000020  0000077b00000018 R_RISCV_PCREL_LO12_I   000000000000001c .L0  + 0
0000000000000020  0000000000000033 R_RISCV_RELAX                             0
000000000000003c  00000b2700000014 R_RISCV_GOT_HI20       0000000000000000 _ZNKSt4hashIN5dwarf6DW_TAGEEclES1_ + 0
0000000000000040  0000077c00000018 R_RISCV_PCREL_LO12_I   000000000000003c .L0  + 0
0000000000000040  0000000000000033 R_RISCV_RELAX                             0

Relocation section '.rela.text._ZNKSt10_HashtableIN5dwarf6DW_TAGES1_SaIS1_ENSt8__detail9_IdentityESt8equal_toIS1_ESt4hashIS1_ENS3_18_Mod_range_hashingENS3_20_Default_ranged_hashENS3_20_Prime_rehash_policyENS3_17_Hashtable_traitsILb1ELb1ELb1EEEE15_M_bucket_indexEm' at offset 0x352b8 contains 3 entries:
    Offset             Info             Type               Symbol's Value  Symbol's Name + Addend
000000000000002c  00000c0f00000014 R_RISCV_GOT_HI20       0000000000000000 _ZNKSt8__detail15_Hash_code_baseIN5dwarf6DW_TAGES2_NS_9_IdentityESt4hashIS2_ENS_18_Mod_range_hashingENS_20_Default_ranged_hashELb1EE15_M_bucket_indexEmm + 0
0000000000000030  0000077d00000018 R_RISCV_PCREL_LO12_I   000000000000002c .L0  + 0
0000000000000030  0000000000000033 R_RISCV_RELAX                             0

Relocation section '.rela.text._ZNKSt10_HashtableIN5dwarf6DW_TAGES1_SaIS1_ENSt8__detail9_IdentityESt8equal_toIS1_ESt4hashIS1_ENS3_18_Mod_range_hashingENS3_20_Default_ranged_hashENS3_20_Prime_rehash_policyENS3_17_Hashtable_traitsILb1ELb1ELb1EEEE12_M_find_nodeEmRKS1_m' at offset 0x35300 contains 5 entries:
    Offset             Info             Type               Symbol's Value  Symbol's Name + Addend
0000000000000030  00000c1000000014 R_RISCV_GOT_HI20       0000000000000000 _ZNKSt10_HashtableIN5dwarf6DW_TAGES1_SaIS1_ENSt8__detail9_IdentityESt8equal_toIS1_ESt4hashIS1_ENS3_18_Mod_range_hashingENS3_20_Default_ranged_hashENS3_20_Prime_rehash_policyENS3_17_Hashtable_traitsILb1ELb1ELb1EEEE19_M_find_before_nodeEmRKS1_m + 0
0000000000000034  0000077e00000018 R_RISCV_PCREL_LO12_I   0000000000000030 .L0  + 0
0000000000000034  0000000000000033 R_RISCV_RELAX                             0
0000000000000048  0000077f00000010 R_RISCV_BRANCH         0000000000000058 .L340 + 0
0000000000000054  0000078000000011 R_RISCV_JAL            000000000000005c .L341 + 0

Relocation section '.rela.text._ZNSt8__detail20_Node_const_iteratorIN5dwarf6DW_TAGELb1ELb1EEC2EPNS_10_Hash_nodeIS2_Lb1EEE' at offset 0x35378 contains 3 entries:
    Offset             Info             Type               Symbol's Value  Symbol's Name + Addend
0000000000000024  00000c1200000014 R_RISCV_GOT_HI20       0000000000000000 _ZNSt8__detail19_Node_iterator_baseIN5dwarf6DW_TAGELb1EEC2EPNS_10_Hash_nodeIS2_Lb1EEE + 0
0000000000000028  0000078100000018 R_RISCV_PCREL_LO12_I   0000000000000024 .L0  + 0
0000000000000028  0000000000000033 R_RISCV_RELAX                             0

Relocation section '.rela.text._ZNSt8__detail19_Node_iterator_baseIN5dwarf6DW_TAGELb1EE7_M_incrEv' at offset 0x353c0 contains 3 entries:
    Offset             Info             Type               Symbol's Value  Symbol's Name + Addend
0000000000000020  00000bbc00000014 R_RISCV_GOT_HI20       0000000000000000 _ZNKSt8__detail10_Hash_nodeIN5dwarf6DW_TAGELb1EE7_M_nextEv + 0
0000000000000024  0000078200000018 R_RISCV_PCREL_LO12_I   0000000000000020 .L0  + 0
0000000000000024  0000000000000033 R_RISCV_RELAX                             0

Relocation section '.rela.text._ZNKSt8__detail21_Hash_node_value_baseIN5dwarf6DW_TAGEE4_M_vEv' at offset 0x35408 contains 3 entries:
    Offset             Info             Type               Symbol's Value  Symbol's Name + Addend
0000000000000018  00000c1300000014 R_RISCV_GOT_HI20       0000000000000000 _ZNKSt8__detail21_Hash_node_value_baseIN5dwarf6DW_TAGEE9_M_valptrEv + 0
000000000000001c  0000078300000018 R_RISCV_PCREL_LO12_I   0000000000000018 .L0  + 0
000000000000001c  0000000000000033 R_RISCV_RELAX                             0

Relocation section '.rela.text._ZNKSt8__detail9_IdentityclIRKN5dwarf6DW_TAGEEEOT_S7_' at offset 0x35450 contains 3 entries:
    Offset             Info             Type               Symbol's Value  Symbol's Name + Addend
000000000000001c  00000c1400000014 R_RISCV_GOT_HI20       0000000000000000 _ZSt7forwardIRKN5dwarf6DW_TAGEEOT_RNSt16remove_referenceIS4_E4typeE + 0
0000000000000020  0000078400000018 R_RISCV_PCREL_LO12_I   000000000000001c .L0  + 0
0000000000000020  0000000000000033 R_RISCV_RELAX                             0

Relocation section '.rela.text._ZNSt11_Tuple_implILm0EJRKPKcEEC2ES3_' at offset 0x35498 contains 3 entries:
    Offset             Info             Type               Symbol's Value  Symbol's Name + Addend
0000000000000024  00000c1500000014 R_RISCV_GOT_HI20       0000000000000000 _ZNSt10_Head_baseILm0ERKPKcLb0EEC2ES3_ + 0
0000000000000028  0000078500000018 R_RISCV_PCREL_LO12_I   0000000000000024 .L0  + 0
0000000000000028  0000000000000033 R_RISCV_RELAX                             0

Relocation section '.rela.text._ZNSt8__detail10_Hash_nodeISt4pairIKPKcN5dwarf3dieEELb1EEC2Ev' at offset 0x354e0 contains 3 entries:
    Offset             Info             Type               Symbol's Value  Symbol's Name + Addend
000000000000001c  00000b2000000014 R_RISCV_GOT_HI20       0000000000000000 _ZNSt8__detail15_Hash_node_baseC2Ev + 0
0000000000000020  0000078600000018 R_RISCV_PCREL_LO12_I   000000000000001c .L0  + 0
0000000000000020  0000000000000033 R_RISCV_RELAX                             0

Relocation section '.rela.text._ZNSt8__detail16_Hashtable_allocISaINS_10_Hash_nodeISt4pairIKPKcN5dwarf3dieEELb1EEEEE16_M_allocate_nodeIJRKSt21piecewise_construct_tSt5tupleIJRS5_EESG_IJEEEEEPS9_DpOT_' at offset 0x35528 contains 48 entries:
    Offset             Info             Type               Symbol's Value  Symbol's Name + Addend
0000000000000034  00000be600000014 R_RISCV_GOT_HI20       0000000000000000 _ZNSt8__detail16_Hashtable_allocISaINS_10_Hash_nodeISt4pairIKPKcN5dwarf3dieEELb1EEEEE17_M_node_allocatorEv + 0
0000000000000038  0000078700000018 R_RISCV_PCREL_LO12_I   0000000000000034 .L0  + 0
0000000000000038  0000000000000033 R_RISCV_RELAX                             0
000000000000004c  00000c1900000014 R_RISCV_GOT_HI20       0000000000000000 _ZNSt16allocator_traitsISaINSt8__detail10_Hash_nodeISt4pairIKPKcN5dwarf3dieEELb1EEEEE8allocateERSA_m + 0
0000000000000050  0000078800000018 R_RISCV_PCREL_LO12_I   000000000000004c .L0  + 0
0000000000000050  0000000000000033 R_RISCV_RELAX                             0
0000000000000064  00000c1a00000014 R_RISCV_GOT_HI20       0000000000000000 _ZSt12__to_addressINSt8__detail10_Hash_nodeISt4pairIKPKcN5dwarf3dieEELb1EEEEPT_SB_ + 0
0000000000000068  0000078900000018 R_RISCV_PCREL_LO12_I   0000000000000064 .L0  + 0
0000000000000068  0000000000000033 R_RISCV_RELAX                             0
0000000000000080  00000b0900000014 R_RISCV_GOT_HI20       0000000000000000 _ZnwmPv + 0
0000000000000084  0000078a00000018 R_RISCV_PCREL_LO12_I   0000000000000080 .L0  + 0
0000000000000084  0000000000000033 R_RISCV_RELAX                             0
0000000000000094  00000c1800000014 R_RISCV_GOT_HI20       0000000000000000 _ZNSt8__detail10_Hash_nodeISt4pairIKPKcN5dwarf3dieEELb1EEC1Ev + 0
0000000000000098  0000078b00000018 R_RISCV_PCREL_LO12_I   0000000000000094 .L0  + 0
0000000000000098  0000000000000033 R_RISCV_RELAX                             0
00000000000000a4  00000be600000014 R_RISCV_GOT_HI20       0000000000000000 _ZNSt8__detail16_Hashtable_allocISaINS_10_Hash_nodeISt4pairIKPKcN5dwarf3dieEELb1EEEEE17_M_node_allocatorEv + 0
00000000000000a8  0000078c00000018 R_RISCV_PCREL_LO12_I   00000000000000a4 .L0  + 0
00000000000000a8  0000000000000033 R_RISCV_RELAX                             0
00000000000000c0  00000b8200000014 R_RISCV_GOT_HI20       0000000000000000 _ZNSt8__detail21_Hash_node_value_baseISt4pairIKPKcN5dwarf3dieEEE9_M_valptrEv + 0
00000000000000c4  0000078d00000018 R_RISCV_PCREL_LO12_I   00000000000000c0 .L0  + 0
00000000000000c4  0000000000000033 R_RISCV_RELAX                             0
00000000000000d4  00000bdd00000014 R_RISCV_GOT_HI20       0000000000000000 _ZSt7forwardIRKSt21piecewise_construct_tEOT_RNSt16remove_referenceIS3_E4typeE + 0
00000000000000d8  0000078e00000018 R_RISCV_PCREL_LO12_I   00000000000000d4 .L0  + 0
00000000000000d8  0000000000000033 R_RISCV_RELAX                             0
00000000000000e8  00000bde00000014 R_RISCV_GOT_HI20       0000000000000000 _ZSt7forwardISt5tupleIJRKPKcEEEOT_RNSt16remove_referenceIS6_E4typeE + 0
00000000000000ec  0000078f00000018 R_RISCV_PCREL_LO12_I   00000000000000e8 .L0  + 0
00000000000000ec  0000000000000033 R_RISCV_RELAX                             0
00000000000000fc  00000bdf00000014 R_RISCV_GOT_HI20       0000000000000000 _ZSt7forwardISt5tupleIJEEEOT_RNSt16remove_referenceIS2_E4typeE + 0
0000000000000100  0000079000000018 R_RISCV_PCREL_LO12_I   00000000000000fc .L0  + 0
0000000000000100  0000000000000033 R_RISCV_RELAX                             0
0000000000000120  00000c1b00000014 R_RISCV_GOT_HI20       0000000000000000 _ZNSt16allocator_traitsISaINSt8__detail10_Hash_nodeISt4pairIKPKcN5dwarf3dieEELb1EEEEE9constructIS8_JRKSt21piecewise_construct_tSt5tupleIJRS5_EESG_IJEEEEEvRSA_PT_DpOT0_ + 0
0000000000000124  0000079100000018 R_RISCV_PCREL_LO12_I   0000000000000120 .L0  + 0
0000000000000124  0000000000000033 R_RISCV_RELAX                             0
0000000000000130  0000079400000011 R_RISCV_JAL            0000000000000194 .L362 + 0
000000000000013c  00000c1c00000013 R_RISCV_CALL_PLT       0000000000000000 __cxa_begin_catch + 0
000000000000013c  0000000000000033 R_RISCV_RELAX                             0
0000000000000148  00000be600000014 R_RISCV_GOT_HI20       0000000000000000 _ZNSt8__detail16_Hashtable_allocISaINS_10_Hash_nodeISt4pairIKPKcN5dwarf3dieEELb1EEEEE17_M_node_allocatorEv + 0
000000000000014c  0000079200000018 R_RISCV_PCREL_LO12_I   0000000000000148 .L0  + 0
000000000000014c  0000000000000033 R_RISCV_RELAX                             0
0000000000000164  00000c1d00000014 R_RISCV_GOT_HI20       0000000000000000 _ZNSt16allocator_traitsISaINSt8__detail10_Hash_nodeISt4pairIKPKcN5dwarf3dieEELb1EEEEE10deallocateERSA_PS9_m + 0
0000000000000168  0000079300000018 R_RISCV_PCREL_LO12_I   0000000000000164 .L0  + 0
0000000000000168  0000000000000033 R_RISCV_RELAX                             0
0000000000000170  00000c1e00000013 R_RISCV_CALL_PLT       0000000000000000 __cxa_rethrow + 0
0000000000000170  0000000000000033 R_RISCV_RELAX                             0
000000000000017c  00000c1f00000013 R_RISCV_CALL_PLT       0000000000000000 __cxa_end_catch + 0
000000000000017c  0000000000000033 R_RISCV_RELAX                             0
000000000000018c  00000b4a00000013 R_RISCV_CALL_PLT       0000000000000000 _Unwind_Resume + 0
000000000000018c  0000000000000033 R_RISCV_RELAX                             0

Relocation section '.rela.gcc_except_table._ZNSt8__detail16_Hashtable_allocISaINS_10_Hash_nodeISt4pairIKPKcN5dwarf3dieEELb1EEEEE16_M_allocate_nodeIJRKSt21piecewise_construct_tSt5tupleIJRS5_EESG_IJEEEEEPS9_DpOT_' at offset 0x359a8 contains 20 entries:
    Offset             Info             Type               Symbol's Value  Symbol's Name + Addend
0000000000000005  0000079500000023 R_RISCV_ADD32          000000000000003c .LEHB21 + 0
0000000000000005  0000079600000027 R_RISCV_SUB32          0000000000000000 .LFB3851 + 0
0000000000000009  0000079700000023 R_RISCV_ADD32          0000000000000058 .LEHE21 + 0
0000000000000009  0000079500000027 R_RISCV_SUB32          000000000000003c .LEHB21 + 0
0000000000000012  0000079800000023 R_RISCV_ADD32          00000000000000ac .LEHB22 + 0
0000000000000012  0000079600000027 R_RISCV_SUB32          0000000000000000 .LFB3851 + 0
0000000000000016  0000079900000023 R_RISCV_ADD32          000000000000012c .LEHE22 + 0
0000000000000016  0000079800000027 R_RISCV_SUB32          00000000000000ac .LEHB22 + 0
000000000000001a  0000079a00000023 R_RISCV_ADD32          0000000000000134 .L360 + 0
000000000000001a  0000079600000027 R_RISCV_SUB32          0000000000000000 .LFB3851 + 0
000000000000001f  0000079b00000023 R_RISCV_ADD32          0000000000000150 .LEHB23 + 0
000000000000001f  0000079600000027 R_RISCV_SUB32          0000000000000000 .LFB3851 + 0
0000000000000023  0000079c00000023 R_RISCV_ADD32          0000000000000178 .LEHE23 + 0
0000000000000023  0000079b00000027 R_RISCV_SUB32          0000000000000150 .LEHB23 + 0
0000000000000027  0000079d00000023 R_RISCV_ADD32          0000000000000178 .L361 + 0
0000000000000027  0000079600000027 R_RISCV_SUB32          0000000000000000 .LFB3851 + 0
000000000000002c  0000079e00000023 R_RISCV_ADD32          000000000000018c .LEHB24 + 0
000000000000002c  0000079600000027 R_RISCV_SUB32          0000000000000000 .LFB3851 + 0
0000000000000030  0000079f00000023 R_RISCV_ADD32          0000000000000194 .LEHE24 + 0
0000000000000030  0000079e00000027 R_RISCV_SUB32          000000000000018c .LEHB24 + 0

Relocation section '.rela.text._ZNSt10_HashtableIPKcSt4pairIKS1_N5dwarf3dieEESaIS6_ENSt8__detail10_Select1stENS4_9string_eqENS4_11string_hashENS8_18_Mod_range_hashingENS8_20_Default_ranged_hashENS8_20_Prime_rehash_policyENS8_17_Hashtable_traitsILb1ELb0ELb1EEEE9_M_rehashEmRKm' at offset 0x35b88 contains 15 entries:
    Offset             Info             Type               Symbol's Value  Symbol's Name + Addend
000000000000002c  00000c2000000014 R_RISCV_GOT_HI20       0000000000000000 _ZNSt10_HashtableIPKcSt4pairIKS1_N5dwarf3dieEESaIS6_ENSt8__detail10_Select1stENS4_9string_eqENS4_11string_hashENS8_18_Mod_range_hashingENS8_20_Default_ranged_hashENS8_20_Prime_rehash_policyENS8_17_Hashtable_traitsILb1ELb0ELb1EEEE13_M_rehash_auxEmSt17integral_constantIbLb1EE + 0
0000000000000030  000007a000000018 R_RISCV_PCREL_LO12_I   000000000000002c .L0  + 0
0000000000000030  0000000000000033 R_RISCV_RELAX                             0
0000000000000038  000007a200000011 R_RISCV_JAL            0000000000000094 .L368 + 0
0000000000000044  00000c1c00000013 R_RISCV_CALL_PLT       0000000000000000 __cxa_begin_catch + 0
0000000000000044  0000000000000033 R_RISCV_RELAX                             0
0000000000000064  00000b2600000014 R_RISCV_GOT_HI20       0000000000000000 _ZNSt8__detail20_Prime_rehash_policy8_M_resetEm + 0
0000000000000068  000007a100000018 R_RISCV_PCREL_LO12_I   0000000000000064 .L0  + 0
0000000000000068  0000000000000033 R_RISCV_RELAX                             0
0000000000000070  00000c1e00000013 R_RISCV_CALL_PLT       0000000000000000 __cxa_rethrow + 0
0000000000000070  0000000000000033 R_RISCV_RELAX                             0
000000000000007c  00000c1f00000013 R_RISCV_CALL_PLT       0000000000000000 __cxa_end_catch + 0
000000000000007c  0000000000000033 R_RISCV_RELAX                             0
000000000000008c  00000b4a00000013 R_RISCV_CALL_PLT       0000000000000000 _Unwind_Resume + 0
000000000000008c  0000000000000033 R_RISCV_RELAX                             0

Relocation section '.rela.gcc_except_table._ZNSt10_HashtableIPKcSt4pairIKS1_N5dwarf3dieEESaIS6_ENSt8__detail10_Select1stENS4_9string_eqENS4_11string_hashENS8_18_Mod_range_hashingENS8_20_Default_ranged_hashENS8_20_Prime_rehash_policyENS8_17_Hashtable_traitsILb1ELb0ELb1EEEE9_M_' at offset 0x35cf0 contains 16 entries:
    Offset             Info             Type               Symbol's Value  Symbol's Name + Addend
0000000000000005  000007a300000023 R_RISCV_ADD32          0000000000000034 .LEHB25 + 0
0000000000000005  000007a400000027 R_RISCV_SUB32          0000000000000000 .LFB3856 + 0
0000000000000009  000007a500000023 R_RISCV_ADD32          0000000000000038 .LEHE25 + 0
0000000000000009  000007a300000027 R_RISCV_SUB32          0000000000000034 .LEHB25 + 0
000000000000000d  000007a600000023 R_RISCV_ADD32          000000000000003c .L366 + 0
000000000000000d  000007a400000027 R_RISCV_SUB32          0000000000000000 .LFB3856 + 0
0000000000000012  000007a700000023 R_RISCV_ADD32          0000000000000070 .LEHB26 + 0
0000000000000012  000007a400000027 R_RISCV_SUB32          0000000000000000 .LFB3856 + 0
0000000000000016  000007a800000023 R_RISCV_ADD32          0000000000000078 .LEHE26 + 0
0000000000000016  000007a700000027 R_RISCV_SUB32          0000000000000070 .LEHB26 + 0
000000000000001a  000007a900000023 R_RISCV_ADD32          0000000000000078 .L367 + 0
000000000000001a  000007a400000027 R_RISCV_SUB32          0000000000000000 .LFB3856 + 0
000000000000001f  000007aa00000023 R_RISCV_ADD32          000000000000008c .LEHB27 + 0
000000000000001f  000007a400000027 R_RISCV_SUB32          0000000000000000 .LFB3856 + 0
0000000000000023  000007ab00000023 R_RISCV_ADD32          0000000000000094 .LEHE27 + 0
0000000000000023  000007aa00000027 R_RISCV_SUB32          000000000000008c .LEHB27 + 0

Relocation section '.rela.text._ZNSt10_HashtableIPKcSt4pairIKS1_N5dwarf3dieEESaIS6_ENSt8__detail10_Select1stENS4_9string_eqENS4_11string_hashENS8_18_Mod_range_hashingENS8_20_Default_ranged_hashENS8_20_Prime_rehash_policyENS8_17_Hashtable_traitsILb1ELb0ELb1EEEE22_M_insert_buck' at offset 0x35e70 contains 9 entries:
    Offset             Info             Type               Symbol's Value  Symbol's Name + Addend
0000000000000038  000007ae00000010 R_RISCV_BRANCH         0000000000000084 .L371 + 0
0000000000000080  000007af00000011 R_RISCV_JAL            0000000000000114 .L374 + 0
00000000000000a8  000007b000000010 R_RISCV_BRANCH         00000000000000f4 .L373 + 0
00000000000000b8  00000bb400000014 R_RISCV_GOT_HI20       0000000000000000 _ZNKSt8__detail10_Hash_nodeISt4pairIKPKcN5dwarf3dieEELb1EE7_M_nextEv + 0
00000000000000bc  000007ac00000018 R_RISCV_PCREL_LO12_I   00000000000000b8 .L0  + 0
00000000000000bc  0000000000000033 R_RISCV_RELAX                             0
00000000000000d4  00000c0700000014 R_RISCV_GOT_HI20       0000000000000000 _ZNKSt10_HashtableIPKcSt4pairIKS1_N5dwarf3dieEESaIS6_ENSt8__detail10_Select1stENS4_9string_eqENS4_11string_hashENS8_18_Mod_range_hashingENS8_20_Default_ranged_hashENS8_20_Prime_rehash_policyENS8_17_Hashtable_traitsILb1ELb0ELb1EEEE15_M_bucket_indexERKNS8_16_Hash_node_valueIS6_Lb1EEE + 0
00000000000000d8  000007ad00000018 R_RISCV_PCREL_LO12_I   00000000000000d4 .L0  + 0
00000000000000d8  0000000000000033 R_RISCV_RELAX                             0

Relocation section '.rela.text._ZNSt8__detail16_Hashtable_allocISaINS_10_Hash_nodeISt4pairIKPKcN5dwarf3dieEELb1EEEEE17_M_node_allocatorEv' at offset 0x35f48 contains 3 entries:
    Offset             Info             Type               Symbol's Value  Symbol's Name + Addend
0000000000000018  00000c2100000014 R_RISCV_GOT_HI20       0000000000000000 _ZNSt8__detail21_Hashtable_ebo_helperILi0ESaINS_10_Hash_nodeISt4pairIKPKcN5dwarf3dieEELb1EEEELb1EE6_M_getEv + 0
000000000000001c  000007b100000018 R_RISCV_PCREL_LO12_I   0000000000000018 .L0  + 0
000000000000001c  0000000000000033 R_RISCV_RELAX                             0

Relocation section '.rela.text._ZNSt16allocator_traitsISaINSt8__detail10_Hash_nodeISt4pairIKPKcN5dwarf3dieEELb1EEEEE7destroyIS8_EEvRSA_PT_' at offset 0x35f90 contains 3 entries:
    Offset             Info             Type               Symbol's Value  Symbol's Name + Addend
0000000000000020  00000c2200000014 R_RISCV_GOT_HI20       0000000000000000 _ZNSt15__new_allocatorINSt8__detail10_Hash_nodeISt4pairIKPKcN5dwarf3dieEELb1EEEE7destroyIS8_EEvPT_ + 0
0000000000000024  000007b200000018 R_RISCV_PCREL_LO12_I   0000000000000020 .L0  + 0
0000000000000024  0000000000000033 R_RISCV_RELAX                             0

Relocation section '.rela.text._ZNSt8__detail16_Hashtable_allocISaINS_10_Hash_nodeISt4pairIKPKcN5dwarf3dieEELb1EEEEE22_M_deallocate_node_ptrEPS9_' at offset 0x35fd8 contains 9 entries:
    Offset             Info             Type               Symbol's Value  Symbol's Name + Addend
000000000000001c  00000c2300000014 R_RISCV_GOT_HI20       0000000000000000 _ZNSt19__ptr_traits_ptr_toIPNSt8__detail10_Hash_nodeISt4pairIKPKcN5dwarf3dieEELb1EEES9_Lb0EE10pointer_toERS9_ + 0
0000000000000020  000007b300000018 R_RISCV_PCREL_LO12_I   000000000000001c .L0  + 0
0000000000000020  0000000000000033 R_RISCV_RELAX                             0
0000000000000030  00000be600000014 R_RISCV_GOT_HI20       0000000000000000 _ZNSt8__detail16_Hashtable_allocISaINS_10_Hash_nodeISt4pairIKPKcN5dwarf3dieEELb1EEEEE17_M_node_allocatorEv + 0
0000000000000034  000007b400000018 R_RISCV_PCREL_LO12_I   0000000000000030 .L0  + 0
0000000000000034  0000000000000033 R_RISCV_RELAX                             0
000000000000004c  00000c1d00000014 R_RISCV_GOT_HI20       0000000000000000 _ZNSt16allocator_traitsISaINSt8__detail10_Hash_nodeISt4pairIKPKcN5dwarf3dieEELb1EEEEE10deallocateERSA_PS9_m + 0
0000000000000050  000007b500000018 R_RISCV_PCREL_LO12_I   000000000000004c .L0  + 0
0000000000000050  0000000000000033 R_RISCV_RELAX                             0

Relocation section '.rela.text._ZNSt19__ptr_traits_ptr_toIPPNSt8__detail15_Hash_node_baseES2_Lb0EE10pointer_toERS2_' at offset 0x360b0 contains 3 entries:
    Offset             Info             Type               Symbol's Value  Symbol's Name + Addend
0000000000000018  00000c2400000014 R_RISCV_GOT_HI20       0000000000000000 _ZSt9addressofIPNSt8__detail15_Hash_node_baseEEPT_RS3_ + 0
000000000000001c  000007b600000018 R_RISCV_PCREL_LO12_I   0000000000000018 .L0  + 0
000000000000001c  0000000000000033 R_RISCV_RELAX                             0

Relocation section '.rela.text._ZNSaIPNSt8__detail15_Hash_node_baseEEC2INS_10_Hash_nodeISt4pairIKPKcN5dwarf3dieEELb1EEEEERKSaIT_E' at offset 0x360f8 contains 3 entries:
    Offset             Info             Type               Symbol's Value  Symbol's Name + Addend
000000000000001c  00000c2600000014 R_RISCV_GOT_HI20       0000000000000000 _ZNSt15__new_allocatorIPNSt8__detail15_Hash_node_baseEEC2Ev + 0
0000000000000020  000007b700000018 R_RISCV_PCREL_LO12_I   000000000000001c .L0  + 0
0000000000000020  0000000000000033 R_RISCV_RELAX                             0

Relocation section '.rela.text._ZNSaIPNSt8__detail15_Hash_node_baseEED2Ev' at offset 0x36140 contains 3 entries:
    Offset             Info             Type               Symbol's Value  Symbol's Name + Addend
0000000000000018  00000c2800000014 R_RISCV_GOT_HI20       0000000000000000 _ZNSt15__new_allocatorIPNSt8__detail15_Hash_node_baseEED2Ev + 0
000000000000001c  000007b800000018 R_RISCV_PCREL_LO12_I   0000000000000018 .L0  + 0
000000000000001c  0000000000000033 R_RISCV_RELAX                             0

Relocation section '.rela.text._ZNSt16allocator_traitsISaIPNSt8__detail15_Hash_node_baseEEE10deallocateERS3_PS2_m' at offset 0x36188 contains 3 entries:
    Offset             Info             Type               Symbol's Value  Symbol's Name + Addend
0000000000000028  00000c2900000014 R_RISCV_GOT_HI20       0000000000000000 _ZNSt15__new_allocatorIPNSt8__detail15_Hash_node_baseEE10deallocateEPS2_m + 0
000000000000002c  000007b900000018 R_RISCV_PCREL_LO12_I   0000000000000028 .L0  + 0
000000000000002c  0000000000000033 R_RISCV_RELAX                             0

Relocation section '.rela.text._ZNSt10_HashtableIN5dwarf6DW_TAGES1_SaIS1_ENSt8__detail9_IdentityESt8equal_toIS1_ESt4hashIS1_ENS3_18_Mod_range_hashingENS3_20_Default_ranged_hashENS3_20_Prime_rehash_policyENS3_17_Hashtable_traitsILb1ELb1ELb1EEEEC2ERKS8_RKS6_RKS2_' at offset 0x361d0 contains 31 entries:
    Offset             Info             Type               Symbol's Value  Symbol's Name + Addend
0000000000000030  00000c2b00000014 R_RISCV_GOT_HI20       0000000000000000 _ZNSt8__detail15_Hashtable_baseIN5dwarf6DW_TAGES2_NS_9_IdentityESt8equal_toIS2_ESt4hashIS2_ENS_18_Mod_range_hashingENS_20_Default_ranged_hashENS_17_Hashtable_traitsILb1ELb1ELb1EEEEC2ERKS7_RKS5_ + 0
0000000000000034  000007ba00000018 R_RISCV_PCREL_LO12_I   0000000000000030 .L0  + 0
0000000000000034  0000000000000033 R_RISCV_RELAX                             0
0000000000000048  00000c2c00000014 R_RISCV_GOT_HI20       0000000000000000 _ZNSaINSt8__detail10_Hash_nodeIN5dwarf6DW_TAGELb1EEEEC1IS2_EERKSaIT_E + 0
000000000000004c  000007bb00000018 R_RISCV_PCREL_LO12_I   0000000000000048 .L0  + 0
000000000000004c  0000000000000033 R_RISCV_RELAX                             0
0000000000000060  00000c2d00000014 R_RISCV_GOT_HI20       0000000000000000 _ZNSt8__detail16_Hashtable_allocISaINS_10_Hash_nodeIN5dwarf6DW_TAGELb1EEEEEC2IS5_EEOT_ + 0
0000000000000064  000007bc00000018 R_RISCV_PCREL_LO12_I   0000000000000060 .L0  + 0
0000000000000064  0000000000000033 R_RISCV_RELAX                             0
0000000000000074  00000b9600000014 R_RISCV_GOT_HI20       0000000000000000 _ZNSaINSt8__detail10_Hash_nodeIN5dwarf6DW_TAGELb1EEEED1Ev + 0
0000000000000078  000007bd00000018 R_RISCV_PCREL_LO12_I   0000000000000074 .L0  + 0
0000000000000078  0000000000000033 R_RISCV_RELAX                             0
0000000000000088  00000c2e00000014 R_RISCV_GOT_HI20       0000000000000000 _ZNSt27_Enable_default_constructorILb1ENSt8__detail15_Hash_node_baseEEC2ESt31_Enable_default_constructor_tag + 0
000000000000008c  000007be00000018 R_RISCV_PCREL_LO12_I   0000000000000088 .L0  + 0
000000000000008c  0000000000000033 R_RISCV_RELAX                             0
00000000000000bc  00000b2100000014 R_RISCV_GOT_HI20       0000000000000000 _ZNSt8__detail15_Hash_node_baseC1Ev + 0
00000000000000c0  000007bf00000018 R_RISCV_PCREL_LO12_I   00000000000000bc .L0  + 0
00000000000000c0  0000000000000033 R_RISCV_RELAX                             0
00000000000000d8  0000063700000017 R_RISCV_PCREL_HI20     0000000000000070 .LC1 + 0
00000000000000d8  0000000000000033 R_RISCV_RELAX                             0
00000000000000dc  000007c000000018 R_RISCV_PCREL_LO12_I   00000000000000d8 .L0  + 0
00000000000000dc  0000000000000033 R_RISCV_RELAX                             0
00000000000000ec  00000b2400000014 R_RISCV_GOT_HI20       0000000000000000 _ZNSt8__detail20_Prime_rehash_policyC1Ef + 0
00000000000000f0  000007c100000018 R_RISCV_PCREL_LO12_I   00000000000000ec .L0  + 0
00000000000000f0  0000000000000033 R_RISCV_RELAX                             0
0000000000000100  000007c300000011 R_RISCV_JAL            000000000000012c .L387 + 0
0000000000000110  00000b9600000014 R_RISCV_GOT_HI20       0000000000000000 _ZNSaINSt8__detail10_Hash_nodeIN5dwarf6DW_TAGELb1EEEED1Ev + 0
0000000000000114  000007c200000018 R_RISCV_PCREL_LO12_I   0000000000000110 .L0  + 0
0000000000000114  0000000000000033 R_RISCV_RELAX                             0
0000000000000124  00000b4a00000013 R_RISCV_CALL_PLT       0000000000000000 _Unwind_Resume + 0
0000000000000124  0000000000000033 R_RISCV_RELAX                             0

Relocation section '.rela.gcc_except_table._ZNSt10_HashtableIN5dwarf6DW_TAGES1_SaIS1_ENSt8__detail9_IdentityESt8equal_toIS1_ESt4hashIS1_ENS3_18_Mod_range_hashingENS3_20_Default_ranged_hashENS3_20_Prime_rehash_policyENS3_17_Hashtable_traitsILb1ELb1ELb1EEEEC2ERKS8_RKS6_RKS2_' at offset 0x364b8 contains 14 entries:
    Offset             Info             Type               Symbol's Value  Symbol's Name + Addend
0000000000000004  000007c400000023 R_RISCV_ADD32          0000000000000038 .LEHB28 + 0
0000000000000004  000007c500000027 R_RISCV_SUB32          0000000000000000 .LFB3903 + 0
0000000000000008  000007c600000023 R_RISCV_ADD32          000000000000003c .LEHE28 + 0
0000000000000008  000007c400000027 R_RISCV_SUB32          0000000000000038 .LEHB28 + 0
0000000000000011  000007c700000023 R_RISCV_ADD32          0000000000000068 .LEHB29 + 0
0000000000000011  000007c500000027 R_RISCV_SUB32          0000000000000000 .LFB3903 + 0
0000000000000015  000007c800000023 R_RISCV_ADD32          000000000000006c .LEHE29 + 0
0000000000000015  000007c700000027 R_RISCV_SUB32          0000000000000068 .LEHB29 + 0
0000000000000019  000007c900000023 R_RISCV_ADD32          0000000000000104 .L386 + 0
0000000000000019  000007c500000027 R_RISCV_SUB32          0000000000000000 .LFB3903 + 0
000000000000001e  000007ca00000023 R_RISCV_ADD32          0000000000000124 .LEHB30 + 0
000000000000001e  000007c500000027 R_RISCV_SUB32          0000000000000000 .LFB3903 + 0
0000000000000022  000007cb00000023 R_RISCV_ADD32          000000000000012c .LEHE30 + 0
0000000000000022  000007ca00000027 R_RISCV_SUB32          0000000000000124 .LEHB30 + 0

Relocation section '.rela.text._ZNSt10_HashtableIN5dwarf6DW_TAGES1_SaIS1_ENSt8__detail9_IdentityESt8equal_toIS1_ESt4hashIS1_ENS3_18_Mod_range_hashingENS3_20_Default_ranged_hashENS3_20_Prime_rehash_policyENS3_17_Hashtable_traitsILb1ELb1ELb1EEEE19_M_allocate_bucketsEm' at offset 0x36608 contains 5 entries:
    Offset             Info             Type               Symbol's Value  Symbol's Name + Addend
0000000000000028  000007cd00000010 R_RISCV_BRANCH         0000000000000040 .L389 + 0
000000000000003c  000007ce00000011 R_RISCV_JAL            000000000000005c .L390 + 0
0000000000000048  00000c2f00000014 R_RISCV_GOT_HI20       0000000000000000 _ZNSt8__detail16_Hashtable_allocISaINS_10_Hash_nodeIN5dwarf6DW_TAGELb1EEEEE19_M_allocate_bucketsEm + 0
000000000000004c  000007cc00000018 R_RISCV_PCREL_LO12_I   0000000000000048 .L0  + 0
000000000000004c  0000000000000033 R_RISCV_RELAX                             0

Relocation section '.rela.text._ZNSt10_HashtableIN5dwarf6DW_TAGES1_SaIS1_ENSt8__detail9_IdentityESt8equal_toIS1_ESt4hashIS1_ENS3_18_Mod_range_hashingENS3_20_Default_ranged_hashENS3_20_Prime_rehash_policyENS3_17_Hashtable_traitsILb1ELb1ELb1EEEE9_M_insertIRKS1_NS3_10_AllocNodeI' at offset 0x36680 contains 15 entries:
    Offset             Info             Type               Symbol's Value  Symbol's Name + Addend
0000000000000030  00000c1400000014 R_RISCV_GOT_HI20       0000000000000000 _ZSt7forwardIRKN5dwarf6DW_TAGEEOT_RNSt16remove_referenceIS4_E4typeE + 0
0000000000000034  000007cf00000018 R_RISCV_PCREL_LO12_I   0000000000000030 .L0  + 0
0000000000000034  0000000000000033 R_RISCV_RELAX                             0
000000000000004c  00000c0c00000014 R_RISCV_GOT_HI20       0000000000000000 _ZNKSt8__detail9_IdentityclIRKN5dwarf6DW_TAGEEEOT_S7_ + 0
0000000000000050  000007d000000018 R_RISCV_PCREL_LO12_I   000000000000004c .L0  + 0
0000000000000050  0000000000000033 R_RISCV_RELAX                             0
0000000000000060  00000c3100000014 R_RISCV_GOT_HI20       0000000000000000 _ZNSt10_HashtableIN5dwarf6DW_TAGES1_SaIS1_ENSt8__detail9_IdentityESt8equal_toIS1_ESt4hashIS1_ENS3_18_Mod_range_hashingENS3_20_Default_ranged_hashENS3_20_Prime_rehash_policyENS3_17_Hashtable_traitsILb1ELb1ELb1EEEE14_S_forward_keyERKS1_ + 0
0000000000000064  000007d100000018 R_RISCV_PCREL_LO12_I   0000000000000060 .L0  + 0
0000000000000064  0000000000000033 R_RISCV_RELAX                             0
0000000000000074  00000c1400000014 R_RISCV_GOT_HI20       0000000000000000 _ZSt7forwardIRKN5dwarf6DW_TAGEEOT_RNSt16remove_referenceIS4_E4typeE + 0
0000000000000078  000007d200000018 R_RISCV_PCREL_LO12_I   0000000000000074 .L0  + 0
0000000000000078  0000000000000033 R_RISCV_RELAX                             0
0000000000000094  00000c3200000014 R_RISCV_GOT_HI20       0000000000000000 _ZNSt10_HashtableIN5dwarf6DW_TAGES1_SaIS1_ENSt8__detail9_IdentityESt8equal_toIS1_ESt4hashIS1_ENS3_18_Mod_range_hashingENS3_20_Default_ranged_hashENS3_20_Prime_rehash_policyENS3_17_Hashtable_traitsILb1ELb1ELb1EEEE16_M_insert_uniqueIRKS1_SH_NS3_10_AllocNodeISaINS3_10_Hash_nodeIS1_Lb1EEEEEEEESt4pairINS3_14_Node_iteratorIS1_Lb1ELb1EEEbEOT_OT0_RKT1_ + 0
