
die_str_map.o:     file format elf64-littleriscv


Disassembly of section .text:

0000000000000000 <dwarf::die_str_map::die_str_map(dwarf::die const&, dwarf::DW_AT, std::initializer_list<dwarf::DW_TAG> const&)>:
   0:	fd010113          	addi	sp,sp,-48
   4:	02113423          	sd	ra,40(sp)
   8:	02813023          	sd	s0,32(sp)
   c:	03010413          	addi	s0,sp,48
  10:	fea43423          	sd	a0,-24(s0)
  14:	feb43023          	sd	a1,-32(s0)
  18:	00060793          	addi	a5,a2,0
  1c:	fcd43823          	sd	a3,-48(s0)
  20:	fcf42e23          	sw	a5,-36(s0)
  24:	fe843783          	ld	a5,-24(s0)
  28:	fdc40713          	addi	a4,s0,-36
  2c:	fd043683          	ld	a3,-48(s0)
  30:	00070613          	addi	a2,a4,0
  34:	fe043583          	ld	a1,-32(s0)
  38:	00078513          	addi	a0,a5,0
  3c:	00000317          	auipc	t1,0x0
  40:	00033303          	ld	t1,0(t1) # 3c <dwarf::die_str_map::die_str_map(dwarf::die const&, dwarf::DW_AT, std::initializer_list<dwarf::DW_TAG> const&)+0x3c>
  44:	000300e7          	jalr	ra,0(t1)
  48:	00000013          	addi	zero,zero,0
  4c:	02813083          	ld	ra,40(sp)
  50:	02013403          	ld	s0,32(sp)
  54:	03010113          	addi	sp,sp,48
  58:	00008067          	jalr	zero,0(ra)

000000000000005c <dwarf::die_str_map::from_type_names(dwarf::die const&)>:
  5c:	f7010113          	addi	sp,sp,-144
  60:	08113423          	sd	ra,136(sp)
  64:	08813023          	sd	s0,128(sp)
  68:	09010413          	addi	s0,sp,144
  6c:	f6a43c23          	sd	a0,-136(s0)
  70:	f6b43823          	sd	a1,-144(s0)
  74:	00000797          	auipc	a5,0x0
  78:	00078793          	addi	a5,a5,0 # 74 <dwarf::die_str_map::from_type_names(dwarf::die const&)+0x18>
  7c:	0007be83          	ld	t4,0(a5)
  80:	0087be03          	ld	t3,8(a5)
  84:	0107b303          	ld	t1,16(a5)
  88:	0187b883          	ld	a7,24(a5)
  8c:	0207b803          	ld	a6,32(a5)
  90:	0287b503          	ld	a0,40(a5)
  94:	0307b583          	ld	a1,48(a5)
  98:	0387b603          	ld	a2,56(a5)
  9c:	0407b683          	ld	a3,64(a5)
  a0:	0487b703          	ld	a4,72(a5)
  a4:	0507b783          	ld	a5,80(a5)
  a8:	f9d43c23          	sd	t4,-104(s0)
  ac:	fbc43023          	sd	t3,-96(s0)
  b0:	fa643423          	sd	t1,-88(s0)
  b4:	fb143823          	sd	a7,-80(s0)
  b8:	fb043c23          	sd	a6,-72(s0)
  bc:	fca43023          	sd	a0,-64(s0)
  c0:	fcb43423          	sd	a1,-56(s0)
  c4:	fcc43823          	sd	a2,-48(s0)
  c8:	fcd43c23          	sd	a3,-40(s0)
  cc:	fee43023          	sd	a4,-32(s0)
  d0:	fef43423          	sd	a5,-24(s0)
  d4:	f9840793          	addi	a5,s0,-104
  d8:	f8f43423          	sd	a5,-120(s0)
  dc:	01600793          	addi	a5,zero,22
  e0:	f8f43823          	sd	a5,-112(s0)
  e4:	f8840793          	addi	a5,s0,-120
  e8:	00078693          	addi	a3,a5,0
  ec:	00300613          	addi	a2,zero,3
  f0:	f7043583          	ld	a1,-144(s0)
  f4:	f7843503          	ld	a0,-136(s0)
  f8:	00000097          	auipc	ra,0x0
  fc:	000080e7          	jalr	ra,0(ra) # f8 <dwarf::die_str_map::from_type_names(dwarf::die const&)+0x9c>
 100:	f7843503          	ld	a0,-136(s0)
 104:	08813083          	ld	ra,136(sp)
 108:	08013403          	ld	s0,128(sp)
 10c:	09010113          	addi	sp,sp,144
 110:	00008067          	jalr	zero,0(ra)

0000000000000114 <dwarf::die_str_map::operator[](char const*) const>:
 114:	f9010113          	addi	sp,sp,-112
 118:	06113423          	sd	ra,104(sp)
 11c:	06813023          	sd	s0,96(sp)
 120:	04913c23          	sd	s1,88(sp)
 124:	07010413          	addi	s0,sp,112
 128:	f8a43c23          	sd	a0,-104(s0)
 12c:	f8b43823          	sd	a1,-112(s0)
 130:	f9843783          	ld	a5,-104(s0)
 134:	00078513          	addi	a0,a5,0
 138:	00000317          	auipc	t1,0x0
 13c:	00033303          	ld	t1,0(t1) # 138 <dwarf::die_str_map::operator[](char const*) const+0x24>
 140:	000300e7          	jalr	ra,0(t1)
 144:	00050793          	addi	a5,a0,0
 148:	00078713          	addi	a4,a5,0
 14c:	f9040793          	addi	a5,s0,-112
 150:	00078593          	addi	a1,a5,0
 154:	00070513          	addi	a0,a4,0
 158:	00000317          	auipc	t1,0x0
 15c:	00033303          	ld	t1,0(t1) # 158 <dwarf::die_str_map::operator[](char const*) const+0x44>
 160:	000300e7          	jalr	ra,0(t1)
 164:	00050793          	addi	a5,a0,0
 168:	fcf43423          	sd	a5,-56(s0)
 16c:	f9843783          	ld	a5,-104(s0)
 170:	00078513          	addi	a0,a5,0
 174:	00000317          	auipc	t1,0x0
 178:	00033303          	ld	t1,0(t1) # 174 <dwarf::die_str_map::operator[](char const*) const+0x60>
 17c:	000300e7          	jalr	ra,0(t1)
 180:	00050793          	addi	a5,a0,0
 184:	00078513          	addi	a0,a5,0
 188:	00000317          	auipc	t1,0x0
 18c:	00033303          	ld	t1,0(t1) # 188 <dwarf::die_str_map::operator[](char const*) const+0x74>
 190:	000300e7          	jalr	ra,0(t1)
 194:	00050793          	addi	a5,a0,0
 198:	fcf43823          	sd	a5,-48(s0)
 19c:	fd040713          	addi	a4,s0,-48
 1a0:	fc840793          	addi	a5,s0,-56
 1a4:	00070593          	addi	a1,a4,0
 1a8:	00078513          	addi	a0,a5,0
 1ac:	00000317          	auipc	t1,0x0
 1b0:	00033303          	ld	t1,0(t1) # 1ac <dwarf::die_str_map::operator[](char const*) const+0x98>
 1b4:	000300e7          	jalr	ra,0(t1)
 1b8:	00050793          	addi	a5,a0,0
 1bc:	22078c63          	beq	a5,zero,3f4 <.L77>
 1c0:	fc840793          	addi	a5,s0,-56
 1c4:	00078513          	addi	a0,a5,0
 1c8:	00000317          	auipc	t1,0x0
 1cc:	00033303          	ld	t1,0(t1) # 1c8 <dwarf::die_str_map::operator[](char const*) const+0xb4>
 1d0:	000300e7          	jalr	ra,0(t1)
 1d4:	00050793          	addi	a5,a0,0
 1d8:	00878793          	addi	a5,a5,8
 1dc:	2880006f          	jal	zero,464 <.L87>

00000000000001e0 <.L86>:
 1e0:	f9843783          	ld	a5,-104(s0)
 1e4:	00078513          	addi	a0,a5,0
 1e8:	00000317          	auipc	t1,0x0
 1ec:	00033303          	ld	t1,0(t1) # 1e8 <.L86+0x8>
 1f0:	000300e7          	jalr	ra,0(t1)
 1f4:	00050793          	addi	a5,a0,0
 1f8:	07878793          	addi	a5,a5,120
 1fc:	00078513          	addi	a0,a5,0
 200:	00000317          	auipc	t1,0x0
 204:	00033303          	ld	t1,0(t1) # 200 <.L86+0x20>
 208:	000300e7          	jalr	ra,0(t1)
 20c:	fca43c23          	sd	a0,-40(s0)
 210:	f9843783          	ld	a5,-104(s0)
 214:	00078513          	addi	a0,a5,0
 218:	00000317          	auipc	t1,0x0
 21c:	00033303          	ld	t1,0(t1) # 218 <.L86+0x38>
 220:	000300e7          	jalr	ra,0(t1)
 224:	00050793          	addi	a5,a0,0
 228:	07878793          	addi	a5,a5,120
 22c:	00078513          	addi	a0,a5,0
 230:	00000097          	auipc	ra,0x0
 234:	000080e7          	jalr	ra,0(ra) # 230 <.L86+0x50>
 238:	f9843783          	ld	a5,-104(s0)
 23c:	00078513          	addi	a0,a5,0
 240:	00000317          	auipc	t1,0x0
 244:	00033303          	ld	t1,0(t1) # 240 <.L86+0x60>
 248:	000300e7          	jalr	ra,0(t1)
 24c:	00050793          	addi	a5,a0,0
 250:	04078793          	addi	a5,a5,64
 254:	fd843703          	ld	a4,-40(s0)
 258:	00070593          	addi	a1,a4,0
 25c:	00078513          	addi	a0,a5,0
 260:	00000317          	auipc	t1,0x0
 264:	00033303          	ld	t1,0(t1) # 260 <.L86+0x80>
 268:	000300e7          	jalr	ra,0(t1)
 26c:	00050793          	addi	a5,a0,0
 270:	04078063          	beq	a5,zero,2b0 <.L78>
 274:	f9843783          	ld	a5,-104(s0)
 278:	00078513          	addi	a0,a5,0
 27c:	00000317          	auipc	t1,0x0
 280:	00033303          	ld	t1,0(t1) # 27c <.L86+0x9c>
 284:	000300e7          	jalr	ra,0(t1)
 288:	00050793          	addi	a5,a0,0
 28c:	0387a783          	lw	a5,56(a5)
 290:	00078593          	addi	a1,a5,0
 294:	fd843503          	ld	a0,-40(s0)
 298:	00000097          	auipc	ra,0x0
 29c:	000080e7          	jalr	ra,0(ra) # 298 <.L86+0xb8>
 2a0:	00050793          	addi	a5,a0,0
 2a4:	0017c793          	xori	a5,a5,1
 2a8:	0ff7f793          	andi	a5,a5,255
 2ac:	00078663          	beq	a5,zero,2b8 <.L79>

00000000000002b0 <.L78>:
 2b0:	00100793          	addi	a5,zero,1
 2b4:	0080006f          	jal	zero,2bc <.L80>

00000000000002b8 <.L79>:
 2b8:	00000793          	addi	a5,zero,0

00000000000002bc <.L80>:
 2bc:	12079663          	bne	a5,zero,3e8 <.L88>
 2c0:	f9843783          	ld	a5,-104(s0)
 2c4:	00078513          	addi	a0,a5,0
 2c8:	00000317          	auipc	t1,0x0
 2cc:	00033303          	ld	t1,0(t1) # 2c8 <.L80+0xc>
 2d0:	000300e7          	jalr	ra,0(t1)
 2d4:	00050793          	addi	a5,a0,0
 2d8:	0387a703          	lw	a4,56(a5)
 2dc:	fb040793          	addi	a5,s0,-80
 2e0:	00070613          	addi	a2,a4,0
 2e4:	fd843583          	ld	a1,-40(s0)
 2e8:	00078513          	addi	a0,a5,0
 2ec:	00000097          	auipc	ra,0x0
 2f0:	000080e7          	jalr	ra,0(ra) # 2ec <.L80+0x30>
 2f4:	fb040793          	addi	a5,s0,-80
 2f8:	00078513          	addi	a0,a5,0
 2fc:	00000317          	auipc	t1,0x0
 300:	00033303          	ld	t1,0(t1) # 2fc <.L80+0x40>
 304:	000300e7          	jalr	ra,0(t1)
 308:	00050793          	addi	a5,a0,0
 30c:	00078713          	addi	a4,a5,0
 310:	00d00793          	addi	a5,zero,13
 314:	40f707b3          	sub	a5,a4,a5
 318:	00f037b3          	sltu	a5,zero,a5
 31c:	0ff7f793          	andi	a5,a5,255
 320:	0c079863          	bne	a5,zero,3f0 <.L89>
 324:	fb040793          	addi	a5,s0,-80
 328:	00000593          	addi	a1,zero,0
 32c:	00078513          	addi	a0,a5,0
 330:	00000097          	auipc	ra,0x0
 334:	000080e7          	jalr	ra,0(ra) # 330 <.L80+0x74>
 338:	00050793          	addi	a5,a0,0
 33c:	faf43423          	sd	a5,-88(s0)
 340:	f9843783          	ld	a5,-104(s0)
 344:	00078513          	addi	a0,a5,0
 348:	00000317          	auipc	t1,0x0
 34c:	00033303          	ld	t1,0(t1) # 348 <.L80+0x8c>
 350:	000300e7          	jalr	ra,0(t1)
 354:	00050793          	addi	a5,a0,0
 358:	00078713          	addi	a4,a5,0
 35c:	fa840793          	addi	a5,s0,-88
 360:	00078593          	addi	a1,a5,0
 364:	00070513          	addi	a0,a4,0
 368:	00000317          	auipc	t1,0x0
 36c:	00033303          	ld	t1,0(t1) # 368 <.L80+0xac>
 370:	000300e7          	jalr	ra,0(t1)
 374:	00050793          	addi	a5,a0,0
 378:	fd843583          	ld	a1,-40(s0)
 37c:	00078513          	addi	a0,a5,0
 380:	00000317          	auipc	t1,0x0
 384:	00033303          	ld	t1,0(t1) # 380 <.L80+0xc4>
 388:	000300e7          	jalr	ra,0(t1)
 38c:	f9043783          	ld	a5,-112(s0)
 390:	fa843703          	ld	a4,-88(s0)
 394:	00070593          	addi	a1,a4,0
 398:	00078513          	addi	a0,a5,0
 39c:	00000097          	auipc	ra,0x0
 3a0:	000080e7          	jalr	ra,0(ra) # 39c <.L80+0xe0>
 3a4:	00050793          	addi	a5,a0,0
 3a8:	04079663          	bne	a5,zero,3f4 <.L77>
 3ac:	f9843783          	ld	a5,-104(s0)
 3b0:	00078513          	addi	a0,a5,0
 3b4:	00000317          	auipc	t1,0x0
 3b8:	00033303          	ld	t1,0(t1) # 3b4 <.L80+0xf8>
 3bc:	000300e7          	jalr	ra,0(t1)
 3c0:	00050793          	addi	a5,a0,0
 3c4:	00078713          	addi	a4,a5,0
 3c8:	fa840793          	addi	a5,s0,-88
 3cc:	00078593          	addi	a1,a5,0
 3d0:	00070513          	addi	a0,a4,0
 3d4:	00000317          	auipc	t1,0x0
 3d8:	00033303          	ld	t1,0(t1) # 3d4 <.L80+0x118>
 3dc:	000300e7          	jalr	ra,0(t1)
 3e0:	00050793          	addi	a5,a0,0
 3e4:	0800006f          	jal	zero,464 <.L87>

00000000000003e8 <.L88>:
 3e8:	00000013          	addi	zero,zero,0
 3ec:	0080006f          	jal	zero,3f4 <.L77>

00000000000003f0 <.L89>:
 3f0:	00000013          	addi	zero,zero,0

00000000000003f4 <.L77>:
 3f4:	f9843783          	ld	a5,-104(s0)
 3f8:	00078513          	addi	a0,a5,0
 3fc:	00000317          	auipc	t1,0x0
 400:	00033303          	ld	t1,0(t1) # 3fc <.L77+0x8>
 404:	000300e7          	jalr	ra,0(t1)
 408:	00050793          	addi	a5,a0,0
 40c:	07878493          	addi	s1,a5,120
 410:	f9843783          	ld	a5,-104(s0)
 414:	00078513          	addi	a0,a5,0
 418:	00000317          	auipc	t1,0x0
 41c:	00033303          	ld	t1,0(t1) # 418 <.L77+0x24>
 420:	000300e7          	jalr	ra,0(t1)
 424:	00050793          	addi	a5,a0,0
 428:	0e878793          	addi	a5,a5,232
 42c:	00078593          	addi	a1,a5,0
 430:	00048513          	addi	a0,s1,0
 434:	00000317          	auipc	t1,0x0
 438:	00033303          	ld	t1,0(t1) # 434 <.L77+0x40>
 43c:	000300e7          	jalr	ra,0(t1)
 440:	00050793          	addi	a5,a0,0
 444:	d8079ee3          	bne	a5,zero,1e0 <.L86>
 448:	f9843783          	ld	a5,-104(s0)
 44c:	00078513          	addi	a0,a5,0
 450:	00000317          	auipc	t1,0x0
 454:	00033303          	ld	t1,0(t1) # 450 <.L77+0x5c>
 458:	000300e7          	jalr	ra,0(t1)
 45c:	00050793          	addi	a5,a0,0
 460:	15878793          	addi	a5,a5,344

0000000000000464 <.L87>:
 464:	00078513          	addi	a0,a5,0
 468:	06813083          	ld	ra,104(sp)
 46c:	06013403          	ld	s0,96(sp)
 470:	05813483          	ld	s1,88(sp)
 474:	07010113          	addi	sp,sp,112
 478:	00008067          	jalr	zero,0(ra)

Disassembly of section .text._ZSt23__is_constant_evaluatedv:

0000000000000000 <std::__is_constant_evaluated()>:
   0:	ff010113          	addi	sp,sp,-16
   4:	00813423          	sd	s0,8(sp)
   8:	01010413          	addi	s0,sp,16
   c:	00000793          	addi	a5,zero,0
  10:	00078513          	addi	a0,a5,0
  14:	00813403          	ld	s0,8(sp)
  18:	01010113          	addi	sp,sp,16
  1c:	00008067          	jalr	zero,0(ra)

Disassembly of section .text._ZnwmPv:

0000000000000000 <operator new(unsigned long, void*)>:
   0:	fe010113          	addi	sp,sp,-32
   4:	00813c23          	sd	s0,24(sp)
   8:	02010413          	addi	s0,sp,32
   c:	fea43423          	sd	a0,-24(s0)
  10:	feb43023          	sd	a1,-32(s0)
  14:	fe043783          	ld	a5,-32(s0)
  18:	00078513          	addi	a0,a5,0
  1c:	01813403          	ld	s0,24(sp)
  20:	02010113          	addi	sp,sp,32
  24:	00008067          	jalr	zero,0(ra)

Disassembly of section .text._ZdlPvS_:

0000000000000000 <operator delete(void*, void*)>:
   0:	fe010113          	addi	sp,sp,-32
   4:	00813c23          	sd	s0,24(sp)
   8:	02010413          	addi	s0,sp,32
   c:	fea43423          	sd	a0,-24(s0)
  10:	feb43023          	sd	a1,-32(s0)
  14:	00000013          	addi	zero,zero,0
  18:	01813403          	ld	s0,24(sp)
  1c:	02010113          	addi	sp,sp,32
  20:	00008067          	jalr	zero,0(ra)

Disassembly of section .text._ZNKSt9type_info4nameEv:

0000000000000000 <std::type_info::name() const>:
   0:	fe010113          	addi	sp,sp,-32
   4:	00813c23          	sd	s0,24(sp)
   8:	02010413          	addi	s0,sp,32
   c:	fea43423          	sd	a0,-24(s0)
  10:	fe843783          	ld	a5,-24(s0)
  14:	0087b783          	ld	a5,8(a5)
  18:	0007c783          	lbu	a5,0(a5)
  1c:	00078713          	addi	a4,a5,0
  20:	02a00793          	addi	a5,zero,42
  24:	00f71a63          	bne	a4,a5,38 <.L7>
  28:	fe843783          	ld	a5,-24(s0)
  2c:	0087b783          	ld	a5,8(a5)
  30:	00178793          	addi	a5,a5,1
  34:	00c0006f          	jal	zero,40 <.L9>

0000000000000038 <.L7>:
  38:	fe843783          	ld	a5,-24(s0)
  3c:	0087b783          	ld	a5,8(a5)

0000000000000040 <.L9>:
  40:	00078513          	addi	a0,a5,0
  44:	01813403          	ld	s0,24(sp)
  48:	02010113          	addi	sp,sp,32
  4c:	00008067          	jalr	zero,0(ra)

Disassembly of section .text._ZNKSt9type_infoeqERKS_:

0000000000000000 <std::type_info::operator==(std::type_info const&) const>:
   0:	fd010113          	addi	sp,sp,-48
   4:	02113423          	sd	ra,40(sp)
   8:	02813023          	sd	s0,32(sp)
   c:	00913c23          	sd	s1,24(sp)
  10:	03010413          	addi	s0,sp,48
  14:	fca43c23          	sd	a0,-40(s0)
  18:	fcb43823          	sd	a1,-48(s0)
  1c:	00000317          	auipc	t1,0x0
  20:	00033303          	ld	t1,0(t1) # 1c <std::type_info::operator==(std::type_info const&) const+0x1c>
  24:	000300e7          	jalr	ra,0(t1)
  28:	00050793          	addi	a5,a0,0
  2c:	00078e63          	beq	a5,zero,48 <.L11>
  30:	fd843703          	ld	a4,-40(s0)
  34:	fd043783          	ld	a5,-48(s0)
  38:	40f707b3          	sub	a5,a4,a5
  3c:	0017b793          	sltiu	a5,a5,1
  40:	0ff7f793          	andi	a5,a5,255
  44:	07c0006f          	jal	zero,c0 <.L12>

0000000000000048 <.L11>:
  48:	fd843783          	ld	a5,-40(s0)
  4c:	0087b703          	ld	a4,8(a5)
  50:	fd043783          	ld	a5,-48(s0)
  54:	0087b783          	ld	a5,8(a5)
  58:	00f71663          	bne	a4,a5,64 <.L13>
  5c:	00100793          	addi	a5,zero,1
  60:	0600006f          	jal	zero,c0 <.L12>

0000000000000064 <.L13>:
  64:	fd843783          	ld	a5,-40(s0)
  68:	0087b783          	ld	a5,8(a5)
  6c:	0007c783          	lbu	a5,0(a5)
  70:	00078713          	addi	a4,a5,0
  74:	02a00793          	addi	a5,zero,42
  78:	04f70063          	beq	a4,a5,b8 <.L14>
  7c:	fd843783          	ld	a5,-40(s0)
  80:	0087b483          	ld	s1,8(a5)
  84:	fd043503          	ld	a0,-48(s0)
  88:	00000317          	auipc	t1,0x0
  8c:	00033303          	ld	t1,0(t1) # 88 <.L13+0x24>
  90:	000300e7          	jalr	ra,0(t1)
  94:	00050793          	addi	a5,a0,0
  98:	00078593          	addi	a1,a5,0
  9c:	00048513          	addi	a0,s1,0
  a0:	00000097          	auipc	ra,0x0
  a4:	000080e7          	jalr	ra,0(ra) # a0 <.L13+0x3c>
  a8:	00050793          	addi	a5,a0,0
  ac:	00079663          	bne	a5,zero,b8 <.L14>
  b0:	00100793          	addi	a5,zero,1
  b4:	0080006f          	jal	zero,bc <.L16>

00000000000000b8 <.L14>:
  b8:	00000793          	addi	a5,zero,0

00000000000000bc <.L16>:
  bc:	00000013          	addi	zero,zero,0

00000000000000c0 <.L12>:
  c0:	00078513          	addi	a0,a5,0
  c4:	02813083          	ld	ra,40(sp)
  c8:	02013403          	ld	s0,32(sp)
  cc:	01813483          	ld	s1,24(sp)
  d0:	03010113          	addi	sp,sp,48
  d4:	00008067          	jalr	zero,0(ra)

Disassembly of section .text._ZN9__gnu_cxx7__mutexC2Ev:

0000000000000000 <__gnu_cxx::__mutex::__mutex()>:
   0:	fe010113          	addi	sp,sp,-32
   4:	00813c23          	sd	s0,24(sp)
   8:	02010413          	addi	s0,sp,32
   c:	fea43423          	sd	a0,-24(s0)
  10:	fe843783          	ld	a5,-24(s0)
  14:	0007a023          	sw	zero,0(a5)
  18:	fe843783          	ld	a5,-24(s0)
  1c:	0007a223          	sw	zero,4(a5)
  20:	fe843783          	ld	a5,-24(s0)
  24:	0007a423          	sw	zero,8(a5)
  28:	fe843783          	ld	a5,-24(s0)
  2c:	0007a623          	sw	zero,12(a5)
  30:	fe843783          	ld	a5,-24(s0)
  34:	0007a823          	sw	zero,16(a5)
  38:	fe843783          	ld	a5,-24(s0)
  3c:	0007aa23          	sw	zero,20(a5)
  40:	fe843783          	ld	a5,-24(s0)
  44:	0007bc23          	sd	zero,24(a5)
  48:	fe843783          	ld	a5,-24(s0)
  4c:	0207b023          	sd	zero,32(a5)
  50:	00000013          	addi	zero,zero,0
  54:	01813403          	ld	s0,24(sp)
  58:	02010113          	addi	sp,sp,32
  5c:	00008067          	jalr	zero,0(ra)

Disassembly of section .text._ZNSt19_Sp_make_shared_tag5_S_tiEv:

0000000000000000 <std::_Sp_make_shared_tag::_S_ti()>:
   0:	ff010113          	addi	sp,sp,-16
   4:	00813423          	sd	s0,8(sp)
   8:	01010413          	addi	s0,sp,16
   c:	00000797          	auipc	a5,0x0
  10:	0007b783          	ld	a5,0(a5) # c <std::_Sp_make_shared_tag::_S_ti()+0xc>
  14:	00078513          	addi	a0,a5,0
  18:	00813403          	ld	s0,8(sp)
  1c:	01010113          	addi	sp,sp,16
  20:	00008067          	jalr	zero,0(ra)

Disassembly of section .text._ZN5dwarf3dieC2Ev:

0000000000000000 <dwarf::die::die()>:
   0:	fe010113          	addi	sp,sp,-32
   4:	00113c23          	sd	ra,24(sp)
   8:	00813823          	sd	s0,16(sp)
   c:	02010413          	addi	s0,sp,32
  10:	fea43423          	sd	a0,-24(s0)
  14:	fe843783          	ld	a5,-24(s0)
  18:	0007b423          	sd	zero,8(a5)
  1c:	fe843783          	ld	a5,-24(s0)
  20:	0007b823          	sd	zero,16(a5)
  24:	fe843783          	ld	a5,-24(s0)
  28:	02078793          	addi	a5,a5,32
  2c:	00078513          	addi	a0,a5,0
  30:	00000317          	auipc	t1,0x0
  34:	00033303          	ld	t1,0(t1) # 30 <dwarf::die::die()+0x30>
  38:	000300e7          	jalr	ra,0(t1)
  3c:	00000013          	addi	zero,zero,0
  40:	01813083          	ld	ra,24(sp)
  44:	01013403          	ld	s0,16(sp)
  48:	02010113          	addi	sp,sp,32
  4c:	00008067          	jalr	zero,0(ra)

Disassembly of section .text._ZNK5dwarf3die8iteratordeEv:

0000000000000000 <dwarf::die::iterator::operator*() const>:
   0:	fe010113          	addi	sp,sp,-32
   4:	00813c23          	sd	s0,24(sp)
   8:	02010413          	addi	s0,sp,32
   c:	fea43423          	sd	a0,-24(s0)
  10:	fe843783          	ld	a5,-24(s0)
  14:	00078513          	addi	a0,a5,0
  18:	01813403          	ld	s0,24(sp)
  1c:	02010113          	addi	sp,sp,32
  20:	00008067          	jalr	zero,0(ra)

Disassembly of section .text._ZNK5dwarf3die8iteratorneERKS1_:

0000000000000000 <dwarf::die::iterator::operator!=(dwarf::die::iterator const&) const>:
   0:	fe010113          	addi	sp,sp,-32
   4:	00813c23          	sd	s0,24(sp)
   8:	02010413          	addi	s0,sp,32
   c:	fea43423          	sd	a0,-24(s0)
  10:	feb43023          	sd	a1,-32(s0)
  14:	fe843783          	ld	a5,-24(s0)
  18:	0107b703          	ld	a4,16(a5)
  1c:	fe043783          	ld	a5,-32(s0)
  20:	0107b783          	ld	a5,16(a5)
  24:	00f70663          	beq	a4,a5,30 <.L24>
  28:	00100793          	addi	a5,zero,1
  2c:	0500006f          	jal	zero,7c <.L25>

0000000000000030 <.L24>:
  30:	fe843783          	ld	a5,-24(s0)
  34:	0107b783          	ld	a5,16(a5)
  38:	00079663          	bne	a5,zero,44 <.L26>
  3c:	00000793          	addi	a5,zero,0
  40:	03c0006f          	jal	zero,7c <.L25>

0000000000000044 <.L26>:
  44:	fe843783          	ld	a5,-24(s0)
  48:	0687b703          	ld	a4,104(a5)
  4c:	fe043783          	ld	a5,-32(s0)
  50:	0687b783          	ld	a5,104(a5)
  54:	00f71c63          	bne	a4,a5,6c <.L27>
  58:	fe843783          	ld	a5,-24(s0)
  5c:	0087b703          	ld	a4,8(a5)
  60:	fe043783          	ld	a5,-32(s0)
  64:	0087b783          	ld	a5,8(a5)
  68:	00f70663          	beq	a4,a5,74 <.L28>

000000000000006c <.L27>:
  6c:	00100793          	addi	a5,zero,1
  70:	0080006f          	jal	zero,78 <.L30>

0000000000000074 <.L28>:
  74:	00000793          	addi	a5,zero,0

0000000000000078 <.L30>:
  78:	00000013          	addi	zero,zero,0

000000000000007c <.L25>:
  7c:	00078513          	addi	a0,a5,0
  80:	01813403          	ld	s0,24(sp)
  84:	02010113          	addi	sp,sp,32
  88:	00008067          	jalr	zero,0(ra)

Disassembly of section .text._ZN5dwarf3dieD2Ev:

0000000000000000 <dwarf::die::~die()>:
   0:	fe010113          	addi	sp,sp,-32
   4:	00113c23          	sd	ra,24(sp)
   8:	00813823          	sd	s0,16(sp)
   c:	02010413          	addi	s0,sp,32
  10:	fea43423          	sd	a0,-24(s0)
  14:	fe843783          	ld	a5,-24(s0)
  18:	02078793          	addi	a5,a5,32
  1c:	00078513          	addi	a0,a5,0
  20:	00000317          	auipc	t1,0x0
  24:	00033303          	ld	t1,0(t1) # 20 <dwarf::die::~die()+0x20>
  28:	000300e7          	jalr	ra,0(t1)
  2c:	00000013          	addi	zero,zero,0
  30:	01813083          	ld	ra,24(sp)
  34:	01013403          	ld	s0,16(sp)
  38:	02010113          	addi	sp,sp,32
  3c:	00008067          	jalr	zero,0(ra)

Disassembly of section .text._ZN5dwarf3die8iteratorC2Ev:

0000000000000000 <dwarf::die::iterator::iterator()>:
   0:	fe010113          	addi	sp,sp,-32
   4:	00113c23          	sd	ra,24(sp)
   8:	00813823          	sd	s0,16(sp)
   c:	02010413          	addi	s0,sp,32
  10:	fea43423          	sd	a0,-24(s0)
  14:	fe843783          	ld	a5,-24(s0)
  18:	00078513          	addi	a0,a5,0
  1c:	00000317          	auipc	t1,0x0
  20:	00033303          	ld	t1,0(t1) # 1c <dwarf::die::iterator::iterator()+0x1c>
  24:	000300e7          	jalr	ra,0(t1)
  28:	00000013          	addi	zero,zero,0
  2c:	01813083          	ld	ra,24(sp)
  30:	01013403          	ld	s0,16(sp)
  34:	02010113          	addi	sp,sp,32
  38:	00008067          	jalr	zero,0(ra)

Disassembly of section .text._ZN5dwarf3die8iteratorD2Ev:

0000000000000000 <dwarf::die::iterator::~iterator()>:
   0:	fe010113          	addi	sp,sp,-32
   4:	00113c23          	sd	ra,24(sp)
   8:	00813823          	sd	s0,16(sp)
   c:	02010413          	addi	s0,sp,32
  10:	fea43423          	sd	a0,-24(s0)
  14:	fe843783          	ld	a5,-24(s0)
  18:	00078513          	addi	a0,a5,0
  1c:	00000317          	auipc	t1,0x0
  20:	00033303          	ld	t1,0(t1) # 1c <dwarf::die::iterator::~iterator()+0x1c>
  24:	000300e7          	jalr	ra,0(t1)
  28:	00000013          	addi	zero,zero,0
  2c:	01813083          	ld	ra,24(sp)
  30:	01013403          	ld	s0,16(sp)
  34:	02010113          	addi	sp,sp,32
  38:	00008067          	jalr	zero,0(ra)

Disassembly of section .text._ZNK5dwarf3die3endEv:

0000000000000000 <dwarf::die::end() const>:
   0:	fe010113          	addi	sp,sp,-32
   4:	00113c23          	sd	ra,24(sp)
   8:	00813823          	sd	s0,16(sp)
   c:	02010413          	addi	s0,sp,32
  10:	fea43423          	sd	a0,-24(s0)
  14:	feb43023          	sd	a1,-32(s0)
  18:	fe843783          	ld	a5,-24(s0)
  1c:	0007b023          	sd	zero,0(a5)
  20:	0007b423          	sd	zero,8(a5)
  24:	0007b823          	sd	zero,16(a5)
  28:	0007bc23          	sd	zero,24(a5)
  2c:	0207b023          	sd	zero,32(a5)
  30:	0207b423          	sd	zero,40(a5)
  34:	0207b823          	sd	zero,48(a5)
  38:	0207bc23          	sd	zero,56(a5)
  3c:	0407b023          	sd	zero,64(a5)
  40:	0407b423          	sd	zero,72(a5)
  44:	0407b823          	sd	zero,80(a5)
  48:	0407bc23          	sd	zero,88(a5)
  4c:	0607b023          	sd	zero,96(a5)
  50:	0607b423          	sd	zero,104(a5)
  54:	fe843503          	ld	a0,-24(s0)
  58:	00000317          	auipc	t1,0x0
  5c:	00033303          	ld	t1,0(t1) # 58 <dwarf::die::end() const+0x58>
  60:	000300e7          	jalr	ra,0(t1)
  64:	fe843503          	ld	a0,-24(s0)
  68:	01813083          	ld	ra,24(sp)
  6c:	01013403          	ld	s0,16(sp)
  70:	02010113          	addi	sp,sp,32
  74:	00008067          	jalr	zero,0(ra)

Disassembly of section .text._ZNK5dwarf5value8get_typeEv:

0000000000000000 <dwarf::value::get_type() const>:
   0:	fe010113          	addi	sp,sp,-32
   4:	00813c23          	sd	s0,24(sp)
   8:	02010413          	addi	s0,sp,32
   c:	fea43423          	sd	a0,-24(s0)
  10:	fe843783          	ld	a5,-24(s0)
  14:	00c7a783          	lw	a5,12(a5)
  18:	00078513          	addi	a0,a5,0
  1c:	01813403          	ld	s0,24(sp)
  20:	02010113          	addi	sp,sp,32
  24:	00008067          	jalr	zero,0(ra)

Disassembly of section .text._ZNSt8__detail15_Hash_node_baseC2Ev:

0000000000000000 <std::__detail::_Hash_node_base::_Hash_node_base()>:
   0:	fe010113          	addi	sp,sp,-32
   4:	00813c23          	sd	s0,24(sp)
   8:	02010413          	addi	s0,sp,32
   c:	fea43423          	sd	a0,-24(s0)
  10:	fe843783          	ld	a5,-24(s0)
  14:	0007b023          	sd	zero,0(a5)
  18:	00000013          	addi	zero,zero,0
  1c:	01813403          	ld	s0,24(sp)
  20:	02010113          	addi	sp,sp,32
  24:	00008067          	jalr	zero,0(ra)

Disassembly of section .text._ZNKSt8__detail18_Mod_range_hashingclEmm:

0000000000000000 <std::__detail::_Mod_range_hashing::operator()(unsigned long, unsigned long) const>:
   0:	fd010113          	addi	sp,sp,-48
   4:	02813423          	sd	s0,40(sp)
   8:	03010413          	addi	s0,sp,48
   c:	fea43423          	sd	a0,-24(s0)
  10:	feb43023          	sd	a1,-32(s0)
  14:	fcc43c23          	sd	a2,-40(s0)
  18:	fe043703          	ld	a4,-32(s0)
  1c:	fd843783          	ld	a5,-40(s0)
  20:	02f777b3          	remu	a5,a4,a5
  24:	00078513          	addi	a0,a5,0
  28:	02813403          	ld	s0,40(sp)
  2c:	03010113          	addi	sp,sp,48
  30:	00008067          	jalr	zero,0(ra)

Disassembly of section .text._ZNSt8__detail20_Prime_rehash_policyC2Ef:

0000000000000000 <std::__detail::_Prime_rehash_policy::_Prime_rehash_policy(float)>:
   0:	fe010113          	addi	sp,sp,-32
   4:	00813c23          	sd	s0,24(sp)
   8:	02010413          	addi	s0,sp,32
   c:	fea43423          	sd	a0,-24(s0)
  10:	fea42227          	fsw	fa0,-28(s0)
  14:	fe843783          	ld	a5,-24(s0)
  18:	fe442787          	flw	fa5,-28(s0)
  1c:	00f7a027          	fsw	fa5,0(a5)
  20:	fe843783          	ld	a5,-24(s0)
  24:	0007b423          	sd	zero,8(a5)
  28:	00000013          	addi	zero,zero,0
  2c:	01813403          	ld	s0,24(sp)
  30:	02010113          	addi	sp,sp,32
  34:	00008067          	jalr	zero,0(ra)

Disassembly of section .text._ZNKSt8__detail20_Prime_rehash_policy8_M_stateEv:

0000000000000000 <std::__detail::_Prime_rehash_policy::_M_state() const>:
   0:	fe010113          	addi	sp,sp,-32
   4:	00813c23          	sd	s0,24(sp)
   8:	02010413          	addi	s0,sp,32
   c:	fea43423          	sd	a0,-24(s0)
  10:	fe843783          	ld	a5,-24(s0)
  14:	0087b783          	ld	a5,8(a5)
  18:	00078513          	addi	a0,a5,0
  1c:	01813403          	ld	s0,24(sp)
  20:	02010113          	addi	sp,sp,32
  24:	00008067          	jalr	zero,0(ra)

Disassembly of section .text._ZNSt8__detail20_Prime_rehash_policy8_M_resetEm:

0000000000000000 <std::__detail::_Prime_rehash_policy::_M_reset(unsigned long)>:
   0:	fe010113          	addi	sp,sp,-32
   4:	00813c23          	sd	s0,24(sp)
   8:	02010413          	addi	s0,sp,32
   c:	fea43423          	sd	a0,-24(s0)
  10:	feb43023          	sd	a1,-32(s0)
  14:	fe843783          	ld	a5,-24(s0)
  18:	fe043703          	ld	a4,-32(s0)
  1c:	00e7b423          	sd	a4,8(a5)
  20:	00000013          	addi	zero,zero,0
  24:	01813403          	ld	s0,24(sp)
  28:	02010113          	addi	sp,sp,32
  2c:	00008067          	jalr	zero,0(ra)

Disassembly of section .text._ZNKSt4hashIN5dwarf6DW_TAGEEclES1_:

0000000000000000 <std::hash<dwarf::DW_TAG>::operator()(dwarf::DW_TAG) const>:
   0:	fe010113          	addi	sp,sp,-32
   4:	00813c23          	sd	s0,24(sp)
   8:	02010413          	addi	s0,sp,32
   c:	fea43423          	sd	a0,-24(s0)
  10:	00058793          	addi	a5,a1,0
  14:	fef42223          	sw	a5,-28(s0)
  18:	fe442783          	lw	a5,-28(s0)
  1c:	00078513          	addi	a0,a5,0
  20:	01813403          	ld	s0,24(sp)
  24:	02010113          	addi	sp,sp,32
  28:	00008067          	jalr	zero,0(ra)

Disassembly of section .text._ZNK5dwarf11string_hashclEPKc:

0000000000000000 <dwarf::string_hash::operator()(char const*) const>:
   0:	fd010113          	addi	sp,sp,-48
   4:	02813423          	sd	s0,40(sp)
   8:	03010413          	addi	s0,sp,48
   c:	fca43c23          	sd	a0,-40(s0)
  10:	fcb43823          	sd	a1,-48(s0)
  14:	fe043423          	sd	zero,-24(s0)
  18:	0380006f          	jal	zero,50 <.L48>

000000000000001c <.L49>:
  1c:	fe843703          	ld	a4,-24(s0)
  20:	00070793          	addi	a5,a4,0
  24:	00579793          	slli	a5,a5,0x5
  28:	00e787b3          	add	a5,a5,a4
  2c:	fd043703          	ld	a4,-48(s0)
  30:	00074703          	lbu	a4,0(a4)
  34:	00e787b3          	add	a5,a5,a4
  38:	fe843703          	ld	a4,-24(s0)
  3c:	00f707b3          	add	a5,a4,a5
  40:	fef43423          	sd	a5,-24(s0)
  44:	fd043783          	ld	a5,-48(s0)
  48:	00178793          	addi	a5,a5,1
  4c:	fcf43823          	sd	a5,-48(s0)

0000000000000050 <.L48>:
  50:	fd043783          	ld	a5,-48(s0)
  54:	0007c783          	lbu	a5,0(a5)
  58:	fc0792e3          	bne	a5,zero,1c <.L49>
  5c:	fe843783          	ld	a5,-24(s0)
  60:	00078513          	addi	a0,a5,0
  64:	02813403          	ld	s0,40(sp)
  68:	03010113          	addi	sp,sp,48
  6c:	00008067          	jalr	zero,0(ra)

Disassembly of section .text._ZNK5dwarf9string_eqclEPKcS2_:

0000000000000000 <dwarf::string_eq::operator()(char const*, char const*) const>:
   0:	fd010113          	addi	sp,sp,-48
   4:	02113423          	sd	ra,40(sp)
   8:	02813023          	sd	s0,32(sp)
   c:	03010413          	addi	s0,sp,48
  10:	fea43423          	sd	a0,-24(s0)
  14:	feb43023          	sd	a1,-32(s0)
  18:	fcc43c23          	sd	a2,-40(s0)
  1c:	fd843583          	ld	a1,-40(s0)
  20:	fe043503          	ld	a0,-32(s0)
  24:	00000097          	auipc	ra,0x0
  28:	000080e7          	jalr	ra,0(ra) # 24 <dwarf::string_eq::operator()(char const*, char const*) const+0x24>
  2c:	00050793          	addi	a5,a0,0
  30:	0017b793          	sltiu	a5,a5,1
  34:	0ff7f793          	andi	a5,a5,255
  38:	00078513          	addi	a0,a5,0
  3c:	02813083          	ld	ra,40(sp)
  40:	02013403          	ld	s0,32(sp)
  44:	03010113          	addi	sp,sp,48
  48:	00008067          	jalr	zero,0(ra)

Disassembly of section .text._ZNSt8__detail15_Hash_code_baseIPKcSt4pairIKS2_N5dwarf3dieEENS_10_Select1stENS5_11string_hashENS_18_Mod_range_hashingENS_20_Default_ranged_hashELb1EEC2Ev:

0000000000000000 <std::__detail::_Hash_code_base<char const*, std::pair<char const* const, dwarf::die>, std::__detail::_Select1st, dwarf::string_hash, std::__detail::_Mod_range_hashing, std::__detail::_Default_ranged_hash, true>::_Hash_code_base()>:
   0:	fe010113          	addi	sp,sp,-32
   4:	00113c23          	sd	ra,24(sp)
   8:	00813823          	sd	s0,16(sp)
   c:	02010413          	addi	s0,sp,32
  10:	fea43423          	sd	a0,-24(s0)
  14:	fe843503          	ld	a0,-24(s0)
  18:	00000317          	auipc	t1,0x0
  1c:	00033303          	ld	t1,0(t1) # 18 <std::__detail::_Hash_code_base<char const*, std::pair<char const* const, dwarf::die>, std::__detail::_Select1st, dwarf::string_hash, std::__detail::_Mod_range_hashing, std::__detail::_Default_ranged_hash, true>::_Hash_code_base()+0x18>
  20:	000300e7          	jalr	ra,0(t1)
  24:	00000013          	addi	zero,zero,0
  28:	01813083          	ld	ra,24(sp)
  2c:	01013403          	ld	s0,16(sp)
  30:	02010113          	addi	sp,sp,32
  34:	00008067          	jalr	zero,0(ra)

Disassembly of section .text._ZNSt8__detail15_Hashtable_baseIPKcSt4pairIKS2_N5dwarf3dieEENS_10_Select1stENS5_9string_eqENS5_11string_hashENS_18_Mod_range_hashingENS_20_Default_ranged_hashENS_17_Hashtable_traitsILb1ELb0ELb1EEEEC2Ev:

0000000000000000 <std::__detail::_Hashtable_base<char const*, std::pair<char const* const, dwarf::die>, std::__detail::_Select1st, dwarf::string_eq, dwarf::string_hash, std::__detail::_Mod_range_hashing, std::__detail::_Default_ranged_hash, std::__detail::_Hashtable_traits<true, false, true> >::_Hashtable_base()>:
   0:	fe010113          	addi	sp,sp,-32
   4:	00113c23          	sd	ra,24(sp)
   8:	00813823          	sd	s0,16(sp)
   c:	02010413          	addi	s0,sp,32
  10:	fea43423          	sd	a0,-24(s0)
  14:	fe843503          	ld	a0,-24(s0)
  18:	00000317          	auipc	t1,0x0
  1c:	00033303          	ld	t1,0(t1) # 18 <std::__detail::_Hashtable_base<char const*, std::pair<char const* const, dwarf::die>, std::__detail::_Select1st, dwarf::string_eq, dwarf::string_hash, std::__detail::_Mod_range_hashing, std::__detail::_Default_ranged_hash, std::__detail::_Hashtable_traits<true, false, true> >::_Hashtable_base()+0x18>
  20:	000300e7          	jalr	ra,0(t1)
  24:	fe843503          	ld	a0,-24(s0)
  28:	00000317          	auipc	t1,0x0
  2c:	00033303          	ld	t1,0(t1) # 28 <std::__detail::_Hashtable_base<char const*, std::pair<char const* const, dwarf::die>, std::__detail::_Select1st, dwarf::string_eq, dwarf::string_hash, std::__detail::_Mod_range_hashing, std::__detail::_Default_ranged_hash, std::__detail::_Hashtable_traits<true, false, true> >::_Hashtable_base()+0x28>
  30:	000300e7          	jalr	ra,0(t1)
  34:	00000013          	addi	zero,zero,0
  38:	01813083          	ld	ra,24(sp)
  3c:	01013403          	ld	s0,16(sp)
  40:	02010113          	addi	sp,sp,32
  44:	00008067          	jalr	zero,0(ra)

Disassembly of section .text._ZNSt8__detail21_Hashtable_ebo_helperILi0ESaINS_10_Hash_nodeISt4pairIKPKcN5dwarf3dieEELb1EEEELb1EED2Ev:

0000000000000000 <std::__detail::_Hashtable_ebo_helper<0, std::allocator<std::__detail::_Hash_node<std::pair<char const* const, dwarf::die>, true> >, true>::~_Hashtable_ebo_helper()>:
   0:	fe010113          	addi	sp,sp,-32
   4:	00113c23          	sd	ra,24(sp)
   8:	00813823          	sd	s0,16(sp)
   c:	02010413          	addi	s0,sp,32
  10:	fea43423          	sd	a0,-24(s0)
  14:	fe843503          	ld	a0,-24(s0)
  18:	00000317          	auipc	t1,0x0
  1c:	00033303          	ld	t1,0(t1) # 18 <std::__detail::_Hashtable_ebo_helper<0, std::allocator<std::__detail::_Hash_node<std::pair<char const* const, dwarf::die>, true> >, true>::~_Hashtable_ebo_helper()+0x18>
  20:	000300e7          	jalr	ra,0(t1)
  24:	00000013          	addi	zero,zero,0
  28:	01813083          	ld	ra,24(sp)
  2c:	01013403          	ld	s0,16(sp)
  30:	02010113          	addi	sp,sp,32
  34:	00008067          	jalr	zero,0(ra)

Disassembly of section .text._ZNSt8__detail16_Hashtable_allocISaINS_10_Hash_nodeISt4pairIKPKcN5dwarf3dieEELb1EEEEEC2Ev:

0000000000000000 <std::__detail::_Hashtable_alloc<std::allocator<std::__detail::_Hash_node<std::pair<char const* const, dwarf::die>, true> > >::_Hashtable_alloc()>:
   0:	fe010113          	addi	sp,sp,-32
   4:	00113c23          	sd	ra,24(sp)
   8:	00813823          	sd	s0,16(sp)
   c:	02010413          	addi	s0,sp,32
  10:	fea43423          	sd	a0,-24(s0)
  14:	fe843503          	ld	a0,-24(s0)
  18:	00000317          	auipc	t1,0x0
  1c:	00033303          	ld	t1,0(t1) # 18 <std::__detail::_Hashtable_alloc<std::allocator<std::__detail::_Hash_node<std::pair<char const* const, dwarf::die>, true> > >::_Hashtable_alloc()+0x18>
  20:	000300e7          	jalr	ra,0(t1)
  24:	00000013          	addi	zero,zero,0
  28:	01813083          	ld	ra,24(sp)
  2c:	01013403          	ld	s0,16(sp)
  30:	02010113          	addi	sp,sp,32
  34:	00008067          	jalr	zero,0(ra)

Disassembly of section .text._ZNSt8__detail16_Hashtable_allocISaINS_10_Hash_nodeISt4pairIKPKcN5dwarf3dieEELb1EEEEED2Ev:

0000000000000000 <std::__detail::_Hashtable_alloc<std::allocator<std::__detail::_Hash_node<std::pair<char const* const, dwarf::die>, true> > >::~_Hashtable_alloc()>:
   0:	fe010113          	addi	sp,sp,-32
   4:	00113c23          	sd	ra,24(sp)
   8:	00813823          	sd	s0,16(sp)
   c:	02010413          	addi	s0,sp,32
  10:	fea43423          	sd	a0,-24(s0)
  14:	fe843503          	ld	a0,-24(s0)
  18:	00000317          	auipc	t1,0x0
  1c:	00033303          	ld	t1,0(t1) # 18 <std::__detail::_Hashtable_alloc<std::allocator<std::__detail::_Hash_node<std::pair<char const* const, dwarf::die>, true> > >::~_Hashtable_alloc()+0x18>
  20:	000300e7          	jalr	ra,0(t1)
  24:	00000013          	addi	zero,zero,0
  28:	01813083          	ld	ra,24(sp)
  2c:	01013403          	ld	s0,16(sp)
  30:	02010113          	addi	sp,sp,32
  34:	00008067          	jalr	zero,0(ra)

Disassembly of section .text._ZNSt10_HashtableIPKcSt4pairIKS1_N5dwarf3dieEESaIS6_ENSt8__detail10_Select1stENS4_9string_eqENS4_11string_hashENS8_18_Mod_range_hashingENS8_20_Default_ranged_hashENS8_20_Prime_rehash_policyENS8_17_Hashtable_traitsILb1ELb0ELb1EEEEC2Ev:

0000000000000000 <std::_Hashtable<char const*, std::pair<char const* const, dwarf::die>, std::allocator<std::pair<char const* const, dwarf::die> >, std::__detail::_Select1st, dwarf::string_eq, dwarf::string_hash, std::__detail::_Mod_range_hashing, std::__detail::_Default_ranged_hash, std::__detail::_Prime_rehash_policy, std::__detail::_Hashtable_traits<true, false, true> >::_Hashtable()>:
   0:	fe010113          	addi	sp,sp,-32
   4:	00113c23          	sd	ra,24(sp)
   8:	00813823          	sd	s0,16(sp)
   c:	02010413          	addi	s0,sp,32
  10:	fea43423          	sd	a0,-24(s0)
  14:	fe843503          	ld	a0,-24(s0)
  18:	00000317          	auipc	t1,0x0
  1c:	00033303          	ld	t1,0(t1) # 18 <std::_Hashtable<char const*, std::pair<char const* const, dwarf::die>, std::allocator<std::pair<char const* const, dwarf::die> >, std::__detail::_Select1st, dwarf::string_eq, dwarf::string_hash, std::__detail::_Mod_range_hashing, std::__detail::_Default_ranged_hash, std::__detail::_Prime_rehash_policy, std::__detail::_Hashtable_traits<true, false, true> >::_Hashtable()+0x18>
  20:	000300e7          	jalr	ra,0(t1)
  24:	fe843503          	ld	a0,-24(s0)
  28:	00000317          	auipc	t1,0x0
  2c:	00033303          	ld	t1,0(t1) # 28 <std::_Hashtable<char const*, std::pair<char const* const, dwarf::die>, std::allocator<std::pair<char const* const, dwarf::die> >, std::__detail::_Select1st, dwarf::string_eq, dwarf::string_hash, std::__detail::_Mod_range_hashing, std::__detail::_Default_ranged_hash, std::__detail::_Prime_rehash_policy, std::__detail::_Hashtable_traits<true, false, true> >::_Hashtable()+0x28>
  30:	000300e7          	jalr	ra,0(t1)
  34:	fe843783          	ld	a5,-24(s0)
  38:	03078713          	addi	a4,a5,48
  3c:	fe843783          	ld	a5,-24(s0)
  40:	00e7b023          	sd	a4,0(a5)
  44:	fe843783          	ld	a5,-24(s0)
  48:	00100713          	addi	a4,zero,1
  4c:	00e7b423          	sd	a4,8(a5)
  50:	fe843783          	ld	a5,-24(s0)
  54:	01078793          	addi	a5,a5,16
  58:	00078513          	addi	a0,a5,0
  5c:	00000317          	auipc	t1,0x0
  60:	00033303          	ld	t1,0(t1) # 5c <std::_Hashtable<char const*, std::pair<char const* const, dwarf::die>, std::allocator<std::pair<char const* const, dwarf::die> >, std::__detail::_Select1st, dwarf::string_eq, dwarf::string_hash, std::__detail::_Mod_range_hashing, std::__detail::_Default_ranged_hash, std::__detail::_Prime_rehash_policy, std::__detail::_Hashtable_traits<true, false, true> >::_Hashtable()+0x5c>
  64:	000300e7          	jalr	ra,0(t1)
  68:	fe843783          	ld	a5,-24(s0)
  6c:	0007bc23          	sd	zero,24(a5)
  70:	fe843783          	ld	a5,-24(s0)
  74:	02078713          	addi	a4,a5,32
  78:	00000797          	auipc	a5,0x0
  7c:	00078793          	addi	a5,a5,0 # 78 <std::_Hashtable<char const*, std::pair<char const* const, dwarf::die>, std::allocator<std::pair<char const* const, dwarf::die> >, std::__detail::_Select1st, dwarf::string_eq, dwarf::string_hash, std::__detail::_Mod_range_hashing, std::__detail::_Default_ranged_hash, std::__detail::_Prime_rehash_policy, std::__detail::_Hashtable_traits<true, false, true> >::_Hashtable()+0x78>
  80:	0007a787          	flw	fa5,0(a5)
  84:	20f78553          	fsgnj.s	fa0,fa5,fa5
  88:	00070513          	addi	a0,a4,0
  8c:	00000317          	auipc	t1,0x0
  90:	00033303          	ld	t1,0(t1) # 8c <std::_Hashtable<char const*, std::pair<char const* const, dwarf::die>, std::allocator<std::pair<char const* const, dwarf::die> >, std::__detail::_Select1st, dwarf::string_eq, dwarf::string_hash, std::__detail::_Mod_range_hashing, std::__detail::_Default_ranged_hash, std::__detail::_Prime_rehash_policy, std::__detail::_Hashtable_traits<true, false, true> >::_Hashtable()+0x8c>
  94:	000300e7          	jalr	ra,0(t1)
  98:	fe843783          	ld	a5,-24(s0)
  9c:	0207b823          	sd	zero,48(a5)
  a0:	00000013          	addi	zero,zero,0
  a4:	01813083          	ld	ra,24(sp)
  a8:	01013403          	ld	s0,16(sp)
  ac:	02010113          	addi	sp,sp,32
  b0:	00008067          	jalr	zero,0(ra)

Disassembly of section .text._ZNSt13unordered_mapIPKcN5dwarf3dieENS2_11string_hashENS2_9string_eqESaISt4pairIKS1_S3_EEEC2Ev:

0000000000000000 <std::unordered_map<char const*, dwarf::die, dwarf::string_hash, dwarf::string_eq, std::allocator<std::pair<char const* const, dwarf::die> > >::unordered_map()>:
   0:	fe010113          	addi	sp,sp,-32
   4:	00113c23          	sd	ra,24(sp)
   8:	00813823          	sd	s0,16(sp)
   c:	02010413          	addi	s0,sp,32
  10:	fea43423          	sd	a0,-24(s0)
  14:	fe843783          	ld	a5,-24(s0)
  18:	00078513          	addi	a0,a5,0
  1c:	00000317          	auipc	t1,0x0
  20:	00033303          	ld	t1,0(t1) # 1c <std::unordered_map<char const*, dwarf::die, dwarf::string_hash, dwarf::string_eq, std::allocator<std::pair<char const* const, dwarf::die> > >::unordered_map()+0x1c>
  24:	000300e7          	jalr	ra,0(t1)
  28:	00000013          	addi	zero,zero,0
  2c:	01813083          	ld	ra,24(sp)
  30:	01013403          	ld	s0,16(sp)
  34:	02010113          	addi	sp,sp,32
  38:	00008067          	jalr	zero,0(ra)

Disassembly of section .text._ZNSt13unordered_mapIPKcN5dwarf3dieENS2_11string_hashENS2_9string_eqESaISt4pairIKS1_S3_EEED2Ev:

0000000000000000 <std::unordered_map<char const*, dwarf::die, dwarf::string_hash, dwarf::string_eq, std::allocator<std::pair<char const* const, dwarf::die> > >::~unordered_map()>:
   0:	fe010113          	addi	sp,sp,-32
   4:	00113c23          	sd	ra,24(sp)
   8:	00813823          	sd	s0,16(sp)
   c:	02010413          	addi	s0,sp,32
  10:	fea43423          	sd	a0,-24(s0)
  14:	fe843783          	ld	a5,-24(s0)
  18:	00078513          	addi	a0,a5,0
  1c:	00000317          	auipc	t1,0x0
  20:	00033303          	ld	t1,0(t1) # 1c <std::unordered_map<char const*, dwarf::die, dwarf::string_hash, dwarf::string_eq, std::allocator<std::pair<char const* const, dwarf::die> > >::~unordered_map()+0x1c>
  24:	000300e7          	jalr	ra,0(t1)
  28:	00000013          	addi	zero,zero,0
  2c:	01813083          	ld	ra,24(sp)
  30:	01013403          	ld	s0,16(sp)
  34:	02010113          	addi	sp,sp,32
  38:	00008067          	jalr	zero,0(ra)

Disassembly of section .text._ZNSt13unordered_setIN5dwarf6DW_TAGESt4hashIS1_ESt8equal_toIS1_ESaIS1_EED2Ev:

0000000000000000 <std::unordered_set<dwarf::DW_TAG, std::hash<dwarf::DW_TAG>, std::equal_to<dwarf::DW_TAG>, std::allocator<dwarf::DW_TAG> >::~unordered_set()>:
   0:	fe010113          	addi	sp,sp,-32
   4:	00113c23          	sd	ra,24(sp)
   8:	00813823          	sd	s0,16(sp)
   c:	02010413          	addi	s0,sp,32
  10:	fea43423          	sd	a0,-24(s0)
  14:	fe843783          	ld	a5,-24(s0)
  18:	00078513          	addi	a0,a5,0
  1c:	00000317          	auipc	t1,0x0
  20:	00033303          	ld	t1,0(t1) # 1c <std::unordered_set<dwarf::DW_TAG, std::hash<dwarf::DW_TAG>, std::equal_to<dwarf::DW_TAG>, std::allocator<dwarf::DW_TAG> >::~unordered_set()+0x1c>
  24:	000300e7          	jalr	ra,0(t1)
  28:	00000013          	addi	zero,zero,0
  2c:	01813083          	ld	ra,24(sp)
  30:	01013403          	ld	s0,16(sp)
  34:	02010113          	addi	sp,sp,32
  38:	00008067          	jalr	zero,0(ra)

Disassembly of section .text._ZN5dwarf11die_str_map4implC2ERKNS_3dieENS_5DW_ATERKSt16initializer_listINS_6DW_TAGEE:

0000000000000000 <dwarf::die_str_map::impl::impl(dwarf::die const&, dwarf::DW_AT, std::initializer_list<dwarf::DW_TAG> const&)>:
   0:	f9010113          	addi	sp,sp,-112
   4:	06113423          	sd	ra,104(sp)
   8:	06813023          	sd	s0,96(sp)
   c:	04913c23          	sd	s1,88(sp)
  10:	05213823          	sd	s2,80(sp)
  14:	05313423          	sd	s3,72(sp)
  18:	07010413          	addi	s0,sp,112
  1c:	faa43423          	sd	a0,-88(s0)
  20:	fab43023          	sd	a1,-96(s0)
  24:	00060793          	addi	a5,a2,0
  28:	f8d43823          	sd	a3,-112(s0)
  2c:	f8f42e23          	sw	a5,-100(s0)
  30:	fa843783          	ld	a5,-88(s0)
  34:	00078513          	addi	a0,a5,0
  38:	00000317          	auipc	t1,0x0
  3c:	00033303          	ld	t1,0(t1) # 38 <dwarf::die_str_map::impl::impl(dwarf::die const&, dwarf::DW_AT, std::initializer_list<dwarf::DW_TAG> const&)+0x38>
  40:	000300e7          	jalr	ra,0(t1)
  44:	fa843783          	ld	a5,-88(s0)
  48:	f9c42703          	lw	a4,-100(s0)
  4c:	02e7ac23          	sw	a4,56(a5)
  50:	fa843783          	ld	a5,-88(s0)
  54:	04078493          	addi	s1,a5,64
  58:	f9043503          	ld	a0,-112(s0)
  5c:	00000317          	auipc	t1,0x0
  60:	00033303          	ld	t1,0(t1) # 5c <dwarf::die_str_map::impl::impl(dwarf::die const&, dwarf::DW_AT, std::initializer_list<dwarf::DW_TAG> const&)+0x5c>
  64:	000300e7          	jalr	ra,0(t1)
  68:	00050913          	addi	s2,a0,0
  6c:	f9043503          	ld	a0,-112(s0)
  70:	00000317          	auipc	t1,0x0
  74:	00033303          	ld	t1,0(t1) # 70 <dwarf::die_str_map::impl::impl(dwarf::die const&, dwarf::DW_AT, std::initializer_list<dwarf::DW_TAG> const&)+0x70>
  78:	000300e7          	jalr	ra,0(t1)
  7c:	00050993          	addi	s3,a0,0
  80:	fc840793          	addi	a5,s0,-56
  84:	00078513          	addi	a0,a5,0
  88:	00000317          	auipc	t1,0x0
  8c:	00033303          	ld	t1,0(t1) # 88 <dwarf::die_str_map::impl::impl(dwarf::die const&, dwarf::DW_AT, std::initializer_list<dwarf::DW_TAG> const&)+0x88>
  90:	000300e7          	jalr	ra,0(t1)
  94:	fc840693          	addi	a3,s0,-56
  98:	fc040793          	addi	a5,s0,-64
  9c:	fb840713          	addi	a4,s0,-72
  a0:	00068813          	addi	a6,a3,0
  a4:	00000693          	addi	a3,zero,0
  a8:	00098613          	addi	a2,s3,0
  ac:	00090593          	addi	a1,s2,0
  b0:	00048513          	addi	a0,s1,0
  b4:	00000317          	auipc	t1,0x0
  b8:	00033303          	ld	t1,0(t1) # b4 <dwarf::die_str_map::impl::impl(dwarf::die const&, dwarf::DW_AT, std::initializer_list<dwarf::DW_TAG> const&)+0xb4>

00000000000000bc <.LEHB0>:
  bc:	000300e7          	jalr	ra,0(t1)

00000000000000c0 <.LEHE0>:
  c0:	fc840793          	addi	a5,s0,-56
  c4:	00078513          	addi	a0,a5,0
  c8:	00000317          	auipc	t1,0x0
  cc:	00033303          	ld	t1,0(t1) # c8 <.LEHE0+0x8>
  d0:	000300e7          	jalr	ra,0(t1)
  d4:	fa843783          	ld	a5,-88(s0)
  d8:	07878793          	addi	a5,a5,120
  dc:	fa043583          	ld	a1,-96(s0)
  e0:	00078513          	addi	a0,a5,0

00000000000000e4 <.LEHB1>:
  e4:	00000097          	auipc	ra,0x0
  e8:	000080e7          	jalr	ra,0(ra) # e4 <.LEHB1>

00000000000000ec <.LEHE1>:
  ec:	fa843783          	ld	a5,-88(s0)
  f0:	0e878793          	addi	a5,a5,232
  f4:	fa043583          	ld	a1,-96(s0)
  f8:	00078513          	addi	a0,a5,0
  fc:	00000317          	auipc	t1,0x0
 100:	00033303          	ld	t1,0(t1) # fc <.LEHE1+0x10>
 104:	000300e7          	jalr	ra,0(t1)
 108:	fa843783          	ld	a5,-88(s0)
 10c:	15878793          	addi	a5,a5,344
 110:	00078513          	addi	a0,a5,0
 114:	00000317          	auipc	t1,0x0
 118:	00033303          	ld	t1,0(t1) # 114 <.LEHE1+0x28>
 11c:	000300e7          	jalr	ra,0(t1)
 120:	0600006f          	jal	zero,180 <.L68>

0000000000000124 <.L66>:
 124:	00050493          	addi	s1,a0,0
 128:	fc840793          	addi	a5,s0,-56
 12c:	00078513          	addi	a0,a5,0
 130:	00000317          	auipc	t1,0x0
 134:	00033303          	ld	t1,0(t1) # 130 <.L66+0xc>
 138:	000300e7          	jalr	ra,0(t1)
 13c:	0200006f          	jal	zero,15c <.L64>

0000000000000140 <.L67>:
 140:	00050493          	addi	s1,a0,0
 144:	fa843783          	ld	a5,-88(s0)
 148:	04078793          	addi	a5,a5,64
 14c:	00078513          	addi	a0,a5,0
 150:	00000317          	auipc	t1,0x0
 154:	00033303          	ld	t1,0(t1) # 150 <.L67+0x10>
 158:	000300e7          	jalr	ra,0(t1)

000000000000015c <.L64>:
 15c:	fa843783          	ld	a5,-88(s0)
 160:	00078513          	addi	a0,a5,0
 164:	00000317          	auipc	t1,0x0
 168:	00033303          	ld	t1,0(t1) # 164 <.L64+0x8>
 16c:	000300e7          	jalr	ra,0(t1)
 170:	00048793          	addi	a5,s1,0
 174:	00078513          	addi	a0,a5,0

0000000000000178 <.LEHB2>:
 178:	00000097          	auipc	ra,0x0
 17c:	000080e7          	jalr	ra,0(ra) # 178 <.LEHB2>

0000000000000180 <.L68>:
 180:	06813083          	ld	ra,104(sp)
 184:	06013403          	ld	s0,96(sp)
 188:	05813483          	ld	s1,88(sp)
 18c:	05013903          	ld	s2,80(sp)
 190:	04813983          	ld	s3,72(sp)
 194:	07010113          	addi	sp,sp,112
 198:	00008067          	jalr	zero,0(ra)

Disassembly of section .text._ZN5dwarf3dieaSERKS0_:

0000000000000000 <dwarf::die::operator=(dwarf::die const&)>:
   0:	fe010113          	addi	sp,sp,-32
   4:	00113c23          	sd	ra,24(sp)
   8:	00813823          	sd	s0,16(sp)
   c:	02010413          	addi	s0,sp,32
  10:	fea43423          	sd	a0,-24(s0)
  14:	feb43023          	sd	a1,-32(s0)
  18:	fe043783          	ld	a5,-32(s0)
  1c:	0007a703          	lw	a4,0(a5)
  20:	fe843783          	ld	a5,-24(s0)
  24:	00e7a023          	sw	a4,0(a5)
  28:	fe043783          	ld	a5,-32(s0)
  2c:	0087b703          	ld	a4,8(a5)
  30:	fe843783          	ld	a5,-24(s0)
  34:	00e7b423          	sd	a4,8(a5)
  38:	fe043783          	ld	a5,-32(s0)
  3c:	0107b703          	ld	a4,16(a5)
  40:	fe843783          	ld	a5,-24(s0)
  44:	00e7b823          	sd	a4,16(a5)
  48:	fe043783          	ld	a5,-32(s0)
  4c:	0187b703          	ld	a4,24(a5)
  50:	fe843783          	ld	a5,-24(s0)
  54:	00e7bc23          	sd	a4,24(a5)
  58:	fe843783          	ld	a5,-24(s0)
  5c:	02078713          	addi	a4,a5,32
  60:	fe043783          	ld	a5,-32(s0)
  64:	02078793          	addi	a5,a5,32
  68:	00078593          	addi	a1,a5,0
  6c:	00070513          	addi	a0,a4,0
  70:	00000317          	auipc	t1,0x0
  74:	00033303          	ld	t1,0(t1) # 70 <dwarf::die::operator=(dwarf::die const&)+0x70>
  78:	000300e7          	jalr	ra,0(t1)
  7c:	fe043783          	ld	a5,-32(s0)
  80:	0687b703          	ld	a4,104(a5)
  84:	fe843783          	ld	a5,-24(s0)
  88:	06e7b423          	sd	a4,104(a5)
  8c:	fe843783          	ld	a5,-24(s0)
  90:	00078513          	addi	a0,a5,0
  94:	01813083          	ld	ra,24(sp)
  98:	01013403          	ld	s0,16(sp)
  9c:	02010113          	addi	sp,sp,32
  a0:	00008067          	jalr	zero,0(ra)

Disassembly of section .text._ZN5dwarf12small_vectorImLj6EEC2Ev:

0000000000000000 <dwarf::small_vector<unsigned long, 6u>::small_vector()>:
   0:	fe010113          	addi	sp,sp,-32
   4:	00813c23          	sd	s0,24(sp)
   8:	02010413          	addi	s0,sp,32
   c:	fea43423          	sd	a0,-24(s0)
  10:	fe843703          	ld	a4,-24(s0)
  14:	fe843783          	ld	a5,-24(s0)
  18:	02e7b823          	sd	a4,48(a5)
  1c:	fe843783          	ld	a5,-24(s0)
  20:	0307b703          	ld	a4,48(a5)
  24:	fe843783          	ld	a5,-24(s0)
  28:	02e7bc23          	sd	a4,56(a5)
  2c:	fe843783          	ld	a5,-24(s0)
  30:	03078713          	addi	a4,a5,48
  34:	fe843783          	ld	a5,-24(s0)
  38:	04e7b023          	sd	a4,64(a5)
  3c:	00000013          	addi	zero,zero,0
  40:	01813403          	ld	s0,24(sp)
  44:	02010113          	addi	sp,sp,32
  48:	00008067          	jalr	zero,0(ra)

Disassembly of section .text._ZN5dwarf12small_vectorImLj6EED2Ev:

0000000000000000 <dwarf::small_vector<unsigned long, 6u>::~small_vector()>:
   0:	fe010113          	addi	sp,sp,-32
   4:	00113c23          	sd	ra,24(sp)
   8:	00813823          	sd	s0,16(sp)
   c:	02010413          	addi	s0,sp,32
  10:	fea43423          	sd	a0,-24(s0)
  14:	fe843503          	ld	a0,-24(s0)
  18:	00000317          	auipc	t1,0x0
  1c:	00033303          	ld	t1,0(t1) # 18 <dwarf::small_vector<unsigned long, 6u>::~small_vector()+0x18>
  20:	000300e7          	jalr	ra,0(t1)
  24:	fe843783          	ld	a5,-24(s0)
  28:	0307b703          	ld	a4,48(a5)
  2c:	fe843783          	ld	a5,-24(s0)
  30:	02f70263          	beq	a4,a5,54 <.L93>
  34:	fe843783          	ld	a5,-24(s0)
  38:	0307b783          	ld	a5,48(a5)
  3c:	00078c63          	beq	a5,zero,54 <.L93>
  40:	fe843783          	ld	a5,-24(s0)
  44:	0307b783          	ld	a5,48(a5)
  48:	00078513          	addi	a0,a5,0
  4c:	00000097          	auipc	ra,0x0
  50:	000080e7          	jalr	ra,0(ra) # 4c <dwarf::small_vector<unsigned long, 6u>::~small_vector()+0x4c>

0000000000000054 <.L93>:
  54:	00000013          	addi	zero,zero,0
  58:	01813083          	ld	ra,24(sp)
  5c:	01013403          	ld	s0,16(sp)
  60:	02010113          	addi	sp,sp,32
  64:	00008067          	jalr	zero,0(ra)

Disassembly of section .text._ZNKSt16initializer_listIN5dwarf6DW_TAGEE5beginEv:

0000000000000000 <std::initializer_list<dwarf::DW_TAG>::begin() const>:
   0:	fe010113          	addi	sp,sp,-32
   4:	00813c23          	sd	s0,24(sp)
   8:	02010413          	addi	s0,sp,32
   c:	fea43423          	sd	a0,-24(s0)
  10:	fe843783          	ld	a5,-24(s0)
  14:	0007b783          	ld	a5,0(a5)
  18:	00078513          	addi	a0,a5,0
  1c:	01813403          	ld	s0,24(sp)
  20:	02010113          	addi	sp,sp,32
  24:	00008067          	jalr	zero,0(ra)

Disassembly of section .text._ZNKSt16initializer_listIN5dwarf6DW_TAGEE3endEv:

0000000000000000 <std::initializer_list<dwarf::DW_TAG>::end() const>:
   0:	fd010113          	addi	sp,sp,-48
   4:	02113423          	sd	ra,40(sp)
   8:	02813023          	sd	s0,32(sp)
   c:	00913c23          	sd	s1,24(sp)
  10:	03010413          	addi	s0,sp,48
  14:	fca43c23          	sd	a0,-40(s0)
  18:	fd843503          	ld	a0,-40(s0)
  1c:	00000317          	auipc	t1,0x0
  20:	00033303          	ld	t1,0(t1) # 1c <std::initializer_list<dwarf::DW_TAG>::end() const+0x1c>
  24:	000300e7          	jalr	ra,0(t1)
  28:	00050493          	addi	s1,a0,0
  2c:	fd843503          	ld	a0,-40(s0)
  30:	00000317          	auipc	t1,0x0
  34:	00033303          	ld	t1,0(t1) # 30 <std::initializer_list<dwarf::DW_TAG>::end() const+0x30>
  38:	000300e7          	jalr	ra,0(t1)
  3c:	00050793          	addi	a5,a0,0
  40:	00279793          	slli	a5,a5,0x2
  44:	00f487b3          	add	a5,s1,a5
  48:	00078513          	addi	a0,a5,0
  4c:	02813083          	ld	ra,40(sp)
  50:	02013403          	ld	s0,32(sp)
  54:	01813483          	ld	s1,24(sp)
  58:	03010113          	addi	sp,sp,48
  5c:	00008067          	jalr	zero,0(ra)

Disassembly of section .text._ZNSt8__detail21_Hashtable_ebo_helperILi1EN5dwarf11string_hashELb1EEC2Ev:

0000000000000000 <std::__detail::_Hashtable_ebo_helper<1, dwarf::string_hash, true>::_Hashtable_ebo_helper()>:
   0:	fe010113          	addi	sp,sp,-32
   4:	00813c23          	sd	s0,24(sp)
   8:	02010413          	addi	s0,sp,32
   c:	fea43423          	sd	a0,-24(s0)
  10:	00000013          	addi	zero,zero,0
  14:	01813403          	ld	s0,24(sp)
  18:	02010113          	addi	sp,sp,32
  1c:	00008067          	jalr	zero,0(ra)

Disassembly of section .text._ZNSt8__detail21_Hashtable_ebo_helperILi0EN5dwarf9string_eqELb1EEC2Ev:

0000000000000000 <std::__detail::_Hashtable_ebo_helper<0, dwarf::string_eq, true>::_Hashtable_ebo_helper()>:
   0:	fe010113          	addi	sp,sp,-32
   4:	00813c23          	sd	s0,24(sp)
   8:	02010413          	addi	s0,sp,32
   c:	fea43423          	sd	a0,-24(s0)
  10:	00000013          	addi	zero,zero,0
  14:	01813403          	ld	s0,24(sp)
  18:	02010113          	addi	sp,sp,32
  1c:	00008067          	jalr	zero,0(ra)

Disassembly of section .text._ZNSt8__detail21_Hashtable_ebo_helperILi0ESaINS_10_Hash_nodeISt4pairIKPKcN5dwarf3dieEELb1EEEELb1EEC2Ev:

0000000000000000 <std::__detail::_Hashtable_ebo_helper<0, std::allocator<std::__detail::_Hash_node<std::pair<char const* const, dwarf::die>, true> >, true>::_Hashtable_ebo_helper()>:
   0:	fe010113          	addi	sp,sp,-32
   4:	00113c23          	sd	ra,24(sp)
   8:	00813823          	sd	s0,16(sp)
   c:	02010413          	addi	s0,sp,32
  10:	fea43423          	sd	a0,-24(s0)
  14:	fe843503          	ld	a0,-24(s0)
  18:	00000317          	auipc	t1,0x0
  1c:	00033303          	ld	t1,0(t1) # 18 <std::__detail::_Hashtable_ebo_helper<0, std::allocator<std::__detail::_Hash_node<std::pair<char const* const, dwarf::die>, true> >, true>::_Hashtable_ebo_helper()+0x18>
  20:	000300e7          	jalr	ra,0(t1)
  24:	00000013          	addi	zero,zero,0
  28:	01813083          	ld	ra,24(sp)
  2c:	01013403          	ld	s0,16(sp)
  30:	02010113          	addi	sp,sp,32
  34:	00008067          	jalr	zero,0(ra)

Disassembly of section .text._ZNSaINSt8__detail10_Hash_nodeISt4pairIKPKcN5dwarf3dieEELb1EEEED2Ev:

0000000000000000 <std::allocator<std::__detail::_Hash_node<std::pair<char const* const, dwarf::die>, true> >::~allocator()>:
   0:	fe010113          	addi	sp,sp,-32
   4:	00113c23          	sd	ra,24(sp)
   8:	00813823          	sd	s0,16(sp)
   c:	02010413          	addi	s0,sp,32
  10:	fea43423          	sd	a0,-24(s0)
  14:	fe843503          	ld	a0,-24(s0)
  18:	00000317          	auipc	t1,0x0
  1c:	00033303          	ld	t1,0(t1) # 18 <std::allocator<std::__detail::_Hash_node<std::pair<char const* const, dwarf::die>, true> >::~allocator()+0x18>
  20:	000300e7          	jalr	ra,0(t1)
  24:	00000013          	addi	zero,zero,0
  28:	01813083          	ld	ra,24(sp)
  2c:	01013403          	ld	s0,16(sp)
  30:	02010113          	addi	sp,sp,32
  34:	00008067          	jalr	zero,0(ra)

Disassembly of section .text._ZNSt10_HashtableIPKcSt4pairIKS1_N5dwarf3dieEESaIS6_ENSt8__detail10_Select1stENS4_9string_eqENS4_11string_hashENS8_18_Mod_range_hashingENS8_20_Default_ranged_hashENS8_20_Prime_rehash_policyENS8_17_Hashtable_traitsILb1ELb0ELb1EEEED2Ev:

0000000000000000 <std::_Hashtable<char const*, std::pair<char const* const, dwarf::die>, std::allocator<std::pair<char const* const, dwarf::die> >, std::__detail::_Select1st, dwarf::string_eq, dwarf::string_hash, std::__detail::_Mod_range_hashing, std::__detail::_Default_ranged_hash, std::__detail::_Prime_rehash_policy, std::__detail::_Hashtable_traits<true, false, true> >::~_Hashtable()>:
   0:	fe010113          	addi	sp,sp,-32
   4:	00113c23          	sd	ra,24(sp)
   8:	00813823          	sd	s0,16(sp)
   c:	02010413          	addi	s0,sp,32
  10:	fea43423          	sd	a0,-24(s0)
  14:	fe843503          	ld	a0,-24(s0)
  18:	00000317          	auipc	t1,0x0
  1c:	00033303          	ld	t1,0(t1) # 18 <std::_Hashtable<char const*, std::pair<char const* const, dwarf::die>, std::allocator<std::pair<char const* const, dwarf::die> >, std::__detail::_Select1st, dwarf::string_eq, dwarf::string_hash, std::__detail::_Mod_range_hashing, std::__detail::_Default_ranged_hash, std::__detail::_Prime_rehash_policy, std::__detail::_Hashtable_traits<true, false, true> >::~_Hashtable()+0x18>
  20:	000300e7          	jalr	ra,0(t1)
  24:	fe843503          	ld	a0,-24(s0)
  28:	00000317          	auipc	t1,0x0
  2c:	00033303          	ld	t1,0(t1) # 28 <std::_Hashtable<char const*, std::pair<char const* const, dwarf::die>, std::allocator<std::pair<char const* const, dwarf::die> >, std::__detail::_Select1st, dwarf::string_eq, dwarf::string_hash, std::__detail::_Mod_range_hashing, std::__detail::_Default_ranged_hash, std::__detail::_Prime_rehash_policy, std::__detail::_Hashtable_traits<true, false, true> >::~_Hashtable()+0x28>
  30:	000300e7          	jalr	ra,0(t1)
  34:	fe843503          	ld	a0,-24(s0)
  38:	00000317          	auipc	t1,0x0
  3c:	00033303          	ld	t1,0(t1) # 38 <std::_Hashtable<char const*, std::pair<char const* const, dwarf::die>, std::allocator<std::pair<char const* const, dwarf::die> >, std::__detail::_Select1st, dwarf::string_eq, dwarf::string_hash, std::__detail::_Mod_range_hashing, std::__detail::_Default_ranged_hash, std::__detail::_Prime_rehash_policy, std::__detail::_Hashtable_traits<true, false, true> >::~_Hashtable()+0x38>
  40:	000300e7          	jalr	ra,0(t1)
  44:	00000013          	addi	zero,zero,0
  48:	01813083          	ld	ra,24(sp)
  4c:	01013403          	ld	s0,16(sp)
  50:	02010113          	addi	sp,sp,32
  54:	00008067          	jalr	zero,0(ra)

Disassembly of section .text._ZNSaIN5dwarf6DW_TAGEEC2Ev:

0000000000000000 <std::allocator<dwarf::DW_TAG>::allocator()>:
   0:	fe010113          	addi	sp,sp,-32
   4:	00113c23          	sd	ra,24(sp)
   8:	00813823          	sd	s0,16(sp)
   c:	02010413          	addi	s0,sp,32
  10:	fea43423          	sd	a0,-24(s0)
  14:	fe843503          	ld	a0,-24(s0)
  18:	00000317          	auipc	t1,0x0
  1c:	00033303          	ld	t1,0(t1) # 18 <std::allocator<dwarf::DW_TAG>::allocator()+0x18>
  20:	000300e7          	jalr	ra,0(t1)
  24:	00000013          	addi	zero,zero,0
  28:	01813083          	ld	ra,24(sp)
  2c:	01013403          	ld	s0,16(sp)
  30:	02010113          	addi	sp,sp,32
  34:	00008067          	jalr	zero,0(ra)

Disassembly of section .text._ZNSaIN5dwarf6DW_TAGEED2Ev:

0000000000000000 <std::allocator<dwarf::DW_TAG>::~allocator()>:
   0:	fe010113          	addi	sp,sp,-32
   4:	00113c23          	sd	ra,24(sp)
   8:	00813823          	sd	s0,16(sp)
   c:	02010413          	addi	s0,sp,32
  10:	fea43423          	sd	a0,-24(s0)
  14:	fe843503          	ld	a0,-24(s0)
  18:	00000317          	auipc	t1,0x0
  1c:	00033303          	ld	t1,0(t1) # 18 <std::allocator<dwarf::DW_TAG>::~allocator()+0x18>
  20:	000300e7          	jalr	ra,0(t1)
  24:	00000013          	addi	zero,zero,0
  28:	01813083          	ld	ra,24(sp)
  2c:	01013403          	ld	s0,16(sp)
  30:	02010113          	addi	sp,sp,32
  34:	00008067          	jalr	zero,0(ra)

Disassembly of section .text._ZNSt13unordered_setIN5dwarf6DW_TAGESt4hashIS1_ESt8equal_toIS1_ESaIS1_EEC2IPKS1_EET_SB_mRKS3_RKS5_RKS6_:

0000000000000000 <std::unordered_set<dwarf::DW_TAG, std::hash<dwarf::DW_TAG>, std::equal_to<dwarf::DW_TAG>, std::allocator<dwarf::DW_TAG> >::unordered_set<dwarf::DW_TAG const*>(dwarf::DW_TAG const*, dwarf::DW_TAG const*, unsigned long, std::hash<dwarf::DW_TAG> const&, std::equal_to<dwarf::DW_TAG> const&, std::allocator<dwarf::DW_TAG> const&)>:
   0:	fb010113          	addi	sp,sp,-80
   4:	04113423          	sd	ra,72(sp)
   8:	04813023          	sd	s0,64(sp)
   c:	05010413          	addi	s0,sp,80
  10:	fea43423          	sd	a0,-24(s0)
  14:	feb43023          	sd	a1,-32(s0)
  18:	fcc43c23          	sd	a2,-40(s0)
  1c:	fcd43823          	sd	a3,-48(s0)
  20:	fce43423          	sd	a4,-56(s0)
  24:	fcf43023          	sd	a5,-64(s0)
  28:	fb043c23          	sd	a6,-72(s0)
  2c:	fe843503          	ld	a0,-24(s0)
  30:	fb843803          	ld	a6,-72(s0)
  34:	fc043783          	ld	a5,-64(s0)
  38:	fc843703          	ld	a4,-56(s0)
  3c:	fd043683          	ld	a3,-48(s0)
  40:	fd843603          	ld	a2,-40(s0)
  44:	fe043583          	ld	a1,-32(s0)
  48:	00000317          	auipc	t1,0x0
  4c:	00033303          	ld	t1,0(t1) # 48 <std::unordered_set<dwarf::DW_TAG, std::hash<dwarf::DW_TAG>, std::equal_to<dwarf::DW_TAG>, std::allocator<dwarf::DW_TAG> >::unordered_set<dwarf::DW_TAG const*>(dwarf::DW_TAG const*, dwarf::DW_TAG const*, unsigned long, std::hash<dwarf::DW_TAG> const&, std::equal_to<dwarf::DW_TAG> const&, std::allocator<dwarf::DW_TAG> const&)+0x48>
  50:	000300e7          	jalr	ra,0(t1)
  54:	00000013          	addi	zero,zero,0
  58:	04813083          	ld	ra,72(sp)
  5c:	04013403          	ld	s0,64(sp)
  60:	05010113          	addi	sp,sp,80
  64:	00008067          	jalr	zero,0(ra)

Disassembly of section .text._ZNSt8__detail21_Hashtable_ebo_helperILi0ESaINS_10_Hash_nodeIN5dwarf6DW_TAGELb1EEEELb1EED2Ev:

0000000000000000 <std::__detail::_Hashtable_ebo_helper<0, std::allocator<std::__detail::_Hash_node<dwarf::DW_TAG, true> >, true>::~_Hashtable_ebo_helper()>:
   0:	fe010113          	addi	sp,sp,-32
   4:	00113c23          	sd	ra,24(sp)
   8:	00813823          	sd	s0,16(sp)
   c:	02010413          	addi	s0,sp,32
  10:	fea43423          	sd	a0,-24(s0)
  14:	fe843503          	ld	a0,-24(s0)
  18:	00000317          	auipc	t1,0x0
  1c:	00033303          	ld	t1,0(t1) # 18 <std::__detail::_Hashtable_ebo_helper<0, std::allocator<std::__detail::_Hash_node<dwarf::DW_TAG, true> >, true>::~_Hashtable_ebo_helper()+0x18>
  20:	000300e7          	jalr	ra,0(t1)
  24:	00000013          	addi	zero,zero,0
  28:	01813083          	ld	ra,24(sp)
  2c:	01013403          	ld	s0,16(sp)
  30:	02010113          	addi	sp,sp,32
  34:	00008067          	jalr	zero,0(ra)

Disassembly of section .text._ZNSt8__detail16_Hashtable_allocISaINS_10_Hash_nodeIN5dwarf6DW_TAGELb1EEEEED2Ev:

0000000000000000 <std::__detail::_Hashtable_alloc<std::allocator<std::__detail::_Hash_node<dwarf::DW_TAG, true> > >::~_Hashtable_alloc()>:
   0:	fe010113          	addi	sp,sp,-32
   4:	00113c23          	sd	ra,24(sp)
   8:	00813823          	sd	s0,16(sp)
   c:	02010413          	addi	s0,sp,32
  10:	fea43423          	sd	a0,-24(s0)
  14:	fe843503          	ld	a0,-24(s0)
  18:	00000317          	auipc	t1,0x0
  1c:	00033303          	ld	t1,0(t1) # 18 <std::__detail::_Hashtable_alloc<std::allocator<std::__detail::_Hash_node<dwarf::DW_TAG, true> > >::~_Hashtable_alloc()+0x18>
  20:	000300e7          	jalr	ra,0(t1)
  24:	00000013          	addi	zero,zero,0
  28:	01813083          	ld	ra,24(sp)
  2c:	01013403          	ld	s0,16(sp)
  30:	02010113          	addi	sp,sp,32
  34:	00008067          	jalr	zero,0(ra)

Disassembly of section .text._ZNSt10_HashtableIN5dwarf6DW_TAGES1_SaIS1_ENSt8__detail9_IdentityESt8equal_toIS1_ESt4hashIS1_ENS3_18_Mod_range_hashingENS3_20_Default_ranged_hashENS3_20_Prime_rehash_policyENS3_17_Hashtable_traitsILb1ELb1ELb1EEEED2Ev:

0000000000000000 <std::_Hashtable<dwarf::DW_TAG, dwarf::DW_TAG, std::allocator<dwarf::DW_TAG>, std::__detail::_Identity, std::equal_to<dwarf::DW_TAG>, std::hash<dwarf::DW_TAG>, std::__detail::_Mod_range_hashing, std::__detail::_Default_ranged_hash, std::__detail::_Prime_rehash_policy, std::__detail::_Hashtable_traits<true, true, true> >::~_Hashtable()>:
   0:	fe010113          	addi	sp,sp,-32
   4:	00113c23          	sd	ra,24(sp)
   8:	00813823          	sd	s0,16(sp)
   c:	02010413          	addi	s0,sp,32
  10:	fea43423          	sd	a0,-24(s0)
  14:	fe843503          	ld	a0,-24(s0)
  18:	00000317          	auipc	t1,0x0
  1c:	00033303          	ld	t1,0(t1) # 18 <std::_Hashtable<dwarf::DW_TAG, dwarf::DW_TAG, std::allocator<dwarf::DW_TAG>, std::__detail::_Identity, std::equal_to<dwarf::DW_TAG>, std::hash<dwarf::DW_TAG>, std::__detail::_Mod_range_hashing, std::__detail::_Default_ranged_hash, std::__detail::_Prime_rehash_policy, std::__detail::_Hashtable_traits<true, true, true> >::~_Hashtable()+0x18>
  20:	000300e7          	jalr	ra,0(t1)
  24:	fe843503          	ld	a0,-24(s0)
  28:	00000317          	auipc	t1,0x0
  2c:	00033303          	ld	t1,0(t1) # 28 <std::_Hashtable<dwarf::DW_TAG, dwarf::DW_TAG, std::allocator<dwarf::DW_TAG>, std::__detail::_Identity, std::equal_to<dwarf::DW_TAG>, std::hash<dwarf::DW_TAG>, std::__detail::_Mod_range_hashing, std::__detail::_Default_ranged_hash, std::__detail::_Prime_rehash_policy, std::__detail::_Hashtable_traits<true, true, true> >::~_Hashtable()+0x28>
  30:	000300e7          	jalr	ra,0(t1)
  34:	fe843503          	ld	a0,-24(s0)
  38:	00000317          	auipc	t1,0x0
  3c:	00033303          	ld	t1,0(t1) # 38 <std::_Hashtable<dwarf::DW_TAG, dwarf::DW_TAG, std::allocator<dwarf::DW_TAG>, std::__detail::_Identity, std::equal_to<dwarf::DW_TAG>, std::hash<dwarf::DW_TAG>, std::__detail::_Mod_range_hashing, std::__detail::_Default_ranged_hash, std::__detail::_Prime_rehash_policy, std::__detail::_Hashtable_traits<true, true, true> >::~_Hashtable()+0x38>
  40:	000300e7          	jalr	ra,0(t1)
  44:	00000013          	addi	zero,zero,0
  48:	01813083          	ld	ra,24(sp)
  4c:	01013403          	ld	s0,16(sp)
  50:	02010113          	addi	sp,sp,32
  54:	00008067          	jalr	zero,0(ra)

Disassembly of section .text._ZSt11make_sharedIN5dwarf11die_str_map4implEJRKNS0_3dieERNS0_5DW_ATERKSt16initializer_listINS0_6DW_TAGEEEESt10shared_ptrINSt9enable_ifIXntsrSt8is_arrayIT_E5valueESG_E4typeEEDpOT0_:

0000000000000000 <std::shared_ptr<std::enable_if<!std::is_array<dwarf::die_str_map::impl>::value, dwarf::die_str_map::impl>::type> std::make_shared<dwarf::die_str_map::impl, dwarf::die const&, dwarf::DW_AT&, std::initializer_list<dwarf::DW_TAG> const&>(dwarf::die const&, dwarf::DW_AT&, std::initializer_list<dwarf::DW_TAG> const&)>:
   0:	fa010113          	addi	sp,sp,-96
   4:	04113c23          	sd	ra,88(sp)
   8:	04813823          	sd	s0,80(sp)
   c:	04913423          	sd	s1,72(sp)
  10:	05213023          	sd	s2,64(sp)
  14:	03313c23          	sd	s3,56(sp)
  18:	06010413          	addi	s0,sp,96
  1c:	faa43c23          	sd	a0,-72(s0)
  20:	fab43823          	sd	a1,-80(s0)
  24:	fac43423          	sd	a2,-88(s0)
  28:	fad43023          	sd	a3,-96(s0)
  2c:	fc840793          	addi	a5,s0,-56
  30:	00078993          	addi	s3,a5,0
  34:	fb043503          	ld	a0,-80(s0)
  38:	00000317          	auipc	t1,0x0
  3c:	00033303          	ld	t1,0(t1) # 38 <std::shared_ptr<std::enable_if<!std::is_array<dwarf::die_str_map::impl>::value, dwarf::die_str_map::impl>::type> std::make_shared<dwarf::die_str_map::impl, dwarf::die const&, dwarf::DW_AT&, std::initializer_list<dwarf::DW_TAG> const&>(dwarf::die const&, dwarf::DW_AT&, std::initializer_list<dwarf::DW_TAG> const&)+0x38>
  40:	000300e7          	jalr	ra,0(t1)
  44:	00050493          	addi	s1,a0,0
  48:	fa843503          	ld	a0,-88(s0)
  4c:	00000317          	auipc	t1,0x0
  50:	00033303          	ld	t1,0(t1) # 4c <std::shared_ptr<std::enable_if<!std::is_array<dwarf::die_str_map::impl>::value, dwarf::die_str_map::impl>::type> std::make_shared<dwarf::die_str_map::impl, dwarf::die const&, dwarf::DW_AT&, std::initializer_list<dwarf::DW_TAG> const&>(dwarf::die const&, dwarf::DW_AT&, std::initializer_list<dwarf::DW_TAG> const&)+0x4c>
  54:	000300e7          	jalr	ra,0(t1)
  58:	00050913          	addi	s2,a0,0
  5c:	fa043503          	ld	a0,-96(s0)
  60:	00000317          	auipc	t1,0x0
  64:	00033303          	ld	t1,0(t1) # 60 <std::shared_ptr<std::enable_if<!std::is_array<dwarf::die_str_map::impl>::value, dwarf::die_str_map::impl>::type> std::make_shared<dwarf::die_str_map::impl, dwarf::die const&, dwarf::DW_AT&, std::initializer_list<dwarf::DW_TAG> const&>(dwarf::die const&, dwarf::DW_AT&, std::initializer_list<dwarf::DW_TAG> const&)+0x60>
  68:	000300e7          	jalr	ra,0(t1)
  6c:	00050793          	addi	a5,a0,0
  70:	00078713          	addi	a4,a5,0
  74:	00090693          	addi	a3,s2,0
  78:	00048613          	addi	a2,s1,0
  7c:	00098593          	addi	a1,s3,0
  80:	fb843503          	ld	a0,-72(s0)
  84:	00000317          	auipc	t1,0x0
  88:	00033303          	ld	t1,0(t1) # 84 <std::shared_ptr<std::enable_if<!std::is_array<dwarf::die_str_map::impl>::value, dwarf::die_str_map::impl>::type> std::make_shared<dwarf::die_str_map::impl, dwarf::die const&, dwarf::DW_AT&, std::initializer_list<dwarf::DW_TAG> const&>(dwarf::die const&, dwarf::DW_AT&, std::initializer_list<dwarf::DW_TAG> const&)+0x84>
  8c:	000300e7          	jalr	ra,0(t1)
  90:	fb843503          	ld	a0,-72(s0)
  94:	05813083          	ld	ra,88(sp)
  98:	05013403          	ld	s0,80(sp)
  9c:	04813483          	ld	s1,72(sp)
  a0:	04013903          	ld	s2,64(sp)
  a4:	03813983          	ld	s3,56(sp)
  a8:	06010113          	addi	sp,sp,96
  ac:	00008067          	jalr	zero,0(ra)

Disassembly of section .text._ZNKSt19__shared_ptr_accessIN5dwarf11die_str_map4implELN9__gnu_cxx12_Lock_policyE1ELb0ELb0EEptEv:

0000000000000000 <std::__shared_ptr_access<dwarf::die_str_map::impl, (__gnu_cxx::_Lock_policy)1, false, false>::operator->() const>:
   0:	fe010113          	addi	sp,sp,-32
   4:	00113c23          	sd	ra,24(sp)
   8:	00813823          	sd	s0,16(sp)
   c:	02010413          	addi	s0,sp,32
  10:	fea43423          	sd	a0,-24(s0)
  14:	fe843503          	ld	a0,-24(s0)
  18:	00000317          	auipc	t1,0x0
  1c:	00033303          	ld	t1,0(t1) # 18 <std::__shared_ptr_access<dwarf::die_str_map::impl, (__gnu_cxx::_Lock_policy)1, false, false>::operator->() const+0x18>
  20:	000300e7          	jalr	ra,0(t1)
  24:	00050793          	addi	a5,a0,0
  28:	00078513          	addi	a0,a5,0
  2c:	01813083          	ld	ra,24(sp)
  30:	01013403          	ld	s0,16(sp)
  34:	02010113          	addi	sp,sp,32
  38:	00008067          	jalr	zero,0(ra)

Disassembly of section .text._ZNSt13unordered_mapIPKcN5dwarf3dieENS2_11string_hashENS2_9string_eqESaISt4pairIKS1_S3_EEE4findERS7_:

0000000000000000 <std::unordered_map<char const*, dwarf::die, dwarf::string_hash, dwarf::string_eq, std::allocator<std::pair<char const* const, dwarf::die> > >::find(char const* const&)>:
   0:	fe010113          	addi	sp,sp,-32
   4:	00113c23          	sd	ra,24(sp)
   8:	00813823          	sd	s0,16(sp)
   c:	02010413          	addi	s0,sp,32
  10:	fea43423          	sd	a0,-24(s0)
  14:	feb43023          	sd	a1,-32(s0)
  18:	fe843783          	ld	a5,-24(s0)
  1c:	fe043583          	ld	a1,-32(s0)
  20:	00078513          	addi	a0,a5,0
  24:	00000317          	auipc	t1,0x0
  28:	00033303          	ld	t1,0(t1) # 24 <std::unordered_map<char const*, dwarf::die, dwarf::string_hash, dwarf::string_eq, std::allocator<std::pair<char const* const, dwarf::die> > >::find(char const* const&)+0x24>
  2c:	000300e7          	jalr	ra,0(t1)
  30:	00050793          	addi	a5,a0,0
  34:	00078513          	addi	a0,a5,0
  38:	01813083          	ld	ra,24(sp)
  3c:	01013403          	ld	s0,16(sp)
  40:	02010113          	addi	sp,sp,32
  44:	00008067          	jalr	zero,0(ra)

Disassembly of section .text._ZNSt13unordered_mapIPKcN5dwarf3dieENS2_11string_hashENS2_9string_eqESaISt4pairIKS1_S3_EEE3endEv:

0000000000000000 <std::unordered_map<char const*, dwarf::die, dwarf::string_hash, dwarf::string_eq, std::allocator<std::pair<char const* const, dwarf::die> > >::end()>:
   0:	fe010113          	addi	sp,sp,-32
   4:	00113c23          	sd	ra,24(sp)
   8:	00813823          	sd	s0,16(sp)
   c:	02010413          	addi	s0,sp,32
  10:	fea43423          	sd	a0,-24(s0)
  14:	fe843783          	ld	a5,-24(s0)
  18:	00078513          	addi	a0,a5,0
  1c:	00000317          	auipc	t1,0x0
  20:	00033303          	ld	t1,0(t1) # 1c <std::unordered_map<char const*, dwarf::die, dwarf::string_hash, dwarf::string_eq, std::allocator<std::pair<char const* const, dwarf::die> > >::end()+0x1c>
  24:	000300e7          	jalr	ra,0(t1)
  28:	00050793          	addi	a5,a0,0
  2c:	00078513          	addi	a0,a5,0
  30:	01813083          	ld	ra,24(sp)
  34:	01013403          	ld	s0,16(sp)
  38:	02010113          	addi	sp,sp,32
  3c:	00008067          	jalr	zero,0(ra)

Disassembly of section .text._ZNSt8__detailneERKNS_19_Node_iterator_baseISt4pairIKPKcN5dwarf3dieEELb1EEESA_:

0000000000000000 <std::__detail::operator!=(std::__detail::_Node_iterator_base<std::pair<char const* const, dwarf::die>, true> const&, std::__detail::_Node_iterator_base<std::pair<char const* const, dwarf::die>, true> const&)>:
   0:	fe010113          	addi	sp,sp,-32
   4:	00813c23          	sd	s0,24(sp)
   8:	02010413          	addi	s0,sp,32
   c:	fea43423          	sd	a0,-24(s0)
  10:	feb43023          	sd	a1,-32(s0)
  14:	fe843783          	ld	a5,-24(s0)
  18:	0007b703          	ld	a4,0(a5)
  1c:	fe043783          	ld	a5,-32(s0)
  20:	0007b783          	ld	a5,0(a5)
  24:	40f707b3          	sub	a5,a4,a5
  28:	00f037b3          	sltu	a5,zero,a5
  2c:	0ff7f793          	andi	a5,a5,255
  30:	00078513          	addi	a0,a5,0
  34:	01813403          	ld	s0,24(sp)
  38:	02010113          	addi	sp,sp,32
  3c:	00008067          	jalr	zero,0(ra)

Disassembly of section .text._ZNKSt8__detail14_Node_iteratorISt4pairIKPKcN5dwarf3dieEELb0ELb1EEptEv:

0000000000000000 <std::__detail::_Node_iterator<std::pair<char const* const, dwarf::die>, false, true>::operator->() const>:
   0:	fe010113          	addi	sp,sp,-32
   4:	00113c23          	sd	ra,24(sp)
   8:	00813823          	sd	s0,16(sp)
   c:	02010413          	addi	s0,sp,32
  10:	fea43423          	sd	a0,-24(s0)
  14:	fe843783          	ld	a5,-24(s0)
  18:	0007b783          	ld	a5,0(a5)
  1c:	00878793          	addi	a5,a5,8
  20:	00078513          	addi	a0,a5,0
  24:	00000317          	auipc	t1,0x0
  28:	00033303          	ld	t1,0(t1) # 24 <std::__detail::_Node_iterator<std::pair<char const* const, dwarf::die>, false, true>::operator->() const+0x24>
  2c:	000300e7          	jalr	ra,0(t1)
  30:	00050793          	addi	a5,a0,0
  34:	00078513          	addi	a0,a5,0
  38:	01813083          	ld	ra,24(sp)
  3c:	01013403          	ld	s0,16(sp)
  40:	02010113          	addi	sp,sp,32
  44:	00008067          	jalr	zero,0(ra)

Disassembly of section .text._ZNKSt13unordered_setIN5dwarf6DW_TAGESt4hashIS1_ESt8equal_toIS1_ESaIS1_EE5countERKS1_:

0000000000000000 <std::unordered_set<dwarf::DW_TAG, std::hash<dwarf::DW_TAG>, std::equal_to<dwarf::DW_TAG>, std::allocator<dwarf::DW_TAG> >::count(dwarf::DW_TAG const&) const>:
   0:	fe010113          	addi	sp,sp,-32
   4:	00113c23          	sd	ra,24(sp)
   8:	00813823          	sd	s0,16(sp)
   c:	02010413          	addi	s0,sp,32
  10:	fea43423          	sd	a0,-24(s0)
  14:	feb43023          	sd	a1,-32(s0)
  18:	fe843783          	ld	a5,-24(s0)
  1c:	fe043583          	ld	a1,-32(s0)
  20:	00078513          	addi	a0,a5,0
  24:	00000317          	auipc	t1,0x0
  28:	00033303          	ld	t1,0(t1) # 24 <std::unordered_set<dwarf::DW_TAG, std::hash<dwarf::DW_TAG>, std::equal_to<dwarf::DW_TAG>, std::allocator<dwarf::DW_TAG> >::count(dwarf::DW_TAG const&) const+0x24>
  2c:	000300e7          	jalr	ra,0(t1)
  30:	00050793          	addi	a5,a0,0
  34:	00078513          	addi	a0,a5,0
  38:	01813083          	ld	ra,24(sp)
  3c:	01013403          	ld	s0,16(sp)
  40:	02010113          	addi	sp,sp,32
  44:	00008067          	jalr	zero,0(ra)

Disassembly of section .text._ZNSt13unordered_mapIPKcN5dwarf3dieENS2_11string_hashENS2_9string_eqESaISt4pairIKS1_S3_EEEixERS7_:

0000000000000000 <std::unordered_map<char const*, dwarf::die, dwarf::string_hash, dwarf::string_eq, std::allocator<std::pair<char const* const, dwarf::die> > >::operator[](char const* const&)>:
   0:	fe010113          	addi	sp,sp,-32
   4:	00113c23          	sd	ra,24(sp)
   8:	00813823          	sd	s0,16(sp)
   c:	02010413          	addi	s0,sp,32
  10:	fea43423          	sd	a0,-24(s0)
  14:	feb43023          	sd	a1,-32(s0)
  18:	fe843783          	ld	a5,-24(s0)
  1c:	fe043583          	ld	a1,-32(s0)
  20:	00078513          	addi	a0,a5,0
  24:	00000317          	auipc	t1,0x0
  28:	00033303          	ld	t1,0(t1) # 24 <std::unordered_map<char const*, dwarf::die, dwarf::string_hash, dwarf::string_eq, std::allocator<std::pair<char const* const, dwarf::die> > >::operator[](char const* const&)+0x24>
  2c:	000300e7          	jalr	ra,0(t1)
  30:	00050793          	addi	a5,a0,0
  34:	00078513          	addi	a0,a5,0
  38:	01813083          	ld	ra,24(sp)
  3c:	01013403          	ld	s0,16(sp)
  40:	02010113          	addi	sp,sp,32
  44:	00008067          	jalr	zero,0(ra)

Disassembly of section .text._ZN5dwarf12small_vectorImLj6EEaSERKS1_:

0000000000000000 <dwarf::small_vector<unsigned long, 6u>::operator=(dwarf::small_vector<unsigned long, 6u> const&)>:
   0:	fc010113          	addi	sp,sp,-64
   4:	02113c23          	sd	ra,56(sp)
   8:	02813823          	sd	s0,48(sp)
   c:	02913423          	sd	s1,40(sp)
  10:	04010413          	addi	s0,sp,64
  14:	fca43423          	sd	a0,-56(s0)
  18:	fcb43023          	sd	a1,-64(s0)
  1c:	fc043503          	ld	a0,-64(s0)
  20:	00000317          	auipc	t1,0x0
  24:	00033303          	ld	t1,0(t1) # 20 <dwarf::small_vector<unsigned long, 6u>::operator=(dwarf::small_vector<unsigned long, 6u> const&)+0x20>
  28:	000300e7          	jalr	ra,0(t1)
  2c:	fca43823          	sd	a0,-48(s0)
  30:	fc843503          	ld	a0,-56(s0)
  34:	00000317          	auipc	t1,0x0
  38:	00033303          	ld	t1,0(t1) # 34 <dwarf::small_vector<unsigned long, 6u>::operator=(dwarf::small_vector<unsigned long, 6u> const&)+0x34>
  3c:	000300e7          	jalr	ra,0(t1)
  40:	fd043583          	ld	a1,-48(s0)
  44:	fc843503          	ld	a0,-56(s0)
  48:	00000317          	auipc	t1,0x0
  4c:	00033303          	ld	t1,0(t1) # 48 <dwarf::small_vector<unsigned long, 6u>::operator=(dwarf::small_vector<unsigned long, 6u> const&)+0x48>
  50:	000300e7          	jalr	ra,0(t1)
  54:	fc043c23          	sd	zero,-40(s0)
  58:	05c0006f          	jal	zero,b4 <.L126>

000000000000005c <.L127>:
  5c:	fc843783          	ld	a5,-56(s0)
  60:	0307b703          	ld	a4,48(a5)
  64:	fd843783          	ld	a5,-40(s0)
  68:	00379793          	slli	a5,a5,0x3
  6c:	00f707b3          	add	a5,a4,a5
  70:	00078593          	addi	a1,a5,0
  74:	00800513          	addi	a0,zero,8
  78:	00000317          	auipc	t1,0x0
  7c:	00033303          	ld	t1,0(t1) # 78 <.L127+0x1c>
  80:	000300e7          	jalr	ra,0(t1)
  84:	00050493          	addi	s1,a0,0
  88:	fd843583          	ld	a1,-40(s0)
  8c:	fc043503          	ld	a0,-64(s0)
  90:	00000317          	auipc	t1,0x0
  94:	00033303          	ld	t1,0(t1) # 90 <.L127+0x34>
  98:	000300e7          	jalr	ra,0(t1)
  9c:	00050793          	addi	a5,a0,0
  a0:	0007b783          	ld	a5,0(a5)
  a4:	00f4b023          	sd	a5,0(s1)
  a8:	fd843783          	ld	a5,-40(s0)
  ac:	00178793          	addi	a5,a5,1
  b0:	fcf43c23          	sd	a5,-40(s0)

00000000000000b4 <.L126>:
  b4:	fd843703          	ld	a4,-40(s0)
  b8:	fd043783          	ld	a5,-48(s0)
  bc:	faf760e3          	bltu	a4,a5,5c <.L127>
  c0:	fc843783          	ld	a5,-56(s0)
  c4:	0307b703          	ld	a4,48(a5)
  c8:	fd043783          	ld	a5,-48(s0)
  cc:	00379793          	slli	a5,a5,0x3
  d0:	00f70733          	add	a4,a4,a5
  d4:	fc843783          	ld	a5,-56(s0)
  d8:	02e7bc23          	sd	a4,56(a5)
  dc:	fc843783          	ld	a5,-56(s0)
  e0:	00078513          	addi	a0,a5,0
  e4:	03813083          	ld	ra,56(sp)
  e8:	03013403          	ld	s0,48(sp)
  ec:	02813483          	ld	s1,40(sp)
  f0:	04010113          	addi	sp,sp,64
  f4:	00008067          	jalr	zero,0(ra)

Disassembly of section .text._ZNSt16_Sp_counted_baseILN9__gnu_cxx12_Lock_policyE1EE10_M_destroyEv:

0000000000000000 <std::_Sp_counted_base<(__gnu_cxx::_Lock_policy)1>::_M_destroy()>:
   0:	fe010113          	addi	sp,sp,-32
   4:	00113c23          	sd	ra,24(sp)
   8:	00813823          	sd	s0,16(sp)
   c:	02010413          	addi	s0,sp,32
  10:	fea43423          	sd	a0,-24(s0)
  14:	fe843783          	ld	a5,-24(s0)
  18:	00078e63          	beq	a5,zero,34 <.L131>
  1c:	fe843783          	ld	a5,-24(s0)
  20:	0007b783          	ld	a5,0(a5)
  24:	00878793          	addi	a5,a5,8
  28:	0007b783          	ld	a5,0(a5)
  2c:	fe843503          	ld	a0,-24(s0)
  30:	000780e7          	jalr	ra,0(a5)

0000000000000034 <.L131>:
  34:	00000013          	addi	zero,zero,0
  38:	01813083          	ld	ra,24(sp)
  3c:	01013403          	ld	s0,16(sp)
  40:	02010113          	addi	sp,sp,32
  44:	00008067          	jalr	zero,0(ra)

Disassembly of section .text._ZN5dwarf12small_vectorImLj6EE5clearEv:

0000000000000000 <dwarf::small_vector<unsigned long, 6u>::clear()>:
   0:	fd010113          	addi	sp,sp,-48
   4:	02813423          	sd	s0,40(sp)
   8:	03010413          	addi	s0,sp,48
   c:	fca43c23          	sd	a0,-40(s0)
  10:	fd843783          	ld	a5,-40(s0)
  14:	0307b783          	ld	a5,48(a5)
  18:	fef43423          	sd	a5,-24(s0)
  1c:	0100006f          	jal	zero,2c <.L133>

0000000000000020 <.L134>:
  20:	fe843783          	ld	a5,-24(s0)
  24:	00878793          	addi	a5,a5,8
  28:	fef43423          	sd	a5,-24(s0)

000000000000002c <.L133>:
  2c:	fd843783          	ld	a5,-40(s0)
  30:	0387b783          	ld	a5,56(a5)
  34:	fe843703          	ld	a4,-24(s0)
  38:	fef764e3          	bltu	a4,a5,20 <.L134>
  3c:	fd843783          	ld	a5,-40(s0)
  40:	0307b703          	ld	a4,48(a5)
  44:	fd843783          	ld	a5,-40(s0)
  48:	02e7bc23          	sd	a4,56(a5)
  4c:	00000013          	addi	zero,zero,0
  50:	02813403          	ld	s0,40(sp)
  54:	03010113          	addi	sp,sp,48
  58:	00008067          	jalr	zero,0(ra)

Disassembly of section .text._ZSt7forwardIbEOT_RNSt16remove_referenceIS0_E4typeE:

0000000000000000 <bool&& std::forward<bool>(std::remove_reference<bool>::type&)>:
   0:	fe010113          	addi	sp,sp,-32
   4:	00813c23          	sd	s0,24(sp)
   8:	02010413          	addi	s0,sp,32
   c:	fea43423          	sd	a0,-24(s0)
  10:	fe843783          	ld	a5,-24(s0)
  14:	00078513          	addi	a0,a5,0
  18:	01813403          	ld	s0,24(sp)
  1c:	02010113          	addi	sp,sp,32
  20:	00008067          	jalr	zero,0(ra)

Disassembly of section .text._ZNKSt16initializer_listIN5dwarf6DW_TAGEE4sizeEv:

0000000000000000 <std::initializer_list<dwarf::DW_TAG>::size() const>:
   0:	fe010113          	addi	sp,sp,-32
   4:	00813c23          	sd	s0,24(sp)
   8:	02010413          	addi	s0,sp,32
   c:	fea43423          	sd	a0,-24(s0)
  10:	fe843783          	ld	a5,-24(s0)
  14:	0087b783          	ld	a5,8(a5)
  18:	00078513          	addi	a0,a5,0
  1c:	01813403          	ld	s0,24(sp)
  20:	02010113          	addi	sp,sp,32
  24:	00008067          	jalr	zero,0(ra)

Disassembly of section .text._ZNSaINSt8__detail10_Hash_nodeISt4pairIKPKcN5dwarf3dieEELb1EEEEC2Ev:

0000000000000000 <std::allocator<std::__detail::_Hash_node<std::pair<char const* const, dwarf::die>, true> >::allocator()>:
   0:	fe010113          	addi	sp,sp,-32
   4:	00113c23          	sd	ra,24(sp)
   8:	00813823          	sd	s0,16(sp)
   c:	02010413          	addi	s0,sp,32
  10:	fea43423          	sd	a0,-24(s0)
  14:	fe843503          	ld	a0,-24(s0)
  18:	00000317          	auipc	t1,0x0
  1c:	00033303          	ld	t1,0(t1) # 18 <std::allocator<std::__detail::_Hash_node<std::pair<char const* const, dwarf::die>, true> >::allocator()+0x18>
  20:	000300e7          	jalr	ra,0(t1)
  24:	00000013          	addi	zero,zero,0
  28:	01813083          	ld	ra,24(sp)
  2c:	01013403          	ld	s0,16(sp)
  30:	02010113          	addi	sp,sp,32
  34:	00008067          	jalr	zero,0(ra)

Disassembly of section .text._ZNSt15__new_allocatorINSt8__detail10_Hash_nodeISt4pairIKPKcN5dwarf3dieEELb1EEEED2Ev:

0000000000000000 <std::__new_allocator<std::__detail::_Hash_node<std::pair<char const* const, dwarf::die>, true> >::~__new_allocator()>:
   0:	fe010113          	addi	sp,sp,-32
   4:	00813c23          	sd	s0,24(sp)
   8:	02010413          	addi	s0,sp,32
   c:	fea43423          	sd	a0,-24(s0)
  10:	00000013          	addi	zero,zero,0
  14:	01813403          	ld	s0,24(sp)
  18:	02010113          	addi	sp,sp,32
  1c:	00008067          	jalr	zero,0(ra)

Disassembly of section .text._ZNSt10_HashtableIPKcSt4pairIKS1_N5dwarf3dieEESaIS6_ENSt8__detail10_Select1stENS4_9string_eqENS4_11string_hashENS8_18_Mod_range_hashingENS8_20_Default_ranged_hashENS8_20_Prime_rehash_policyENS8_17_Hashtable_traitsILb1ELb0ELb1EEEE5clearEv:

0000000000000000 <std::_Hashtable<char const*, std::pair<char const* const, dwarf::die>, std::allocator<std::pair<char const* const, dwarf::die> >, std::__detail::_Select1st, dwarf::string_eq, dwarf::string_hash, std::__detail::_Mod_range_hashing, std::__detail::_Default_ranged_hash, std::__detail::_Prime_rehash_policy, std::__detail::_Hashtable_traits<true, false, true> >::clear()>:
   0:	fe010113          	addi	sp,sp,-32
   4:	00113c23          	sd	ra,24(sp)
   8:	00813823          	sd	s0,16(sp)
   c:	02010413          	addi	s0,sp,32
  10:	fea43423          	sd	a0,-24(s0)
  14:	fe843503          	ld	a0,-24(s0)
  18:	00000317          	auipc	t1,0x0
  1c:	00033303          	ld	t1,0(t1) # 18 <std::_Hashtable<char const*, std::pair<char const* const, dwarf::die>, std::allocator<std::pair<char const* const, dwarf::die> >, std::__detail::_Select1st, dwarf::string_eq, dwarf::string_hash, std::__detail::_Mod_range_hashing, std::__detail::_Default_ranged_hash, std::__detail::_Prime_rehash_policy, std::__detail::_Hashtable_traits<true, false, true> >::clear()+0x18>
  20:	000300e7          	jalr	ra,0(t1)
  24:	00050793          	addi	a5,a0,0
  28:	00078593          	addi	a1,a5,0
  2c:	fe843503          	ld	a0,-24(s0)
  30:	00000317          	auipc	t1,0x0
  34:	00033303          	ld	t1,0(t1) # 30 <std::_Hashtable<char const*, std::pair<char const* const, dwarf::die>, std::allocator<std::pair<char const* const, dwarf::die> >, std::__detail::_Select1st, dwarf::string_eq, dwarf::string_hash, std::__detail::_Mod_range_hashing, std::__detail::_Default_ranged_hash, std::__detail::_Prime_rehash_policy, std::__detail::_Hashtable_traits<true, false, true> >::clear()+0x30>
  38:	000300e7          	jalr	ra,0(t1)
  3c:	fe843783          	ld	a5,-24(s0)
  40:	0007b703          	ld	a4,0(a5)
  44:	fe843783          	ld	a5,-24(s0)
  48:	0087b783          	ld	a5,8(a5)
  4c:	00379793          	slli	a5,a5,0x3
  50:	00078613          	addi	a2,a5,0
  54:	00000593          	addi	a1,zero,0
  58:	00070513          	addi	a0,a4,0
  5c:	00000097          	auipc	ra,0x0
  60:	000080e7          	jalr	ra,0(ra) # 5c <std::_Hashtable<char const*, std::pair<char const* const, dwarf::die>, std::allocator<std::pair<char const* const, dwarf::die> >, std::__detail::_Select1st, dwarf::string_eq, dwarf::string_hash, std::__detail::_Mod_range_hashing, std::__detail::_Default_ranged_hash, std::__detail::_Prime_rehash_policy, std::__detail::_Hashtable_traits<true, false, true> >::clear()+0x5c>
  64:	fe843783          	ld	a5,-24(s0)
  68:	0007bc23          	sd	zero,24(a5)
  6c:	fe843783          	ld	a5,-24(s0)
  70:	0007b823          	sd	zero,16(a5)
  74:	00000013          	addi	zero,zero,0
  78:	01813083          	ld	ra,24(sp)
  7c:	01013403          	ld	s0,16(sp)
  80:	02010113          	addi	sp,sp,32
  84:	00008067          	jalr	zero,0(ra)

Disassembly of section .text._ZNSt10_HashtableIPKcSt4pairIKS1_N5dwarf3dieEESaIS6_ENSt8__detail10_Select1stENS4_9string_eqENS4_11string_hashENS8_18_Mod_range_hashingENS8_20_Default_ranged_hashENS8_20_Prime_rehash_policyENS8_17_Hashtable_traitsILb1ELb0ELb1EEEE21_M_deallocate_bucketsEv:

0000000000000000 <std::_Hashtable<char const*, std::pair<char const* const, dwarf::die>, std::allocator<std::pair<char const* const, dwarf::die> >, std::__detail::_Select1st, dwarf::string_eq, dwarf::string_hash, std::__detail::_Mod_range_hashing, std::__detail::_Default_ranged_hash, std::__detail::_Prime_rehash_policy, std::__detail::_Hashtable_traits<true, false, true> >::_M_deallocate_buckets()>:
   0:	fe010113          	addi	sp,sp,-32
   4:	00113c23          	sd	ra,24(sp)
   8:	00813823          	sd	s0,16(sp)
   c:	02010413          	addi	s0,sp,32
  10:	fea43423          	sd	a0,-24(s0)
  14:	fe843783          	ld	a5,-24(s0)
  18:	0007b703          	ld	a4,0(a5)
  1c:	fe843783          	ld	a5,-24(s0)
  20:	0087b783          	ld	a5,8(a5)
  24:	00078613          	addi	a2,a5,0
  28:	00070593          	addi	a1,a4,0
  2c:	fe843503          	ld	a0,-24(s0)
  30:	00000317          	auipc	t1,0x0
  34:	00033303          	ld	t1,0(t1) # 30 <std::_Hashtable<char const*, std::pair<char const* const, dwarf::die>, std::allocator<std::pair<char const* const, dwarf::die> >, std::__detail::_Select1st, dwarf::string_eq, dwarf::string_hash, std::__detail::_Mod_range_hashing, std::__detail::_Default_ranged_hash, std::__detail::_Prime_rehash_policy, std::__detail::_Hashtable_traits<true, false, true> >::_M_deallocate_buckets()+0x30>
  38:	000300e7          	jalr	ra,0(t1)
  3c:	00000013          	addi	zero,zero,0
  40:	01813083          	ld	ra,24(sp)
  44:	01013403          	ld	s0,16(sp)
  48:	02010113          	addi	sp,sp,32
  4c:	00008067          	jalr	zero,0(ra)

Disassembly of section .text._ZNSt15__new_allocatorIN5dwarf6DW_TAGEEC2Ev:

0000000000000000 <std::__new_allocator<dwarf::DW_TAG>::__new_allocator()>:
   0:	fe010113          	addi	sp,sp,-32
   4:	00813c23          	sd	s0,24(sp)
   8:	02010413          	addi	s0,sp,32
   c:	fea43423          	sd	a0,-24(s0)
  10:	00000013          	addi	zero,zero,0
  14:	01813403          	ld	s0,24(sp)
  18:	02010113          	addi	sp,sp,32
  1c:	00008067          	jalr	zero,0(ra)

Disassembly of section .text._ZNSt15__new_allocatorIN5dwarf6DW_TAGEED2Ev:

0000000000000000 <std::__new_allocator<dwarf::DW_TAG>::~__new_allocator()>:
   0:	fe010113          	addi	sp,sp,-32
   4:	00813c23          	sd	s0,24(sp)
   8:	02010413          	addi	s0,sp,32
   c:	fea43423          	sd	a0,-24(s0)
  10:	00000013          	addi	zero,zero,0
  14:	01813403          	ld	s0,24(sp)
  18:	02010113          	addi	sp,sp,32
  1c:	00008067          	jalr	zero,0(ra)

Disassembly of section .text._ZNSt10_HashtableIN5dwarf6DW_TAGES1_SaIS1_ENSt8__detail9_IdentityESt8equal_toIS1_ESt4hashIS1_ENS3_18_Mod_range_hashingENS3_20_Default_ranged_hashENS3_20_Prime_rehash_policyENS3_17_Hashtable_traitsILb1ELb1ELb1EEEEC2IPKS1_EET_SI_mRKS8_RKS6_RKS2_:

0000000000000000 <std::_Hashtable<dwarf::DW_TAG, dwarf::DW_TAG, std::allocator<dwarf::DW_TAG>, std::__detail::_Identity, std::equal_to<dwarf::DW_TAG>, std::hash<dwarf::DW_TAG>, std::__detail::_Mod_range_hashing, std::__detail::_Default_ranged_hash, std::__detail::_Prime_rehash_policy, std::__detail::_Hashtable_traits<true, true, true> >::_Hashtable<dwarf::DW_TAG const*>(dwarf::DW_TAG const*, dwarf::DW_TAG const*, unsigned long, std::hash<dwarf::DW_TAG> const&, std::equal_to<dwarf::DW_TAG> const&, std::allocator<dwarf::DW_TAG> const&)>:
   0:	fb010113          	addi	sp,sp,-80
   4:	04113423          	sd	ra,72(sp)
   8:	04813023          	sd	s0,64(sp)
   c:	05010413          	addi	s0,sp,80
  10:	fea43423          	sd	a0,-24(s0)
  14:	feb43023          	sd	a1,-32(s0)
  18:	fcc43c23          	sd	a2,-40(s0)
  1c:	fcd43823          	sd	a3,-48(s0)
  20:	fce43423          	sd	a4,-56(s0)
  24:	fcf43023          	sd	a5,-64(s0)
  28:	fb043c23          	sd	a6,-72(s0)
  2c:	fb843803          	ld	a6,-72(s0)
  30:	fc043783          	ld	a5,-64(s0)
  34:	fc843703          	ld	a4,-56(s0)
  38:	fd043683          	ld	a3,-48(s0)
  3c:	fd843603          	ld	a2,-40(s0)
  40:	fe043583          	ld	a1,-32(s0)
  44:	fe843503          	ld	a0,-24(s0)
  48:	00000317          	auipc	t1,0x0
  4c:	00033303          	ld	t1,0(t1) # 48 <std::_Hashtable<dwarf::DW_TAG, dwarf::DW_TAG, std::allocator<dwarf::DW_TAG>, std::__detail::_Identity, std::equal_to<dwarf::DW_TAG>, std::hash<dwarf::DW_TAG>, std::__detail::_Mod_range_hashing, std::__detail::_Default_ranged_hash, std::__detail::_Prime_rehash_policy, std::__detail::_Hashtable_traits<true, true, true> >::_Hashtable<dwarf::DW_TAG const*>(dwarf::DW_TAG const*, dwarf::DW_TAG const*, unsigned long, std::hash<dwarf::DW_TAG> const&, std::equal_to<dwarf::DW_TAG> const&, std::allocator<dwarf::DW_TAG> const&)+0x48>
  50:	000300e7          	jalr	ra,0(t1)
  54:	00000013          	addi	zero,zero,0
  58:	04813083          	ld	ra,72(sp)
  5c:	04013403          	ld	s0,64(sp)
  60:	05010113          	addi	sp,sp,80
  64:	00008067          	jalr	zero,0(ra)

Disassembly of section .text._ZNSaINSt8__detail10_Hash_nodeIN5dwarf6DW_TAGELb1EEEED2Ev:

0000000000000000 <std::allocator<std::__detail::_Hash_node<dwarf::DW_TAG, true> >::~allocator()>:
   0:	fe010113          	addi	sp,sp,-32
   4:	00113c23          	sd	ra,24(sp)
   8:	00813823          	sd	s0,16(sp)
   c:	02010413          	addi	s0,sp,32
  10:	fea43423          	sd	a0,-24(s0)
  14:	fe843503          	ld	a0,-24(s0)
  18:	00000317          	auipc	t1,0x0
  1c:	00033303          	ld	t1,0(t1) # 18 <std::allocator<std::__detail::_Hash_node<dwarf::DW_TAG, true> >::~allocator()+0x18>
  20:	000300e7          	jalr	ra,0(t1)
  24:	00000013          	addi	zero,zero,0
  28:	01813083          	ld	ra,24(sp)
  2c:	01013403          	ld	s0,16(sp)
  30:	02010113          	addi	sp,sp,32
  34:	00008067          	jalr	zero,0(ra)

Disassembly of section .text._ZNSt10_HashtableIN5dwarf6DW_TAGES1_SaIS1_ENSt8__detail9_IdentityESt8equal_toIS1_ESt4hashIS1_ENS3_18_Mod_range_hashingENS3_20_Default_ranged_hashENS3_20_Prime_rehash_policyENS3_17_Hashtable_traitsILb1ELb1ELb1EEEE5clearEv:

0000000000000000 <std::_Hashtable<dwarf::DW_TAG, dwarf::DW_TAG, std::allocator<dwarf::DW_TAG>, std::__detail::_Identity, std::equal_to<dwarf::DW_TAG>, std::hash<dwarf::DW_TAG>, std::__detail::_Mod_range_hashing, std::__detail::_Default_ranged_hash, std::__detail::_Prime_rehash_policy, std::__detail::_Hashtable_traits<true, true, true> >::clear()>:
   0:	fe010113          	addi	sp,sp,-32
   4:	00113c23          	sd	ra,24(sp)
   8:	00813823          	sd	s0,16(sp)
   c:	02010413          	addi	s0,sp,32
  10:	fea43423          	sd	a0,-24(s0)
  14:	fe843503          	ld	a0,-24(s0)
  18:	00000317          	auipc	t1,0x0
  1c:	00033303          	ld	t1,0(t1) # 18 <std::_Hashtable<dwarf::DW_TAG, dwarf::DW_TAG, std::allocator<dwarf::DW_TAG>, std::__detail::_Identity, std::equal_to<dwarf::DW_TAG>, std::hash<dwarf::DW_TAG>, std::__detail::_Mod_range_hashing, std::__detail::_Default_ranged_hash, std::__detail::_Prime_rehash_policy, std::__detail::_Hashtable_traits<true, true, true> >::clear()+0x18>
  20:	000300e7          	jalr	ra,0(t1)
  24:	00050793          	addi	a5,a0,0
  28:	00078593          	addi	a1,a5,0
  2c:	fe843503          	ld	a0,-24(s0)
  30:	00000317          	auipc	t1,0x0
  34:	00033303          	ld	t1,0(t1) # 30 <std::_Hashtable<dwarf::DW_TAG, dwarf::DW_TAG, std::allocator<dwarf::DW_TAG>, std::__detail::_Identity, std::equal_to<dwarf::DW_TAG>, std::hash<dwarf::DW_TAG>, std::__detail::_Mod_range_hashing, std::__detail::_Default_ranged_hash, std::__detail::_Prime_rehash_policy, std::__detail::_Hashtable_traits<true, true, true> >::clear()+0x30>
  38:	000300e7          	jalr	ra,0(t1)
  3c:	fe843783          	ld	a5,-24(s0)
  40:	0007b703          	ld	a4,0(a5)
  44:	fe843783          	ld	a5,-24(s0)
  48:	0087b783          	ld	a5,8(a5)
  4c:	00379793          	slli	a5,a5,0x3
  50:	00078613          	addi	a2,a5,0
  54:	00000593          	addi	a1,zero,0
  58:	00070513          	addi	a0,a4,0
  5c:	00000097          	auipc	ra,0x0
  60:	000080e7          	jalr	ra,0(ra) # 5c <std::_Hashtable<dwarf::DW_TAG, dwarf::DW_TAG, std::allocator<dwarf::DW_TAG>, std::__detail::_Identity, std::equal_to<dwarf::DW_TAG>, std::hash<dwarf::DW_TAG>, std::__detail::_Mod_range_hashing, std::__detail::_Default_ranged_hash, std::__detail::_Prime_rehash_policy, std::__detail::_Hashtable_traits<true, true, true> >::clear()+0x5c>
  64:	fe843783          	ld	a5,-24(s0)
  68:	0007bc23          	sd	zero,24(a5)
  6c:	fe843783          	ld	a5,-24(s0)
  70:	0007b823          	sd	zero,16(a5)
  74:	00000013          	addi	zero,zero,0
  78:	01813083          	ld	ra,24(sp)
  7c:	01013403          	ld	s0,16(sp)
  80:	02010113          	addi	sp,sp,32
  84:	00008067          	jalr	zero,0(ra)

Disassembly of section .text._ZNSt10_HashtableIN5dwarf6DW_TAGES1_SaIS1_ENSt8__detail9_IdentityESt8equal_toIS1_ESt4hashIS1_ENS3_18_Mod_range_hashingENS3_20_Default_ranged_hashENS3_20_Prime_rehash_policyENS3_17_Hashtable_traitsILb1ELb1ELb1EEEE21_M_deallocate_bucketsEv:

0000000000000000 <std::_Hashtable<dwarf::DW_TAG, dwarf::DW_TAG, std::allocator<dwarf::DW_TAG>, std::__detail::_Identity, std::equal_to<dwarf::DW_TAG>, std::hash<dwarf::DW_TAG>, std::__detail::_Mod_range_hashing, std::__detail::_Default_ranged_hash, std::__detail::_Prime_rehash_policy, std::__detail::_Hashtable_traits<true, true, true> >::_M_deallocate_buckets()>:
   0:	fe010113          	addi	sp,sp,-32
   4:	00113c23          	sd	ra,24(sp)
   8:	00813823          	sd	s0,16(sp)
   c:	02010413          	addi	s0,sp,32
  10:	fea43423          	sd	a0,-24(s0)
  14:	fe843783          	ld	a5,-24(s0)
  18:	0007b703          	ld	a4,0(a5)
  1c:	fe843783          	ld	a5,-24(s0)
  20:	0087b783          	ld	a5,8(a5)
  24:	00078613          	addi	a2,a5,0
  28:	00070593          	addi	a1,a4,0
  2c:	fe843503          	ld	a0,-24(s0)
  30:	00000317          	auipc	t1,0x0
  34:	00033303          	ld	t1,0(t1) # 30 <std::_Hashtable<dwarf::DW_TAG, dwarf::DW_TAG, std::allocator<dwarf::DW_TAG>, std::__detail::_Identity, std::equal_to<dwarf::DW_TAG>, std::hash<dwarf::DW_TAG>, std::__detail::_Mod_range_hashing, std::__detail::_Default_ranged_hash, std::__detail::_Prime_rehash_policy, std::__detail::_Hashtable_traits<true, true, true> >::_M_deallocate_buckets()+0x30>
  38:	000300e7          	jalr	ra,0(t1)
  3c:	00000013          	addi	zero,zero,0
  40:	01813083          	ld	ra,24(sp)
  44:	01013403          	ld	s0,16(sp)
  48:	02010113          	addi	sp,sp,32
  4c:	00008067          	jalr	zero,0(ra)

Disassembly of section .text._ZSt7forwardIRKN5dwarf3dieEEOT_RNSt16remove_referenceIS4_E4typeE:

0000000000000000 <dwarf::die const& std::forward<dwarf::die const&>(std::remove_reference<dwarf::die const&>::type&)>:
   0:	fe010113          	addi	sp,sp,-32
   4:	00813c23          	sd	s0,24(sp)
   8:	02010413          	addi	s0,sp,32
   c:	fea43423          	sd	a0,-24(s0)
  10:	fe843783          	ld	a5,-24(s0)
  14:	00078513          	addi	a0,a5,0
  18:	01813403          	ld	s0,24(sp)
  1c:	02010113          	addi	sp,sp,32
  20:	00008067          	jalr	zero,0(ra)

Disassembly of section .text._ZSt7forwardIRN5dwarf5DW_ATEEOT_RNSt16remove_referenceIS3_E4typeE:

0000000000000000 <dwarf::DW_AT& std::forward<dwarf::DW_AT&>(std::remove_reference<dwarf::DW_AT&>::type&)>:
   0:	fe010113          	addi	sp,sp,-32
   4:	00813c23          	sd	s0,24(sp)
   8:	02010413          	addi	s0,sp,32
   c:	fea43423          	sd	a0,-24(s0)
  10:	fe843783          	ld	a5,-24(s0)
  14:	00078513          	addi	a0,a5,0
  18:	01813403          	ld	s0,24(sp)
  1c:	02010113          	addi	sp,sp,32
  20:	00008067          	jalr	zero,0(ra)

Disassembly of section .text._ZSt7forwardIRKSt16initializer_listIN5dwarf6DW_TAGEEEOT_RNSt16remove_referenceIS6_E4typeE:

0000000000000000 <std::initializer_list<dwarf::DW_TAG> const& std::forward<std::initializer_list<dwarf::DW_TAG> const&>(std::remove_reference<std::initializer_list<dwarf::DW_TAG> const&>::type&)>:
   0:	fe010113          	addi	sp,sp,-32
   4:	00813c23          	sd	s0,24(sp)
   8:	02010413          	addi	s0,sp,32
   c:	fea43423          	sd	a0,-24(s0)
  10:	fe843783          	ld	a5,-24(s0)
  14:	00078513          	addi	a0,a5,0
  18:	01813403          	ld	s0,24(sp)
  1c:	02010113          	addi	sp,sp,32
  20:	00008067          	jalr	zero,0(ra)

Disassembly of section .text._ZNSt10shared_ptrIN5dwarf11die_str_map4implEEC2ISaIvEJRKNS0_3dieERNS0_5DW_ATERKSt16initializer_listINS0_6DW_TAGEEEEESt20_Sp_alloc_shared_tagIT_EDpOT0_:

0000000000000000 <std::shared_ptr<dwarf::die_str_map::impl>::shared_ptr<std::allocator<void>, dwarf::die const&, dwarf::DW_AT&, std::initializer_list<dwarf::DW_TAG> const&>(std::_Sp_alloc_shared_tag<std::allocator<void> >, dwarf::die const&, dwarf::DW_AT&, std::initializer_list<dwarf::DW_TAG> const&)>:
   0:	fa010113          	addi	sp,sp,-96
   4:	04113c23          	sd	ra,88(sp)
   8:	04813823          	sd	s0,80(sp)
   c:	04913423          	sd	s1,72(sp)
  10:	05213023          	sd	s2,64(sp)
  14:	03313c23          	sd	s3,56(sp)
  18:	06010413          	addi	s0,sp,96
  1c:	fca43423          	sd	a0,-56(s0)
  20:	fcb43023          	sd	a1,-64(s0)
  24:	fac43c23          	sd	a2,-72(s0)
  28:	fad43823          	sd	a3,-80(s0)
  2c:	fae43423          	sd	a4,-88(s0)
  30:	fc843483          	ld	s1,-56(s0)
  34:	fb843503          	ld	a0,-72(s0)
  38:	00000317          	auipc	t1,0x0
  3c:	00033303          	ld	t1,0(t1) # 38 <std::shared_ptr<dwarf::die_str_map::impl>::shared_ptr<std::allocator<void>, dwarf::die const&, dwarf::DW_AT&, std::initializer_list<dwarf::DW_TAG> const&>(std::_Sp_alloc_shared_tag<std::allocator<void> >, dwarf::die const&, dwarf::DW_AT&, std::initializer_list<dwarf::DW_TAG> const&)+0x38>
  40:	000300e7          	jalr	ra,0(t1)
  44:	00050913          	addi	s2,a0,0
  48:	fb043503          	ld	a0,-80(s0)
  4c:	00000317          	auipc	t1,0x0
  50:	00033303          	ld	t1,0(t1) # 4c <std::shared_ptr<dwarf::die_str_map::impl>::shared_ptr<std::allocator<void>, dwarf::die const&, dwarf::DW_AT&, std::initializer_list<dwarf::DW_TAG> const&>(std::_Sp_alloc_shared_tag<std::allocator<void> >, dwarf::die const&, dwarf::DW_AT&, std::initializer_list<dwarf::DW_TAG> const&)+0x4c>
  54:	000300e7          	jalr	ra,0(t1)
  58:	00050993          	addi	s3,a0,0
  5c:	fa843503          	ld	a0,-88(s0)
  60:	00000317          	auipc	t1,0x0
  64:	00033303          	ld	t1,0(t1) # 60 <std::shared_ptr<dwarf::die_str_map::impl>::shared_ptr<std::allocator<void>, dwarf::die const&, dwarf::DW_AT&, std::initializer_list<dwarf::DW_TAG> const&>(std::_Sp_alloc_shared_tag<std::allocator<void> >, dwarf::die const&, dwarf::DW_AT&, std::initializer_list<dwarf::DW_TAG> const&)+0x60>
  68:	000300e7          	jalr	ra,0(t1)
  6c:	00050793          	addi	a5,a0,0
  70:	00078713          	addi	a4,a5,0
  74:	00098693          	addi	a3,s3,0
  78:	00090613          	addi	a2,s2,0
  7c:	fc043583          	ld	a1,-64(s0)
  80:	00048513          	addi	a0,s1,0
  84:	00000317          	auipc	t1,0x0
  88:	00033303          	ld	t1,0(t1) # 84 <std::shared_ptr<dwarf::die_str_map::impl>::shared_ptr<std::allocator<void>, dwarf::die const&, dwarf::DW_AT&, std::initializer_list<dwarf::DW_TAG> const&>(std::_Sp_alloc_shared_tag<std::allocator<void> >, dwarf::die const&, dwarf::DW_AT&, std::initializer_list<dwarf::DW_TAG> const&)+0x84>
  8c:	000300e7          	jalr	ra,0(t1)
  90:	00000013          	addi	zero,zero,0
  94:	05813083          	ld	ra,88(sp)
  98:	05013403          	ld	s0,80(sp)
  9c:	04813483          	ld	s1,72(sp)
  a0:	04013903          	ld	s2,64(sp)
  a4:	03813983          	ld	s3,56(sp)
  a8:	06010113          	addi	sp,sp,96
  ac:	00008067          	jalr	zero,0(ra)

Disassembly of section .text._ZNKSt19__shared_ptr_accessIN5dwarf11die_str_map4implELN9__gnu_cxx12_Lock_policyE1ELb0ELb0EE6_M_getEv:

0000000000000000 <std::__shared_ptr_access<dwarf::die_str_map::impl, (__gnu_cxx::_Lock_policy)1, false, false>::_M_get() const>:
   0:	fe010113          	addi	sp,sp,-32
   4:	00113c23          	sd	ra,24(sp)
   8:	00813823          	sd	s0,16(sp)
   c:	02010413          	addi	s0,sp,32
  10:	fea43423          	sd	a0,-24(s0)
  14:	fe843503          	ld	a0,-24(s0)
  18:	00000317          	auipc	t1,0x0
  1c:	00033303          	ld	t1,0(t1) # 18 <std::__shared_ptr_access<dwarf::die_str_map::impl, (__gnu_cxx::_Lock_policy)1, false, false>::_M_get() const+0x18>
  20:	000300e7          	jalr	ra,0(t1)
  24:	00050793          	addi	a5,a0,0
  28:	00078513          	addi	a0,a5,0
  2c:	01813083          	ld	ra,24(sp)
  30:	01013403          	ld	s0,16(sp)
  34:	02010113          	addi	sp,sp,32
  38:	00008067          	jalr	zero,0(ra)

Disassembly of section .text._ZNSt10_HashtableIPKcSt4pairIKS1_N5dwarf3dieEESaIS6_ENSt8__detail10_Select1stENS4_9string_eqENS4_11string_hashENS8_18_Mod_range_hashingENS8_20_Default_ranged_hashENS8_20_Prime_rehash_policyENS8_17_Hashtable_traitsILb1ELb0ELb1EEEE4findERS3_:

0000000000000000 <std::_Hashtable<char const*, std::pair<char const* const, dwarf::die>, std::allocator<std::pair<char const* const, dwarf::die> >, std::__detail::_Select1st, dwarf::string_eq, dwarf::string_hash, std::__detail::_Mod_range_hashing, std::__detail::_Default_ranged_hash, std::__detail::_Prime_rehash_policy, std::__detail::_Hashtable_traits<true, false, true> >::find(char const* const&)>:
   0:	fa010113          	addi	sp,sp,-96
   4:	04113c23          	sd	ra,88(sp)
   8:	04813823          	sd	s0,80(sp)
   c:	04913423          	sd	s1,72(sp)
  10:	06010413          	addi	s0,sp,96
  14:	faa43423          	sd	a0,-88(s0)
  18:	fab43023          	sd	a1,-96(s0)
  1c:	fa843503          	ld	a0,-88(s0)
  20:	00000317          	auipc	t1,0x0
  24:	00033303          	ld	t1,0(t1) # 20 <std::_Hashtable<char const*, std::pair<char const* const, dwarf::die>, std::allocator<std::pair<char const* const, dwarf::die> >, std::__detail::_Select1st, dwarf::string_eq, dwarf::string_hash, std::__detail::_Mod_range_hashing, std::__detail::_Default_ranged_hash, std::__detail::_Prime_rehash_policy, std::__detail::_Hashtable_traits<true, false, true> >::find(char const* const&)+0x20>
  28:	000300e7          	jalr	ra,0(t1)
  2c:	00050493          	addi	s1,a0,0
  30:	00000317          	auipc	t1,0x0
  34:	00033303          	ld	t1,0(t1) # 30 <std::_Hashtable<char const*, std::pair<char const* const, dwarf::die>, std::allocator<std::pair<char const* const, dwarf::die> >, std::__detail::_Select1st, dwarf::string_eq, dwarf::string_hash, std::__detail::_Mod_range_hashing, std::__detail::_Default_ranged_hash, std::__detail::_Prime_rehash_policy, std::__detail::_Hashtable_traits<true, false, true> >::find(char const* const&)+0x30>
  38:	000300e7          	jalr	ra,0(t1)
  3c:	00050793          	addi	a5,a0,0
  40:	0097b7b3          	sltu	a5,a5,s1
  44:	0017c793          	xori	a5,a5,1
  48:	0ff7f793          	andi	a5,a5,255
  4c:	0a078c63          	beq	a5,zero,104 <.L159>
  50:	fa843503          	ld	a0,-88(s0)
  54:	00000317          	auipc	t1,0x0
  58:	00033303          	ld	t1,0(t1) # 54 <std::_Hashtable<char const*, std::pair<char const* const, dwarf::die>, std::allocator<std::pair<char const* const, dwarf::die> >, std::__detail::_Select1st, dwarf::string_eq, dwarf::string_hash, std::__detail::_Mod_range_hashing, std::__detail::_Default_ranged_hash, std::__detail::_Prime_rehash_policy, std::__detail::_Hashtable_traits<true, false, true> >::find(char const* const&)+0x54>
  5c:	000300e7          	jalr	ra,0(t1)
  60:	00050793          	addi	a5,a0,0
  64:	faf43c23          	sd	a5,-72(s0)
  68:	0480006f          	jal	zero,b0 <.L160>

000000000000006c <.L163>:
  6c:	fb843783          	ld	a5,-72(s0)
  70:	00878793          	addi	a5,a5,8
  74:	00078613          	addi	a2,a5,0
  78:	fa043583          	ld	a1,-96(s0)
  7c:	fa843503          	ld	a0,-88(s0)
  80:	00000317          	auipc	t1,0x0
  84:	00033303          	ld	t1,0(t1) # 80 <.L163+0x14>
  88:	000300e7          	jalr	ra,0(t1)
  8c:	00050793          	addi	a5,a0,0
  90:	00078663          	beq	a5,zero,9c <.L161>
  94:	fb843783          	ld	a5,-72(s0)
  98:	0e00006f          	jal	zero,178 <.L162>

000000000000009c <.L161>:
  9c:	fb840793          	addi	a5,s0,-72
  a0:	00078513          	addi	a0,a5,0
  a4:	00000317          	auipc	t1,0x0
  a8:	00033303          	ld	t1,0(t1) # a4 <.L161+0x8>
  ac:	000300e7          	jalr	ra,0(t1)

00000000000000b0 <.L160>:
  b0:	fa843503          	ld	a0,-88(s0)
  b4:	00000317          	auipc	t1,0x0
  b8:	00033303          	ld	t1,0(t1) # b4 <.L160+0x4>
  bc:	000300e7          	jalr	ra,0(t1)
  c0:	00050793          	addi	a5,a0,0
  c4:	fcf43023          	sd	a5,-64(s0)
  c8:	fc040713          	addi	a4,s0,-64
  cc:	fb840793          	addi	a5,s0,-72
  d0:	00070593          	addi	a1,a4,0
  d4:	00078513          	addi	a0,a5,0
  d8:	00000317          	auipc	t1,0x0
  dc:	00033303          	ld	t1,0(t1) # d8 <.L160+0x28>
  e0:	000300e7          	jalr	ra,0(t1)
  e4:	00050793          	addi	a5,a0,0
  e8:	f80792e3          	bne	a5,zero,6c <.L163>
  ec:	fa843503          	ld	a0,-88(s0)
  f0:	00000317          	auipc	t1,0x0
  f4:	00033303          	ld	t1,0(t1) # f0 <.L160+0x40>
  f8:	000300e7          	jalr	ra,0(t1)
  fc:	00050793          	addi	a5,a0,0
 100:	0780006f          	jal	zero,178 <.L162>

0000000000000104 <.L159>:
 104:	fa043583          	ld	a1,-96(s0)
 108:	fa843503          	ld	a0,-88(s0)
 10c:	00000317          	auipc	t1,0x0
 110:	00033303          	ld	t1,0(t1) # 10c <.L159+0x8>
 114:	000300e7          	jalr	ra,0(t1)
 118:	00050793          	addi	a5,a0,0
 11c:	fcf43c23          	sd	a5,-40(s0)
 120:	fd843583          	ld	a1,-40(s0)
 124:	fa843503          	ld	a0,-88(s0)
 128:	00000317          	auipc	t1,0x0
 12c:	00033303          	ld	t1,0(t1) # 128 <.L159+0x24>
 130:	000300e7          	jalr	ra,0(t1)
 134:	00050793          	addi	a5,a0,0
 138:	fcf43823          	sd	a5,-48(s0)
 13c:	fd843683          	ld	a3,-40(s0)
 140:	fa043603          	ld	a2,-96(s0)
 144:	fd043583          	ld	a1,-48(s0)
 148:	fa843503          	ld	a0,-88(s0)
 14c:	00000317          	auipc	t1,0x0
 150:	00033303          	ld	t1,0(t1) # 14c <.L159+0x48>
 154:	000300e7          	jalr	ra,0(t1)
 158:	00050713          	addi	a4,a0,0
 15c:	fc840793          	addi	a5,s0,-56
 160:	00070593          	addi	a1,a4,0
 164:	00078513          	addi	a0,a5,0
 168:	00000317          	auipc	t1,0x0
 16c:	00033303          	ld	t1,0(t1) # 168 <.L159+0x64>
 170:	000300e7          	jalr	ra,0(t1)
 174:	fc843783          	ld	a5,-56(s0)

0000000000000178 <.L162>:
 178:	00078513          	addi	a0,a5,0
 17c:	05813083          	ld	ra,88(sp)
 180:	05013403          	ld	s0,80(sp)
 184:	04813483          	ld	s1,72(sp)
 188:	06010113          	addi	sp,sp,96
 18c:	00008067          	jalr	zero,0(ra)

Disassembly of section .text._ZNSt10_HashtableIPKcSt4pairIKS1_N5dwarf3dieEESaIS6_ENSt8__detail10_Select1stENS4_9string_eqENS4_11string_hashENS8_18_Mod_range_hashingENS8_20_Default_ranged_hashENS8_20_Prime_rehash_policyENS8_17_Hashtable_traitsILb1ELb0ELb1EEEE3endEv:

0000000000000000 <std::_Hashtable<char const*, std::pair<char const* const, dwarf::die>, std::allocator<std::pair<char const* const, dwarf::die> >, std::__detail::_Select1st, dwarf::string_eq, dwarf::string_hash, std::__detail::_Mod_range_hashing, std::__detail::_Default_ranged_hash, std::__detail::_Prime_rehash_policy, std::__detail::_Hashtable_traits<true, false, true> >::end()>:
   0:	fd010113          	addi	sp,sp,-48
   4:	02113423          	sd	ra,40(sp)
   8:	02813023          	sd	s0,32(sp)
   c:	03010413          	addi	s0,sp,48
  10:	fca43c23          	sd	a0,-40(s0)
  14:	fe840793          	addi	a5,s0,-24
  18:	00000593          	addi	a1,zero,0
  1c:	00078513          	addi	a0,a5,0
  20:	00000317          	auipc	t1,0x0
  24:	00033303          	ld	t1,0(t1) # 20 <std::_Hashtable<char const*, std::pair<char const* const, dwarf::die>, std::allocator<std::pair<char const* const, dwarf::die> >, std::__detail::_Select1st, dwarf::string_eq, dwarf::string_hash, std::__detail::_Mod_range_hashing, std::__detail::_Default_ranged_hash, std::__detail::_Prime_rehash_policy, std::__detail::_Hashtable_traits<true, false, true> >::end()+0x20>
  28:	000300e7          	jalr	ra,0(t1)
  2c:	fe843783          	ld	a5,-24(s0)
  30:	00078513          	addi	a0,a5,0
  34:	02813083          	ld	ra,40(sp)
  38:	02013403          	ld	s0,32(sp)
  3c:	03010113          	addi	sp,sp,48
  40:	00008067          	jalr	zero,0(ra)

Disassembly of section .text._ZNSt8__detail21_Hash_node_value_baseISt4pairIKPKcN5dwarf3dieEEE9_M_valptrEv:

0000000000000000 <std::__detail::_Hash_node_value_base<std::pair<char const* const, dwarf::die> >::_M_valptr()>:
   0:	fe010113          	addi	sp,sp,-32
   4:	00113c23          	sd	ra,24(sp)
   8:	00813823          	sd	s0,16(sp)
   c:	02010413          	addi	s0,sp,32
  10:	fea43423          	sd	a0,-24(s0)
  14:	fe843783          	ld	a5,-24(s0)
  18:	00078513          	addi	a0,a5,0
  1c:	00000317          	auipc	t1,0x0
  20:	00033303          	ld	t1,0(t1) # 1c <std::__detail::_Hash_node_value_base<std::pair<char const* const, dwarf::die> >::_M_valptr()+0x1c>
  24:	000300e7          	jalr	ra,0(t1)
  28:	00050793          	addi	a5,a0,0
  2c:	00078513          	addi	a0,a5,0
  30:	01813083          	ld	ra,24(sp)
  34:	01013403          	ld	s0,16(sp)
  38:	02010113          	addi	sp,sp,32
  3c:	00008067          	jalr	zero,0(ra)

Disassembly of section .text._ZNKSt10_HashtableIN5dwarf6DW_TAGES1_SaIS1_ENSt8__detail9_IdentityESt8equal_toIS1_ESt4hashIS1_ENS3_18_Mod_range_hashingENS3_20_Default_ranged_hashENS3_20_Prime_rehash_policyENS3_17_Hashtable_traitsILb1ELb1ELb1EEEE5countERKS1_:

0000000000000000 <std::_Hashtable<dwarf::DW_TAG, dwarf::DW_TAG, std::allocator<dwarf::DW_TAG>, std::__detail::_Identity, std::equal_to<dwarf::DW_TAG>, std::hash<dwarf::DW_TAG>, std::__detail::_Mod_range_hashing, std::__detail::_Default_ranged_hash, std::__detail::_Prime_rehash_policy, std::__detail::_Hashtable_traits<true, true, true> >::count(dwarf::DW_TAG const&) const>:
   0:	fd010113          	addi	sp,sp,-48
   4:	02113423          	sd	ra,40(sp)
   8:	02813023          	sd	s0,32(sp)
   c:	03010413          	addi	s0,sp,48
  10:	fca43c23          	sd	a0,-40(s0)
  14:	fcb43823          	sd	a1,-48(s0)
  18:	fd043583          	ld	a1,-48(s0)
  1c:	fd843503          	ld	a0,-40(s0)
  20:	00000317          	auipc	t1,0x0
  24:	00033303          	ld	t1,0(t1) # 20 <std::_Hashtable<dwarf::DW_TAG, dwarf::DW_TAG, std::allocator<dwarf::DW_TAG>, std::__detail::_Identity, std::equal_to<dwarf::DW_TAG>, std::hash<dwarf::DW_TAG>, std::__detail::_Mod_range_hashing, std::__detail::_Default_ranged_hash, std::__detail::_Prime_rehash_policy, std::__detail::_Hashtable_traits<true, true, true> >::count(dwarf::DW_TAG const&) const+0x20>
  28:	000300e7          	jalr	ra,0(t1)
  2c:	00050793          	addi	a5,a0,0
  30:	fef43423          	sd	a5,-24(s0)
  34:	fe843783          	ld	a5,-24(s0)
  38:	00079663          	bne	a5,zero,44 <.L169>
  3c:	00000793          	addi	a5,zero,0
  40:	0080006f          	jal	zero,48 <.L171>

0000000000000044 <.L169>:
  44:	00100793          	addi	a5,zero,1

0000000000000048 <.L171>:
  48:	00078513          	addi	a0,a5,0
  4c:	02813083          	ld	ra,40(sp)
  50:	02013403          	ld	s0,32(sp)
  54:	03010113          	addi	sp,sp,48
  58:	00008067          	jalr	zero,0(ra)

Disassembly of section .text._ZNSt8__detail9_Map_baseIPKcSt4pairIKS2_N5dwarf3dieEESaIS7_ENS_10_Select1stENS5_9string_eqENS5_11string_hashENS_18_Mod_range_hashingENS_20_Default_ranged_hashENS_20_Prime_rehash_policyENS_17_Hashtable_traitsILb1ELb0ELb1EEELb1EEixERS4_:

0000000000000000 <std::__detail::_Map_base<char const*, std::pair<char const* const, dwarf::die>, std::allocator<std::pair<char const* const, dwarf::die> >, std::__detail::_Select1st, dwarf::string_eq, dwarf::string_hash, std::__detail::_Mod_range_hashing, std::__detail::_Default_ranged_hash, std::__detail::_Prime_rehash_policy, std::__detail::_Hashtable_traits<true, false, true>, true>::operator[](char const* const&)>:
   0:	f8010113          	addi	sp,sp,-128
   4:	06113c23          	sd	ra,120(sp)
   8:	06813823          	sd	s0,112(sp)
   c:	06913423          	sd	s1,104(sp)
  10:	08010413          	addi	s0,sp,128
  14:	f8a43423          	sd	a0,-120(s0)
  18:	f8b43023          	sd	a1,-128(s0)
  1c:	f8843783          	ld	a5,-120(s0)
  20:	fcf43c23          	sd	a5,-40(s0)
  24:	f8043583          	ld	a1,-128(s0)
  28:	fd843503          	ld	a0,-40(s0)
  2c:	00000317          	auipc	t1,0x0
  30:	00033303          	ld	t1,0(t1) # 2c <std::__detail::_Map_base<char const*, std::pair<char const* const, dwarf::die>, std::allocator<std::pair<char const* const, dwarf::die> >, std::__detail::_Select1st, dwarf::string_eq, dwarf::string_hash, std::__detail::_Mod_range_hashing, std::__detail::_Default_ranged_hash, std::__detail::_Prime_rehash_policy, std::__detail::_Hashtable_traits<true, false, true>, true>::operator[](char const* const&)+0x2c>

0000000000000034 <.LEHB3>:
  34:	000300e7          	jalr	ra,0(t1)
  38:	00050793          	addi	a5,a0,0
  3c:	fcf43823          	sd	a5,-48(s0)
  40:	fd043583          	ld	a1,-48(s0)
  44:	fd843503          	ld	a0,-40(s0)
  48:	00000317          	auipc	t1,0x0
  4c:	00033303          	ld	t1,0(t1) # 48 <.LEHB3+0x14>
  50:	000300e7          	jalr	ra,0(t1)
  54:	00050793          	addi	a5,a0,0
  58:	fcf43423          	sd	a5,-56(s0)
  5c:	fd043683          	ld	a3,-48(s0)
  60:	f8043603          	ld	a2,-128(s0)
  64:	fc843583          	ld	a1,-56(s0)
  68:	fd843503          	ld	a0,-40(s0)
  6c:	00000317          	auipc	t1,0x0
  70:	00033303          	ld	t1,0(t1) # 6c <.LEHB3+0x38>
  74:	000300e7          	jalr	ra,0(t1)
  78:	00050793          	addi	a5,a0,0
  7c:	fcf43023          	sd	a5,-64(s0)
  80:	fc043783          	ld	a5,-64(s0)
  84:	02078463          	beq	a5,zero,ac <.L173>
  88:	fc043783          	ld	a5,-64(s0)
  8c:	00878793          	addi	a5,a5,8
  90:	00078513          	addi	a0,a5,0
  94:	00000317          	auipc	t1,0x0
  98:	00033303          	ld	t1,0(t1) # 94 <.LEHB3+0x60>
  9c:	000300e7          	jalr	ra,0(t1)
  a0:	00050793          	addi	a5,a0,0
  a4:	00878493          	addi	s1,a5,8
  a8:	0a80006f          	jal	zero,150 <.L175>

00000000000000ac <.L173>:
  ac:	fd843483          	ld	s1,-40(s0)
  b0:	fb040793          	addi	a5,s0,-80
  b4:	f8043583          	ld	a1,-128(s0)
  b8:	00078513          	addi	a0,a5,0
  bc:	00000317          	auipc	t1,0x0
  c0:	00033303          	ld	t1,0(t1) # bc <.L173+0x10>
  c4:	000300e7          	jalr	ra,0(t1)
  c8:	fb840713          	addi	a4,s0,-72
  cc:	fb040693          	addi	a3,s0,-80
  d0:	fa040793          	addi	a5,s0,-96
  d4:	00000617          	auipc	a2,0x0
  d8:	00060613          	addi	a2,a2,0 # d4 <.L173+0x28>
  dc:	00048593          	addi	a1,s1,0
  e0:	00078513          	addi	a0,a5,0
  e4:	00000317          	auipc	t1,0x0
  e8:	00033303          	ld	t1,0(t1) # e4 <.L173+0x38>
  ec:	000300e7          	jalr	ra,0(t1)

00000000000000f0 <.LEHE3>:
  f0:	fa843783          	ld	a5,-88(s0)
  f4:	00100713          	addi	a4,zero,1
  f8:	00078693          	addi	a3,a5,0
  fc:	fd043603          	ld	a2,-48(s0)
 100:	fc843583          	ld	a1,-56(s0)
 104:	fd843503          	ld	a0,-40(s0)
 108:	00000317          	auipc	t1,0x0
 10c:	00033303          	ld	t1,0(t1) # 108 <.LEHE3+0x18>

0000000000000110 <.LEHB4>:
 110:	000300e7          	jalr	ra,0(t1)

0000000000000114 <.LEHE4>:
 114:	00050793          	addi	a5,a0,0
 118:	f8f43c23          	sd	a5,-104(s0)
 11c:	fa043423          	sd	zero,-88(s0)
 120:	f9840793          	addi	a5,s0,-104
 124:	00078513          	addi	a0,a5,0
 128:	00000317          	auipc	t1,0x0
 12c:	00033303          	ld	t1,0(t1) # 128 <.LEHE4+0x14>
 130:	000300e7          	jalr	ra,0(t1)
 134:	00050793          	addi	a5,a0,0
 138:	00878493          	addi	s1,a5,8
 13c:	fa040793          	addi	a5,s0,-96
 140:	00078513          	addi	a0,a5,0
 144:	00000317          	auipc	t1,0x0
 148:	00033303          	ld	t1,0(t1) # 144 <.LEHE4+0x30>
 14c:	000300e7          	jalr	ra,0(t1)

0000000000000150 <.L175>:
 150:	00048793          	addi	a5,s1,0
 154:	02c0006f          	jal	zero,180 <.L178>

0000000000000158 <.L177>:
 158:	00050493          	addi	s1,a0,0
 15c:	fa040793          	addi	a5,s0,-96
 160:	00078513          	addi	a0,a5,0
 164:	00000317          	auipc	t1,0x0
 168:	00033303          	ld	t1,0(t1) # 164 <.L177+0xc>
 16c:	000300e7          	jalr	ra,0(t1)
 170:	00048793          	addi	a5,s1,0
 174:	00078513          	addi	a0,a5,0

0000000000000178 <.LEHB5>:
 178:	00000097          	auipc	ra,0x0
 17c:	000080e7          	jalr	ra,0(ra) # 178 <.LEHB5>

0000000000000180 <.L178>:
 180:	00078513          	addi	a0,a5,0
 184:	07813083          	ld	ra,120(sp)
 188:	07013403          	ld	s0,112(sp)
 18c:	06813483          	ld	s1,104(sp)
 190:	08010113          	addi	sp,sp,128
 194:	00008067          	jalr	zero,0(ra)

Disassembly of section .text._ZNK5dwarf12small_vectorImLj6EE4sizeEv:

0000000000000000 <dwarf::small_vector<unsigned long, 6u>::size() const>:
   0:	fe010113          	addi	sp,sp,-32
   4:	00813c23          	sd	s0,24(sp)
   8:	02010413          	addi	s0,sp,32
   c:	fea43423          	sd	a0,-24(s0)
  10:	fe843783          	ld	a5,-24(s0)
  14:	0387b703          	ld	a4,56(a5)
  18:	fe843783          	ld	a5,-24(s0)
  1c:	0307b783          	ld	a5,48(a5)
  20:	40f707b3          	sub	a5,a4,a5
  24:	4037d793          	srai	a5,a5,0x3
  28:	00078513          	addi	a0,a5,0
  2c:	01813403          	ld	s0,24(sp)
  30:	02010113          	addi	sp,sp,32
  34:	00008067          	jalr	zero,0(ra)

Disassembly of section .text._ZN5dwarf12small_vectorImLj6EE7reserveEm:

0000000000000000 <dwarf::small_vector<unsigned long, 6u>::reserve(unsigned long)>:
   0:	fc010113          	addi	sp,sp,-64
   4:	02113c23          	sd	ra,56(sp)
   8:	02813823          	sd	s0,48(sp)
   c:	04010413          	addi	s0,sp,64
  10:	fca43423          	sd	a0,-56(s0)
  14:	fcb43023          	sd	a1,-64(s0)
  18:	fc843783          	ld	a5,-56(s0)
  1c:	0407b703          	ld	a4,64(a5)
  20:	fc843783          	ld	a5,-56(s0)
  24:	0307b783          	ld	a5,48(a5)
  28:	40f707b3          	sub	a5,a4,a5
  2c:	4037d793          	srai	a5,a5,0x3
  30:	00078713          	addi	a4,a5,0
  34:	fc043783          	ld	a5,-64(s0)
  38:	12f77c63          	bgeu	a4,a5,170 <.L190>
  3c:	fc843783          	ld	a5,-56(s0)
  40:	0407b703          	ld	a4,64(a5)
  44:	fc843783          	ld	a5,-56(s0)
  48:	0307b783          	ld	a5,48(a5)
  4c:	40f707b3          	sub	a5,a4,a5
  50:	4037d793          	srai	a5,a5,0x3
  54:	fef43423          	sd	a5,-24(s0)
  58:	fe843783          	ld	a5,-24(s0)
  5c:	00079e63          	bne	a5,zero,78 <.L185>
  60:	00100793          	addi	a5,zero,1
  64:	fef43423          	sd	a5,-24(s0)
  68:	0100006f          	jal	zero,78 <.L185>

000000000000006c <.L186>:
  6c:	fe843783          	ld	a5,-24(s0)
  70:	00179793          	slli	a5,a5,0x1
  74:	fef43423          	sd	a5,-24(s0)

0000000000000078 <.L185>:
  78:	fe843703          	ld	a4,-24(s0)
  7c:	fc043783          	ld	a5,-64(s0)
  80:	fef766e3          	bltu	a4,a5,6c <.L186>
  84:	fe843783          	ld	a5,-24(s0)
  88:	00379793          	slli	a5,a5,0x3
  8c:	00078513          	addi	a0,a5,0
  90:	00000097          	auipc	ra,0x0
  94:	000080e7          	jalr	ra,0(ra) # 90 <.L185+0x18>
  98:	00050793          	addi	a5,a0,0
  9c:	fcf43823          	sd	a5,-48(s0)
  a0:	fc843783          	ld	a5,-56(s0)
  a4:	0307b783          	ld	a5,48(a5)
  a8:	fef43023          	sd	a5,-32(s0)
  ac:	fd043783          	ld	a5,-48(s0)
  b0:	fcf43c23          	sd	a5,-40(s0)
  b4:	0440006f          	jal	zero,f8 <.L187>

00000000000000b8 <.L188>:
  b8:	fd843783          	ld	a5,-40(s0)
  bc:	00078593          	addi	a1,a5,0
  c0:	00800513          	addi	a0,zero,8
  c4:	00000317          	auipc	t1,0x0
  c8:	00033303          	ld	t1,0(t1) # c4 <.L188+0xc>
  cc:	000300e7          	jalr	ra,0(t1)
  d0:	00050713          	addi	a4,a0,0
  d4:	fe043783          	ld	a5,-32(s0)
  d8:	0007b783          	ld	a5,0(a5)
  dc:	00f73023          	sd	a5,0(a4)
  e0:	fe043783          	ld	a5,-32(s0)
  e4:	00878793          	addi	a5,a5,8
  e8:	fef43023          	sd	a5,-32(s0)
  ec:	fd843783          	ld	a5,-40(s0)
  f0:	00878793          	addi	a5,a5,8
  f4:	fcf43c23          	sd	a5,-40(s0)

00000000000000f8 <.L187>:
  f8:	fc843783          	ld	a5,-56(s0)
  fc:	0387b783          	ld	a5,56(a5)
 100:	fe043703          	ld	a4,-32(s0)
 104:	faf76ae3          	bltu	a4,a5,b8 <.L188>
 108:	fc843783          	ld	a5,-56(s0)
 10c:	0307b703          	ld	a4,48(a5)
 110:	fc843783          	ld	a5,-56(s0)
 114:	02f70263          	beq	a4,a5,138 <.L189>
 118:	fc843783          	ld	a5,-56(s0)
 11c:	0307b783          	ld	a5,48(a5)
 120:	00078c63          	beq	a5,zero,138 <.L189>
 124:	fc843783          	ld	a5,-56(s0)
 128:	0307b783          	ld	a5,48(a5)
 12c:	00078513          	addi	a0,a5,0
 130:	00000097          	auipc	ra,0x0
 134:	000080e7          	jalr	ra,0(ra) # 130 <.L187+0x38>

0000000000000138 <.L189>:
 138:	fc843783          	ld	a5,-56(s0)
 13c:	fd043703          	ld	a4,-48(s0)
 140:	02e7b823          	sd	a4,48(a5)
 144:	fc843783          	ld	a5,-56(s0)
 148:	fd843703          	ld	a4,-40(s0)
 14c:	02e7bc23          	sd	a4,56(a5)
 150:	fc843783          	ld	a5,-56(s0)
 154:	0307b703          	ld	a4,48(a5)
 158:	fe843783          	ld	a5,-24(s0)
 15c:	00379793          	slli	a5,a5,0x3
 160:	00f70733          	add	a4,a4,a5
 164:	fc843783          	ld	a5,-56(s0)
 168:	04e7b023          	sd	a4,64(a5)
 16c:	0080006f          	jal	zero,174 <.L181>

0000000000000170 <.L190>:
 170:	00000013          	addi	zero,zero,0

0000000000000174 <.L181>:
 174:	03813083          	ld	ra,56(sp)
 178:	03013403          	ld	s0,48(sp)
 17c:	04010113          	addi	sp,sp,64
 180:	00008067          	jalr	zero,0(ra)

Disassembly of section .text._ZNK5dwarf12small_vectorImLj6EEixEm:

0000000000000000 <dwarf::small_vector<unsigned long, 6u>::operator[](unsigned long) const>:
   0:	fe010113          	addi	sp,sp,-32
   4:	00813c23          	sd	s0,24(sp)
   8:	02010413          	addi	s0,sp,32
   c:	fea43423          	sd	a0,-24(s0)
  10:	feb43023          	sd	a1,-32(s0)
  14:	fe843783          	ld	a5,-24(s0)
  18:	0307b703          	ld	a4,48(a5)
  1c:	fe043783          	ld	a5,-32(s0)
  20:	00379793          	slli	a5,a5,0x3
  24:	00f707b3          	add	a5,a4,a5
  28:	00078513          	addi	a0,a5,0
  2c:	01813403          	ld	s0,24(sp)
  30:	02010113          	addi	sp,sp,32
  34:	00008067          	jalr	zero,0(ra)

Disassembly of section .text._ZNSt16_Sp_counted_baseILN9__gnu_cxx12_Lock_policyE1EED2Ev:

0000000000000000 <std::_Sp_counted_base<(__gnu_cxx::_Lock_policy)1>::~_Sp_counted_base()>:
   0:	fe010113          	addi	sp,sp,-32
   4:	00813c23          	sd	s0,24(sp)
   8:	02010413          	addi	s0,sp,32
   c:	fea43423          	sd	a0,-24(s0)
  10:	00000797          	auipc	a5,0x0
  14:	0007b783          	ld	a5,0(a5) # 10 <std::_Sp_counted_base<(__gnu_cxx::_Lock_policy)1>::~_Sp_counted_base()+0x10>
  18:	01078713          	addi	a4,a5,16
  1c:	fe843783          	ld	a5,-24(s0)
  20:	00e7b023          	sd	a4,0(a5)
  24:	00000013          	addi	zero,zero,0
  28:	01813403          	ld	s0,24(sp)
  2c:	02010113          	addi	sp,sp,32
  30:	00008067          	jalr	zero,0(ra)

Disassembly of section .text._ZNSt16_Sp_counted_baseILN9__gnu_cxx12_Lock_policyE1EED0Ev:

0000000000000000 <std::_Sp_counted_base<(__gnu_cxx::_Lock_policy)1>::~_Sp_counted_base()>:
   0:	fe010113          	addi	sp,sp,-32
   4:	00113c23          	sd	ra,24(sp)
   8:	00813823          	sd	s0,16(sp)
   c:	02010413          	addi	s0,sp,32
  10:	fea43423          	sd	a0,-24(s0)
  14:	fe843503          	ld	a0,-24(s0)
  18:	00000317          	auipc	t1,0x0
  1c:	00033303          	ld	t1,0(t1) # 18 <std::_Sp_counted_base<(__gnu_cxx::_Lock_policy)1>::~_Sp_counted_base()+0x18>
  20:	000300e7          	jalr	ra,0(t1)
  24:	fe843503          	ld	a0,-24(s0)
  28:	00000097          	auipc	ra,0x0
  2c:	000080e7          	jalr	ra,0(ra) # 28 <std::_Sp_counted_base<(__gnu_cxx::_Lock_policy)1>::~_Sp_counted_base()+0x28>
  30:	01813083          	ld	ra,24(sp)
  34:	01013403          	ld	s0,16(sp)
  38:	02010113          	addi	sp,sp,32
  3c:	00008067          	jalr	zero,0(ra)

Disassembly of section .text._ZNSt15__new_allocatorINSt8__detail10_Hash_nodeISt4pairIKPKcN5dwarf3dieEELb1EEEEC2Ev:

0000000000000000 <std::__new_allocator<std::__detail::_Hash_node<std::pair<char const* const, dwarf::die>, true> >::__new_allocator()>:
   0:	fe010113          	addi	sp,sp,-32
   4:	00813c23          	sd	s0,24(sp)
   8:	02010413          	addi	s0,sp,32
   c:	fea43423          	sd	a0,-24(s0)
  10:	00000013          	addi	zero,zero,0
  14:	01813403          	ld	s0,24(sp)
  18:	02010113          	addi	sp,sp,32
  1c:	00008067          	jalr	zero,0(ra)

Disassembly of section .text._ZNKSt10_HashtableIPKcSt4pairIKS1_N5dwarf3dieEESaIS6_ENSt8__detail10_Select1stENS4_9string_eqENS4_11string_hashENS8_18_Mod_range_hashingENS8_20_Default_ranged_hashENS8_20_Prime_rehash_policyENS8_17_Hashtable_traitsILb1ELb0ELb1EEEE8_M_beginEv:

0000000000000000 <std::_Hashtable<char const*, std::pair<char const* const, dwarf::die>, std::allocator<std::pair<char const* const, dwarf::die> >, std::__detail::_Select1st, dwarf::string_eq, dwarf::string_hash, std::__detail::_Mod_range_hashing, std::__detail::_Default_ranged_hash, std::__detail::_Prime_rehash_policy, std::__detail::_Hashtable_traits<true, false, true> >::_M_begin() const>:
   0:	fe010113          	addi	sp,sp,-32
   4:	00813c23          	sd	s0,24(sp)
   8:	02010413          	addi	s0,sp,32
   c:	fea43423          	sd	a0,-24(s0)
  10:	fe843783          	ld	a5,-24(s0)
  14:	0107b783          	ld	a5,16(a5)
  18:	00078513          	addi	a0,a5,0
  1c:	01813403          	ld	s0,24(sp)
  20:	02010113          	addi	sp,sp,32
  24:	00008067          	jalr	zero,0(ra)

Disassembly of section .text._ZNSt8__detail16_Hashtable_allocISaINS_10_Hash_nodeISt4pairIKPKcN5dwarf3dieEELb1EEEEE19_M_deallocate_nodesEPS9_:

0000000000000000 <std::__detail::_Hashtable_alloc<std::allocator<std::__detail::_Hash_node<std::pair<char const* const, dwarf::die>, true> > >::_M_deallocate_nodes(std::__detail::_Hash_node<std::pair<char const* const, dwarf::die>, true>*)>:
   0:	fd010113          	addi	sp,sp,-48
   4:	02113423          	sd	ra,40(sp)
   8:	02813023          	sd	s0,32(sp)
   c:	03010413          	addi	s0,sp,48
  10:	fca43c23          	sd	a0,-40(s0)
  14:	fcb43823          	sd	a1,-48(s0)
  18:	0340006f          	jal	zero,4c <.L199>

000000000000001c <.L200>:
  1c:	fd043783          	ld	a5,-48(s0)
  20:	fef43423          	sd	a5,-24(s0)
  24:	fd043503          	ld	a0,-48(s0)
  28:	00000317          	auipc	t1,0x0
  2c:	00033303          	ld	t1,0(t1) # 28 <.L200+0xc>
  30:	000300e7          	jalr	ra,0(t1)
  34:	fca43823          	sd	a0,-48(s0)
  38:	fe843583          	ld	a1,-24(s0)
  3c:	fd843503          	ld	a0,-40(s0)
  40:	00000317          	auipc	t1,0x0
  44:	00033303          	ld	t1,0(t1) # 40 <.L200+0x24>
  48:	000300e7          	jalr	ra,0(t1)

000000000000004c <.L199>:
  4c:	fd043783          	ld	a5,-48(s0)
  50:	fc0796e3          	bne	a5,zero,1c <.L200>
  54:	00000013          	addi	zero,zero,0
  58:	00000013          	addi	zero,zero,0
  5c:	02813083          	ld	ra,40(sp)
  60:	02013403          	ld	s0,32(sp)
  64:	03010113          	addi	sp,sp,48
  68:	00008067          	jalr	zero,0(ra)

Disassembly of section .text._ZNSt10_HashtableIPKcSt4pairIKS1_N5dwarf3dieEESaIS6_ENSt8__detail10_Select1stENS4_9string_eqENS4_11string_hashENS8_18_Mod_range_hashingENS8_20_Default_ranged_hashENS8_20_Prime_rehash_policyENS8_17_Hashtable_traitsILb1ELb0ELb1EEEE21_M_deallocate_bucketsEPPNS8_15_Hash_node_baseEm:

0000000000000000 <std::_Hashtable<char const*, std::pair<char const* const, dwarf::die>, std::allocator<std::pair<char const* const, dwarf::die> >, std::__detail::_Select1st, dwarf::string_eq, dwarf::string_hash, std::__detail::_Mod_range_hashing, std::__detail::_Default_ranged_hash, std::__detail::_Prime_rehash_policy, std::__detail::_Hashtable_traits<true, false, true> >::_M_deallocate_buckets(std::__detail::_Hash_node_base**, unsigned long)>:
   0:	fd010113          	addi	sp,sp,-48
   4:	02113423          	sd	ra,40(sp)
   8:	02813023          	sd	s0,32(sp)
   c:	03010413          	addi	s0,sp,48
  10:	fea43423          	sd	a0,-24(s0)
  14:	feb43023          	sd	a1,-32(s0)
  18:	fcc43c23          	sd	a2,-40(s0)
  1c:	fe043583          	ld	a1,-32(s0)
  20:	fe843503          	ld	a0,-24(s0)
  24:	00000317          	auipc	t1,0x0
  28:	00033303          	ld	t1,0(t1) # 24 <std::_Hashtable<char const*, std::pair<char const* const, dwarf::die>, std::allocator<std::pair<char const* const, dwarf::die> >, std::__detail::_Select1st, dwarf::string_eq, dwarf::string_hash, std::__detail::_Mod_range_hashing, std::__detail::_Default_ranged_hash, std::__detail::_Prime_rehash_policy, std::__detail::_Hashtable_traits<true, false, true> >::_M_deallocate_buckets(std::__detail::_Hash_node_base**, unsigned long)+0x24>
  2c:	000300e7          	jalr	ra,0(t1)
  30:	00050793          	addi	a5,a0,0
  34:	02079063          	bne	a5,zero,54 <.L204>
  38:	fd843603          	ld	a2,-40(s0)
  3c:	fe043583          	ld	a1,-32(s0)
  40:	fe843503          	ld	a0,-24(s0)
  44:	00000317          	auipc	t1,0x0
  48:	00033303          	ld	t1,0(t1) # 44 <std::_Hashtable<char const*, std::pair<char const* const, dwarf::die>, std::allocator<std::pair<char const* const, dwarf::die> >, std::__detail::_Select1st, dwarf::string_eq, dwarf::string_hash, std::__detail::_Mod_range_hashing, std::__detail::_Default_ranged_hash, std::__detail::_Prime_rehash_policy, std::__detail::_Hashtable_traits<true, false, true> >::_M_deallocate_buckets(std::__detail::_Hash_node_base**, unsigned long)+0x44>
  4c:	000300e7          	jalr	ra,0(t1)
  50:	0080006f          	jal	zero,58 <.L201>

0000000000000054 <.L204>:
  54:	00000013          	addi	zero,zero,0

0000000000000058 <.L201>:
  58:	02813083          	ld	ra,40(sp)
  5c:	02013403          	ld	s0,32(sp)
  60:	03010113          	addi	sp,sp,48
  64:	00008067          	jalr	zero,0(ra)

Disassembly of section .text._ZNSt10_HashtableIN5dwarf6DW_TAGES1_SaIS1_ENSt8__detail9_IdentityESt8equal_toIS1_ESt4hashIS1_ENS3_18_Mod_range_hashingENS3_20_Default_ranged_hashENS3_20_Prime_rehash_policyENS3_17_Hashtable_traitsILb1ELb1ELb1EEEEC2IPKS1_EET_SI_mRKS8_RKS6_RKS2_St17integral_constantIbLb1EE:

0000000000000000 <std::_Hashtable<dwarf::DW_TAG, dwarf::DW_TAG, std::allocator<dwarf::DW_TAG>, std::__detail::_Identity, std::equal_to<dwarf::DW_TAG>, std::hash<dwarf::DW_TAG>, std::__detail::_Mod_range_hashing, std::__detail::_Default_ranged_hash, std::__detail::_Prime_rehash_policy, std::__detail::_Hashtable_traits<true, true, true> >::_Hashtable<dwarf::DW_TAG const*>(dwarf::DW_TAG const*, dwarf::DW_TAG const*, unsigned long, std::hash<dwarf::DW_TAG> const&, std::equal_to<dwarf::DW_TAG> const&, std::allocator<dwarf::DW_TAG> const&, std::integral_constant<bool, true>)>:
   0:	f9010113          	addi	sp,sp,-112
   4:	06113423          	sd	ra,104(sp)
   8:	06813023          	sd	s0,96(sp)
   c:	04913c23          	sd	s1,88(sp)
  10:	07010413          	addi	s0,sp,112
  14:	fca43423          	sd	a0,-56(s0)
  18:	fcb43023          	sd	a1,-64(s0)
  1c:	fac43c23          	sd	a2,-72(s0)
  20:	fad43823          	sd	a3,-80(s0)
  24:	fae43423          	sd	a4,-88(s0)
  28:	faf43023          	sd	a5,-96(s0)
  2c:	f9043c23          	sd	a6,-104(s0)
  30:	f9140823          	sb	a7,-112(s0)
  34:	f9843703          	ld	a4,-104(s0)
  38:	fa043683          	ld	a3,-96(s0)
  3c:	fa843603          	ld	a2,-88(s0)
  40:	fb043583          	ld	a1,-80(s0)
  44:	fc843503          	ld	a0,-56(s0)
  48:	00000317          	auipc	t1,0x0
  4c:	00033303          	ld	t1,0(t1) # 48 <std::_Hashtable<dwarf::DW_TAG, dwarf::DW_TAG, std::allocator<dwarf::DW_TAG>, std::__detail::_Identity, std::equal_to<dwarf::DW_TAG>, std::hash<dwarf::DW_TAG>, std::__detail::_Mod_range_hashing, std::__detail::_Default_ranged_hash, std::__detail::_Prime_rehash_policy, std::__detail::_Hashtable_traits<true, true, true> >::_Hashtable<dwarf::DW_TAG const*>(dwarf::DW_TAG const*, dwarf::DW_TAG const*, unsigned long, std::hash<dwarf::DW_TAG> const&, std::equal_to<dwarf::DW_TAG> const&, std::allocator<dwarf::DW_TAG> const&, std::integral_constant<bool, true>)+0x48>

0000000000000050 <.LEHB6>:
  50:	000300e7          	jalr	ra,0(t1)

0000000000000054 <.LEHE6>:
  54:	0340006f          	jal	zero,88 <.L206>

0000000000000058 <.L207>:
  58:	fc043583          	ld	a1,-64(s0)
  5c:	fc843503          	ld	a0,-56(s0)
  60:	00000317          	auipc	t1,0x0
  64:	00033303          	ld	t1,0(t1) # 60 <.L207+0x8>

0000000000000068 <.LEHB7>:
  68:	000300e7          	jalr	ra,0(t1)

000000000000006c <.LEHE7>:
  6c:	00050713          	addi	a4,a0,0
  70:	00058793          	addi	a5,a1,0
  74:	fce43823          	sd	a4,-48(s0)
  78:	fcf43c23          	sd	a5,-40(s0)
  7c:	fc043783          	ld	a5,-64(s0)
  80:	00478793          	addi	a5,a5,4
  84:	fcf43023          	sd	a5,-64(s0)

0000000000000088 <.L206>:
  88:	fc043703          	ld	a4,-64(s0)
  8c:	fb843783          	ld	a5,-72(s0)
  90:	fcf714e3          	bne	a4,a5,58 <.L207>
  94:	0280006f          	jal	zero,bc <.L210>

0000000000000098 <.L209>:
  98:	00050493          	addi	s1,a0,0
  9c:	fc843503          	ld	a0,-56(s0)
  a0:	00000317          	auipc	t1,0x0
  a4:	00033303          	ld	t1,0(t1) # a0 <.L209+0x8>
  a8:	000300e7          	jalr	ra,0(t1)
  ac:	00048793          	addi	a5,s1,0
  b0:	00078513          	addi	a0,a5,0

00000000000000b4 <.LEHB8>:
  b4:	00000097          	auipc	ra,0x0
  b8:	000080e7          	jalr	ra,0(ra) # b4 <.LEHB8>

00000000000000bc <.L210>:
  bc:	06813083          	ld	ra,104(sp)
  c0:	06013403          	ld	s0,96(sp)
  c4:	05813483          	ld	s1,88(sp)
  c8:	07010113          	addi	sp,sp,112
  cc:	00008067          	jalr	zero,0(ra)

Disassembly of section .text._ZNSt15__new_allocatorINSt8__detail10_Hash_nodeIN5dwarf6DW_TAGELb1EEEED2Ev:

0000000000000000 <std::__new_allocator<std::__detail::_Hash_node<dwarf::DW_TAG, true> >::~__new_allocator()>:
   0:	fe010113          	addi	sp,sp,-32
   4:	00813c23          	sd	s0,24(sp)
   8:	02010413          	addi	s0,sp,32
   c:	fea43423          	sd	a0,-24(s0)
  10:	00000013          	addi	zero,zero,0
  14:	01813403          	ld	s0,24(sp)
  18:	02010113          	addi	sp,sp,32
  1c:	00008067          	jalr	zero,0(ra)

Disassembly of section .text._ZNKSt10_HashtableIN5dwarf6DW_TAGES1_SaIS1_ENSt8__detail9_IdentityESt8equal_toIS1_ESt4hashIS1_ENS3_18_Mod_range_hashingENS3_20_Default_ranged_hashENS3_20_Prime_rehash_policyENS3_17_Hashtable_traitsILb1ELb1ELb1EEEE8_M_beginEv:

0000000000000000 <std::_Hashtable<dwarf::DW_TAG, dwarf::DW_TAG, std::allocator<dwarf::DW_TAG>, std::__detail::_Identity, std::equal_to<dwarf::DW_TAG>, std::hash<dwarf::DW_TAG>, std::__detail::_Mod_range_hashing, std::__detail::_Default_ranged_hash, std::__detail::_Prime_rehash_policy, std::__detail::_Hashtable_traits<true, true, true> >::_M_begin() const>:
   0:	fe010113          	addi	sp,sp,-32
   4:	00813c23          	sd	s0,24(sp)
   8:	02010413          	addi	s0,sp,32
   c:	fea43423          	sd	a0,-24(s0)
  10:	fe843783          	ld	a5,-24(s0)
  14:	0107b783          	ld	a5,16(a5)
  18:	00078513          	addi	a0,a5,0
  1c:	01813403          	ld	s0,24(sp)
  20:	02010113          	addi	sp,sp,32
  24:	00008067          	jalr	zero,0(ra)

Disassembly of section .text._ZNSt8__detail16_Hashtable_allocISaINS_10_Hash_nodeIN5dwarf6DW_TAGELb1EEEEE19_M_deallocate_nodesEPS4_:

0000000000000000 <std::__detail::_Hashtable_alloc<std::allocator<std::__detail::_Hash_node<dwarf::DW_TAG, true> > >::_M_deallocate_nodes(std::__detail::_Hash_node<dwarf::DW_TAG, true>*)>:
   0:	fd010113          	addi	sp,sp,-48
   4:	02113423          	sd	ra,40(sp)
   8:	02813023          	sd	s0,32(sp)
   c:	03010413          	addi	s0,sp,48
  10:	fca43c23          	sd	a0,-40(s0)
  14:	fcb43823          	sd	a1,-48(s0)
  18:	0340006f          	jal	zero,4c <.L215>

000000000000001c <.L216>:
  1c:	fd043783          	ld	a5,-48(s0)
  20:	fef43423          	sd	a5,-24(s0)
  24:	fd043503          	ld	a0,-48(s0)
  28:	00000317          	auipc	t1,0x0
  2c:	00033303          	ld	t1,0(t1) # 28 <.L216+0xc>
  30:	000300e7          	jalr	ra,0(t1)
  34:	fca43823          	sd	a0,-48(s0)
  38:	fe843583          	ld	a1,-24(s0)
  3c:	fd843503          	ld	a0,-40(s0)
  40:	00000317          	auipc	t1,0x0
  44:	00033303          	ld	t1,0(t1) # 40 <.L216+0x24>
  48:	000300e7          	jalr	ra,0(t1)

000000000000004c <.L215>:
  4c:	fd043783          	ld	a5,-48(s0)
  50:	fc0796e3          	bne	a5,zero,1c <.L216>
  54:	00000013          	addi	zero,zero,0
  58:	00000013          	addi	zero,zero,0
  5c:	02813083          	ld	ra,40(sp)
  60:	02013403          	ld	s0,32(sp)
  64:	03010113          	addi	sp,sp,48
  68:	00008067          	jalr	zero,0(ra)

Disassembly of section .text._ZNSt10_HashtableIN5dwarf6DW_TAGES1_SaIS1_ENSt8__detail9_IdentityESt8equal_toIS1_ESt4hashIS1_ENS3_18_Mod_range_hashingENS3_20_Default_ranged_hashENS3_20_Prime_rehash_policyENS3_17_Hashtable_traitsILb1ELb1ELb1EEEE21_M_deallocate_bucketsEPPNS3_15_Hash_node_baseEm:

0000000000000000 <std::_Hashtable<dwarf::DW_TAG, dwarf::DW_TAG, std::allocator<dwarf::DW_TAG>, std::__detail::_Identity, std::equal_to<dwarf::DW_TAG>, std::hash<dwarf::DW_TAG>, std::__detail::_Mod_range_hashing, std::__detail::_Default_ranged_hash, std::__detail::_Prime_rehash_policy, std::__detail::_Hashtable_traits<true, true, true> >::_M_deallocate_buckets(std::__detail::_Hash_node_base**, unsigned long)>:
   0:	fd010113          	addi	sp,sp,-48
   4:	02113423          	sd	ra,40(sp)
   8:	02813023          	sd	s0,32(sp)
   c:	03010413          	addi	s0,sp,48
  10:	fea43423          	sd	a0,-24(s0)
  14:	feb43023          	sd	a1,-32(s0)
  18:	fcc43c23          	sd	a2,-40(s0)
  1c:	fe043583          	ld	a1,-32(s0)
  20:	fe843503          	ld	a0,-24(s0)
  24:	00000317          	auipc	t1,0x0
  28:	00033303          	ld	t1,0(t1) # 24 <std::_Hashtable<dwarf::DW_TAG, dwarf::DW_TAG, std::allocator<dwarf::DW_TAG>, std::__detail::_Identity, std::equal_to<dwarf::DW_TAG>, std::hash<dwarf::DW_TAG>, std::__detail::_Mod_range_hashing, std::__detail::_Default_ranged_hash, std::__detail::_Prime_rehash_policy, std::__detail::_Hashtable_traits<true, true, true> >::_M_deallocate_buckets(std::__detail::_Hash_node_base**, unsigned long)+0x24>
  2c:	000300e7          	jalr	ra,0(t1)
  30:	00050793          	addi	a5,a0,0
  34:	02079063          	bne	a5,zero,54 <.L220>
  38:	fd843603          	ld	a2,-40(s0)
  3c:	fe043583          	ld	a1,-32(s0)
  40:	fe843503          	ld	a0,-24(s0)
  44:	00000317          	auipc	t1,0x0
  48:	00033303          	ld	t1,0(t1) # 44 <std::_Hashtable<dwarf::DW_TAG, dwarf::DW_TAG, std::allocator<dwarf::DW_TAG>, std::__detail::_Identity, std::equal_to<dwarf::DW_TAG>, std::hash<dwarf::DW_TAG>, std::__detail::_Mod_range_hashing, std::__detail::_Default_ranged_hash, std::__detail::_Prime_rehash_policy, std::__detail::_Hashtable_traits<true, true, true> >::_M_deallocate_buckets(std::__detail::_Hash_node_base**, unsigned long)+0x44>
  4c:	000300e7          	jalr	ra,0(t1)
  50:	0080006f          	jal	zero,58 <.L217>

0000000000000054 <.L220>:
  54:	00000013          	addi	zero,zero,0

0000000000000058 <.L217>:
  58:	02813083          	ld	ra,40(sp)
  5c:	02013403          	ld	s0,32(sp)
  60:	03010113          	addi	sp,sp,48
  64:	00008067          	jalr	zero,0(ra)

Disassembly of section .text._ZNSt12__shared_ptrIN5dwarf11die_str_map4implELN9__gnu_cxx12_Lock_policyE1EEC2ISaIvEJRKNS0_3dieERNS0_5DW_ATERKSt16initializer_listINS0_6DW_TAGEEEEESt20_Sp_alloc_shared_tagIT_EDpOT0_:

0000000000000000 <std::__shared_ptr<dwarf::die_str_map::impl, (__gnu_cxx::_Lock_policy)1>::__shared_ptr<std::allocator<void>, dwarf::die const&, dwarf::DW_AT&, std::initializer_list<dwarf::DW_TAG> const&>(std::_Sp_alloc_shared_tag<std::allocator<void> >, dwarf::die const&, dwarf::DW_AT&, std::initializer_list<dwarf::DW_TAG> const&)>:
   0:	fa010113          	addi	sp,sp,-96
   4:	04113c23          	sd	ra,88(sp)
   8:	04813823          	sd	s0,80(sp)
   c:	04913423          	sd	s1,72(sp)
  10:	05213023          	sd	s2,64(sp)
  14:	03313c23          	sd	s3,56(sp)
  18:	03413823          	sd	s4,48(sp)
  1c:	06010413          	addi	s0,sp,96
  20:	fca43423          	sd	a0,-56(s0)
  24:	fcb43023          	sd	a1,-64(s0)
  28:	fac43c23          	sd	a2,-72(s0)
  2c:	fad43823          	sd	a3,-80(s0)
  30:	fae43423          	sd	a4,-88(s0)
  34:	fc843783          	ld	a5,-56(s0)
  38:	0007b023          	sd	zero,0(a5)
  3c:	fc843783          	ld	a5,-56(s0)
  40:	00878493          	addi	s1,a5,8
  44:	fc843903          	ld	s2,-56(s0)
  48:	fb843503          	ld	a0,-72(s0)
  4c:	00000317          	auipc	t1,0x0
  50:	00033303          	ld	t1,0(t1) # 4c <std::__shared_ptr<dwarf::die_str_map::impl, (__gnu_cxx::_Lock_policy)1>::__shared_ptr<std::allocator<void>, dwarf::die const&, dwarf::DW_AT&, std::initializer_list<dwarf::DW_TAG> const&>(std::_Sp_alloc_shared_tag<std::allocator<void> >, dwarf::die const&, dwarf::DW_AT&, std::initializer_list<dwarf::DW_TAG> const&)+0x4c>
  54:	000300e7          	jalr	ra,0(t1)
  58:	00050993          	addi	s3,a0,0
  5c:	fb043503          	ld	a0,-80(s0)
  60:	00000317          	auipc	t1,0x0
  64:	00033303          	ld	t1,0(t1) # 60 <std::__shared_ptr<dwarf::die_str_map::impl, (__gnu_cxx::_Lock_policy)1>::__shared_ptr<std::allocator<void>, dwarf::die const&, dwarf::DW_AT&, std::initializer_list<dwarf::DW_TAG> const&>(std::_Sp_alloc_shared_tag<std::allocator<void> >, dwarf::die const&, dwarf::DW_AT&, std::initializer_list<dwarf::DW_TAG> const&)+0x60>
  68:	000300e7          	jalr	ra,0(t1)
  6c:	00050a13          	addi	s4,a0,0
  70:	fa843503          	ld	a0,-88(s0)
  74:	00000317          	auipc	t1,0x0
  78:	00033303          	ld	t1,0(t1) # 74 <std::__shared_ptr<dwarf::die_str_map::impl, (__gnu_cxx::_Lock_policy)1>::__shared_ptr<std::allocator<void>, dwarf::die const&, dwarf::DW_AT&, std::initializer_list<dwarf::DW_TAG> const&>(std::_Sp_alloc_shared_tag<std::allocator<void> >, dwarf::die const&, dwarf::DW_AT&, std::initializer_list<dwarf::DW_TAG> const&)+0x74>
  7c:	000300e7          	jalr	ra,0(t1)
  80:	00050793          	addi	a5,a0,0
  84:	000a0713          	addi	a4,s4,0
  88:	00098693          	addi	a3,s3,0
  8c:	fc043603          	ld	a2,-64(s0)
  90:	00090593          	addi	a1,s2,0
  94:	00048513          	addi	a0,s1,0
  98:	00000317          	auipc	t1,0x0
  9c:	00033303          	ld	t1,0(t1) # 98 <std::__shared_ptr<dwarf::die_str_map::impl, (__gnu_cxx::_Lock_policy)1>::__shared_ptr<std::allocator<void>, dwarf::die const&, dwarf::DW_AT&, std::initializer_list<dwarf::DW_TAG> const&>(std::_Sp_alloc_shared_tag<std::allocator<void> >, dwarf::die const&, dwarf::DW_AT&, std::initializer_list<dwarf::DW_TAG> const&)+0x98>
  a0:	000300e7          	jalr	ra,0(t1)
  a4:	fc843783          	ld	a5,-56(s0)
  a8:	0007b783          	ld	a5,0(a5)
  ac:	00078593          	addi	a1,a5,0
  b0:	fc843503          	ld	a0,-56(s0)
  b4:	00000317          	auipc	t1,0x0
  b8:	00033303          	ld	t1,0(t1) # b4 <std::__shared_ptr<dwarf::die_str_map::impl, (__gnu_cxx::_Lock_policy)1>::__shared_ptr<std::allocator<void>, dwarf::die const&, dwarf::DW_AT&, std::initializer_list<dwarf::DW_TAG> const&>(std::_Sp_alloc_shared_tag<std::allocator<void> >, dwarf::die const&, dwarf::DW_AT&, std::initializer_list<dwarf::DW_TAG> const&)+0xb4>
  bc:	000300e7          	jalr	ra,0(t1)
  c0:	00000013          	addi	zero,zero,0
  c4:	05813083          	ld	ra,88(sp)
  c8:	05013403          	ld	s0,80(sp)
  cc:	04813483          	ld	s1,72(sp)
  d0:	04013903          	ld	s2,64(sp)
  d4:	03813983          	ld	s3,56(sp)
  d8:	03013a03          	ld	s4,48(sp)
  dc:	06010113          	addi	sp,sp,96
  e0:	00008067          	jalr	zero,0(ra)

Disassembly of section .text._ZNKSt12__shared_ptrIN5dwarf11die_str_map4implELN9__gnu_cxx12_Lock_policyE1EE3getEv:

0000000000000000 <std::__shared_ptr<dwarf::die_str_map::impl, (__gnu_cxx::_Lock_policy)1>::get() const>:
   0:	fe010113          	addi	sp,sp,-32
   4:	00813c23          	sd	s0,24(sp)
   8:	02010413          	addi	s0,sp,32
   c:	fea43423          	sd	a0,-24(s0)
  10:	fe843783          	ld	a5,-24(s0)
  14:	0007b783          	ld	a5,0(a5)
  18:	00078513          	addi	a0,a5,0
  1c:	01813403          	ld	s0,24(sp)
  20:	02010113          	addi	sp,sp,32
  24:	00008067          	jalr	zero,0(ra)

Disassembly of section .text._ZNKSt10_HashtableIPKcSt4pairIKS1_N5dwarf3dieEESaIS6_ENSt8__detail10_Select1stENS4_9string_eqENS4_11string_hashENS8_18_Mod_range_hashingENS8_20_Default_ranged_hashENS8_20_Prime_rehash_policyENS8_17_Hashtable_traitsILb1ELb0ELb1EEEE4sizeEv:

0000000000000000 <std::_Hashtable<char const*, std::pair<char const* const, dwarf::die>, std::allocator<std::pair<char const* const, dwarf::die> >, std::__detail::_Select1st, dwarf::string_eq, dwarf::string_hash, std::__detail::_Mod_range_hashing, std::__detail::_Default_ranged_hash, std::__detail::_Prime_rehash_policy, std::__detail::_Hashtable_traits<true, false, true> >::size() const>:
   0:	fe010113          	addi	sp,sp,-32
   4:	00813c23          	sd	s0,24(sp)
   8:	02010413          	addi	s0,sp,32
   c:	fea43423          	sd	a0,-24(s0)
  10:	fe843783          	ld	a5,-24(s0)
  14:	0187b783          	ld	a5,24(a5)
  18:	00078513          	addi	a0,a5,0
  1c:	01813403          	ld	s0,24(sp)
  20:	02010113          	addi	sp,sp,32
  24:	00008067          	jalr	zero,0(ra)

Disassembly of section .text._ZNSt10_HashtableIPKcSt4pairIKS1_N5dwarf3dieEESaIS6_ENSt8__detail10_Select1stENS4_9string_eqENS4_11string_hashENS8_18_Mod_range_hashingENS8_20_Default_ranged_hashENS8_20_Prime_rehash_policyENS8_17_Hashtable_traitsILb1ELb0ELb1EEEE22__small_size_thresholdEv:

0000000000000000 <std::_Hashtable<char const*, std::pair<char const* const, dwarf::die>, std::allocator<std::pair<char const* const, dwarf::die> >, std::__detail::_Select1st, dwarf::string_eq, dwarf::string_hash, std::__detail::_Mod_range_hashing, std::__detail::_Default_ranged_hash, std::__detail::_Prime_rehash_policy, std::__detail::_Hashtable_traits<true, false, true> >::__small_size_threshold()>:
   0:	ff010113          	addi	sp,sp,-16
   4:	00113423          	sd	ra,8(sp)
   8:	00813023          	sd	s0,0(sp)
   c:	01010413          	addi	s0,sp,16
  10:	00000317          	auipc	t1,0x0
  14:	00033303          	ld	t1,0(t1) # 10 <std::_Hashtable<char const*, std::pair<char const* const, dwarf::die>, std::allocator<std::pair<char const* const, dwarf::die> >, std::__detail::_Select1st, dwarf::string_eq, dwarf::string_hash, std::__detail::_Mod_range_hashing, std::__detail::_Default_ranged_hash, std::__detail::_Prime_rehash_policy, std::__detail::_Hashtable_traits<true, false, true> >::__small_size_threshold()+0x10>
  18:	000300e7          	jalr	ra,0(t1)
  1c:	00050793          	addi	a5,a0,0
  20:	00078513          	addi	a0,a5,0
  24:	00813083          	ld	ra,8(sp)
  28:	00013403          	ld	s0,0(sp)
  2c:	01010113          	addi	sp,sp,16
  30:	00008067          	jalr	zero,0(ra)

Disassembly of section .text._ZNSt10_HashtableIPKcSt4pairIKS1_N5dwarf3dieEESaIS6_ENSt8__detail10_Select1stENS4_9string_eqENS4_11string_hashENS8_18_Mod_range_hashingENS8_20_Default_ranged_hashENS8_20_Prime_rehash_policyENS8_17_Hashtable_traitsILb1ELb0ELb1EEEE5beginEv:

0000000000000000 <std::_Hashtable<char const*, std::pair<char const* const, dwarf::die>, std::allocator<std::pair<char const* const, dwarf::die> >, std::__detail::_Select1st, dwarf::string_eq, dwarf::string_hash, std::__detail::_Mod_range_hashing, std::__detail::_Default_ranged_hash, std::__detail::_Prime_rehash_policy, std::__detail::_Hashtable_traits<true, false, true> >::begin()>:
   0:	fd010113          	addi	sp,sp,-48
   4:	02113423          	sd	ra,40(sp)
   8:	02813023          	sd	s0,32(sp)
   c:	03010413          	addi	s0,sp,48
  10:	fca43c23          	sd	a0,-40(s0)
  14:	fd843503          	ld	a0,-40(s0)
  18:	00000317          	auipc	t1,0x0
  1c:	00033303          	ld	t1,0(t1) # 18 <std::_Hashtable<char const*, std::pair<char const* const, dwarf::die>, std::allocator<std::pair<char const* const, dwarf::die> >, std::__detail::_Select1st, dwarf::string_eq, dwarf::string_hash, std::__detail::_Mod_range_hashing, std::__detail::_Default_ranged_hash, std::__detail::_Prime_rehash_policy, std::__detail::_Hashtable_traits<true, false, true> >::begin()+0x18>
  20:	000300e7          	jalr	ra,0(t1)
  24:	00050713          	addi	a4,a0,0
  28:	fe840793          	addi	a5,s0,-24
  2c:	00070593          	addi	a1,a4,0
  30:	00078513          	addi	a0,a5,0
  34:	00000317          	auipc	t1,0x0
  38:	00033303          	ld	t1,0(t1) # 34 <std::_Hashtable<char const*, std::pair<char const* const, dwarf::die>, std::allocator<std::pair<char const* const, dwarf::die> >, std::__detail::_Select1st, dwarf::string_eq, dwarf::string_hash, std::__detail::_Mod_range_hashing, std::__detail::_Default_ranged_hash, std::__detail::_Prime_rehash_policy, std::__detail::_Hashtable_traits<true, false, true> >::begin()+0x34>
  3c:	000300e7          	jalr	ra,0(t1)
  40:	fe843783          	ld	a5,-24(s0)
  44:	00078513          	addi	a0,a5,0
  48:	02813083          	ld	ra,40(sp)
  4c:	02013403          	ld	s0,32(sp)
  50:	03010113          	addi	sp,sp,48
  54:	00008067          	jalr	zero,0(ra)

Disassembly of section .text._ZNSt8__detail14_Node_iteratorISt4pairIKPKcN5dwarf3dieEELb0ELb1EEppEv:

0000000000000000 <std::__detail::_Node_iterator<std::pair<char const* const, dwarf::die>, false, true>::operator++()>:
   0:	fe010113          	addi	sp,sp,-32
   4:	00113c23          	sd	ra,24(sp)
   8:	00813823          	sd	s0,16(sp)
   c:	02010413          	addi	s0,sp,32
  10:	fea43423          	sd	a0,-24(s0)
  14:	fe843783          	ld	a5,-24(s0)
  18:	00078513          	addi	a0,a5,0
  1c:	00000317          	auipc	t1,0x0
  20:	00033303          	ld	t1,0(t1) # 1c <std::__detail::_Node_iterator<std::pair<char const* const, dwarf::die>, false, true>::operator++()+0x1c>
  24:	000300e7          	jalr	ra,0(t1)
  28:	fe843783          	ld	a5,-24(s0)
  2c:	00078513          	addi	a0,a5,0
  30:	01813083          	ld	ra,24(sp)
  34:	01013403          	ld	s0,16(sp)
  38:	02010113          	addi	sp,sp,32
  3c:	00008067          	jalr	zero,0(ra)

Disassembly of section .text._ZNKSt8__detail15_Hashtable_baseIPKcSt4pairIKS2_N5dwarf3dieEENS_10_Select1stENS5_9string_eqENS5_11string_hashENS_18_Mod_range_hashingENS_20_Default_ranged_hashENS_17_Hashtable_traitsILb1ELb0ELb1EEEE13_M_key_equalsERS4_RKNS_16_Hash_node_valueIS7_Lb1EEE:

0000000000000000 <std::__detail::_Hashtable_base<char const*, std::pair<char const* const, dwarf::die>, std::__detail::_Select1st, dwarf::string_eq, dwarf::string_hash, std::__detail::_Mod_range_hashing, std::__detail::_Default_ranged_hash, std::__detail::_Hashtable_traits<true, false, true> >::_M_key_equals(char const* const&, std::__detail::_Hash_node_value<std::pair<char const* const, dwarf::die>, true> const&) const>:
   0:	fb010113          	addi	sp,sp,-80
   4:	04113423          	sd	ra,72(sp)
   8:	04813023          	sd	s0,64(sp)
   c:	02913c23          	sd	s1,56(sp)
  10:	03213823          	sd	s2,48(sp)
  14:	05010413          	addi	s0,sp,80
  18:	fca43423          	sd	a0,-56(s0)
  1c:	fcb43023          	sd	a1,-64(s0)
  20:	fac43c23          	sd	a2,-72(s0)
  24:	fc843503          	ld	a0,-56(s0)
  28:	00000317          	auipc	t1,0x0
  2c:	00033303          	ld	t1,0(t1) # 28 <std::__detail::_Hashtable_base<char const*, std::pair<char const* const, dwarf::die>, std::__detail::_Select1st, dwarf::string_eq, dwarf::string_hash, std::__detail::_Mod_range_hashing, std::__detail::_Default_ranged_hash, std::__detail::_Hashtable_traits<true, false, true> >::_M_key_equals(char const* const&, std::__detail::_Hash_node_value<std::pair<char const* const, dwarf::die>, true> const&) const+0x28>
  30:	000300e7          	jalr	ra,0(t1)
  34:	00050913          	addi	s2,a0,0
  38:	fc043783          	ld	a5,-64(s0)
  3c:	0007b483          	ld	s1,0(a5)
  40:	fb843783          	ld	a5,-72(s0)
  44:	00078513          	addi	a0,a5,0
  48:	00000317          	auipc	t1,0x0
  4c:	00033303          	ld	t1,0(t1) # 48 <std::__detail::_Hashtable_base<char const*, std::pair<char const* const, dwarf::die>, std::__detail::_Select1st, dwarf::string_eq, dwarf::string_hash, std::__detail::_Mod_range_hashing, std::__detail::_Default_ranged_hash, std::__detail::_Hashtable_traits<true, false, true> >::_M_key_equals(char const* const&, std::__detail::_Hash_node_value<std::pair<char const* const, dwarf::die>, true> const&) const+0x48>
  50:	000300e7          	jalr	ra,0(t1)
  54:	00050713          	addi	a4,a0,0
  58:	fd840793          	addi	a5,s0,-40
  5c:	00070593          	addi	a1,a4,0
  60:	00078513          	addi	a0,a5,0
  64:	00000317          	auipc	t1,0x0
  68:	00033303          	ld	t1,0(t1) # 64 <std::__detail::_Hashtable_base<char const*, std::pair<char const* const, dwarf::die>, std::__detail::_Select1st, dwarf::string_eq, dwarf::string_hash, std::__detail::_Mod_range_hashing, std::__detail::_Default_ranged_hash, std::__detail::_Hashtable_traits<true, false, true> >::_M_key_equals(char const* const&, std::__detail::_Hash_node_value<std::pair<char const* const, dwarf::die>, true> const&) const+0x64>
  6c:	000300e7          	jalr	ra,0(t1)
  70:	00050793          	addi	a5,a0,0
  74:	0007b783          	ld	a5,0(a5)
  78:	00078613          	addi	a2,a5,0
  7c:	00048593          	addi	a1,s1,0
  80:	00090513          	addi	a0,s2,0
  84:	00000317          	auipc	t1,0x0
  88:	00033303          	ld	t1,0(t1) # 84 <std::__detail::_Hashtable_base<char const*, std::pair<char const* const, dwarf::die>, std::__detail::_Select1st, dwarf::string_eq, dwarf::string_hash, std::__detail::_Mod_range_hashing, std::__detail::_Default_ranged_hash, std::__detail::_Hashtable_traits<true, false, true> >::_M_key_equals(char const* const&, std::__detail::_Hash_node_value<std::pair<char const* const, dwarf::die>, true> const&) const+0x84>
  8c:	000300e7          	jalr	ra,0(t1)
  90:	00050793          	addi	a5,a0,0
  94:	00078513          	addi	a0,a5,0
  98:	04813083          	ld	ra,72(sp)
  9c:	04013403          	ld	s0,64(sp)
  a0:	03813483          	ld	s1,56(sp)
  a4:	03013903          	ld	s2,48(sp)
  a8:	05010113          	addi	sp,sp,80
  ac:	00008067          	jalr	zero,0(ra)

Disassembly of section .text._ZNKSt8__detail15_Hash_code_baseIPKcSt4pairIKS2_N5dwarf3dieEENS_10_Select1stENS5_11string_hashENS_18_Mod_range_hashingENS_20_Default_ranged_hashELb1EE12_M_hash_codeERS4_:

0000000000000000 <std::__detail::_Hash_code_base<char const*, std::pair<char const* const, dwarf::die>, std::__detail::_Select1st, dwarf::string_hash, std::__detail::_Mod_range_hashing, std::__detail::_Default_ranged_hash, true>::_M_hash_code(char const* const&) const>:
   0:	fe010113          	addi	sp,sp,-32
   4:	00113c23          	sd	ra,24(sp)
   8:	00813823          	sd	s0,16(sp)
   c:	02010413          	addi	s0,sp,32
  10:	fea43423          	sd	a0,-24(s0)
  14:	feb43023          	sd	a1,-32(s0)
  18:	fe843503          	ld	a0,-24(s0)
  1c:	00000317          	auipc	t1,0x0
  20:	00033303          	ld	t1,0(t1) # 1c <std::__detail::_Hash_code_base<char const*, std::pair<char const* const, dwarf::die>, std::__detail::_Select1st, dwarf::string_hash, std::__detail::_Mod_range_hashing, std::__detail::_Default_ranged_hash, true>::_M_hash_code(char const* const&) const+0x1c>
  24:	000300e7          	jalr	ra,0(t1)
  28:	00050713          	addi	a4,a0,0
  2c:	fe043783          	ld	a5,-32(s0)
  30:	0007b783          	ld	a5,0(a5)
  34:	00078593          	addi	a1,a5,0
  38:	00070513          	addi	a0,a4,0
  3c:	00000317          	auipc	t1,0x0
  40:	00033303          	ld	t1,0(t1) # 3c <std::__detail::_Hash_code_base<char const*, std::pair<char const* const, dwarf::die>, std::__detail::_Select1st, dwarf::string_hash, std::__detail::_Mod_range_hashing, std::__detail::_Default_ranged_hash, true>::_M_hash_code(char const* const&) const+0x3c>
  44:	000300e7          	jalr	ra,0(t1)
  48:	00050793          	addi	a5,a0,0
  4c:	00078513          	addi	a0,a5,0
  50:	01813083          	ld	ra,24(sp)
  54:	01013403          	ld	s0,16(sp)
  58:	02010113          	addi	sp,sp,32
  5c:	00008067          	jalr	zero,0(ra)

Disassembly of section .text._ZNKSt10_HashtableIPKcSt4pairIKS1_N5dwarf3dieEESaIS6_ENSt8__detail10_Select1stENS4_9string_eqENS4_11string_hashENS8_18_Mod_range_hashingENS8_20_Default_ranged_hashENS8_20_Prime_rehash_policyENS8_17_Hashtable_traitsILb1ELb0ELb1EEEE15_M_bucket_indexEm:

0000000000000000 <std::_Hashtable<char const*, std::pair<char const* const, dwarf::die>, std::allocator<std::pair<char const* const, dwarf::die> >, std::__detail::_Select1st, dwarf::string_eq, dwarf::string_hash, std::__detail::_Mod_range_hashing, std::__detail::_Default_ranged_hash, std::__detail::_Prime_rehash_policy, std::__detail::_Hashtable_traits<true, false, true> >::_M_bucket_index(unsigned long) const>:
   0:	fe010113          	addi	sp,sp,-32
   4:	00113c23          	sd	ra,24(sp)
   8:	00813823          	sd	s0,16(sp)
   c:	02010413          	addi	s0,sp,32
  10:	fea43423          	sd	a0,-24(s0)
  14:	feb43023          	sd	a1,-32(s0)
  18:	fe843783          	ld	a5,-24(s0)
  1c:	0087b783          	ld	a5,8(a5)
  20:	00078613          	addi	a2,a5,0
  24:	fe043583          	ld	a1,-32(s0)
  28:	fe843503          	ld	a0,-24(s0)
  2c:	00000317          	auipc	t1,0x0
  30:	00033303          	ld	t1,0(t1) # 2c <std::_Hashtable<char const*, std::pair<char const* const, dwarf::die>, std::allocator<std::pair<char const* const, dwarf::die> >, std::__detail::_Select1st, dwarf::string_eq, dwarf::string_hash, std::__detail::_Mod_range_hashing, std::__detail::_Default_ranged_hash, std::__detail::_Prime_rehash_policy, std::__detail::_Hashtable_traits<true, false, true> >::_M_bucket_index(unsigned long) const+0x2c>
  34:	000300e7          	jalr	ra,0(t1)
  38:	00050793          	addi	a5,a0,0
  3c:	00078513          	addi	a0,a5,0
  40:	01813083          	ld	ra,24(sp)
  44:	01013403          	ld	s0,16(sp)
  48:	02010113          	addi	sp,sp,32
  4c:	00008067          	jalr	zero,0(ra)

Disassembly of section .text._ZNKSt10_HashtableIPKcSt4pairIKS1_N5dwarf3dieEESaIS6_ENSt8__detail10_Select1stENS4_9string_eqENS4_11string_hashENS8_18_Mod_range_hashingENS8_20_Default_ranged_hashENS8_20_Prime_rehash_policyENS8_17_Hashtable_traitsILb1ELb0ELb1EEEE12_M_find_nodeEmRS3_m:

0000000000000000 <std::_Hashtable<char const*, std::pair<char const* const, dwarf::die>, std::allocator<std::pair<char const* const, dwarf::die> >, std::__detail::_Select1st, dwarf::string_eq, dwarf::string_hash, std::__detail::_Mod_range_hashing, std::__detail::_Default_ranged_hash, std::__detail::_Prime_rehash_policy, std::__detail::_Hashtable_traits<true, false, true> >::_M_find_node(unsigned long, char const* const&, unsigned long) const>:
   0:	fc010113          	addi	sp,sp,-64
   4:	02113c23          	sd	ra,56(sp)
   8:	02813823          	sd	s0,48(sp)
   c:	04010413          	addi	s0,sp,64
  10:	fca43c23          	sd	a0,-40(s0)
  14:	fcb43823          	sd	a1,-48(s0)
  18:	fcc43423          	sd	a2,-56(s0)
  1c:	fcd43023          	sd	a3,-64(s0)
  20:	fc043683          	ld	a3,-64(s0)
  24:	fc843603          	ld	a2,-56(s0)
  28:	fd043583          	ld	a1,-48(s0)
  2c:	fd843503          	ld	a0,-40(s0)
  30:	00000317          	auipc	t1,0x0
  34:	00033303          	ld	t1,0(t1) # 30 <std::_Hashtable<char const*, std::pair<char const* const, dwarf::die>, std::allocator<std::pair<char const* const, dwarf::die> >, std::__detail::_Select1st, dwarf::string_eq, dwarf::string_hash, std::__detail::_Mod_range_hashing, std::__detail::_Default_ranged_hash, std::__detail::_Prime_rehash_policy, std::__detail::_Hashtable_traits<true, false, true> >::_M_find_node(unsigned long, char const* const&, unsigned long) const+0x30>
  38:	000300e7          	jalr	ra,0(t1)
  3c:	00050793          	addi	a5,a0,0
  40:	fef43423          	sd	a5,-24(s0)
  44:	fe843783          	ld	a5,-24(s0)
  48:	00078863          	beq	a5,zero,58 <.L239>
  4c:	fe843783          	ld	a5,-24(s0)
  50:	0007b783          	ld	a5,0(a5)
  54:	0080006f          	jal	zero,5c <.L240>

0000000000000058 <.L239>:
  58:	00000793          	addi	a5,zero,0

000000000000005c <.L240>:
  5c:	00078513          	addi	a0,a5,0
  60:	03813083          	ld	ra,56(sp)
  64:	03013403          	ld	s0,48(sp)
  68:	04010113          	addi	sp,sp,64
  6c:	00008067          	jalr	zero,0(ra)

Disassembly of section .text._ZNSt8__detail14_Node_iteratorISt4pairIKPKcN5dwarf3dieEELb0ELb1EEC2EPNS_10_Hash_nodeIS7_Lb1EEE:

0000000000000000 <std::__detail::_Node_iterator<std::pair<char const* const, dwarf::die>, false, true>::_Node_iterator(std::__detail::_Hash_node<std::pair<char const* const, dwarf::die>, true>*)>:
   0:	fe010113          	addi	sp,sp,-32
   4:	00113c23          	sd	ra,24(sp)
   8:	00813823          	sd	s0,16(sp)
   c:	02010413          	addi	s0,sp,32
  10:	fea43423          	sd	a0,-24(s0)
  14:	feb43023          	sd	a1,-32(s0)
  18:	fe843783          	ld	a5,-24(s0)
  1c:	fe043583          	ld	a1,-32(s0)
  20:	00078513          	addi	a0,a5,0
  24:	00000317          	auipc	t1,0x0
  28:	00033303          	ld	t1,0(t1) # 24 <std::__detail::_Node_iterator<std::pair<char const* const, dwarf::die>, false, true>::_Node_iterator(std::__detail::_Hash_node<std::pair<char const* const, dwarf::die>, true>*)+0x24>
  2c:	000300e7          	jalr	ra,0(t1)
  30:	00000013          	addi	zero,zero,0
  34:	01813083          	ld	ra,24(sp)
  38:	01013403          	ld	s0,16(sp)
  3c:	02010113          	addi	sp,sp,32
  40:	00008067          	jalr	zero,0(ra)

Disassembly of section .text._ZN9__gnu_cxx16__aligned_bufferISt4pairIKPKcN5dwarf3dieEEE6_M_ptrEv:

0000000000000000 <__gnu_cxx::__aligned_buffer<std::pair<char const* const, dwarf::die> >::_M_ptr()>:
   0:	fe010113          	addi	sp,sp,-32
   4:	00113c23          	sd	ra,24(sp)
   8:	00813823          	sd	s0,16(sp)
   c:	02010413          	addi	s0,sp,32
  10:	fea43423          	sd	a0,-24(s0)
  14:	fe843503          	ld	a0,-24(s0)
  18:	00000317          	auipc	t1,0x0
  1c:	00033303          	ld	t1,0(t1) # 18 <__gnu_cxx::__aligned_buffer<std::pair<char const* const, dwarf::die> >::_M_ptr()+0x18>
  20:	000300e7          	jalr	ra,0(t1)
  24:	00050793          	addi	a5,a0,0
  28:	00078513          	addi	a0,a5,0
  2c:	01813083          	ld	ra,24(sp)
  30:	01013403          	ld	s0,16(sp)
  34:	02010113          	addi	sp,sp,32
  38:	00008067          	jalr	zero,0(ra)

Disassembly of section .text._ZNKSt10_HashtableIN5dwarf6DW_TAGES1_SaIS1_ENSt8__detail9_IdentityESt8equal_toIS1_ESt4hashIS1_ENS3_18_Mod_range_hashingENS3_20_Default_ranged_hashENS3_20_Prime_rehash_policyENS3_17_Hashtable_traitsILb1ELb1ELb1EEEE4findERKS1_:

0000000000000000 <std::_Hashtable<dwarf::DW_TAG, dwarf::DW_TAG, std::allocator<dwarf::DW_TAG>, std::__detail::_Identity, std::equal_to<dwarf::DW_TAG>, std::hash<dwarf::DW_TAG>, std::__detail::_Mod_range_hashing, std::__detail::_Default_ranged_hash, std::__detail::_Prime_rehash_policy, std::__detail::_Hashtable_traits<true, true, true> >::find(dwarf::DW_TAG const&) const>:
   0:	fa010113          	addi	sp,sp,-96
   4:	04113c23          	sd	ra,88(sp)
   8:	04813823          	sd	s0,80(sp)
   c:	04913423          	sd	s1,72(sp)
  10:	06010413          	addi	s0,sp,96
  14:	faa43423          	sd	a0,-88(s0)
  18:	fab43023          	sd	a1,-96(s0)
  1c:	fa843503          	ld	a0,-88(s0)
  20:	00000317          	auipc	t1,0x0
  24:	00033303          	ld	t1,0(t1) # 20 <std::_Hashtable<dwarf::DW_TAG, dwarf::DW_TAG, std::allocator<dwarf::DW_TAG>, std::__detail::_Identity, std::equal_to<dwarf::DW_TAG>, std::hash<dwarf::DW_TAG>, std::__detail::_Mod_range_hashing, std::__detail::_Default_ranged_hash, std::__detail::_Prime_rehash_policy, std::__detail::_Hashtable_traits<true, true, true> >::find(dwarf::DW_TAG const&) const+0x20>
  28:	000300e7          	jalr	ra,0(t1)
  2c:	00050493          	addi	s1,a0,0
  30:	00000317          	auipc	t1,0x0
  34:	00033303          	ld	t1,0(t1) # 30 <std::_Hashtable<dwarf::DW_TAG, dwarf::DW_TAG, std::allocator<dwarf::DW_TAG>, std::__detail::_Identity, std::equal_to<dwarf::DW_TAG>, std::hash<dwarf::DW_TAG>, std::__detail::_Mod_range_hashing, std::__detail::_Default_ranged_hash, std::__detail::_Prime_rehash_policy, std::__detail::_Hashtable_traits<true, true, true> >::find(dwarf::DW_TAG const&) const+0x30>
  38:	000300e7          	jalr	ra,0(t1)
  3c:	00050793          	addi	a5,a0,0
  40:	0097b7b3          	sltu	a5,a5,s1
  44:	0017c793          	xori	a5,a5,1
  48:	0ff7f793          	andi	a5,a5,255
  4c:	0a078c63          	beq	a5,zero,104 <.L245>
  50:	fa843503          	ld	a0,-88(s0)
  54:	00000317          	auipc	t1,0x0
  58:	00033303          	ld	t1,0(t1) # 54 <std::_Hashtable<dwarf::DW_TAG, dwarf::DW_TAG, std::allocator<dwarf::DW_TAG>, std::__detail::_Identity, std::equal_to<dwarf::DW_TAG>, std::hash<dwarf::DW_TAG>, std::__detail::_Mod_range_hashing, std::__detail::_Default_ranged_hash, std::__detail::_Prime_rehash_policy, std::__detail::_Hashtable_traits<true, true, true> >::find(dwarf::DW_TAG const&) const+0x54>
  5c:	000300e7          	jalr	ra,0(t1)
  60:	00050793          	addi	a5,a0,0
  64:	faf43c23          	sd	a5,-72(s0)
  68:	0480006f          	jal	zero,b0 <.L246>

000000000000006c <.L249>:
  6c:	fb843783          	ld	a5,-72(s0)
  70:	00878793          	addi	a5,a5,8
  74:	00078613          	addi	a2,a5,0
  78:	fa043583          	ld	a1,-96(s0)
  7c:	fa843503          	ld	a0,-88(s0)
  80:	00000317          	auipc	t1,0x0
  84:	00033303          	ld	t1,0(t1) # 80 <.L249+0x14>
  88:	000300e7          	jalr	ra,0(t1)
  8c:	00050793          	addi	a5,a0,0
  90:	00078663          	beq	a5,zero,9c <.L247>
  94:	fb843783          	ld	a5,-72(s0)
  98:	0e00006f          	jal	zero,178 <.L248>

000000000000009c <.L247>:
  9c:	fb840793          	addi	a5,s0,-72
  a0:	00078513          	addi	a0,a5,0
  a4:	00000317          	auipc	t1,0x0
  a8:	00033303          	ld	t1,0(t1) # a4 <.L247+0x8>
  ac:	000300e7          	jalr	ra,0(t1)

00000000000000b0 <.L246>:
  b0:	fa843503          	ld	a0,-88(s0)
  b4:	00000317          	auipc	t1,0x0
  b8:	00033303          	ld	t1,0(t1) # b4 <.L246+0x4>
  bc:	000300e7          	jalr	ra,0(t1)
  c0:	00050793          	addi	a5,a0,0
  c4:	fcf43023          	sd	a5,-64(s0)
  c8:	fc040713          	addi	a4,s0,-64
  cc:	fb840793          	addi	a5,s0,-72
  d0:	00070593          	addi	a1,a4,0
  d4:	00078513          	addi	a0,a5,0
  d8:	00000317          	auipc	t1,0x0
  dc:	00033303          	ld	t1,0(t1) # d8 <.L246+0x28>
  e0:	000300e7          	jalr	ra,0(t1)
  e4:	00050793          	addi	a5,a0,0
  e8:	f80792e3          	bne	a5,zero,6c <.L249>
  ec:	fa843503          	ld	a0,-88(s0)
  f0:	00000317          	auipc	t1,0x0
  f4:	00033303          	ld	t1,0(t1) # f0 <.L246+0x40>
  f8:	000300e7          	jalr	ra,0(t1)
  fc:	00050793          	addi	a5,a0,0
 100:	0780006f          	jal	zero,178 <.L248>

0000000000000104 <.L245>:
 104:	fa043583          	ld	a1,-96(s0)
 108:	fa843503          	ld	a0,-88(s0)
 10c:	00000317          	auipc	t1,0x0
 110:	00033303          	ld	t1,0(t1) # 10c <.L245+0x8>
 114:	000300e7          	jalr	ra,0(t1)
 118:	00050793          	addi	a5,a0,0
 11c:	fcf43c23          	sd	a5,-40(s0)
 120:	fd843583          	ld	a1,-40(s0)
 124:	fa843503          	ld	a0,-88(s0)
 128:	00000317          	auipc	t1,0x0
 12c:	00033303          	ld	t1,0(t1) # 128 <.L245+0x24>
 130:	000300e7          	jalr	ra,0(t1)
 134:	00050793          	addi	a5,a0,0
 138:	fcf43823          	sd	a5,-48(s0)
 13c:	fd843683          	ld	a3,-40(s0)
 140:	fa043603          	ld	a2,-96(s0)
 144:	fd043583          	ld	a1,-48(s0)
 148:	fa843503          	ld	a0,-88(s0)
 14c:	00000317          	auipc	t1,0x0
 150:	00033303          	ld	t1,0(t1) # 14c <.L245+0x48>
 154:	000300e7          	jalr	ra,0(t1)
 158:	00050713          	addi	a4,a0,0
 15c:	fc840793          	addi	a5,s0,-56
 160:	00070593          	addi	a1,a4,0
 164:	00078513          	addi	a0,a5,0
 168:	00000317          	auipc	t1,0x0
 16c:	00033303          	ld	t1,0(t1) # 168 <.L245+0x64>
 170:	000300e7          	jalr	ra,0(t1)
 174:	fc843783          	ld	a5,-56(s0)

0000000000000178 <.L248>:
 178:	00078513          	addi	a0,a5,0
 17c:	05813083          	ld	ra,88(sp)
 180:	05013403          	ld	s0,80(sp)
 184:	04813483          	ld	s1,72(sp)
 188:	06010113          	addi	sp,sp,96
 18c:	00008067          	jalr	zero,0(ra)

Disassembly of section .text._ZNSt8__detail20_Node_const_iteratorIN5dwarf6DW_TAGELb1ELb1EEppEv:

0000000000000000 <std::__detail::_Node_const_iterator<dwarf::DW_TAG, true, true>::operator++()>:
   0:	fe010113          	addi	sp,sp,-32
   4:	00113c23          	sd	ra,24(sp)
   8:	00813823          	sd	s0,16(sp)
   c:	02010413          	addi	s0,sp,32
  10:	fea43423          	sd	a0,-24(s0)
  14:	fe843783          	ld	a5,-24(s0)
  18:	00078513          	addi	a0,a5,0
  1c:	00000317          	auipc	t1,0x0
  20:	00033303          	ld	t1,0(t1) # 1c <std::__detail::_Node_const_iterator<dwarf::DW_TAG, true, true>::operator++()+0x1c>
  24:	000300e7          	jalr	ra,0(t1)
  28:	fe843783          	ld	a5,-24(s0)
  2c:	00078513          	addi	a0,a5,0
  30:	01813083          	ld	ra,24(sp)
  34:	01013403          	ld	s0,16(sp)
  38:	02010113          	addi	sp,sp,32
  3c:	00008067          	jalr	zero,0(ra)

Disassembly of section .text._ZNSt8__detail21_Hash_node_value_baseISt4pairIKPKcN5dwarf3dieEEE4_M_vEv:

0000000000000000 <std::__detail::_Hash_node_value_base<std::pair<char const* const, dwarf::die> >::_M_v()>:
   0:	fe010113          	addi	sp,sp,-32
   4:	00113c23          	sd	ra,24(sp)
   8:	00813823          	sd	s0,16(sp)
   c:	02010413          	addi	s0,sp,32
  10:	fea43423          	sd	a0,-24(s0)
  14:	fe843503          	ld	a0,-24(s0)
  18:	00000317          	auipc	t1,0x0
  1c:	00033303          	ld	t1,0(t1) # 18 <std::__detail::_Hash_node_value_base<std::pair<char const* const, dwarf::die> >::_M_v()+0x18>
  20:	000300e7          	jalr	ra,0(t1)
  24:	00050793          	addi	a5,a0,0
  28:	00078513          	addi	a0,a5,0
  2c:	01813083          	ld	ra,24(sp)
  30:	01013403          	ld	s0,16(sp)
  34:	02010113          	addi	sp,sp,32
  38:	00008067          	jalr	zero,0(ra)

Disassembly of section .text._ZNSt5tupleIJRKPKcEEC2ILb1ELb1EEES3_:

0000000000000000 <std::tuple<char const* const&>::tuple<true, true>(char const* const&)>:
   0:	fe010113          	addi	sp,sp,-32
   4:	00113c23          	sd	ra,24(sp)
   8:	00813823          	sd	s0,16(sp)
   c:	02010413          	addi	s0,sp,32
  10:	fea43423          	sd	a0,-24(s0)
  14:	feb43023          	sd	a1,-32(s0)
  18:	fe843783          	ld	a5,-24(s0)
  1c:	fe043583          	ld	a1,-32(s0)
  20:	00078513          	addi	a0,a5,0
  24:	00000317          	auipc	t1,0x0
  28:	00033303          	ld	t1,0(t1) # 24 <std::tuple<char const* const&>::tuple<true, true>(char const* const&)+0x24>
  2c:	000300e7          	jalr	ra,0(t1)
  30:	00000013          	addi	zero,zero,0
  34:	01813083          	ld	ra,24(sp)
  38:	01013403          	ld	s0,16(sp)
  3c:	02010113          	addi	sp,sp,32
  40:	00008067          	jalr	zero,0(ra)

Disassembly of section .text._ZNSt10_HashtableIPKcSt4pairIKS1_N5dwarf3dieEESaIS6_ENSt8__detail10_Select1stENS4_9string_eqENS4_11string_hashENS8_18_Mod_range_hashingENS8_20_Default_ranged_hashENS8_20_Prime_rehash_policyENS8_17_Hashtable_traitsILb1ELb0ELb1EEEE12_Scoped_nodeC2IJRKSt21piecewise_construct_tSt5tupleIJRS3_EESN_IJEEEEEPNS8_16_Hashtable_allocISaINS8_10_Hash_nodeIS6_Lb1EEEEEEDpOT_:

0000000000000000 <std::_Hashtable<char const*, std::pair<char const* const, dwarf::die>, std::allocator<std::pair<char const* const, dwarf::die> >, std::__detail::_Select1st, dwarf::string_eq, dwarf::string_hash, std::__detail::_Mod_range_hashing, std::__detail::_Default_ranged_hash, std::__detail::_Prime_rehash_policy, std::__detail::_Hashtable_traits<true, false, true> >::_Scoped_node::_Scoped_node<std::piecewise_construct_t const&, std::tuple<char const* const&>, std::tuple<> >(std::__detail::_Hashtable_alloc<std::allocator<std::__detail::_Hash_node<std::pair<char const* const, dwarf::die>, true> > >*, std::piecewise_construct_t const&, std::tuple<char const* const&>&&, std::tuple<>&&)>:
   0:	fa010113          	addi	sp,sp,-96
   4:	04113c23          	sd	ra,88(sp)
   8:	04813823          	sd	s0,80(sp)
   c:	04913423          	sd	s1,72(sp)
  10:	05213023          	sd	s2,64(sp)
  14:	03313c23          	sd	s3,56(sp)
  18:	06010413          	addi	s0,sp,96
  1c:	fca43423          	sd	a0,-56(s0)
  20:	fcb43023          	sd	a1,-64(s0)
  24:	fac43c23          	sd	a2,-72(s0)
  28:	fad43823          	sd	a3,-80(s0)
  2c:	fae43423          	sd	a4,-88(s0)
  30:	fc843783          	ld	a5,-56(s0)
  34:	fc043703          	ld	a4,-64(s0)
  38:	00e7b023          	sd	a4,0(a5)
  3c:	fc043483          	ld	s1,-64(s0)
  40:	fb843503          	ld	a0,-72(s0)
  44:	00000317          	auipc	t1,0x0
  48:	00033303          	ld	t1,0(t1) # 44 <std::_Hashtable<char const*, std::pair<char const* const, dwarf::die>, std::allocator<std::pair<char const* const, dwarf::die> >, std::__detail::_Select1st, dwarf::string_eq, dwarf::string_hash, std::__detail::_Mod_range_hashing, std::__detail::_Default_ranged_hash, std::__detail::_Prime_rehash_policy, std::__detail::_Hashtable_traits<true, false, true> >::_Scoped_node::_Scoped_node<std::piecewise_construct_t const&, std::tuple<char const* const&>, std::tuple<> >(std::__detail::_Hashtable_alloc<std::allocator<std::__detail::_Hash_node<std::pair<char const* const, dwarf::die>, true> > >*, std::piecewise_construct_t const&, std::tuple<char const* const&>&&, std::tuple<>&&)+0x44>
  4c:	000300e7          	jalr	ra,0(t1)
  50:	00050913          	addi	s2,a0,0
  54:	fb043503          	ld	a0,-80(s0)
  58:	00000317          	auipc	t1,0x0
  5c:	00033303          	ld	t1,0(t1) # 58 <std::_Hashtable<char const*, std::pair<char const* const, dwarf::die>, std::allocator<std::pair<char const* const, dwarf::die> >, std::__detail::_Select1st, dwarf::string_eq, dwarf::string_hash, std::__detail::_Mod_range_hashing, std::__detail::_Default_ranged_hash, std::__detail::_Prime_rehash_policy, std::__detail::_Hashtable_traits<true, false, true> >::_Scoped_node::_Scoped_node<std::piecewise_construct_t const&, std::tuple<char const* const&>, std::tuple<> >(std::__detail::_Hashtable_alloc<std::allocator<std::__detail::_Hash_node<std::pair<char const* const, dwarf::die>, true> > >*, std::piecewise_construct_t const&, std::tuple<char const* const&>&&, std::tuple<>&&)+0x58>
  60:	000300e7          	jalr	ra,0(t1)
  64:	00050993          	addi	s3,a0,0
  68:	fa843503          	ld	a0,-88(s0)
  6c:	00000317          	auipc	t1,0x0
  70:	00033303          	ld	t1,0(t1) # 6c <std::_Hashtable<char const*, std::pair<char const* const, dwarf::die>, std::allocator<std::pair<char const* const, dwarf::die> >, std::__detail::_Select1st, dwarf::string_eq, dwarf::string_hash, std::__detail::_Mod_range_hashing, std::__detail::_Default_ranged_hash, std::__detail::_Prime_rehash_policy, std::__detail::_Hashtable_traits<true, false, true> >::_Scoped_node::_Scoped_node<std::piecewise_construct_t const&, std::tuple<char const* const&>, std::tuple<> >(std::__detail::_Hashtable_alloc<std::allocator<std::__detail::_Hash_node<std::pair<char const* const, dwarf::die>, true> > >*, std::piecewise_construct_t const&, std::tuple<char const* const&>&&, std::tuple<>&&)+0x6c>
  74:	000300e7          	jalr	ra,0(t1)
  78:	00050793          	addi	a5,a0,0
  7c:	00078693          	addi	a3,a5,0
  80:	00098613          	addi	a2,s3,0
  84:	00090593          	addi	a1,s2,0
  88:	00048513          	addi	a0,s1,0
  8c:	00000317          	auipc	t1,0x0
  90:	00033303          	ld	t1,0(t1) # 8c <std::_Hashtable<char const*, std::pair<char const* const, dwarf::die>, std::allocator<std::pair<char const* const, dwarf::die> >, std::__detail::_Select1st, dwarf::string_eq, dwarf::string_hash, std::__detail::_Mod_range_hashing, std::__detail::_Default_ranged_hash, std::__detail::_Prime_rehash_policy, std::__detail::_Hashtable_traits<true, false, true> >::_Scoped_node::_Scoped_node<std::piecewise_construct_t const&, std::tuple<char const* const&>, std::tuple<> >(std::__detail::_Hashtable_alloc<std::allocator<std::__detail::_Hash_node<std::pair<char const* const, dwarf::die>, true> > >*, std::piecewise_construct_t const&, std::tuple<char const* const&>&&, std::tuple<>&&)+0x8c>
  94:	000300e7          	jalr	ra,0(t1)
  98:	00050713          	addi	a4,a0,0
  9c:	fc843783          	ld	a5,-56(s0)
  a0:	00e7b423          	sd	a4,8(a5)
  a4:	00000013          	addi	zero,zero,0
  a8:	05813083          	ld	ra,88(sp)
  ac:	05013403          	ld	s0,80(sp)
  b0:	04813483          	ld	s1,72(sp)
  b4:	04013903          	ld	s2,64(sp)
  b8:	03813983          	ld	s3,56(sp)
  bc:	06010113          	addi	sp,sp,96
  c0:	00008067          	jalr	zero,0(ra)

Disassembly of section .text._ZNSt10_HashtableIPKcSt4pairIKS1_N5dwarf3dieEESaIS6_ENSt8__detail10_Select1stENS4_9string_eqENS4_11string_hashENS8_18_Mod_range_hashingENS8_20_Default_ranged_hashENS8_20_Prime_rehash_policyENS8_17_Hashtable_traitsILb1ELb0ELb1EEEE12_Scoped_nodeD2Ev:

0000000000000000 <std::_Hashtable<char const*, std::pair<char const* const, dwarf::die>, std::allocator<std::pair<char const* const, dwarf::die> >, std::__detail::_Select1st, dwarf::string_eq, dwarf::string_hash, std::__detail::_Mod_range_hashing, std::__detail::_Default_ranged_hash, std::__detail::_Prime_rehash_policy, std::__detail::_Hashtable_traits<true, false, true> >::_Scoped_node::~_Scoped_node()>:
   0:	fe010113          	addi	sp,sp,-32
   4:	00113c23          	sd	ra,24(sp)
   8:	00813823          	sd	s0,16(sp)
   c:	02010413          	addi	s0,sp,32
  10:	fea43423          	sd	a0,-24(s0)
  14:	fe843783          	ld	a5,-24(s0)
  18:	0087b783          	ld	a5,8(a5)
  1c:	02078463          	beq	a5,zero,44 <.L258>
  20:	fe843783          	ld	a5,-24(s0)
  24:	0007b703          	ld	a4,0(a5)
  28:	fe843783          	ld	a5,-24(s0)
  2c:	0087b783          	ld	a5,8(a5)
  30:	00078593          	addi	a1,a5,0
  34:	00070513          	addi	a0,a4,0
  38:	00000317          	auipc	t1,0x0
  3c:	00033303          	ld	t1,0(t1) # 38 <std::_Hashtable<char const*, std::pair<char const* const, dwarf::die>, std::allocator<std::pair<char const* const, dwarf::die> >, std::__detail::_Select1st, dwarf::string_eq, dwarf::string_hash, std::__detail::_Mod_range_hashing, std::__detail::_Default_ranged_hash, std::__detail::_Prime_rehash_policy, std::__detail::_Hashtable_traits<true, false, true> >::_Scoped_node::~_Scoped_node()+0x38>
  40:	000300e7          	jalr	ra,0(t1)

0000000000000044 <.L258>:
  44:	00000013          	addi	zero,zero,0
  48:	01813083          	ld	ra,24(sp)
  4c:	01013403          	ld	s0,16(sp)
  50:	02010113          	addi	sp,sp,32
  54:	00008067          	jalr	zero,0(ra)

Disassembly of section .text._ZNSt10_HashtableIPKcSt4pairIKS1_N5dwarf3dieEESaIS6_ENSt8__detail10_Select1stENS4_9string_eqENS4_11string_hashENS8_18_Mod_range_hashingENS8_20_Default_ranged_hashENS8_20_Prime_rehash_policyENS8_17_Hashtable_traitsILb1ELb0ELb1EEEE21_M_insert_unique_nodeEmmPNS8_10_Hash_nodeIS6_Lb1EEEm:

0000000000000000 <std::_Hashtable<char const*, std::pair<char const* const, dwarf::die>, std::allocator<std::pair<char const* const, dwarf::die> >, std::__detail::_Select1st, dwarf::string_eq, dwarf::string_hash, std::__detail::_Mod_range_hashing, std::__detail::_Default_ranged_hash, std::__detail::_Prime_rehash_policy, std::__detail::_Hashtable_traits<true, false, true> >::_M_insert_unique_node(unsigned long, unsigned long, std::__detail::_Hash_node<std::pair<char const* const, dwarf::die>, true>*, unsigned long)>:
   0:	f9010113          	addi	sp,sp,-112
   4:	06113423          	sd	ra,104(sp)
   8:	06813023          	sd	s0,96(sp)
   c:	07010413          	addi	s0,sp,112
  10:	faa43c23          	sd	a0,-72(s0)
  14:	fab43823          	sd	a1,-80(s0)
  18:	fac43423          	sd	a2,-88(s0)
  1c:	fad43023          	sd	a3,-96(s0)
  20:	f8e43c23          	sd	a4,-104(s0)
  24:	fb843783          	ld	a5,-72(s0)
  28:	02078793          	addi	a5,a5,32
  2c:	00078513          	addi	a0,a5,0
  30:	00000317          	auipc	t1,0x0
  34:	00033303          	ld	t1,0(t1) # 30 <std::_Hashtable<char const*, std::pair<char const* const, dwarf::die>, std::allocator<std::pair<char const* const, dwarf::die> >, std::__detail::_Select1st, dwarf::string_eq, dwarf::string_hash, std::__detail::_Mod_range_hashing, std::__detail::_Default_ranged_hash, std::__detail::_Prime_rehash_policy, std::__detail::_Hashtable_traits<true, false, true> >::_M_insert_unique_node(unsigned long, unsigned long, std::__detail::_Hash_node<std::pair<char const* const, dwarf::die>, true>*, unsigned long)+0x30>
  38:	000300e7          	jalr	ra,0(t1)
  3c:	00050793          	addi	a5,a0,0
  40:	fcf43c23          	sd	a5,-40(s0)
  44:	fd840793          	addi	a5,s0,-40
  48:	fef43423          	sd	a5,-24(s0)
  4c:	fb843783          	ld	a5,-72(s0)
  50:	02078713          	addi	a4,a5,32
  54:	fb843783          	ld	a5,-72(s0)
  58:	0087b583          	ld	a1,8(a5)
  5c:	fb843783          	ld	a5,-72(s0)
  60:	0187b783          	ld	a5,24(a5)
  64:	f9843683          	ld	a3,-104(s0)
  68:	00078613          	addi	a2,a5,0
  6c:	00070513          	addi	a0,a4,0
  70:	00000097          	auipc	ra,0x0
  74:	000080e7          	jalr	ra,0(ra) # 70 <std::_Hashtable<char const*, std::pair<char const* const, dwarf::die>, std::allocator<std::pair<char const* const, dwarf::die> >, std::__detail::_Select1st, dwarf::string_eq, dwarf::string_hash, std::__detail::_Mod_range_hashing, std::__detail::_Default_ranged_hash, std::__detail::_Prime_rehash_policy, std::__detail::_Hashtable_traits<true, false, true> >::_M_insert_unique_node(unsigned long, unsigned long, std::__detail::_Hash_node<std::pair<char const* const, dwarf::die>, true>*, unsigned long)+0x70>
  78:	00050713          	addi	a4,a0,0
  7c:	00058793          	addi	a5,a1,0
  80:	fce43423          	sd	a4,-56(s0)
  84:	fcf43823          	sd	a5,-48(s0)
  88:	fc844783          	lbu	a5,-56(s0)
  8c:	02078e63          	beq	a5,zero,c8 <.L260>
  90:	fd043783          	ld	a5,-48(s0)
  94:	fe843603          	ld	a2,-24(s0)
  98:	00078593          	addi	a1,a5,0
  9c:	fb843503          	ld	a0,-72(s0)
  a0:	00000317          	auipc	t1,0x0
  a4:	00033303          	ld	t1,0(t1) # a0 <std::_Hashtable<char const*, std::pair<char const* const, dwarf::die>, std::allocator<std::pair<char const* const, dwarf::die> >, std::__detail::_Select1st, dwarf::string_eq, dwarf::string_hash, std::__detail::_Mod_range_hashing, std::__detail::_Default_ranged_hash, std::__detail::_Prime_rehash_policy, std::__detail::_Hashtable_traits<true, false, true> >::_M_insert_unique_node(unsigned long, unsigned long, std::__detail::_Hash_node<std::pair<char const* const, dwarf::die>, true>*, unsigned long)+0xa0>
  a8:	000300e7          	jalr	ra,0(t1)
  ac:	fa843583          	ld	a1,-88(s0)
  b0:	fb843503          	ld	a0,-72(s0)
  b4:	00000317          	auipc	t1,0x0
  b8:	00033303          	ld	t1,0(t1) # b4 <std::_Hashtable<char const*, std::pair<char const* const, dwarf::die>, std::allocator<std::pair<char const* const, dwarf::die> >, std::__detail::_Select1st, dwarf::string_eq, dwarf::string_hash, std::__detail::_Mod_range_hashing, std::__detail::_Default_ranged_hash, std::__detail::_Prime_rehash_policy, std::__detail::_Hashtable_traits<true, false, true> >::_M_insert_unique_node(unsigned long, unsigned long, std::__detail::_Hash_node<std::pair<char const* const, dwarf::die>, true>*, unsigned long)+0xb4>
  bc:	000300e7          	jalr	ra,0(t1)
  c0:	00050793          	addi	a5,a0,0
  c4:	faf43823          	sd	a5,-80(s0)

00000000000000c8 <.L260>:
  c8:	fa043783          	ld	a5,-96(s0)
  cc:	08078793          	addi	a5,a5,128
  d0:	fa843603          	ld	a2,-88(s0)
  d4:	00078593          	addi	a1,a5,0
  d8:	fb843503          	ld	a0,-72(s0)
  dc:	00000317          	auipc	t1,0x0
  e0:	00033303          	ld	t1,0(t1) # dc <.L260+0x14>
  e4:	000300e7          	jalr	ra,0(t1)
  e8:	fa043603          	ld	a2,-96(s0)
  ec:	fb043583          	ld	a1,-80(s0)
  f0:	fb843503          	ld	a0,-72(s0)
  f4:	00000317          	auipc	t1,0x0
  f8:	00033303          	ld	t1,0(t1) # f4 <.L260+0x2c>
  fc:	000300e7          	jalr	ra,0(t1)
 100:	fb843783          	ld	a5,-72(s0)
 104:	0187b783          	ld	a5,24(a5)
 108:	00178713          	addi	a4,a5,1
 10c:	fb843783          	ld	a5,-72(s0)
 110:	00e7bc23          	sd	a4,24(a5)
 114:	fe040793          	addi	a5,s0,-32
 118:	fa043583          	ld	a1,-96(s0)
 11c:	00078513          	addi	a0,a5,0
 120:	00000317          	auipc	t1,0x0
 124:	00033303          	ld	t1,0(t1) # 120 <.L260+0x58>
 128:	000300e7          	jalr	ra,0(t1)
 12c:	fe043783          	ld	a5,-32(s0)
 130:	00078513          	addi	a0,a5,0
 134:	06813083          	ld	ra,104(sp)
 138:	06013403          	ld	s0,96(sp)
 13c:	07010113          	addi	sp,sp,112
 140:	00008067          	jalr	zero,0(ra)

Disassembly of section .text._ZNKSt8__detail10_Hash_nodeISt4pairIKPKcN5dwarf3dieEELb1EE7_M_nextEv:

0000000000000000 <std::__detail::_Hash_node<std::pair<char const* const, dwarf::die>, true>::_M_next() const>:
   0:	fe010113          	addi	sp,sp,-32
   4:	00813c23          	sd	s0,24(sp)
   8:	02010413          	addi	s0,sp,32
   c:	fea43423          	sd	a0,-24(s0)
  10:	fe843783          	ld	a5,-24(s0)
  14:	0007b783          	ld	a5,0(a5)
  18:	00078513          	addi	a0,a5,0
  1c:	01813403          	ld	s0,24(sp)
  20:	02010113          	addi	sp,sp,32
  24:	00008067          	jalr	zero,0(ra)

Disassembly of section .text._ZNSt8__detail16_Hashtable_allocISaINS_10_Hash_nodeISt4pairIKPKcN5dwarf3dieEELb1EEEEE18_M_deallocate_nodeEPS9_:

0000000000000000 <std::__detail::_Hashtable_alloc<std::allocator<std::__detail::_Hash_node<std::pair<char const* const, dwarf::die>, true> > >::_M_deallocate_node(std::__detail::_Hash_node<std::pair<char const* const, dwarf::die>, true>*)>:
   0:	fd010113          	addi	sp,sp,-48
   4:	02113423          	sd	ra,40(sp)
   8:	02813023          	sd	s0,32(sp)
   c:	00913c23          	sd	s1,24(sp)
  10:	03010413          	addi	s0,sp,48
  14:	fca43c23          	sd	a0,-40(s0)
  18:	fcb43823          	sd	a1,-48(s0)
  1c:	fd843503          	ld	a0,-40(s0)
  20:	00000317          	auipc	t1,0x0
  24:	00033303          	ld	t1,0(t1) # 20 <std::__detail::_Hashtable_alloc<std::allocator<std::__detail::_Hash_node<std::pair<char const* const, dwarf::die>, true> > >::_M_deallocate_node(std::__detail::_Hash_node<std::pair<char const* const, dwarf::die>, true>*)+0x20>
  28:	000300e7          	jalr	ra,0(t1)
  2c:	00050493          	addi	s1,a0,0
  30:	fd043783          	ld	a5,-48(s0)
  34:	00878793          	addi	a5,a5,8
  38:	00078513          	addi	a0,a5,0
  3c:	00000317          	auipc	t1,0x0
  40:	00033303          	ld	t1,0(t1) # 3c <std::__detail::_Hashtable_alloc<std::allocator<std::__detail::_Hash_node<std::pair<char const* const, dwarf::die>, true> > >::_M_deallocate_node(std::__detail::_Hash_node<std::pair<char const* const, dwarf::die>, true>*)+0x3c>
  44:	000300e7          	jalr	ra,0(t1)
  48:	00050793          	addi	a5,a0,0
  4c:	00078593          	addi	a1,a5,0
  50:	00048513          	addi	a0,s1,0
  54:	00000317          	auipc	t1,0x0
  58:	00033303          	ld	t1,0(t1) # 54 <std::__detail::_Hashtable_alloc<std::allocator<std::__detail::_Hash_node<std::pair<char const* const, dwarf::die>, true> > >::_M_deallocate_node(std::__detail::_Hash_node<std::pair<char const* const, dwarf::die>, true>*)+0x54>
  5c:	000300e7          	jalr	ra,0(t1)
  60:	fd043583          	ld	a1,-48(s0)
  64:	fd843503          	ld	a0,-40(s0)
  68:	00000317          	auipc	t1,0x0
  6c:	00033303          	ld	t1,0(t1) # 68 <std::__detail::_Hashtable_alloc<std::allocator<std::__detail::_Hash_node<std::pair<char const* const, dwarf::die>, true> > >::_M_deallocate_node(std::__detail::_Hash_node<std::pair<char const* const, dwarf::die>, true>*)+0x68>
  70:	000300e7          	jalr	ra,0(t1)
  74:	00000013          	addi	zero,zero,0
  78:	02813083          	ld	ra,40(sp)
  7c:	02013403          	ld	s0,32(sp)
  80:	01813483          	ld	s1,24(sp)
  84:	03010113          	addi	sp,sp,48
  88:	00008067          	jalr	zero,0(ra)

Disassembly of section .text._ZNKSt10_HashtableIPKcSt4pairIKS1_N5dwarf3dieEESaIS6_ENSt8__detail10_Select1stENS4_9string_eqENS4_11string_hashENS8_18_Mod_range_hashingENS8_20_Default_ranged_hashENS8_20_Prime_rehash_policyENS8_17_Hashtable_traitsILb1ELb0ELb1EEEE21_M_uses_single_bucketEPPNS8_15_Hash_node_baseE:

0000000000000000 <std::_Hashtable<char const*, std::pair<char const* const, dwarf::die>, std::allocator<std::pair<char const* const, dwarf::die> >, std::__detail::_Select1st, dwarf::string_eq, dwarf::string_hash, std::__detail::_Mod_range_hashing, std::__detail::_Default_ranged_hash, std::__detail::_Prime_rehash_policy, std::__detail::_Hashtable_traits<true, false, true> >::_M_uses_single_bucket(std::__detail::_Hash_node_base**) const>:
   0:	fe010113          	addi	sp,sp,-32
   4:	00813c23          	sd	s0,24(sp)
   8:	02010413          	addi	s0,sp,32
   c:	fea43423          	sd	a0,-24(s0)
  10:	feb43023          	sd	a1,-32(s0)
  14:	fe843783          	ld	a5,-24(s0)
  18:	03078793          	addi	a5,a5,48
  1c:	fe043703          	ld	a4,-32(s0)
  20:	40f707b3          	sub	a5,a4,a5
  24:	0017b793          	sltiu	a5,a5,1
  28:	0ff7f793          	andi	a5,a5,255
  2c:	00f037b3          	sltu	a5,zero,a5
  30:	0ff7f793          	andi	a5,a5,255
  34:	00078513          	addi	a0,a5,0
  38:	01813403          	ld	s0,24(sp)
  3c:	02010113          	addi	sp,sp,32
  40:	00008067          	jalr	zero,0(ra)

Disassembly of section .text._ZNSt8__detail16_Hashtable_allocISaINS_10_Hash_nodeISt4pairIKPKcN5dwarf3dieEELb1EEEEE21_M_deallocate_bucketsEPPNS_15_Hash_node_baseEm:

0000000000000000 <std::__detail::_Hashtable_alloc<std::allocator<std::__detail::_Hash_node<std::pair<char const* const, dwarf::die>, true> > >::_M_deallocate_buckets(std::__detail::_Hash_node_base**, unsigned long)>:
   0:	fb010113          	addi	sp,sp,-80
   4:	04113423          	sd	ra,72(sp)
   8:	04813023          	sd	s0,64(sp)
   c:	02913c23          	sd	s1,56(sp)
  10:	05010413          	addi	s0,sp,80
  14:	fca43423          	sd	a0,-56(s0)
  18:	fcb43023          	sd	a1,-64(s0)
  1c:	fac43c23          	sd	a2,-72(s0)
  20:	fc043503          	ld	a0,-64(s0)
  24:	00000317          	auipc	t1,0x0
  28:	00033303          	ld	t1,0(t1) # 24 <std::__detail::_Hashtable_alloc<std::allocator<std::__detail::_Hash_node<std::pair<char const* const, dwarf::die>, true> > >::_M_deallocate_buckets(std::__detail::_Hash_node_base**, unsigned long)+0x24>
  2c:	000300e7          	jalr	ra,0(t1)
  30:	fca43c23          	sd	a0,-40(s0)
  34:	fc843503          	ld	a0,-56(s0)
  38:	00000317          	auipc	t1,0x0
  3c:	00033303          	ld	t1,0(t1) # 38 <std::__detail::_Hashtable_alloc<std::allocator<std::__detail::_Hash_node<std::pair<char const* const, dwarf::die>, true> > >::_M_deallocate_buckets(std::__detail::_Hash_node_base**, unsigned long)+0x38>

0000000000000040 <.LEHB9>:
  40:	000300e7          	jalr	ra,0(t1)

0000000000000044 <.LEHE9>:
  44:	00050713          	addi	a4,a0,0
  48:	fd040793          	addi	a5,s0,-48
  4c:	00070593          	addi	a1,a4,0
  50:	00078513          	addi	a0,a5,0
  54:	00000317          	auipc	t1,0x0
  58:	00033303          	ld	t1,0(t1) # 54 <.LEHE9+0x10>
  5c:	000300e7          	jalr	ra,0(t1)
  60:	fd040793          	addi	a5,s0,-48
  64:	fb843603          	ld	a2,-72(s0)
  68:	fd843583          	ld	a1,-40(s0)
  6c:	00078513          	addi	a0,a5,0
  70:	00000317          	auipc	t1,0x0
  74:	00033303          	ld	t1,0(t1) # 70 <.LEHE9+0x2c>

0000000000000078 <.LEHB10>:
  78:	000300e7          	jalr	ra,0(t1)

000000000000007c <.LEHE10>:
  7c:	fd040793          	addi	a5,s0,-48
  80:	00078513          	addi	a0,a5,0
  84:	00000317          	auipc	t1,0x0
  88:	00033303          	ld	t1,0(t1) # 84 <.LEHE10+0x8>
  8c:	000300e7          	jalr	ra,0(t1)
  90:	02c0006f          	jal	zero,bc <.L270>

0000000000000094 <.L269>:
  94:	00050493          	addi	s1,a0,0
  98:	fd040793          	addi	a5,s0,-48
  9c:	00078513          	addi	a0,a5,0
  a0:	00000317          	auipc	t1,0x0
  a4:	00033303          	ld	t1,0(t1) # a0 <.L269+0xc>
  a8:	000300e7          	jalr	ra,0(t1)
  ac:	00048793          	addi	a5,s1,0
  b0:	00078513          	addi	a0,a5,0

00000000000000b4 <.LEHB11>:
  b4:	00000097          	auipc	ra,0x0
  b8:	000080e7          	jalr	ra,0(ra) # b4 <.LEHB11>

00000000000000bc <.L270>:
  bc:	04813083          	ld	ra,72(sp)
  c0:	04013403          	ld	s0,64(sp)
  c4:	03813483          	ld	s1,56(sp)
  c8:	05010113          	addi	sp,sp,80
  cc:	00008067          	jalr	zero,0(ra)

Disassembly of section .text._ZNSt10_HashtableIN5dwarf6DW_TAGES1_SaIS1_ENSt8__detail9_IdentityESt8equal_toIS1_ESt4hashIS1_ENS3_18_Mod_range_hashingENS3_20_Default_ranged_hashENS3_20_Prime_rehash_policyENS3_17_Hashtable_traitsILb1ELb1ELb1EEEEC2EmRKS8_RKS6_RKS2_:

0000000000000000 <std::_Hashtable<dwarf::DW_TAG, dwarf::DW_TAG, std::allocator<dwarf::DW_TAG>, std::__detail::_Identity, std::equal_to<dwarf::DW_TAG>, std::hash<dwarf::DW_TAG>, std::__detail::_Mod_range_hashing, std::__detail::_Default_ranged_hash, std::__detail::_Prime_rehash_policy, std::__detail::_Hashtable_traits<true, true, true> >::_Hashtable(unsigned long, std::hash<dwarf::DW_TAG> const&, std::equal_to<dwarf::DW_TAG> const&, std::allocator<dwarf::DW_TAG> const&)>:
   0:	fa010113          	addi	sp,sp,-96
   4:	04113c23          	sd	ra,88(sp)
   8:	04813823          	sd	s0,80(sp)
   c:	04913423          	sd	s1,72(sp)
  10:	06010413          	addi	s0,sp,96
  14:	fca43423          	sd	a0,-56(s0)
  18:	fcb43023          	sd	a1,-64(s0)
  1c:	fac43c23          	sd	a2,-72(s0)
  20:	fad43823          	sd	a3,-80(s0)
  24:	fae43423          	sd	a4,-88(s0)
  28:	fa843683          	ld	a3,-88(s0)
  2c:	fb043603          	ld	a2,-80(s0)
  30:	fb843583          	ld	a1,-72(s0)
  34:	fc843503          	ld	a0,-56(s0)
  38:	00000317          	auipc	t1,0x0
  3c:	00033303          	ld	t1,0(t1) # 38 <std::_Hashtable<dwarf::DW_TAG, dwarf::DW_TAG, std::allocator<dwarf::DW_TAG>, std::__detail::_Identity, std::equal_to<dwarf::DW_TAG>, std::hash<dwarf::DW_TAG>, std::__detail::_Mod_range_hashing, std::__detail::_Default_ranged_hash, std::__detail::_Prime_rehash_policy, std::__detail::_Hashtable_traits<true, true, true> >::_Hashtable(unsigned long, std::hash<dwarf::DW_TAG> const&, std::equal_to<dwarf::DW_TAG> const&, std::allocator<dwarf::DW_TAG> const&)+0x38>

0000000000000040 <.LEHB12>:
  40:	000300e7          	jalr	ra,0(t1)

0000000000000044 <.LEHE12>:
  44:	fc843783          	ld	a5,-56(s0)
  48:	02078793          	addi	a5,a5,32
  4c:	fc043583          	ld	a1,-64(s0)
  50:	00078513          	addi	a0,a5,0

0000000000000054 <.LEHB13>:
  54:	00000097          	auipc	ra,0x0
  58:	000080e7          	jalr	ra,0(ra) # 54 <.LEHB13>
  5c:	00050793          	addi	a5,a0,0
  60:	fcf43c23          	sd	a5,-40(s0)
  64:	fc843783          	ld	a5,-56(s0)
  68:	0087b783          	ld	a5,8(a5)
  6c:	fd843703          	ld	a4,-40(s0)
  70:	04e7fc63          	bgeu	a5,a4,c8 <.L275>
  74:	fd843583          	ld	a1,-40(s0)
  78:	fc843503          	ld	a0,-56(s0)
  7c:	00000317          	auipc	t1,0x0
  80:	00033303          	ld	t1,0(t1) # 7c <.LEHB13+0x28>
  84:	000300e7          	jalr	ra,0(t1)

0000000000000088 <.LEHE13>:
  88:	00050713          	addi	a4,a0,0
  8c:	fc843783          	ld	a5,-56(s0)
  90:	00e7b023          	sd	a4,0(a5)
  94:	fc843783          	ld	a5,-56(s0)
  98:	fd843703          	ld	a4,-40(s0)
  9c:	00e7b423          	sd	a4,8(a5)
  a0:	0280006f          	jal	zero,c8 <.L275>

00000000000000a4 <.L274>:
  a4:	00050493          	addi	s1,a0,0
  a8:	fc843503          	ld	a0,-56(s0)
  ac:	00000317          	auipc	t1,0x0
  b0:	00033303          	ld	t1,0(t1) # ac <.L274+0x8>
  b4:	000300e7          	jalr	ra,0(t1)
  b8:	00048793          	addi	a5,s1,0
  bc:	00078513          	addi	a0,a5,0

00000000000000c0 <.LEHB14>:
  c0:	00000097          	auipc	ra,0x0
  c4:	000080e7          	jalr	ra,0(ra) # c0 <.LEHB14>

00000000000000c8 <.L275>:
  c8:	00000013          	addi	zero,zero,0
  cc:	05813083          	ld	ra,88(sp)
  d0:	05013403          	ld	s0,80(sp)
  d4:	04813483          	ld	s1,72(sp)
  d8:	06010113          	addi	sp,sp,96
  dc:	00008067          	jalr	zero,0(ra)

Disassembly of section .text._ZNSt8__detail12_Insert_baseIN5dwarf6DW_TAGES2_SaIS2_ENS_9_IdentityESt8equal_toIS2_ESt4hashIS2_ENS_18_Mod_range_hashingENS_20_Default_ranged_hashENS_20_Prime_rehash_policyENS_17_Hashtable_traitsILb1ELb1ELb1EEEE6insertERKS2_:

0000000000000000 <std::__detail::_Insert_base<dwarf::DW_TAG, dwarf::DW_TAG, std::allocator<dwarf::DW_TAG>, std::__detail::_Identity, std::equal_to<dwarf::DW_TAG>, std::hash<dwarf::DW_TAG>, std::__detail::_Mod_range_hashing, std::__detail::_Default_ranged_hash, std::__detail::_Prime_rehash_policy, std::__detail::_Hashtable_traits<true, true, true> >::insert(dwarf::DW_TAG const&)>:
   0:	fa010113          	addi	sp,sp,-96
   4:	04113c23          	sd	ra,88(sp)
   8:	04813823          	sd	s0,80(sp)
   c:	04913423          	sd	s1,72(sp)
  10:	05213023          	sd	s2,64(sp)
  14:	03313c23          	sd	s3,56(sp)
  18:	06010413          	addi	s0,sp,96
  1c:	faa43423          	sd	a0,-88(s0)
  20:	fab43023          	sd	a1,-96(s0)
  24:	fa843503          	ld	a0,-88(s0)
  28:	00000317          	auipc	t1,0x0
  2c:	00033303          	ld	t1,0(t1) # 28 <std::__detail::_Insert_base<dwarf::DW_TAG, dwarf::DW_TAG, std::allocator<dwarf::DW_TAG>, std::__detail::_Identity, std::equal_to<dwarf::DW_TAG>, std::hash<dwarf::DW_TAG>, std::__detail::_Mod_range_hashing, std::__detail::_Default_ranged_hash, std::__detail::_Prime_rehash_policy, std::__detail::_Hashtable_traits<true, true, true> >::insert(dwarf::DW_TAG const&)+0x28>
  30:	000300e7          	jalr	ra,0(t1)
  34:	fca43423          	sd	a0,-56(s0)
  38:	fb040793          	addi	a5,s0,-80
  3c:	fc843583          	ld	a1,-56(s0)
  40:	00078513          	addi	a0,a5,0
  44:	00000317          	auipc	t1,0x0
  48:	00033303          	ld	t1,0(t1) # 44 <std::__detail::_Insert_base<dwarf::DW_TAG, dwarf::DW_TAG, std::allocator<dwarf::DW_TAG>, std::__detail::_Identity, std::equal_to<dwarf::DW_TAG>, std::hash<dwarf::DW_TAG>, std::__detail::_Mod_range_hashing, std::__detail::_Default_ranged_hash, std::__detail::_Prime_rehash_policy, std::__detail::_Hashtable_traits<true, true, true> >::insert(dwarf::DW_TAG const&)+0x44>
  4c:	000300e7          	jalr	ra,0(t1)
  50:	fb040793          	addi	a5,s0,-80
  54:	00048693          	addi	a3,s1,0
  58:	00078613          	addi	a2,a5,0
  5c:	fa043583          	ld	a1,-96(s0)
  60:	fc843503          	ld	a0,-56(s0)
  64:	00000317          	auipc	t1,0x0
  68:	00033303          	ld	t1,0(t1) # 64 <std::__detail::_Insert_base<dwarf::DW_TAG, dwarf::DW_TAG, std::allocator<dwarf::DW_TAG>, std::__detail::_Identity, std::equal_to<dwarf::DW_TAG>, std::hash<dwarf::DW_TAG>, std::__detail::_Mod_range_hashing, std::__detail::_Default_ranged_hash, std::__detail::_Prime_rehash_policy, std::__detail::_Hashtable_traits<true, true, true> >::insert(dwarf::DW_TAG const&)+0x64>
  6c:	000300e7          	jalr	ra,0(t1)
  70:	00050713          	addi	a4,a0,0
  74:	00058793          	addi	a5,a1,0
  78:	fae43c23          	sd	a4,-72(s0)
  7c:	fcf43023          	sd	a5,-64(s0)
  80:	fb843703          	ld	a4,-72(s0)
  84:	fc043783          	ld	a5,-64(s0)
  88:	00070913          	addi	s2,a4,0
  8c:	00078993          	addi	s3,a5,0
  90:	00090713          	addi	a4,s2,0
  94:	00098793          	addi	a5,s3,0
  98:	00070513          	addi	a0,a4,0
  9c:	00078593          	addi	a1,a5,0
  a0:	05813083          	ld	ra,88(sp)
  a4:	05013403          	ld	s0,80(sp)
  a8:	04813483          	ld	s1,72(sp)
  ac:	04013903          	ld	s2,64(sp)
  b0:	03813983          	ld	s3,56(sp)
  b4:	06010113          	addi	sp,sp,96
  b8:	00008067          	jalr	zero,0(ra)

Disassembly of section .text._ZNKSt8__detail10_Hash_nodeIN5dwarf6DW_TAGELb1EE7_M_nextEv:

0000000000000000 <std::__detail::_Hash_node<dwarf::DW_TAG, true>::_M_next() const>:
   0:	fe010113          	addi	sp,sp,-32
   4:	00813c23          	sd	s0,24(sp)
   8:	02010413          	addi	s0,sp,32
   c:	fea43423          	sd	a0,-24(s0)
  10:	fe843783          	ld	a5,-24(s0)
  14:	0007b783          	ld	a5,0(a5)
  18:	00078513          	addi	a0,a5,0
  1c:	01813403          	ld	s0,24(sp)
  20:	02010113          	addi	sp,sp,32
  24:	00008067          	jalr	zero,0(ra)

Disassembly of section .text._ZNSt8__detail16_Hashtable_allocISaINS_10_Hash_nodeIN5dwarf6DW_TAGELb1EEEEE18_M_deallocate_nodeEPS4_:

0000000000000000 <std::__detail::_Hashtable_alloc<std::allocator<std::__detail::_Hash_node<dwarf::DW_TAG, true> > >::_M_deallocate_node(std::__detail::_Hash_node<dwarf::DW_TAG, true>*)>:
   0:	fd010113          	addi	sp,sp,-48
   4:	02113423          	sd	ra,40(sp)
   8:	02813023          	sd	s0,32(sp)
   c:	00913c23          	sd	s1,24(sp)
  10:	03010413          	addi	s0,sp,48
  14:	fca43c23          	sd	a0,-40(s0)
  18:	fcb43823          	sd	a1,-48(s0)
  1c:	fd843503          	ld	a0,-40(s0)
  20:	00000317          	auipc	t1,0x0
  24:	00033303          	ld	t1,0(t1) # 20 <std::__detail::_Hashtable_alloc<std::allocator<std::__detail::_Hash_node<dwarf::DW_TAG, true> > >::_M_deallocate_node(std::__detail::_Hash_node<dwarf::DW_TAG, true>*)+0x20>
  28:	000300e7          	jalr	ra,0(t1)
  2c:	00050493          	addi	s1,a0,0
  30:	fd043783          	ld	a5,-48(s0)
  34:	00878793          	addi	a5,a5,8
  38:	00078513          	addi	a0,a5,0
  3c:	00000317          	auipc	t1,0x0
  40:	00033303          	ld	t1,0(t1) # 3c <std::__detail::_Hashtable_alloc<std::allocator<std::__detail::_Hash_node<dwarf::DW_TAG, true> > >::_M_deallocate_node(std::__detail::_Hash_node<dwarf::DW_TAG, true>*)+0x3c>
  44:	000300e7          	jalr	ra,0(t1)
  48:	00050793          	addi	a5,a0,0
  4c:	00078593          	addi	a1,a5,0
  50:	00048513          	addi	a0,s1,0
  54:	00000317          	auipc	t1,0x0
  58:	00033303          	ld	t1,0(t1) # 54 <std::__detail::_Hashtable_alloc<std::allocator<std::__detail::_Hash_node<dwarf::DW_TAG, true> > >::_M_deallocate_node(std::__detail::_Hash_node<dwarf::DW_TAG, true>*)+0x54>
  5c:	000300e7          	jalr	ra,0(t1)
  60:	fd043583          	ld	a1,-48(s0)
  64:	fd843503          	ld	a0,-40(s0)
  68:	00000317          	auipc	t1,0x0
  6c:	00033303          	ld	t1,0(t1) # 68 <std::__detail::_Hashtable_alloc<std::allocator<std::__detail::_Hash_node<dwarf::DW_TAG, true> > >::_M_deallocate_node(std::__detail::_Hash_node<dwarf::DW_TAG, true>*)+0x68>
  70:	000300e7          	jalr	ra,0(t1)
  74:	00000013          	addi	zero,zero,0
  78:	02813083          	ld	ra,40(sp)
  7c:	02013403          	ld	s0,32(sp)
  80:	01813483          	ld	s1,24(sp)
  84:	03010113          	addi	sp,sp,48
  88:	00008067          	jalr	zero,0(ra)

Disassembly of section .text._ZNKSt10_HashtableIN5dwarf6DW_TAGES1_SaIS1_ENSt8__detail9_IdentityESt8equal_toIS1_ESt4hashIS1_ENS3_18_Mod_range_hashingENS3_20_Default_ranged_hashENS3_20_Prime_rehash_policyENS3_17_Hashtable_traitsILb1ELb1ELb1EEEE21_M_uses_single_bucketEPPNS3_15_Hash_node_baseE:

0000000000000000 <std::_Hashtable<dwarf::DW_TAG, dwarf::DW_TAG, std::allocator<dwarf::DW_TAG>, std::__detail::_Identity, std::equal_to<dwarf::DW_TAG>, std::hash<dwarf::DW_TAG>, std::__detail::_Mod_range_hashing, std::__detail::_Default_ranged_hash, std::__detail::_Prime_rehash_policy, std::__detail::_Hashtable_traits<true, true, true> >::_M_uses_single_bucket(std::__detail::_Hash_node_base**) const>:
   0:	fe010113          	addi	sp,sp,-32
   4:	00813c23          	sd	s0,24(sp)
   8:	02010413          	addi	s0,sp,32
   c:	fea43423          	sd	a0,-24(s0)
  10:	feb43023          	sd	a1,-32(s0)
  14:	fe843783          	ld	a5,-24(s0)
  18:	03078793          	addi	a5,a5,48
  1c:	fe043703          	ld	a4,-32(s0)
  20:	40f707b3          	sub	a5,a4,a5
  24:	0017b793          	sltiu	a5,a5,1
  28:	0ff7f793          	andi	a5,a5,255
  2c:	00f037b3          	sltu	a5,zero,a5
  30:	0ff7f793          	andi	a5,a5,255
  34:	00078513          	addi	a0,a5,0
  38:	01813403          	ld	s0,24(sp)
  3c:	02010113          	addi	sp,sp,32
  40:	00008067          	jalr	zero,0(ra)

Disassembly of section .text._ZNSt8__detail16_Hashtable_allocISaINS_10_Hash_nodeIN5dwarf6DW_TAGELb1EEEEE21_M_deallocate_bucketsEPPNS_15_Hash_node_baseEm:

0000000000000000 <std::__detail::_Hashtable_alloc<std::allocator<std::__detail::_Hash_node<dwarf::DW_TAG, true> > >::_M_deallocate_buckets(std::__detail::_Hash_node_base**, unsigned long)>:
   0:	fb010113          	addi	sp,sp,-80
   4:	04113423          	sd	ra,72(sp)
   8:	04813023          	sd	s0,64(sp)
   c:	02913c23          	sd	s1,56(sp)
  10:	05010413          	addi	s0,sp,80
  14:	fca43423          	sd	a0,-56(s0)
  18:	fcb43023          	sd	a1,-64(s0)
  1c:	fac43c23          	sd	a2,-72(s0)
  20:	fc043503          	ld	a0,-64(s0)
  24:	00000317          	auipc	t1,0x0
  28:	00033303          	ld	t1,0(t1) # 24 <std::__detail::_Hashtable_alloc<std::allocator<std::__detail::_Hash_node<dwarf::DW_TAG, true> > >::_M_deallocate_buckets(std::__detail::_Hash_node_base**, unsigned long)+0x24>
  2c:	000300e7          	jalr	ra,0(t1)
  30:	fca43c23          	sd	a0,-40(s0)
  34:	fc843503          	ld	a0,-56(s0)
  38:	00000317          	auipc	t1,0x0
  3c:	00033303          	ld	t1,0(t1) # 38 <std::__detail::_Hashtable_alloc<std::allocator<std::__detail::_Hash_node<dwarf::DW_TAG, true> > >::_M_deallocate_buckets(std::__detail::_Hash_node_base**, unsigned long)+0x38>

0000000000000040 <.LEHB15>:
  40:	000300e7          	jalr	ra,0(t1)

0000000000000044 <.LEHE15>:
  44:	00050713          	addi	a4,a0,0
  48:	fd040793          	addi	a5,s0,-48
  4c:	00070593          	addi	a1,a4,0
  50:	00078513          	addi	a0,a5,0
  54:	00000317          	auipc	t1,0x0
  58:	00033303          	ld	t1,0(t1) # 54 <.LEHE15+0x10>
  5c:	000300e7          	jalr	ra,0(t1)
  60:	fd040793          	addi	a5,s0,-48
  64:	fb843603          	ld	a2,-72(s0)
  68:	fd843583          	ld	a1,-40(s0)
  6c:	00078513          	addi	a0,a5,0
  70:	00000317          	auipc	t1,0x0
  74:	00033303          	ld	t1,0(t1) # 70 <.LEHE15+0x2c>

0000000000000078 <.LEHB16>:
  78:	000300e7          	jalr	ra,0(t1)

000000000000007c <.LEHE16>:
  7c:	fd040793          	addi	a5,s0,-48
  80:	00078513          	addi	a0,a5,0
  84:	00000317          	auipc	t1,0x0
  88:	00033303          	ld	t1,0(t1) # 84 <.LEHE16+0x8>
  8c:	000300e7          	jalr	ra,0(t1)
  90:	02c0006f          	jal	zero,bc <.L286>

0000000000000094 <.L285>:
  94:	00050493          	addi	s1,a0,0
  98:	fd040793          	addi	a5,s0,-48
  9c:	00078513          	addi	a0,a5,0
  a0:	00000317          	auipc	t1,0x0
  a4:	00033303          	ld	t1,0(t1) # a0 <.L285+0xc>
  a8:	000300e7          	jalr	ra,0(t1)
  ac:	00048793          	addi	a5,s1,0
  b0:	00078513          	addi	a0,a5,0

00000000000000b4 <.LEHB17>:
  b4:	00000097          	auipc	ra,0x0
  b8:	000080e7          	jalr	ra,0(ra) # b4 <.LEHB17>

00000000000000bc <.L286>:
  bc:	04813083          	ld	ra,72(sp)
  c0:	04013403          	ld	s0,64(sp)
  c4:	03813483          	ld	s1,56(sp)
  c8:	05010113          	addi	sp,sp,80
  cc:	00008067          	jalr	zero,0(ra)

Disassembly of section .text._ZNSt14__shared_countILN9__gnu_cxx12_Lock_policyE1EEC2IN5dwarf11die_str_map4implESaIvEJRKNS4_3dieERNS4_5DW_ATERKSt16initializer_listINS4_6DW_TAGEEEEERPT_St20_Sp_alloc_shared_tagIT0_EDpOT1_:

0000000000000000 <std::__shared_count<(__gnu_cxx::_Lock_policy)1>::__shared_count<dwarf::die_str_map::impl, std::allocator<void>, dwarf::die const&, dwarf::DW_AT&, std::initializer_list<dwarf::DW_TAG> const&>(dwarf::die_str_map::impl*&, std::_Sp_alloc_shared_tag<std::allocator<void> >, dwarf::die const&, dwarf::DW_AT&, std::initializer_list<dwarf::DW_TAG> const&)>:
   0:	f6010113          	addi	sp,sp,-160
   4:	08113c23          	sd	ra,152(sp)
   8:	08813823          	sd	s0,144(sp)
   c:	08913423          	sd	s1,136(sp)
  10:	09213023          	sd	s2,128(sp)
  14:	07313c23          	sd	s3,120(sp)
  18:	07413823          	sd	s4,112(sp)
  1c:	07513423          	sd	s5,104(sp)
  20:	07613023          	sd	s6,96(sp)
  24:	0a010413          	addi	s0,sp,160
  28:	f8a43423          	sd	a0,-120(s0)
  2c:	f8b43023          	sd	a1,-128(s0)
  30:	f6c43c23          	sd	a2,-136(s0)
  34:	f6d43823          	sd	a3,-144(s0)
  38:	f6e43423          	sd	a4,-152(s0)
  3c:	f6f43023          	sd	a5,-160(s0)
  40:	f7843703          	ld	a4,-136(s0)
  44:	fa840793          	addi	a5,s0,-88
  48:	00070593          	addi	a1,a4,0
  4c:	00078513          	addi	a0,a5,0
  50:	00000317          	auipc	t1,0x0
  54:	00033303          	ld	t1,0(t1) # 50 <std::__shared_count<(__gnu_cxx::_Lock_policy)1>::__shared_count<dwarf::die_str_map::impl, std::allocator<void>, dwarf::die const&, dwarf::DW_AT&, std::initializer_list<dwarf::DW_TAG> const&>(dwarf::die_str_map::impl*&, std::_Sp_alloc_shared_tag<std::allocator<void> >, dwarf::die const&, dwarf::DW_AT&, std::initializer_list<dwarf::DW_TAG> const&)+0x50>
  58:	000300e7          	jalr	ra,0(t1)
  5c:	f9840793          	addi	a5,s0,-104
  60:	fa840713          	addi	a4,s0,-88
  64:	00070593          	addi	a1,a4,0
  68:	00078513          	addi	a0,a5,0
  6c:	00000317          	auipc	t1,0x0
  70:	00033303          	ld	t1,0(t1) # 6c <std::__shared_count<(__gnu_cxx::_Lock_policy)1>::__shared_count<dwarf::die_str_map::impl, std::allocator<void>, dwarf::die const&, dwarf::DW_AT&, std::initializer_list<dwarf::DW_TAG> const&>(dwarf::die_str_map::impl*&, std::_Sp_alloc_shared_tag<std::allocator<void> >, dwarf::die const&, dwarf::DW_AT&, std::initializer_list<dwarf::DW_TAG> const&)+0x6c>

0000000000000074 <.LEHB18>:
  74:	000300e7          	jalr	ra,0(t1)

0000000000000078 <.LEHE18>:
  78:	f9840793          	addi	a5,s0,-104
  7c:	00078513          	addi	a0,a5,0
  80:	00000317          	auipc	t1,0x0
  84:	00033303          	ld	t1,0(t1) # 80 <.LEHE18+0x8>
  88:	000300e7          	jalr	ra,0(t1)
  8c:	faa43c23          	sd	a0,-72(s0)
  90:	fb843903          	ld	s2,-72(s0)
  94:	00090593          	addi	a1,s2,0
  98:	20000513          	addi	a0,zero,512
  9c:	00000317          	auipc	t1,0x0
  a0:	00033303          	ld	t1,0(t1) # 9c <.LEHE18+0x24>
  a4:	000300e7          	jalr	ra,0(t1)
  a8:	00050493          	addi	s1,a0,0
  ac:	00100993          	addi	s3,zero,1
  b0:	f7043503          	ld	a0,-144(s0)
  b4:	00000317          	auipc	t1,0x0
  b8:	00033303          	ld	t1,0(t1) # b4 <.LEHE18+0x3c>
  bc:	000300e7          	jalr	ra,0(t1)
  c0:	00050a13          	addi	s4,a0,0
  c4:	f6843503          	ld	a0,-152(s0)
  c8:	00000317          	auipc	t1,0x0
  cc:	00033303          	ld	t1,0(t1) # c8 <.LEHE18+0x50>
  d0:	000300e7          	jalr	ra,0(t1)
  d4:	00050a93          	addi	s5,a0,0
  d8:	f6043503          	ld	a0,-160(s0)
  dc:	00000317          	auipc	t1,0x0
  e0:	00033303          	ld	t1,0(t1) # dc <.LEHE18+0x64>
  e4:	000300e7          	jalr	ra,0(t1)
  e8:	00050793          	addi	a5,a0,0
  ec:	00078713          	addi	a4,a5,0
  f0:	000a8693          	addi	a3,s5,0
  f4:	000a0613          	addi	a2,s4,0
  f8:	000b0593          	addi	a1,s6,0
  fc:	00048513          	addi	a0,s1,0
 100:	00000317          	auipc	t1,0x0
 104:	00033303          	ld	t1,0(t1) # 100 <.LEHE18+0x88>

0000000000000108 <.LEHB19>:
 108:	000300e7          	jalr	ra,0(t1)

000000000000010c <.LEHE19>:
 10c:	fa943823          	sd	s1,-80(s0)
 110:	f9840793          	addi	a5,s0,-104
 114:	00000593          	addi	a1,zero,0
 118:	00078513          	addi	a0,a5,0
 11c:	00000317          	auipc	t1,0x0
 120:	00033303          	ld	t1,0(t1) # 11c <.LEHE19+0x10>
 124:	000300e7          	jalr	ra,0(t1)
 128:	f8843783          	ld	a5,-120(s0)
 12c:	fb043703          	ld	a4,-80(s0)
 130:	00e7b023          	sd	a4,0(a5)
 134:	fb043503          	ld	a0,-80(s0)
 138:	00000317          	auipc	t1,0x0
 13c:	00033303          	ld	t1,0(t1) # 138 <.LEHE19+0x2c>
 140:	000300e7          	jalr	ra,0(t1)
 144:	00050713          	addi	a4,a0,0
 148:	f8043783          	ld	a5,-128(s0)
 14c:	00e7b023          	sd	a4,0(a5)
 150:	f9840793          	addi	a5,s0,-104
 154:	00078513          	addi	a0,a5,0
 158:	00000317          	auipc	t1,0x0
 15c:	00033303          	ld	t1,0(t1) # 158 <.LEHE19+0x4c>
 160:	000300e7          	jalr	ra,0(t1)
 164:	fa840793          	addi	a5,s0,-88
 168:	00078513          	addi	a0,a5,0
 16c:	00000317          	auipc	t1,0x0
 170:	00033303          	ld	t1,0(t1) # 16c <.LEHE19+0x60>
 174:	000300e7          	jalr	ra,0(t1)
 178:	0640006f          	jal	zero,1dc <.L293>

000000000000017c <.L292>:
 17c:	00050a13          	addi	s4,a0,0
 180:	00098c63          	beq	s3,zero,198 <.L289>
 184:	00090593          	addi	a1,s2,0
 188:	00048513          	addi	a0,s1,0
 18c:	00000317          	auipc	t1,0x0
 190:	00033303          	ld	t1,0(t1) # 18c <.L292+0x10>
 194:	000300e7          	jalr	ra,0(t1)

0000000000000198 <.L289>:
 198:	000a0493          	addi	s1,s4,0
 19c:	f9840793          	addi	a5,s0,-104
 1a0:	00078513          	addi	a0,a5,0
 1a4:	00000317          	auipc	t1,0x0
 1a8:	00033303          	ld	t1,0(t1) # 1a4 <.L289+0xc>
 1ac:	000300e7          	jalr	ra,0(t1)
 1b0:	0080006f          	jal	zero,1b8 <.L290>

00000000000001b4 <.L291>:
 1b4:	00050493          	addi	s1,a0,0

00000000000001b8 <.L290>:
 1b8:	fa840793          	addi	a5,s0,-88
 1bc:	00078513          	addi	a0,a5,0
 1c0:	00000317          	auipc	t1,0x0
 1c4:	00033303          	ld	t1,0(t1) # 1c0 <.L290+0x8>
 1c8:	000300e7          	jalr	ra,0(t1)
 1cc:	00048793          	addi	a5,s1,0
 1d0:	00078513          	addi	a0,a5,0

00000000000001d4 <.LEHB20>:
 1d4:	00000097          	auipc	ra,0x0
 1d8:	000080e7          	jalr	ra,0(ra) # 1d4 <.LEHB20>

00000000000001dc <.L293>:
 1dc:	09813083          	ld	ra,152(sp)
 1e0:	09013403          	ld	s0,144(sp)
 1e4:	08813483          	ld	s1,136(sp)
 1e8:	08013903          	ld	s2,128(sp)
 1ec:	07813983          	ld	s3,120(sp)
 1f0:	07013a03          	ld	s4,112(sp)
 1f4:	06813a83          	ld	s5,104(sp)
 1f8:	06013b03          	ld	s6,96(sp)
 1fc:	0a010113          	addi	sp,sp,160
 200:	00008067          	jalr	zero,0(ra)

Disassembly of section .text._ZNSt12__shared_ptrIN5dwarf11die_str_map4implELN9__gnu_cxx12_Lock_policyE1EE31_M_enable_shared_from_this_withIS2_S2_EENSt9enable_ifIXntsrNS5_15__has_esft_baseIT0_vEE5valueEvE4typeEPT_:

0000000000000000 <std::enable_if<!std::__shared_ptr<dwarf::die_str_map::impl, (__gnu_cxx::_Lock_policy)1>::__has_esft_base<dwarf::die_str_map::impl, void>::value, void>::type std::__shared_ptr<dwarf::die_str_map::impl, (__gnu_cxx::_Lock_policy)1>::_M_enable_shared_from_this_with<dwarf::die_str_map::impl, dwarf::die_str_map::impl>(dwarf::die_str_map::impl*)>:
   0:	fe010113          	addi	sp,sp,-32
   4:	00813c23          	sd	s0,24(sp)
   8:	02010413          	addi	s0,sp,32
   c:	fea43423          	sd	a0,-24(s0)
  10:	feb43023          	sd	a1,-32(s0)
  14:	00000013          	addi	zero,zero,0
  18:	01813403          	ld	s0,24(sp)
  1c:	02010113          	addi	sp,sp,32
  20:	00008067          	jalr	zero,0(ra)

Disassembly of section .text._ZNSt8__detail22_Hashtable_hash_traitsIN5dwarf11string_hashEE22__small_size_thresholdEv:

0000000000000000 <std::__detail::_Hashtable_hash_traits<dwarf::string_hash>::__small_size_threshold()>:
   0:	ff010113          	addi	sp,sp,-16
   4:	00813423          	sd	s0,8(sp)
   8:	01010413          	addi	s0,sp,16
   c:	00000793          	addi	a5,zero,0
  10:	00078513          	addi	a0,a5,0
  14:	00813403          	ld	s0,8(sp)
  18:	01010113          	addi	sp,sp,16
  1c:	00008067          	jalr	zero,0(ra)

Disassembly of section .text._ZNSt8__detail19_Node_iterator_baseISt4pairIKPKcN5dwarf3dieEELb1EE7_M_incrEv:

0000000000000000 <std::__detail::_Node_iterator_base<std::pair<char const* const, dwarf::die>, true>::_M_incr()>:
   0:	fe010113          	addi	sp,sp,-32
   4:	00113c23          	sd	ra,24(sp)
   8:	00813823          	sd	s0,16(sp)
   c:	02010413          	addi	s0,sp,32
  10:	fea43423          	sd	a0,-24(s0)
  14:	fe843783          	ld	a5,-24(s0)
  18:	0007b783          	ld	a5,0(a5)
  1c:	00078513          	addi	a0,a5,0
  20:	00000317          	auipc	t1,0x0
  24:	00033303          	ld	t1,0(t1) # 20 <std::__detail::_Node_iterator_base<std::pair<char const* const, dwarf::die>, true>::_M_incr()+0x20>
  28:	000300e7          	jalr	ra,0(t1)
  2c:	00050713          	addi	a4,a0,0
  30:	fe843783          	ld	a5,-24(s0)
  34:	00e7b023          	sd	a4,0(a5)
  38:	00000013          	addi	zero,zero,0
  3c:	01813083          	ld	ra,24(sp)
  40:	01013403          	ld	s0,16(sp)
  44:	02010113          	addi	sp,sp,32
  48:	00008067          	jalr	zero,0(ra)

Disassembly of section .text._ZNKSt8__detail15_Hashtable_baseIPKcSt4pairIKS2_N5dwarf3dieEENS_10_Select1stENS5_9string_eqENS5_11string_hashENS_18_Mod_range_hashingENS_20_Default_ranged_hashENS_17_Hashtable_traitsILb1ELb0ELb1EEEE5_M_eqEv:

0000000000000000 <std::__detail::_Hashtable_base<char const*, std::pair<char const* const, dwarf::die>, std::__detail::_Select1st, dwarf::string_eq, dwarf::string_hash, std::__detail::_Mod_range_hashing, std::__detail::_Default_ranged_hash, std::__detail::_Hashtable_traits<true, false, true> >::_M_eq() const>:
   0:	fe010113          	addi	sp,sp,-32
   4:	00113c23          	sd	ra,24(sp)
   8:	00813823          	sd	s0,16(sp)
   c:	02010413          	addi	s0,sp,32
  10:	fea43423          	sd	a0,-24(s0)
  14:	fe843503          	ld	a0,-24(s0)
  18:	00000317          	auipc	t1,0x0
  1c:	00033303          	ld	t1,0(t1) # 18 <std::__detail::_Hashtable_base<char const*, std::pair<char const* const, dwarf::die>, std::__detail::_Select1st, dwarf::string_eq, dwarf::string_hash, std::__detail::_Mod_range_hashing, std::__detail::_Default_ranged_hash, std::__detail::_Hashtable_traits<true, false, true> >::_M_eq() const+0x18>
  20:	000300e7          	jalr	ra,0(t1)
  24:	00050793          	addi	a5,a0,0
  28:	00078513          	addi	a0,a5,0
  2c:	01813083          	ld	ra,24(sp)
  30:	01013403          	ld	s0,16(sp)
  34:	02010113          	addi	sp,sp,32
  38:	00008067          	jalr	zero,0(ra)

Disassembly of section .text._ZNKSt8__detail21_Hash_node_value_baseISt4pairIKPKcN5dwarf3dieEEE4_M_vEv:

0000000000000000 <std::__detail::_Hash_node_value_base<std::pair<char const* const, dwarf::die> >::_M_v() const>:
   0:	fe010113          	addi	sp,sp,-32
   4:	00113c23          	sd	ra,24(sp)
   8:	00813823          	sd	s0,16(sp)
   c:	02010413          	addi	s0,sp,32
  10:	fea43423          	sd	a0,-24(s0)
  14:	fe843503          	ld	a0,-24(s0)
  18:	00000317          	auipc	t1,0x0
  1c:	00033303          	ld	t1,0(t1) # 18 <std::__detail::_Hash_node_value_base<std::pair<char const* const, dwarf::die> >::_M_v() const+0x18>
  20:	000300e7          	jalr	ra,0(t1)
  24:	00050793          	addi	a5,a0,0
  28:	00078513          	addi	a0,a5,0
  2c:	01813083          	ld	ra,24(sp)
  30:	01013403          	ld	s0,16(sp)
  34:	02010113          	addi	sp,sp,32
  38:	00008067          	jalr	zero,0(ra)

Disassembly of section .text._ZNKSt8__detail10_Select1stclIRKSt4pairIKPKcN5dwarf3dieEEEEONS0_10__1st_typeIT_E4typeEOSC_:

0000000000000000 <std::__detail::_Select1st::__1st_type<std::pair<char const* const, dwarf::die> const&>::type&& std::__detail::_Select1st::operator()<std::pair<char const* const, dwarf::die> const&>(std::pair<char const* const, dwarf::die> const&) const>:
   0:	fe010113          	addi	sp,sp,-32
   4:	00113c23          	sd	ra,24(sp)
   8:	00813823          	sd	s0,16(sp)
   c:	02010413          	addi	s0,sp,32
  10:	fea43423          	sd	a0,-24(s0)
  14:	feb43023          	sd	a1,-32(s0)
  18:	fe043503          	ld	a0,-32(s0)
  1c:	00000317          	auipc	t1,0x0
  20:	00033303          	ld	t1,0(t1) # 1c <std::__detail::_Select1st::__1st_type<std::pair<char const* const, dwarf::die> const&>::type&& std::__detail::_Select1st::operator()<std::pair<char const* const, dwarf::die> const&>(std::pair<char const* const, dwarf::die> const&) const+0x1c>
  24:	000300e7          	jalr	ra,0(t1)
  28:	00050793          	addi	a5,a0,0
  2c:	00078513          	addi	a0,a5,0
  30:	01813083          	ld	ra,24(sp)
  34:	01013403          	ld	s0,16(sp)
  38:	02010113          	addi	sp,sp,32
  3c:	00008067          	jalr	zero,0(ra)

Disassembly of section .text._ZNKSt8__detail15_Hash_code_baseIPKcSt4pairIKS2_N5dwarf3dieEENS_10_Select1stENS5_11string_hashENS_18_Mod_range_hashingENS_20_Default_ranged_hashELb1EE7_M_hashEv:

0000000000000000 <std::__detail::_Hash_code_base<char const*, std::pair<char const* const, dwarf::die>, std::__detail::_Select1st, dwarf::string_hash, std::__detail::_Mod_range_hashing, std::__detail::_Default_ranged_hash, true>::_M_hash() const>:
   0:	fe010113          	addi	sp,sp,-32
   4:	00113c23          	sd	ra,24(sp)
   8:	00813823          	sd	s0,16(sp)
   c:	02010413          	addi	s0,sp,32
  10:	fea43423          	sd	a0,-24(s0)
  14:	fe843503          	ld	a0,-24(s0)
  18:	00000317          	auipc	t1,0x0
  1c:	00033303          	ld	t1,0(t1) # 18 <std::__detail::_Hash_code_base<char const*, std::pair<char const* const, dwarf::die>, std::__detail::_Select1st, dwarf::string_hash, std::__detail::_Mod_range_hashing, std::__detail::_Default_ranged_hash, true>::_M_hash() const+0x18>
  20:	000300e7          	jalr	ra,0(t1)
  24:	00050793          	addi	a5,a0,0
  28:	00078513          	addi	a0,a5,0
  2c:	01813083          	ld	ra,24(sp)
  30:	01013403          	ld	s0,16(sp)
  34:	02010113          	addi	sp,sp,32
  38:	00008067          	jalr	zero,0(ra)

Disassembly of section .text._ZNKSt8__detail15_Hash_code_baseIPKcSt4pairIKS2_N5dwarf3dieEENS_10_Select1stENS5_11string_hashENS_18_Mod_range_hashingENS_20_Default_ranged_hashELb1EE15_M_bucket_indexEmm:

0000000000000000 <std::__detail::_Hash_code_base<char const*, std::pair<char const* const, dwarf::die>, std::__detail::_Select1st, dwarf::string_hash, std::__detail::_Mod_range_hashing, std::__detail::_Default_ranged_hash, true>::_M_bucket_index(unsigned long, unsigned long) const>:
   0:	fc010113          	addi	sp,sp,-64
   4:	02113c23          	sd	ra,56(sp)
   8:	02813823          	sd	s0,48(sp)
   c:	04010413          	addi	s0,sp,64
  10:	fca43c23          	sd	a0,-40(s0)
  14:	fcb43823          	sd	a1,-48(s0)
  18:	fcc43423          	sd	a2,-56(s0)
  1c:	fe840793          	addi	a5,s0,-24
  20:	fc843603          	ld	a2,-56(s0)
  24:	fd043583          	ld	a1,-48(s0)
  28:	00078513          	addi	a0,a5,0
  2c:	00000317          	auipc	t1,0x0
  30:	00033303          	ld	t1,0(t1) # 2c <std::__detail::_Hash_code_base<char const*, std::pair<char const* const, dwarf::die>, std::__detail::_Select1st, dwarf::string_hash, std::__detail::_Mod_range_hashing, std::__detail::_Default_ranged_hash, true>::_M_bucket_index(unsigned long, unsigned long) const+0x2c>
  34:	000300e7          	jalr	ra,0(t1)
  38:	00050793          	addi	a5,a0,0
  3c:	00078513          	addi	a0,a5,0
  40:	03813083          	ld	ra,56(sp)
  44:	03013403          	ld	s0,48(sp)
  48:	04010113          	addi	sp,sp,64
  4c:	00008067          	jalr	zero,0(ra)

Disassembly of section .text._ZNKSt10_HashtableIPKcSt4pairIKS1_N5dwarf3dieEESaIS6_ENSt8__detail10_Select1stENS4_9string_eqENS4_11string_hashENS8_18_Mod_range_hashingENS8_20_Default_ranged_hashENS8_20_Prime_rehash_policyENS8_17_Hashtable_traitsILb1ELb0ELb1EEEE19_M_find_before_nodeEmRS3_m:

0000000000000000 <std::_Hashtable<char const*, std::pair<char const* const, dwarf::die>, std::allocator<std::pair<char const* const, dwarf::die> >, std::__detail::_Select1st, dwarf::string_eq, dwarf::string_hash, std::__detail::_Mod_range_hashing, std::__detail::_Default_ranged_hash, std::__detail::_Prime_rehash_policy, std::__detail::_Hashtable_traits<true, false, true> >::_M_find_before_node(unsigned long, char const* const&, unsigned long) const>:
   0:	fc010113          	addi	sp,sp,-64
   4:	02113c23          	sd	ra,56(sp)
   8:	02813823          	sd	s0,48(sp)
   c:	04010413          	addi	s0,sp,64
  10:	fca43c23          	sd	a0,-40(s0)
  14:	fcb43823          	sd	a1,-48(s0)
  18:	fcc43423          	sd	a2,-56(s0)
  1c:	fcd43023          	sd	a3,-64(s0)
  20:	fd843783          	ld	a5,-40(s0)
  24:	0007b703          	ld	a4,0(a5)
  28:	fd043783          	ld	a5,-48(s0)
  2c:	00379793          	slli	a5,a5,0x3
  30:	00f707b3          	add	a5,a4,a5
  34:	0007b783          	ld	a5,0(a5)
  38:	fef43423          	sd	a5,-24(s0)
  3c:	fe843783          	ld	a5,-24(s0)
  40:	00079663          	bne	a5,zero,4c <.L309>
  44:	00000793          	addi	a5,zero,0
  48:	0c00006f          	jal	zero,108 <.L310>

000000000000004c <.L309>:
  4c:	fe843783          	ld	a5,-24(s0)
  50:	0007b783          	ld	a5,0(a5)
  54:	fef43023          	sd	a5,-32(s0)

0000000000000058 <.L317>:
  58:	fe043783          	ld	a5,-32(s0)
  5c:	00878793          	addi	a5,a5,8
  60:	00078693          	addi	a3,a5,0
  64:	fc043603          	ld	a2,-64(s0)
  68:	fc843583          	ld	a1,-56(s0)
  6c:	fd843503          	ld	a0,-40(s0)
  70:	00000317          	auipc	t1,0x0
  74:	00033303          	ld	t1,0(t1) # 70 <.L317+0x18>
  78:	000300e7          	jalr	ra,0(t1)
  7c:	00050793          	addi	a5,a0,0
  80:	00078663          	beq	a5,zero,8c <.L311>
  84:	fe843783          	ld	a5,-24(s0)
  88:	0800006f          	jal	zero,108 <.L310>

000000000000008c <.L311>:
  8c:	fe043783          	ld	a5,-32(s0)
  90:	0007b783          	ld	a5,0(a5)
  94:	02078e63          	beq	a5,zero,d0 <.L312>
  98:	fe043503          	ld	a0,-32(s0)
  9c:	00000317          	auipc	t1,0x0
  a0:	00033303          	ld	t1,0(t1) # 9c <.L311+0x10>
  a4:	000300e7          	jalr	ra,0(t1)
  a8:	00050793          	addi	a5,a0,0
  ac:	00878793          	addi	a5,a5,8
  b0:	00078593          	addi	a1,a5,0
  b4:	fd843503          	ld	a0,-40(s0)
  b8:	00000317          	auipc	t1,0x0
  bc:	00033303          	ld	t1,0(t1) # b8 <.L311+0x2c>
  c0:	000300e7          	jalr	ra,0(t1)
  c4:	00050713          	addi	a4,a0,0
  c8:	fd043783          	ld	a5,-48(s0)
  cc:	00e78663          	beq	a5,a4,d8 <.L313>

00000000000000d0 <.L312>:
  d0:	00100793          	addi	a5,zero,1
  d4:	0080006f          	jal	zero,dc <.L314>

00000000000000d8 <.L313>:
  d8:	00000793          	addi	a5,zero,0

00000000000000dc <.L314>:
  dc:	02079263          	bne	a5,zero,100 <.L319>
  e0:	fe043783          	ld	a5,-32(s0)
  e4:	fef43423          	sd	a5,-24(s0)
  e8:	fe043503          	ld	a0,-32(s0)
  ec:	00000317          	auipc	t1,0x0
  f0:	00033303          	ld	t1,0(t1) # ec <.L314+0x10>
  f4:	000300e7          	jalr	ra,0(t1)
  f8:	fea43023          	sd	a0,-32(s0)
  fc:	f5dff06f          	jal	zero,58 <.L317>

0000000000000100 <.L319>:
 100:	00000013          	addi	zero,zero,0
 104:	00000793          	addi	a5,zero,0

0000000000000108 <.L310>:
 108:	00078513          	addi	a0,a5,0
 10c:	03813083          	ld	ra,56(sp)
 110:	03013403          	ld	s0,48(sp)
 114:	04010113          	addi	sp,sp,64
 118:	00008067          	jalr	zero,0(ra)

Disassembly of section .text._ZNSt8__detail19_Node_iterator_baseISt4pairIKPKcN5dwarf3dieEELb1EEC2EPNS_10_Hash_nodeIS7_Lb1EEE:

0000000000000000 <std::__detail::_Node_iterator_base<std::pair<char const* const, dwarf::die>, true>::_Node_iterator_base(std::__detail::_Hash_node<std::pair<char const* const, dwarf::die>, true>*)>:
   0:	fe010113          	addi	sp,sp,-32
   4:	00813c23          	sd	s0,24(sp)
   8:	02010413          	addi	s0,sp,32
   c:	fea43423          	sd	a0,-24(s0)
  10:	feb43023          	sd	a1,-32(s0)
  14:	fe843783          	ld	a5,-24(s0)
  18:	fe043703          	ld	a4,-32(s0)
  1c:	00e7b023          	sd	a4,0(a5)
  20:	00000013          	addi	zero,zero,0
  24:	01813403          	ld	s0,24(sp)
  28:	02010113          	addi	sp,sp,32
  2c:	00008067          	jalr	zero,0(ra)

Disassembly of section .text._ZN9__gnu_cxx16__aligned_bufferISt4pairIKPKcN5dwarf3dieEEE7_M_addrEv:

0000000000000000 <__gnu_cxx::__aligned_buffer<std::pair<char const* const, dwarf::die> >::_M_addr()>:
   0:	fe010113          	addi	sp,sp,-32
   4:	00813c23          	sd	s0,24(sp)
   8:	02010413          	addi	s0,sp,32
   c:	fea43423          	sd	a0,-24(s0)
  10:	fe843783          	ld	a5,-24(s0)
  14:	00078513          	addi	a0,a5,0
  18:	01813403          	ld	s0,24(sp)
  1c:	02010113          	addi	sp,sp,32
  20:	00008067          	jalr	zero,0(ra)

Disassembly of section .text._ZNKSt10_HashtableIN5dwarf6DW_TAGES1_SaIS1_ENSt8__detail9_IdentityESt8equal_toIS1_ESt4hashIS1_ENS3_18_Mod_range_hashingENS3_20_Default_ranged_hashENS3_20_Prime_rehash_policyENS3_17_Hashtable_traitsILb1ELb1ELb1EEEE4sizeEv:

0000000000000000 <std::_Hashtable<dwarf::DW_TAG, dwarf::DW_TAG, std::allocator<dwarf::DW_TAG>, std::__detail::_Identity, std::equal_to<dwarf::DW_TAG>, std::hash<dwarf::DW_TAG>, std::__detail::_Mod_range_hashing, std::__detail::_Default_ranged_hash, std::__detail::_Prime_rehash_policy, std::__detail::_Hashtable_traits<true, true, true> >::size() const>:
   0:	fe010113          	addi	sp,sp,-32
   4:	00813c23          	sd	s0,24(sp)
   8:	02010413          	addi	s0,sp,32
   c:	fea43423          	sd	a0,-24(s0)
  10:	fe843783          	ld	a5,-24(s0)
  14:	0187b783          	ld	a5,24(a5)
  18:	00078513          	addi	a0,a5,0
  1c:	01813403          	ld	s0,24(sp)
  20:	02010113          	addi	sp,sp,32
  24:	00008067          	jalr	zero,0(ra)

Disassembly of section .text._ZNSt10_HashtableIN5dwarf6DW_TAGES1_SaIS1_ENSt8__detail9_IdentityESt8equal_toIS1_ESt4hashIS1_ENS3_18_Mod_range_hashingENS3_20_Default_ranged_hashENS3_20_Prime_rehash_policyENS3_17_Hashtable_traitsILb1ELb1ELb1EEEE22__small_size_thresholdEv:

0000000000000000 <std::_Hashtable<dwarf::DW_TAG, dwarf::DW_TAG, std::allocator<dwarf::DW_TAG>, std::__detail::_Identity, std::equal_to<dwarf::DW_TAG>, std::hash<dwarf::DW_TAG>, std::__detail::_Mod_range_hashing, std::__detail::_Default_ranged_hash, std::__detail::_Prime_rehash_policy, std::__detail::_Hashtable_traits<true, true, true> >::__small_size_threshold()>:
   0:	ff010113          	addi	sp,sp,-16
   4:	00113423          	sd	ra,8(sp)
   8:	00813023          	sd	s0,0(sp)
   c:	01010413          	addi	s0,sp,16
  10:	00000317          	auipc	t1,0x0
  14:	00033303          	ld	t1,0(t1) # 10 <std::_Hashtable<dwarf::DW_TAG, dwarf::DW_TAG, std::allocator<dwarf::DW_TAG>, std::__detail::_Identity, std::equal_to<dwarf::DW_TAG>, std::hash<dwarf::DW_TAG>, std::__detail::_Mod_range_hashing, std::__detail::_Default_ranged_hash, std::__detail::_Prime_rehash_policy, std::__detail::_Hashtable_traits<true, true, true> >::__small_size_threshold()+0x10>
  18:	000300e7          	jalr	ra,0(t1)
  1c:	00050793          	addi	a5,a0,0
  20:	00078513          	addi	a0,a5,0
  24:	00813083          	ld	ra,8(sp)
  28:	00013403          	ld	s0,0(sp)
  2c:	01010113          	addi	sp,sp,16
  30:	00008067          	jalr	zero,0(ra)

Disassembly of section .text._ZNKSt10_HashtableIN5dwarf6DW_TAGES1_SaIS1_ENSt8__detail9_IdentityESt8equal_toIS1_ESt4hashIS1_ENS3_18_Mod_range_hashingENS3_20_Default_ranged_hashENS3_20_Prime_rehash_policyENS3_17_Hashtable_traitsILb1ELb1ELb1EEEE5beginEv:

0000000000000000 <std::_Hashtable<dwarf::DW_TAG, dwarf::DW_TAG, std::allocator<dwarf::DW_TAG>, std::__detail::_Identity, std::equal_to<dwarf::DW_TAG>, std::hash<dwarf::DW_TAG>, std::__detail::_Mod_range_hashing, std::__detail::_Default_ranged_hash, std::__detail::_Prime_rehash_policy, std::__detail::_Hashtable_traits<true, true, true> >::begin() const>:
   0:	fd010113          	addi	sp,sp,-48
   4:	02113423          	sd	ra,40(sp)
   8:	02813023          	sd	s0,32(sp)
   c:	03010413          	addi	s0,sp,48
  10:	fca43c23          	sd	a0,-40(s0)
  14:	fd843503          	ld	a0,-40(s0)
  18:	00000317          	auipc	t1,0x0
  1c:	00033303          	ld	t1,0(t1) # 18 <std::_Hashtable<dwarf::DW_TAG, dwarf::DW_TAG, std::allocator<dwarf::DW_TAG>, std::__detail::_Identity, std::equal_to<dwarf::DW_TAG>, std::hash<dwarf::DW_TAG>, std::__detail::_Mod_range_hashing, std::__detail::_Default_ranged_hash, std::__detail::_Prime_rehash_policy, std::__detail::_Hashtable_traits<true, true, true> >::begin() const+0x18>
  20:	000300e7          	jalr	ra,0(t1)
  24:	00050713          	addi	a4,a0,0
  28:	fe840793          	addi	a5,s0,-24
  2c:	00070593          	addi	a1,a4,0
  30:	00078513          	addi	a0,a5,0
  34:	00000317          	auipc	t1,0x0
  38:	00033303          	ld	t1,0(t1) # 34 <std::_Hashtable<dwarf::DW_TAG, dwarf::DW_TAG, std::allocator<dwarf::DW_TAG>, std::__detail::_Identity, std::equal_to<dwarf::DW_TAG>, std::hash<dwarf::DW_TAG>, std::__detail::_Mod_range_hashing, std::__detail::_Default_ranged_hash, std::__detail::_Prime_rehash_policy, std::__detail::_Hashtable_traits<true, true, true> >::begin() const+0x34>
  3c:	000300e7          	jalr	ra,0(t1)
  40:	fe843783          	ld	a5,-24(s0)
  44:	00078513          	addi	a0,a5,0
  48:	02813083          	ld	ra,40(sp)
  4c:	02013403          	ld	s0,32(sp)
  50:	03010113          	addi	sp,sp,48
  54:	00008067          	jalr	zero,0(ra)

Disassembly of section .text._ZNKSt10_HashtableIN5dwarf6DW_TAGES1_SaIS1_ENSt8__detail9_IdentityESt8equal_toIS1_ESt4hashIS1_ENS3_18_Mod_range_hashingENS3_20_Default_ranged_hashENS3_20_Prime_rehash_policyENS3_17_Hashtable_traitsILb1ELb1ELb1EEEE3endEv:

0000000000000000 <std::_Hashtable<dwarf::DW_TAG, dwarf::DW_TAG, std::allocator<dwarf::DW_TAG>, std::__detail::_Identity, std::equal_to<dwarf::DW_TAG>, std::hash<dwarf::DW_TAG>, std::__detail::_Mod_range_hashing, std::__detail::_Default_ranged_hash, std::__detail::_Prime_rehash_policy, std::__detail::_Hashtable_traits<true, true, true> >::end() const>:
   0:	fd010113          	addi	sp,sp,-48
   4:	02113423          	sd	ra,40(sp)
   8:	02813023          	sd	s0,32(sp)
   c:	03010413          	addi	s0,sp,48
  10:	fca43c23          	sd	a0,-40(s0)
  14:	fe840793          	addi	a5,s0,-24
  18:	00000593          	addi	a1,zero,0
  1c:	00078513          	addi	a0,a5,0
  20:	00000317          	auipc	t1,0x0
  24:	00033303          	ld	t1,0(t1) # 20 <std::_Hashtable<dwarf::DW_TAG, dwarf::DW_TAG, std::allocator<dwarf::DW_TAG>, std::__detail::_Identity, std::equal_to<dwarf::DW_TAG>, std::hash<dwarf::DW_TAG>, std::__detail::_Mod_range_hashing, std::__detail::_Default_ranged_hash, std::__detail::_Prime_rehash_policy, std::__detail::_Hashtable_traits<true, true, true> >::end() const+0x20>
  28:	000300e7          	jalr	ra,0(t1)
  2c:	fe843783          	ld	a5,-24(s0)
  30:	00078513          	addi	a0,a5,0
  34:	02813083          	ld	ra,40(sp)
  38:	02013403          	ld	s0,32(sp)
  3c:	03010113          	addi	sp,sp,48
  40:	00008067          	jalr	zero,0(ra)

Disassembly of section .text._ZNSt8__detailneERKNS_19_Node_iterator_baseIN5dwarf6DW_TAGELb1EEES5_:

0000000000000000 <std::__detail::operator!=(std::__detail::_Node_iterator_base<dwarf::DW_TAG, true> const&, std::__detail::_Node_iterator_base<dwarf::DW_TAG, true> const&)>:
   0:	fe010113          	addi	sp,sp,-32
   4:	00813c23          	sd	s0,24(sp)
   8:	02010413          	addi	s0,sp,32
   c:	fea43423          	sd	a0,-24(s0)
  10:	feb43023          	sd	a1,-32(s0)
  14:	fe843783          	ld	a5,-24(s0)
  18:	0007b703          	ld	a4,0(a5)
  1c:	fe043783          	ld	a5,-32(s0)
  20:	0007b783          	ld	a5,0(a5)
  24:	40f707b3          	sub	a5,a4,a5
  28:	00f037b3          	sltu	a5,zero,a5
  2c:	0ff7f793          	andi	a5,a5,255
  30:	00078513          	addi	a0,a5,0
  34:	01813403          	ld	s0,24(sp)
  38:	02010113          	addi	sp,sp,32
  3c:	00008067          	jalr	zero,0(ra)

Disassembly of section .text._ZNKSt8__detail15_Hashtable_baseIN5dwarf6DW_TAGES2_NS_9_IdentityESt8equal_toIS2_ESt4hashIS2_ENS_18_Mod_range_hashingENS_20_Default_ranged_hashENS_17_Hashtable_traitsILb1ELb1ELb1EEEE13_M_key_equalsERKS2_RKNS_16_Hash_node_valueIS2_Lb1EEE:

0000000000000000 <std::__detail::_Hashtable_base<dwarf::DW_TAG, dwarf::DW_TAG, std::__detail::_Identity, std::equal_to<dwarf::DW_TAG>, std::hash<dwarf::DW_TAG>, std::__detail::_Mod_range_hashing, std::__detail::_Default_ranged_hash, std::__detail::_Hashtable_traits<true, true, true> >::_M_key_equals(dwarf::DW_TAG const&, std::__detail::_Hash_node_value<dwarf::DW_TAG, true> const&) const>:
   0:	fb010113          	addi	sp,sp,-80
   4:	04113423          	sd	ra,72(sp)
   8:	04813023          	sd	s0,64(sp)
   c:	02913c23          	sd	s1,56(sp)
  10:	05010413          	addi	s0,sp,80
  14:	fca43423          	sd	a0,-56(s0)
  18:	fcb43023          	sd	a1,-64(s0)
  1c:	fac43c23          	sd	a2,-72(s0)
  20:	fc843503          	ld	a0,-56(s0)
  24:	00000317          	auipc	t1,0x0
  28:	00033303          	ld	t1,0(t1) # 24 <std::__detail::_Hashtable_base<dwarf::DW_TAG, dwarf::DW_TAG, std::__detail::_Identity, std::equal_to<dwarf::DW_TAG>, std::hash<dwarf::DW_TAG>, std::__detail::_Mod_range_hashing, std::__detail::_Default_ranged_hash, std::__detail::_Hashtable_traits<true, true, true> >::_M_key_equals(dwarf::DW_TAG const&, std::__detail::_Hash_node_value<dwarf::DW_TAG, true> const&) const+0x24>
  2c:	000300e7          	jalr	ra,0(t1)
  30:	00050493          	addi	s1,a0,0
  34:	fb843783          	ld	a5,-72(s0)
  38:	00078513          	addi	a0,a5,0
  3c:	00000317          	auipc	t1,0x0
  40:	00033303          	ld	t1,0(t1) # 3c <std::__detail::_Hashtable_base<dwarf::DW_TAG, dwarf::DW_TAG, std::__detail::_Identity, std::equal_to<dwarf::DW_TAG>, std::hash<dwarf::DW_TAG>, std::__detail::_Mod_range_hashing, std::__detail::_Default_ranged_hash, std::__detail::_Hashtable_traits<true, true, true> >::_M_key_equals(dwarf::DW_TAG const&, std::__detail::_Hash_node_value<dwarf::DW_TAG, true> const&) const+0x3c>
  44:	000300e7          	jalr	ra,0(t1)
  48:	00050713          	addi	a4,a0,0
  4c:	fd840793          	addi	a5,s0,-40
  50:	00070593          	addi	a1,a4,0
  54:	00078513          	addi	a0,a5,0
  58:	00000317          	auipc	t1,0x0
  5c:	00033303          	ld	t1,0(t1) # 58 <std::__detail::_Hashtable_base<dwarf::DW_TAG, dwarf::DW_TAG, std::__detail::_Identity, std::equal_to<dwarf::DW_TAG>, std::hash<dwarf::DW_TAG>, std::__detail::_Mod_range_hashing, std::__detail::_Default_ranged_hash, std::__detail::_Hashtable_traits<true, true, true> >::_M_key_equals(dwarf::DW_TAG const&, std::__detail::_Hash_node_value<dwarf::DW_TAG, true> const&) const+0x58>
  60:	000300e7          	jalr	ra,0(t1)
  64:	00050793          	addi	a5,a0,0
  68:	00078613          	addi	a2,a5,0
  6c:	fc043583          	ld	a1,-64(s0)
  70:	00048513          	addi	a0,s1,0
  74:	00000317          	auipc	t1,0x0
  78:	00033303          	ld	t1,0(t1) # 74 <std::__detail::_Hashtable_base<dwarf::DW_TAG, dwarf::DW_TAG, std::__detail::_Identity, std::equal_to<dwarf::DW_TAG>, std::hash<dwarf::DW_TAG>, std::__detail::_Mod_range_hashing, std::__detail::_Default_ranged_hash, std::__detail::_Hashtable_traits<true, true, true> >::_M_key_equals(dwarf::DW_TAG const&, std::__detail::_Hash_node_value<dwarf::DW_TAG, true> const&) const+0x74>
  7c:	000300e7          	jalr	ra,0(t1)
  80:	00050793          	addi	a5,a0,0
  84:	00078513          	addi	a0,a5,0
  88:	04813083          	ld	ra,72(sp)
  8c:	04013403          	ld	s0,64(sp)
  90:	03813483          	ld	s1,56(sp)
  94:	05010113          	addi	sp,sp,80
  98:	00008067          	jalr	zero,0(ra)

Disassembly of section .text._ZNKSt8__detail15_Hash_code_baseIN5dwarf6DW_TAGES2_NS_9_IdentityESt4hashIS2_ENS_18_Mod_range_hashingENS_20_Default_ranged_hashELb1EE12_M_hash_codeERKS2_:

0000000000000000 <std::__detail::_Hash_code_base<dwarf::DW_TAG, dwarf::DW_TAG, std::__detail::_Identity, std::hash<dwarf::DW_TAG>, std::__detail::_Mod_range_hashing, std::__detail::_Default_ranged_hash, true>::_M_hash_code(dwarf::DW_TAG const&) const>:
   0:	fe010113          	addi	sp,sp,-32
   4:	00113c23          	sd	ra,24(sp)
   8:	00813823          	sd	s0,16(sp)
   c:	02010413          	addi	s0,sp,32
  10:	fea43423          	sd	a0,-24(s0)
  14:	feb43023          	sd	a1,-32(s0)
  18:	fe843503          	ld	a0,-24(s0)
  1c:	00000317          	auipc	t1,0x0
  20:	00033303          	ld	t1,0(t1) # 1c <std::__detail::_Hash_code_base<dwarf::DW_TAG, dwarf::DW_TAG, std::__detail::_Identity, std::hash<dwarf::DW_TAG>, std::__detail::_Mod_range_hashing, std::__detail::_Default_ranged_hash, true>::_M_hash_code(dwarf::DW_TAG const&) const+0x1c>
  24:	000300e7          	jalr	ra,0(t1)
  28:	00050713          	addi	a4,a0,0
  2c:	fe043783          	ld	a5,-32(s0)
  30:	0007a783          	lw	a5,0(a5)
  34:	00078593          	addi	a1,a5,0
  38:	00070513          	addi	a0,a4,0
  3c:	00000317          	auipc	t1,0x0
  40:	00033303          	ld	t1,0(t1) # 3c <std::__detail::_Hash_code_base<dwarf::DW_TAG, dwarf::DW_TAG, std::__detail::_Identity, std::hash<dwarf::DW_TAG>, std::__detail::_Mod_range_hashing, std::__detail::_Default_ranged_hash, true>::_M_hash_code(dwarf::DW_TAG const&) const+0x3c>
  44:	000300e7          	jalr	ra,0(t1)
  48:	00050793          	addi	a5,a0,0
  4c:	00078513          	addi	a0,a5,0
  50:	01813083          	ld	ra,24(sp)
  54:	01013403          	ld	s0,16(sp)
  58:	02010113          	addi	sp,sp,32
  5c:	00008067          	jalr	zero,0(ra)

Disassembly of section .text._ZNKSt10_HashtableIN5dwarf6DW_TAGES1_SaIS1_ENSt8__detail9_IdentityESt8equal_toIS1_ESt4hashIS1_ENS3_18_Mod_range_hashingENS3_20_Default_ranged_hashENS3_20_Prime_rehash_policyENS3_17_Hashtable_traitsILb1ELb1ELb1EEEE15_M_bucket_indexEm:

0000000000000000 <std::_Hashtable<dwarf::DW_TAG, dwarf::DW_TAG, std::allocator<dwarf::DW_TAG>, std::__detail::_Identity, std::equal_to<dwarf::DW_TAG>, std::hash<dwarf::DW_TAG>, std::__detail::_Mod_range_hashing, std::__detail::_Default_ranged_hash, std::__detail::_Prime_rehash_policy, std::__detail::_Hashtable_traits<true, true, true> >::_M_bucket_index(unsigned long) const>:
   0:	fe010113          	addi	sp,sp,-32
   4:	00113c23          	sd	ra,24(sp)
   8:	00813823          	sd	s0,16(sp)
   c:	02010413          	addi	s0,sp,32
  10:	fea43423          	sd	a0,-24(s0)
  14:	feb43023          	sd	a1,-32(s0)
  18:	fe843783          	ld	a5,-24(s0)
  1c:	0087b783          	ld	a5,8(a5)
  20:	00078613          	addi	a2,a5,0
  24:	fe043583          	ld	a1,-32(s0)
