
dwarf.o:     file format elf64-littleriscv


Disassembly of section .text:

0000000000000000 <dwarf::dwarf::dwarf(std::shared_ptr<dwarf::loader> const&)>:
       0:	f0010113          	addi	sp,sp,-256
       4:	0e113c23          	sd	ra,248(sp)
       8:	0e813823          	sd	s0,240(sp)
       c:	0e913423          	sd	s1,232(sp)
      10:	0f213023          	sd	s2,224(sp)
      14:	10010413          	addi	s0,sp,256
      18:	f0a43423          	sd	a0,-248(s0)
      1c:	f0b43023          	sd	a1,-256(s0)
      20:	f0843783          	ld	a5,-248(s0)
      24:	f0043583          	ld	a1,-256(s0)
      28:	00078513          	addi	a0,a5,0
      2c:	00000317          	auipc	t1,0x0
      30:	00033303          	ld	t1,0(t1) # 2c <dwarf::dwarf::dwarf(std::shared_ptr<dwarf::loader> const&)+0x2c>

0000000000000034 <.LEHB0>:
      34:	000300e7          	jalr	ra,0(t1)

0000000000000038 <.LEHE0>:
      38:	f0043503          	ld	a0,-256(s0)
      3c:	00000317          	auipc	t1,0x0
      40:	00033303          	ld	t1,0(t1) # 3c <.LEHE0+0x4>
      44:	000300e7          	jalr	ra,0(t1)
      48:	00050793          	addi	a5,a0,0
      4c:	0007b703          	ld	a4,0(a5)
      50:	01070713          	addi	a4,a4,16
      54:	00073703          	ld	a4,0(a4)
      58:	f4040693          	addi	a3,s0,-192
      5c:	00068613          	addi	a2,a3,0
      60:	00300593          	addi	a1,zero,3
      64:	00078513          	addi	a0,a5,0

0000000000000068 <.LEHB1>:
      68:	000700e7          	jalr	ra,0(a4)

000000000000006c <.LEHE1>:
      6c:	00050793          	addi	a5,a0,0
      70:	f4f43423          	sd	a5,-184(s0)
      74:	f4843783          	ld	a5,-184(s0)
      78:	04079663          	bne	a5,zero,c4 <.L94>
      7c:	01000513          	addi	a0,zero,16
      80:	00000097          	auipc	ra,0x0
      84:	000080e7          	jalr	ra,0(ra) # 80 <.LEHE1+0x14>
      88:	00050793          	addi	a5,a0,0
      8c:	00078493          	addi	s1,a5,0
      90:	00000597          	auipc	a1,0x0
      94:	00058593          	addi	a1,a1,0 # 90 <.LEHE1+0x24>
      98:	00048513          	addi	a0,s1,0
      9c:	00000317          	auipc	t1,0x0
      a0:	00033303          	ld	t1,0(t1) # 9c <.LEHE1+0x30>

00000000000000a4 <.LEHB2>:
      a4:	000300e7          	jalr	ra,0(t1)

00000000000000a8 <.LEHE2>:
      a8:	00000617          	auipc	a2,0x0
      ac:	00063603          	ld	a2,0(a2) # a8 <.LEHE2>
      b0:	00000597          	auipc	a1,0x0
      b4:	0005b583          	ld	a1,0(a1) # b0 <.LEHE2+0x8>
      b8:	00048513          	addi	a0,s1,0

00000000000000bc <.LEHB3>:
      bc:	00000097          	auipc	ra,0x0
      c0:	000080e7          	jalr	ra,0(ra) # bc <.LEHB3>

00000000000000c4 <.L94>:
      c4:	f0843783          	ld	a5,-248(s0)
      c8:	00078513          	addi	a0,a5,0
      cc:	00000317          	auipc	t1,0x0
      d0:	00033303          	ld	t1,0(t1) # cc <.L94+0x8>
      d4:	000300e7          	jalr	ra,0(t1)
      d8:	00050793          	addi	a5,a0,0
      dc:	01078493          	addi	s1,a5,16
      e0:	00300793          	addi	a5,zero,3
      e4:	f6f42023          	sw	a5,-160(s0)
      e8:	f6042223          	sw	zero,-156(s0)
      ec:	f5040793          	addi	a5,s0,-176
      f0:	f6440713          	addi	a4,s0,-156
      f4:	f4040693          	addi	a3,s0,-192
      f8:	f4840613          	addi	a2,s0,-184
      fc:	f6040593          	addi	a1,s0,-160
     100:	00078513          	addi	a0,a5,0
     104:	00000317          	auipc	t1,0x0
     108:	00033303          	ld	t1,0(t1) # 104 <.L94+0x40>
     10c:	000300e7          	jalr	ra,0(t1)

0000000000000110 <.LEHE3>:
     110:	f5040793          	addi	a5,s0,-176
     114:	00078593          	addi	a1,a5,0
     118:	00048513          	addi	a0,s1,0
     11c:	00000317          	auipc	t1,0x0
     120:	00033303          	ld	t1,0(t1) # 11c <.LEHE3+0xc>
     124:	000300e7          	jalr	ra,0(t1)
     128:	f5040793          	addi	a5,s0,-176
     12c:	00078513          	addi	a0,a5,0
     130:	00000317          	auipc	t1,0x0
     134:	00033303          	ld	t1,0(t1) # 130 <.LEHE3+0x20>
     138:	000300e7          	jalr	ra,0(t1)
     13c:	f0843783          	ld	a5,-248(s0)
     140:	00078513          	addi	a0,a5,0
     144:	00000317          	auipc	t1,0x0
     148:	00033303          	ld	t1,0(t1) # 144 <.LEHE3+0x34>
     14c:	000300e7          	jalr	ra,0(t1)
     150:	00050793          	addi	a5,a0,0
     154:	01078713          	addi	a4,a5,16
     158:	f6840793          	addi	a5,s0,-152
     15c:	00070593          	addi	a1,a4,0
     160:	00078513          	addi	a0,a5,0
     164:	00000317          	auipc	t1,0x0
     168:	00033303          	ld	t1,0(t1) # 164 <.LEHE3+0x54>
     16c:	000300e7          	jalr	ra,0(t1)
     170:	f6840713          	addi	a4,s0,-152
     174:	f2840793          	addi	a5,s0,-216
     178:	00000613          	addi	a2,zero,0
     17c:	00070593          	addi	a1,a4,0
     180:	00078513          	addi	a0,a5,0
     184:	00000317          	auipc	t1,0x0
     188:	00033303          	ld	t1,0(t1) # 184 <.LEHE3+0x74>
     18c:	000300e7          	jalr	ra,0(t1)
     190:	f6840793          	addi	a5,s0,-152
     194:	00078513          	addi	a0,a5,0
     198:	00000317          	auipc	t1,0x0
     19c:	00033303          	ld	t1,0(t1) # 198 <.LEHE3+0x88>
     1a0:	000300e7          	jalr	ra,0(t1)
     1a4:	f2840793          	addi	a5,s0,-216
     1a8:	00078513          	addi	a0,a5,0
     1ac:	00000317          	auipc	t1,0x0
     1b0:	00033303          	ld	t1,0(t1) # 1ac <.LEHE3+0x9c>

00000000000001b4 <.LEHB4>:
     1b4:	000300e7          	jalr	ra,0(t1)
     1b8:	00050793          	addi	a5,a0,0
     1bc:	0007879b          	addiw	a5,a5,0
     1c0:	0007879b          	addiw	a5,a5,0
     1c4:	02079793          	slli	a5,a5,0x20
     1c8:	0207d793          	srli	a5,a5,0x20
     1cc:	fcf43c23          	sd	a5,-40(s0)
     1d0:	fd843703          	ld	a4,-40(s0)
     1d4:	fff00793          	addi	a5,zero,-1
     1d8:	0207d793          	srli	a5,a5,0x20
     1dc:	00f71c63          	bne	a4,a5,1f4 <.L95>
     1e0:	f2840793          	addi	a5,s0,-216
     1e4:	00078513          	addi	a0,a5,0
     1e8:	00000317          	auipc	t1,0x0
     1ec:	00033303          	ld	t1,0(t1) # 1e8 <.LEHB4+0x34>
     1f0:	000300e7          	jalr	ra,0(t1)

00000000000001f4 <.L95>:
     1f4:	f2840793          	addi	a5,s0,-216
     1f8:	00078513          	addi	a0,a5,0
     1fc:	00000317          	auipc	t1,0x0
     200:	00033303          	ld	t1,0(t1) # 1fc <.L95+0x8>
     204:	000300e7          	jalr	ra,0(t1)
     208:	00050793          	addi	a5,a0,0
     20c:	fcf41b23          	sh	a5,-42(s0)
     210:	fd645783          	lhu	a5,-42(s0)
     214:	0087d79b          	srliw	a5,a5,0x8
     218:	03079793          	slli	a5,a5,0x30
     21c:	0307d793          	srli	a5,a5,0x30
     220:	0107971b          	slliw	a4,a5,0x10
     224:	4107571b          	sraiw	a4,a4,0x10
     228:	fd645783          	lhu	a5,-42(s0)
     22c:	0007879b          	addiw	a5,a5,0
     230:	0087979b          	slliw	a5,a5,0x8
     234:	0007879b          	addiw	a5,a5,0
     238:	0107979b          	slliw	a5,a5,0x10
     23c:	4107d79b          	sraiw	a5,a5,0x10
     240:	00f767b3          	or	a5,a4,a5
     244:	0107979b          	slliw	a5,a5,0x10
     248:	4107d79b          	sraiw	a5,a5,0x10
     24c:	fcf41a23          	sh	a5,-44(s0)
     250:	fd445703          	lhu	a4,-44(s0)
     254:	fd645783          	lhu	a5,-42(s0)
     258:	0007071b          	addiw	a4,a4,0
     25c:	0007879b          	addiw	a5,a5,0
     260:	08f77063          	bgeu	a4,a5,2e0 <.L96>
     264:	f0843783          	ld	a5,-248(s0)
     268:	00078513          	addi	a0,a5,0
     26c:	00000317          	auipc	t1,0x0
     270:	00033303          	ld	t1,0(t1) # 26c <.L95+0x78>
     274:	000300e7          	jalr	ra,0(t1)
     278:	00050793          	addi	a5,a0,0
     27c:	01078493          	addi	s1,a5,16
     280:	00300793          	addi	a5,zero,3
     284:	f8f42423          	sw	a5,-120(s0)
     288:	00100793          	addi	a5,zero,1
     28c:	f8f42623          	sw	a5,-116(s0)
     290:	f7840793          	addi	a5,s0,-136
     294:	f8c40713          	addi	a4,s0,-116
     298:	f4040693          	addi	a3,s0,-192
     29c:	f4840613          	addi	a2,s0,-184
     2a0:	f8840593          	addi	a1,s0,-120
     2a4:	00078513          	addi	a0,a5,0
     2a8:	00000317          	auipc	t1,0x0
     2ac:	00033303          	ld	t1,0(t1) # 2a8 <.L95+0xb4>
     2b0:	000300e7          	jalr	ra,0(t1)
     2b4:	f7840793          	addi	a5,s0,-136
     2b8:	00078593          	addi	a1,a5,0
     2bc:	00048513          	addi	a0,s1,0
     2c0:	00000317          	auipc	t1,0x0
     2c4:	00033303          	ld	t1,0(t1) # 2c0 <.L95+0xcc>
     2c8:	000300e7          	jalr	ra,0(t1)
     2cc:	f7840793          	addi	a5,s0,-136
     2d0:	00078513          	addi	a0,a5,0
     2d4:	00000317          	auipc	t1,0x0
     2d8:	00033303          	ld	t1,0(t1) # 2d4 <.L95+0xe0>
     2dc:	000300e7          	jalr	ra,0(t1)

00000000000002e0 <.L96>:
     2e0:	f0043503          	ld	a0,-256(s0)
     2e4:	00000317          	auipc	t1,0x0
     2e8:	00033303          	ld	t1,0(t1) # 2e4 <.L96+0x4>
     2ec:	000300e7          	jalr	ra,0(t1)
     2f0:	00050793          	addi	a5,a0,0
     2f4:	0007b703          	ld	a4,0(a5)
     2f8:	01070713          	addi	a4,a4,16
     2fc:	00073703          	ld	a4,0(a4)
     300:	f4040693          	addi	a3,s0,-192
     304:	00068613          	addi	a2,a3,0
     308:	00000593          	addi	a1,zero,0
     30c:	00078513          	addi	a0,a5,0
     310:	000700e7          	jalr	ra,0(a4)

0000000000000314 <.LEHE4>:
     314:	00050793          	addi	a5,a0,0
     318:	f4f43423          	sd	a5,-184(s0)
     31c:	f4843783          	ld	a5,-184(s0)
     320:	04079663          	bne	a5,zero,36c <.L97>
     324:	01000513          	addi	a0,zero,16
     328:	00000097          	auipc	ra,0x0
     32c:	000080e7          	jalr	ra,0(ra) # 328 <.LEHE4+0x14>
     330:	00050793          	addi	a5,a0,0
     334:	00078493          	addi	s1,a5,0
     338:	00000597          	auipc	a1,0x0
     33c:	00058593          	addi	a1,a1,0 # 338 <.LEHE4+0x24>
     340:	00048513          	addi	a0,s1,0
     344:	00000317          	auipc	t1,0x0
     348:	00033303          	ld	t1,0(t1) # 344 <.LEHE4+0x30>

000000000000034c <.LEHB5>:
     34c:	000300e7          	jalr	ra,0(t1)

0000000000000350 <.LEHE5>:
     350:	00000617          	auipc	a2,0x0
     354:	00063603          	ld	a2,0(a2) # 350 <.LEHE5>
     358:	00000597          	auipc	a1,0x0
     35c:	0005b583          	ld	a1,0(a1) # 358 <.LEHE5+0x8>
     360:	00048513          	addi	a0,s1,0

0000000000000364 <.LEHB6>:
     364:	00000097          	auipc	ra,0x0
     368:	000080e7          	jalr	ra,0(ra) # 364 <.LEHB6>

000000000000036c <.L97>:
     36c:	f0843783          	ld	a5,-248(s0)
     370:	00078513          	addi	a0,a5,0
     374:	00000317          	auipc	t1,0x0
     378:	00033303          	ld	t1,0(t1) # 374 <.L97+0x8>
     37c:	000300e7          	jalr	ra,0(t1)
     380:	00050793          	addi	a5,a0,0
     384:	02078493          	addi	s1,a5,32
     388:	fa042223          	sw	zero,-92(s0)
     38c:	f0843783          	ld	a5,-248(s0)
     390:	00078513          	addi	a0,a5,0
     394:	00000317          	auipc	t1,0x0
     398:	00033303          	ld	t1,0(t1) # 394 <.L97+0x28>
     39c:	000300e7          	jalr	ra,0(t1)
     3a0:	00050793          	addi	a5,a0,0
     3a4:	01078793          	addi	a5,a5,16
     3a8:	00078513          	addi	a0,a5,0
     3ac:	00000317          	auipc	t1,0x0
     3b0:	00033303          	ld	t1,0(t1) # 3ac <.L97+0x40>
     3b4:	000300e7          	jalr	ra,0(t1)
     3b8:	00050793          	addi	a5,a0,0
     3bc:	01c78713          	addi	a4,a5,28
     3c0:	f9040793          	addi	a5,s0,-112
     3c4:	f4040693          	addi	a3,s0,-192
     3c8:	f4840613          	addi	a2,s0,-184
     3cc:	fa440593          	addi	a1,s0,-92
     3d0:	00078513          	addi	a0,a5,0
     3d4:	00000317          	auipc	t1,0x0
     3d8:	00033303          	ld	t1,0(t1) # 3d4 <.L97+0x68>
     3dc:	000300e7          	jalr	ra,0(t1)

00000000000003e0 <.LEHE6>:
     3e0:	f9040793          	addi	a5,s0,-112
     3e4:	00078593          	addi	a1,a5,0
     3e8:	00048513          	addi	a0,s1,0
     3ec:	00000317          	auipc	t1,0x0
     3f0:	00033303          	ld	t1,0(t1) # 3ec <.LEHE6+0xc>
     3f4:	000300e7          	jalr	ra,0(t1)
     3f8:	f9040793          	addi	a5,s0,-112
     3fc:	00078513          	addi	a0,a5,0
     400:	00000317          	auipc	t1,0x0
     404:	00033303          	ld	t1,0(t1) # 400 <.LEHE6+0x20>
     408:	000300e7          	jalr	ra,0(t1)
     40c:	f0843783          	ld	a5,-248(s0)
     410:	00078513          	addi	a0,a5,0
     414:	00000317          	auipc	t1,0x0
     418:	00033303          	ld	t1,0(t1) # 414 <.LEHE6+0x34>
     41c:	000300e7          	jalr	ra,0(t1)
     420:	00050793          	addi	a5,a0,0
     424:	01078713          	addi	a4,a5,16
     428:	fa840793          	addi	a5,s0,-88
     42c:	00070593          	addi	a1,a4,0
     430:	00078513          	addi	a0,a5,0
     434:	00000317          	auipc	t1,0x0
     438:	00033303          	ld	t1,0(t1) # 434 <.LEHE6+0x54>
     43c:	000300e7          	jalr	ra,0(t1)
     440:	fa840713          	addi	a4,s0,-88
     444:	f1040793          	addi	a5,s0,-240
     448:	00000613          	addi	a2,zero,0
     44c:	00070593          	addi	a1,a4,0
     450:	00078513          	addi	a0,a5,0
     454:	00000317          	auipc	t1,0x0
     458:	00033303          	ld	t1,0(t1) # 454 <.LEHE6+0x74>
     45c:	000300e7          	jalr	ra,0(t1)
     460:	fa840793          	addi	a5,s0,-88
     464:	00078513          	addi	a0,a5,0
     468:	00000317          	auipc	t1,0x0
     46c:	00033303          	ld	t1,0(t1) # 468 <.LEHE6+0x88>
     470:	000300e7          	jalr	ra,0(t1)
     474:	0840006f          	jal	zero,4f8 <.L98>

0000000000000478 <.L99>:
     478:	f0843783          	ld	a5,-248(s0)
     47c:	00078513          	addi	a0,a5,0
     480:	00000317          	auipc	t1,0x0
     484:	00033303          	ld	t1,0(t1) # 480 <.L99+0x8>
     488:	000300e7          	jalr	ra,0(t1)
     48c:	00050793          	addi	a5,a0,0
     490:	03078493          	addi	s1,a5,48
     494:	f1040793          	addi	a5,s0,-240
     498:	00078513          	addi	a0,a5,0
     49c:	00000317          	auipc	t1,0x0
     4a0:	00033303          	ld	t1,0(t1) # 49c <.L99+0x24>
     4a4:	000300e7          	jalr	ra,0(t1)
     4a8:	00050793          	addi	a5,a0,0
     4ac:	faf43c23          	sd	a5,-72(s0)
     4b0:	fb840793          	addi	a5,s0,-72
     4b4:	00078613          	addi	a2,a5,0
     4b8:	f0843583          	ld	a1,-248(s0)
     4bc:	00048513          	addi	a0,s1,0
     4c0:	00000317          	auipc	t1,0x0
     4c4:	00033303          	ld	t1,0(t1) # 4c0 <.L99+0x48>

00000000000004c8 <.LEHB7>:
     4c8:	000300e7          	jalr	ra,0(t1)
     4cc:	fc040793          	addi	a5,s0,-64
     4d0:	f1040713          	addi	a4,s0,-240
     4d4:	00070593          	addi	a1,a4,0
     4d8:	00078513          	addi	a0,a5,0
     4dc:	00000097          	auipc	ra,0x0
     4e0:	000080e7          	jalr	ra,0(ra) # 4dc <.LEHB7+0x14>

00000000000004e4 <.LEHE7>:
     4e4:	fc040793          	addi	a5,s0,-64
     4e8:	00078513          	addi	a0,a5,0
     4ec:	00000317          	auipc	t1,0x0
     4f0:	00033303          	ld	t1,0(t1) # 4ec <.LEHE7+0x8>
     4f4:	000300e7          	jalr	ra,0(t1)

00000000000004f8 <.L98>:
     4f8:	f1040793          	addi	a5,s0,-240
     4fc:	00078513          	addi	a0,a5,0
     500:	00000317          	auipc	t1,0x0
     504:	00033303          	ld	t1,0(t1) # 500 <.L98+0x8>
     508:	000300e7          	jalr	ra,0(t1)
     50c:	00050793          	addi	a5,a0,0
     510:	0017c793          	xori	a5,a5,1
     514:	0ff7f793          	andi	a5,a5,255
     518:	f60790e3          	bne	a5,zero,478 <.L99>
     51c:	f1040793          	addi	a5,s0,-240
     520:	00078513          	addi	a0,a5,0
     524:	00000317          	auipc	t1,0x0
     528:	00033303          	ld	t1,0(t1) # 524 <.L98+0x2c>
     52c:	000300e7          	jalr	ra,0(t1)
     530:	f2840793          	addi	a5,s0,-216
     534:	00078513          	addi	a0,a5,0
     538:	00000317          	auipc	t1,0x0
     53c:	00033303          	ld	t1,0(t1) # 538 <.L98+0x40>
     540:	000300e7          	jalr	ra,0(t1)
     544:	0940006f          	jal	zero,5d8 <.L110>

0000000000000548 <.L106>:
     548:	00050913          	addi	s2,a0,0
     54c:	00048513          	addi	a0,s1,0
     550:	00000097          	auipc	ra,0x0
     554:	000080e7          	jalr	ra,0(ra) # 550 <.L106+0x8>
     558:	00090493          	addi	s1,s2,0
     55c:	0580006f          	jal	zero,5b4 <.L101>

0000000000000560 <.L108>:
     560:	00050913          	addi	s2,a0,0
     564:	00048513          	addi	a0,s1,0
     568:	00000097          	auipc	ra,0x0
     56c:	000080e7          	jalr	ra,0(ra) # 568 <.L108+0x8>
     570:	00090493          	addi	s1,s2,0
     574:	0240006f          	jal	zero,598 <.L103>

0000000000000578 <.L109>:
     578:	00050493          	addi	s1,a0,0
     57c:	f1040793          	addi	a5,s0,-240
     580:	00078513          	addi	a0,a5,0
     584:	00000317          	auipc	t1,0x0
     588:	00033303          	ld	t1,0(t1) # 584 <.L109+0xc>
     58c:	000300e7          	jalr	ra,0(t1)
     590:	0080006f          	jal	zero,598 <.L103>

0000000000000594 <.L107>:
     594:	00050493          	addi	s1,a0,0

0000000000000598 <.L103>:
     598:	f2840793          	addi	a5,s0,-216
     59c:	00078513          	addi	a0,a5,0
     5a0:	00000317          	auipc	t1,0x0
     5a4:	00033303          	ld	t1,0(t1) # 5a0 <.L103+0x8>
     5a8:	000300e7          	jalr	ra,0(t1)
     5ac:	0080006f          	jal	zero,5b4 <.L101>

00000000000005b0 <.L105>:
     5b0:	00050493          	addi	s1,a0,0

00000000000005b4 <.L101>:
     5b4:	f0843783          	ld	a5,-248(s0)
     5b8:	00078513          	addi	a0,a5,0
     5bc:	00000317          	auipc	t1,0x0
     5c0:	00033303          	ld	t1,0(t1) # 5bc <.L101+0x8>
     5c4:	000300e7          	jalr	ra,0(t1)
     5c8:	00048793          	addi	a5,s1,0
     5cc:	00078513          	addi	a0,a5,0

00000000000005d0 <.LEHB8>:
     5d0:	00000097          	auipc	ra,0x0
     5d4:	000080e7          	jalr	ra,0(ra) # 5d0 <.LEHB8>

00000000000005d8 <.L110>:
     5d8:	0f813083          	ld	ra,248(sp)
     5dc:	0f013403          	ld	s0,240(sp)
     5e0:	0e813483          	ld	s1,232(sp)
     5e4:	0e013903          	ld	s2,224(sp)
     5e8:	10010113          	addi	sp,sp,256
     5ec:	00008067          	jalr	zero,0(ra)

00000000000005f0 <dwarf::dwarf::~dwarf()>:
     5f0:	fe010113          	addi	sp,sp,-32
     5f4:	00113c23          	sd	ra,24(sp)
     5f8:	00813823          	sd	s0,16(sp)
     5fc:	02010413          	addi	s0,sp,32
     600:	fea43423          	sd	a0,-24(s0)
     604:	fe843783          	ld	a5,-24(s0)
     608:	00078513          	addi	a0,a5,0
     60c:	00000317          	auipc	t1,0x0
     610:	00033303          	ld	t1,0(t1) # 60c <dwarf::dwarf::~dwarf()+0x1c>
     614:	000300e7          	jalr	ra,0(t1)
     618:	00000013          	addi	zero,zero,0
     61c:	01813083          	ld	ra,24(sp)
     620:	01013403          	ld	s0,16(sp)
     624:	02010113          	addi	sp,sp,32
     628:	00008067          	jalr	zero,0(ra)

000000000000062c <dwarf::dwarf::compilation_units() const>:
     62c:	fe010113          	addi	sp,sp,-32
     630:	00113c23          	sd	ra,24(sp)
     634:	00813823          	sd	s0,16(sp)
     638:	02010413          	addi	s0,sp,32
     63c:	fea43423          	sd	a0,-24(s0)
     640:	00000517          	auipc	a0,0x0
     644:	00050513          	addi	a0,a0,0 # 640 <dwarf::dwarf::compilation_units() const+0x14>
     648:	00000097          	auipc	ra,0x0
     64c:	000080e7          	jalr	ra,0(ra) # 648 <dwarf::dwarf::compilation_units() const+0x1c>
     650:	00050793          	addi	a5,a0,0
     654:	00f037b3          	sltu	a5,zero,a5
     658:	0ff7f793          	andi	a5,a5,255
     65c:	04078463          	beq	a5,zero,6a4 <.L113>
     660:	00000517          	auipc	a0,0x0
     664:	00050513          	addi	a0,a0,0 # 660 <dwarf::dwarf::compilation_units() const+0x34>
     668:	00000317          	auipc	t1,0x0
     66c:	00033303          	ld	t1,0(t1) # 668 <dwarf::dwarf::compilation_units() const+0x3c>
     670:	000300e7          	jalr	ra,0(t1)
     674:	00000617          	auipc	a2,0x0
     678:	00060613          	addi	a2,a2,0 # 674 <dwarf::dwarf::compilation_units() const+0x48>
     67c:	00000597          	auipc	a1,0x0
     680:	00058593          	addi	a1,a1,0 # 67c <dwarf::dwarf::compilation_units() const+0x50>
     684:	00000517          	auipc	a0,0x0
     688:	00053503          	ld	a0,0(a0) # 684 <dwarf::dwarf::compilation_units() const+0x58>
     68c:	00000097          	auipc	ra,0x0
     690:	000080e7          	jalr	ra,0(ra) # 68c <dwarf::dwarf::compilation_units() const+0x60>
     694:	00000517          	auipc	a0,0x0
     698:	00050513          	addi	a0,a0,0 # 694 <dwarf::dwarf::compilation_units() const+0x68>
     69c:	00000097          	auipc	ra,0x0
     6a0:	000080e7          	jalr	ra,0(ra) # 69c <dwarf::dwarf::compilation_units() const+0x70>

00000000000006a4 <.L113>:
     6a4:	fe843783          	ld	a5,-24(s0)
     6a8:	00078513          	addi	a0,a5,0
     6ac:	00000317          	auipc	t1,0x0
     6b0:	00033303          	ld	t1,0(t1) # 6ac <.L113+0x8>
     6b4:	000300e7          	jalr	ra,0(t1)
     6b8:	00050793          	addi	a5,a0,0
     6bc:	0017c793          	xori	a5,a5,1
     6c0:	0ff7f793          	andi	a5,a5,255
     6c4:	00078863          	beq	a5,zero,6d4 <.L114>
     6c8:	00000797          	auipc	a5,0x0
     6cc:	00078793          	addi	a5,a5,0 # 6c8 <.L113+0x24>
     6d0:	0200006f          	jal	zero,6f0 <.L115>

00000000000006d4 <.L114>:
     6d4:	fe843783          	ld	a5,-24(s0)
     6d8:	00078513          	addi	a0,a5,0
     6dc:	00000317          	auipc	t1,0x0
     6e0:	00033303          	ld	t1,0(t1) # 6dc <.L114+0x8>
     6e4:	000300e7          	jalr	ra,0(t1)
     6e8:	00050793          	addi	a5,a0,0
     6ec:	03078793          	addi	a5,a5,48

00000000000006f0 <.L115>:
     6f0:	00078513          	addi	a0,a5,0
     6f4:	01813083          	ld	ra,24(sp)
     6f8:	01013403          	ld	s0,16(sp)
     6fc:	02010113          	addi	sp,sp,32
     700:	00008067          	jalr	zero,0(ra)

0000000000000704 <dwarf::dwarf::get_type_unit(unsigned long) const>:
     704:	f3010113          	addi	sp,sp,-208
     708:	0c113423          	sd	ra,200(sp)
     70c:	0c813023          	sd	s0,192(sp)
     710:	0a913c23          	sd	s1,184(sp)
     714:	0b213823          	sd	s2,176(sp)
     718:	0d010413          	addi	s0,sp,208
     71c:	f2a43c23          	sd	a0,-200(s0)
     720:	f2b43823          	sd	a1,-208(s0)
     724:	f3843783          	ld	a5,-200(s0)
     728:	00078513          	addi	a0,a5,0
     72c:	00000317          	auipc	t1,0x0
     730:	00033303          	ld	t1,0(t1) # 72c <dwarf::dwarf::get_type_unit(unsigned long) const+0x28>
     734:	000300e7          	jalr	ra,0(t1)
     738:	00050793          	addi	a5,a0,0
     73c:	0807c783          	lbu	a5,128(a5)
     740:	0017c793          	xori	a5,a5,1
     744:	0ff7f793          	andi	a5,a5,255
     748:	18078263          	beq	a5,zero,8cc <.L125>
     74c:	f7840793          	addi	a5,s0,-136
     750:	00b00613          	addi	a2,zero,11
     754:	f3843583          	ld	a1,-200(s0)
     758:	00078513          	addi	a0,a5,0

000000000000075c <.LEHB9>:
     75c:	00000097          	auipc	ra,0x0
     760:	000080e7          	jalr	ra,0(ra) # 75c <.LEHB9>

0000000000000764 <.LEHE9>:
     764:	f7840713          	addi	a4,s0,-136
     768:	f6040793          	addi	a5,s0,-160
     76c:	00000613          	addi	a2,zero,0
     770:	00070593          	addi	a1,a4,0
     774:	00078513          	addi	a0,a5,0
     778:	00000317          	auipc	t1,0x0
     77c:	00033303          	ld	t1,0(t1) # 778 <.LEHE9+0x14>
     780:	000300e7          	jalr	ra,0(t1)
     784:	f7840793          	addi	a5,s0,-136
     788:	00078513          	addi	a0,a5,0
     78c:	00000317          	auipc	t1,0x0
     790:	00033303          	ld	t1,0(t1) # 78c <.LEHE9+0x28>
     794:	000300e7          	jalr	ra,0(t1)
     798:	0dc0006f          	jal	zero,874 <.L126>

000000000000079c <.L127>:
     79c:	f6040793          	addi	a5,s0,-160
     7a0:	00078513          	addi	a0,a5,0
     7a4:	00000317          	auipc	t1,0x0
     7a8:	00033303          	ld	t1,0(t1) # 7a4 <.L127+0x8>
     7ac:	000300e7          	jalr	ra,0(t1)
     7b0:	00050713          	addi	a4,a0,0
     7b4:	f4840793          	addi	a5,s0,-184
     7b8:	00070613          	addi	a2,a4,0
     7bc:	f3843583          	ld	a1,-200(s0)
     7c0:	00078513          	addi	a0,a5,0

00000000000007c4 <.LEHB10>:
     7c4:	00000097          	auipc	ra,0x0
     7c8:	000080e7          	jalr	ra,0(ra) # 7c4 <.LEHB10>

00000000000007cc <.LEHE10>:
     7cc:	f3843783          	ld	a5,-200(s0)
     7d0:	00078513          	addi	a0,a5,0
     7d4:	00000317          	auipc	t1,0x0
     7d8:	00033303          	ld	t1,0(t1) # 7d4 <.LEHE10+0x8>
     7dc:	000300e7          	jalr	ra,0(t1)
     7e0:	00050793          	addi	a5,a0,0
     7e4:	04878493          	addi	s1,a5,72
     7e8:	f4840793          	addi	a5,s0,-184
     7ec:	00078513          	addi	a0,a5,0

00000000000007f0 <.LEHB11>:
     7f0:	00000097          	auipc	ra,0x0
     7f4:	000080e7          	jalr	ra,0(ra) # 7f0 <.LEHB11>
     7f8:	00050793          	addi	a5,a0,0
     7fc:	f8f43423          	sd	a5,-120(s0)
     800:	f8840793          	addi	a5,s0,-120
     804:	00078593          	addi	a1,a5,0
     808:	00048513          	addi	a0,s1,0
     80c:	00000317          	auipc	t1,0x0
     810:	00033303          	ld	t1,0(t1) # 80c <.LEHB11+0x1c>
     814:	000300e7          	jalr	ra,0(t1)
     818:	00050713          	addi	a4,a0,0
     81c:	f4840793          	addi	a5,s0,-184
     820:	00078593          	addi	a1,a5,0
     824:	00070513          	addi	a0,a4,0
     828:	00000317          	auipc	t1,0x0
     82c:	00033303          	ld	t1,0(t1) # 828 <.LEHB11+0x38>
     830:	000300e7          	jalr	ra,0(t1)
     834:	f9040793          	addi	a5,s0,-112
     838:	f6040713          	addi	a4,s0,-160
     83c:	00070593          	addi	a1,a4,0
     840:	00078513          	addi	a0,a5,0
     844:	00000097          	auipc	ra,0x0
     848:	000080e7          	jalr	ra,0(ra) # 844 <.LEHB11+0x54>

000000000000084c <.LEHE11>:
     84c:	f9040793          	addi	a5,s0,-112
     850:	00078513          	addi	a0,a5,0
     854:	00000317          	auipc	t1,0x0
     858:	00033303          	ld	t1,0(t1) # 854 <.LEHE11+0x8>
     85c:	000300e7          	jalr	ra,0(t1)
     860:	f4840793          	addi	a5,s0,-184
     864:	00078513          	addi	a0,a5,0
     868:	00000317          	auipc	t1,0x0
     86c:	00033303          	ld	t1,0(t1) # 868 <.LEHE11+0x1c>
     870:	000300e7          	jalr	ra,0(t1)

0000000000000874 <.L126>:
     874:	f6040793          	addi	a5,s0,-160
     878:	00078513          	addi	a0,a5,0
     87c:	00000317          	auipc	t1,0x0
     880:	00033303          	ld	t1,0(t1) # 87c <.L126+0x8>
     884:	000300e7          	jalr	ra,0(t1)
     888:	00050793          	addi	a5,a0,0
     88c:	0017c793          	xori	a5,a5,1
     890:	0ff7f793          	andi	a5,a5,255
     894:	f00794e3          	bne	a5,zero,79c <.L127>
     898:	f3843783          	ld	a5,-200(s0)
     89c:	00078513          	addi	a0,a5,0
     8a0:	00000317          	auipc	t1,0x0
     8a4:	00033303          	ld	t1,0(t1) # 8a0 <.L126+0x2c>
     8a8:	000300e7          	jalr	ra,0(t1)
     8ac:	00050713          	addi	a4,a0,0
     8b0:	00100793          	addi	a5,zero,1
     8b4:	08f70023          	sb	a5,128(a4)
     8b8:	f6040793          	addi	a5,s0,-160
     8bc:	00078513          	addi	a0,a5,0
     8c0:	00000317          	auipc	t1,0x0
     8c4:	00033303          	ld	t1,0(t1) # 8c0 <.L126+0x4c>
     8c8:	000300e7          	jalr	ra,0(t1)

00000000000008cc <.L125>:
     8cc:	f3843783          	ld	a5,-200(s0)
     8d0:	00078513          	addi	a0,a5,0
     8d4:	00000317          	auipc	t1,0x0
     8d8:	00033303          	ld	t1,0(t1) # 8d4 <.L125+0x8>
     8dc:	000300e7          	jalr	ra,0(t1)
     8e0:	00050793          	addi	a5,a0,0
     8e4:	04878793          	addi	a5,a5,72
     8e8:	f3040713          	addi	a4,s0,-208
     8ec:	00070593          	addi	a1,a4,0
     8f0:	00078513          	addi	a0,a5,0
     8f4:	00000317          	auipc	t1,0x0
     8f8:	00033303          	ld	t1,0(t1) # 8f4 <.L125+0x28>

00000000000008fc <.LEHB12>:
     8fc:	000300e7          	jalr	ra,0(t1)

0000000000000900 <.LEHE12>:
     900:	00050793          	addi	a5,a0,0
     904:	0017b793          	sltiu	a5,a5,1
     908:	0ff7f793          	andi	a5,a5,255
     90c:	0a078463          	beq	a5,zero,9b4 <.L128>
     910:	01000513          	addi	a0,zero,16
     914:	00000097          	auipc	ra,0x0
     918:	000080e7          	jalr	ra,0(ra) # 914 <.LEHE12+0x14>
     91c:	00050793          	addi	a5,a0,0
     920:	00078493          	addi	s1,a5,0
     924:	f3043703          	ld	a4,-208(s0)
     928:	fc040793          	addi	a5,s0,-64
     92c:	00070593          	addi	a1,a4,0
     930:	00078513          	addi	a0,a5,0
     934:	00000317          	auipc	t1,0x0
     938:	00033303          	ld	t1,0(t1) # 934 <.LEHE12+0x34>

000000000000093c <.LEHB13>:
     93c:	000300e7          	jalr	ra,0(t1)

0000000000000940 <.LEHE13>:
     940:	fa040793          	addi	a5,s0,-96
     944:	fc040713          	addi	a4,s0,-64
     948:	00070613          	addi	a2,a4,0
     94c:	00000597          	auipc	a1,0x0
     950:	00058593          	addi	a1,a1,0 # 94c <.LEHE13+0xc>
     954:	00078513          	addi	a0,a5,0
     958:	00000317          	auipc	t1,0x0
     95c:	00033303          	ld	t1,0(t1) # 958 <.LEHE13+0x18>

0000000000000960 <.LEHB14>:
     960:	000300e7          	jalr	ra,0(t1)

0000000000000964 <.LEHE14>:
     964:	fa040793          	addi	a5,s0,-96
     968:	00078593          	addi	a1,a5,0
     96c:	00048513          	addi	a0,s1,0

0000000000000970 <.LEHB15>:
     970:	00000097          	auipc	ra,0x0
     974:	000080e7          	jalr	ra,0(ra) # 970 <.LEHB15>

0000000000000978 <.LEHE15>:
     978:	fa040793          	addi	a5,s0,-96
     97c:	00078513          	addi	a0,a5,0
     980:	00000097          	auipc	ra,0x0
     984:	000080e7          	jalr	ra,0(ra) # 980 <.LEHE15+0x8>
     988:	fc040793          	addi	a5,s0,-64
     98c:	00078513          	addi	a0,a5,0
     990:	00000097          	auipc	ra,0x0
     994:	000080e7          	jalr	ra,0(ra) # 990 <.LEHE15+0x18>
     998:	00000617          	auipc	a2,0x0
     99c:	00063603          	ld	a2,0(a2) # 998 <.LEHE15+0x20>
     9a0:	00000597          	auipc	a1,0x0
     9a4:	0005b583          	ld	a1,0(a1) # 9a0 <.LEHE15+0x28>
     9a8:	00048513          	addi	a0,s1,0

00000000000009ac <.LEHB16>:
     9ac:	00000097          	auipc	ra,0x0
     9b0:	000080e7          	jalr	ra,0(ra) # 9ac <.LEHB16>

00000000000009b4 <.L128>:
     9b4:	f3843783          	ld	a5,-200(s0)
     9b8:	00078513          	addi	a0,a5,0
     9bc:	00000317          	auipc	t1,0x0
     9c0:	00033303          	ld	t1,0(t1) # 9bc <.L128+0x8>
     9c4:	000300e7          	jalr	ra,0(t1)
     9c8:	00050793          	addi	a5,a0,0
     9cc:	04878793          	addi	a5,a5,72
     9d0:	f3040713          	addi	a4,s0,-208
     9d4:	00070593          	addi	a1,a4,0
     9d8:	00078513          	addi	a0,a5,0
     9dc:	00000317          	auipc	t1,0x0
     9e0:	00033303          	ld	t1,0(t1) # 9dc <.L128+0x28>
     9e4:	000300e7          	jalr	ra,0(t1)
     9e8:	00050793          	addi	a5,a0,0
     9ec:	0980006f          	jal	zero,a84 <.L140>

00000000000009f0 <.L136>:
     9f0:	00050493          	addi	s1,a0,0
     9f4:	f4840793          	addi	a5,s0,-184
     9f8:	00078513          	addi	a0,a5,0
     9fc:	00000317          	auipc	t1,0x0
     a00:	00033303          	ld	t1,0(t1) # 9fc <.L136+0xc>
     a04:	000300e7          	jalr	ra,0(t1)
     a08:	0080006f          	jal	zero,a10 <.L131>

0000000000000a0c <.L135>:
     a0c:	00050493          	addi	s1,a0,0

0000000000000a10 <.L131>:
     a10:	f6040793          	addi	a5,s0,-160
     a14:	00078513          	addi	a0,a5,0
     a18:	00000317          	auipc	t1,0x0
     a1c:	00033303          	ld	t1,0(t1) # a18 <.L131+0x8>
     a20:	000300e7          	jalr	ra,0(t1)
     a24:	00048793          	addi	a5,s1,0
     a28:	00078513          	addi	a0,a5,0
     a2c:	00000097          	auipc	ra,0x0
     a30:	000080e7          	jalr	ra,0(ra) # a2c <.L131+0x1c>

0000000000000a34 <.L139>:
     a34:	00050913          	addi	s2,a0,0
     a38:	fa040793          	addi	a5,s0,-96
     a3c:	00078513          	addi	a0,a5,0
     a40:	00000097          	auipc	ra,0x0
     a44:	000080e7          	jalr	ra,0(ra) # a40 <.L139+0xc>
     a48:	0080006f          	jal	zero,a50 <.L133>

0000000000000a4c <.L138>:
     a4c:	00050913          	addi	s2,a0,0

0000000000000a50 <.L133>:
     a50:	fc040793          	addi	a5,s0,-64
     a54:	00078513          	addi	a0,a5,0
     a58:	00000097          	auipc	ra,0x0
     a5c:	000080e7          	jalr	ra,0(ra) # a58 <.L133+0x8>
     a60:	0080006f          	jal	zero,a68 <.L134>

0000000000000a64 <.L137>:
     a64:	00050913          	addi	s2,a0,0

0000000000000a68 <.L134>:
     a68:	00048513          	addi	a0,s1,0
     a6c:	00000097          	auipc	ra,0x0
     a70:	000080e7          	jalr	ra,0(ra) # a6c <.L134+0x4>
     a74:	00090793          	addi	a5,s2,0
     a78:	00078513          	addi	a0,a5,0
     a7c:	00000097          	auipc	ra,0x0
     a80:	000080e7          	jalr	ra,0(ra) # a7c <.L134+0x14>

0000000000000a84 <.L140>:
     a84:	00078513          	addi	a0,a5,0
     a88:	0c813083          	ld	ra,200(sp)
     a8c:	0c013403          	ld	s0,192(sp)
     a90:	0b813483          	ld	s1,184(sp)
     a94:	0b013903          	ld	s2,176(sp)
     a98:	0d010113          	addi	sp,sp,208
     a9c:	00008067          	jalr	zero,0(ra)

0000000000000aa0 <dwarf::dwarf::get_section(dwarf::section_type) const>:
     aa0:	f4010113          	addi	sp,sp,-192
     aa4:	0a113c23          	sd	ra,184(sp)
     aa8:	0a813823          	sd	s0,176(sp)
     aac:	0a913423          	sd	s1,168(sp)
     ab0:	0b213023          	sd	s2,160(sp)
     ab4:	0c010413          	addi	s0,sp,192
     ab8:	f4a43c23          	sd	a0,-168(s0)
     abc:	f4b43823          	sd	a1,-176(s0)
     ac0:	00060793          	addi	a5,a2,0
     ac4:	f4f42623          	sw	a5,-180(s0)
     ac8:	f4c42783          	lw	a5,-180(s0)
     acc:	00078713          	addi	a4,a5,0
     ad0:	00300793          	addi	a5,zero,3
     ad4:	02f71c63          	bne	a4,a5,b0c <.L142>
     ad8:	f5043783          	ld	a5,-176(s0)
     adc:	00078513          	addi	a0,a5,0
     ae0:	00000317          	auipc	t1,0x0
     ae4:	00033303          	ld	t1,0(t1) # ae0 <dwarf::dwarf::get_section(dwarf::section_type) const+0x40>
     ae8:	000300e7          	jalr	ra,0(t1)
     aec:	00050793          	addi	a5,a0,0
     af0:	01078793          	addi	a5,a5,16
     af4:	00078593          	addi	a1,a5,0
     af8:	f5843503          	ld	a0,-168(s0)
     afc:	00000317          	auipc	t1,0x0
     b00:	00033303          	ld	t1,0(t1) # afc <dwarf::dwarf::get_section(dwarf::section_type) const+0x5c>
     b04:	000300e7          	jalr	ra,0(t1)
     b08:	3b80006f          	jal	zero,ec0 <.L156>

0000000000000b0c <.L142>:
     b0c:	f4c42783          	lw	a5,-180(s0)
     b10:	02079c63          	bne	a5,zero,b48 <.L144>
     b14:	f5043783          	ld	a5,-176(s0)
     b18:	00078513          	addi	a0,a5,0
     b1c:	00000317          	auipc	t1,0x0
     b20:	00033303          	ld	t1,0(t1) # b1c <.L142+0x10>
     b24:	000300e7          	jalr	ra,0(t1)
     b28:	00050793          	addi	a5,a0,0
     b2c:	02078793          	addi	a5,a5,32
     b30:	00078593          	addi	a1,a5,0
     b34:	f5843503          	ld	a0,-168(s0)
     b38:	00000317          	auipc	t1,0x0
     b3c:	00033303          	ld	t1,0(t1) # b38 <.L142+0x2c>
     b40:	000300e7          	jalr	ra,0(t1)
     b44:	37c0006f          	jal	zero,ec0 <.L156>

0000000000000b48 <.L144>:
     b48:	f5043783          	ld	a5,-176(s0)
     b4c:	00078513          	addi	a0,a5,0
     b50:	00000317          	auipc	t1,0x0
     b54:	00033303          	ld	t1,0(t1) # b50 <.L144+0x8>
     b58:	000300e7          	jalr	ra,0(t1)
     b5c:	00050793          	addi	a5,a0,0
     b60:	08878793          	addi	a5,a5,136
     b64:	f4c40713          	addi	a4,s0,-180
     b68:	00070593          	addi	a1,a4,0
     b6c:	00078513          	addi	a0,a5,0
     b70:	00000317          	auipc	t1,0x0
     b74:	00033303          	ld	t1,0(t1) # b70 <.L144+0x28>

0000000000000b78 <.LEHB17>:
     b78:	000300e7          	jalr	ra,0(t1)
     b7c:	00050793          	addi	a5,a0,0
     b80:	f6f43823          	sd	a5,-144(s0)
     b84:	f5043783          	ld	a5,-176(s0)
     b88:	00078513          	addi	a0,a5,0
     b8c:	00000317          	auipc	t1,0x0
     b90:	00033303          	ld	t1,0(t1) # b8c <.LEHB17+0x14>
     b94:	000300e7          	jalr	ra,0(t1)
     b98:	00050793          	addi	a5,a0,0
     b9c:	08878793          	addi	a5,a5,136
     ba0:	00078513          	addi	a0,a5,0
     ba4:	00000317          	auipc	t1,0x0
     ba8:	00033303          	ld	t1,0(t1) # ba4 <.LEHB17+0x2c>
     bac:	000300e7          	jalr	ra,0(t1)
     bb0:	00050793          	addi	a5,a0,0
     bb4:	f6f43c23          	sd	a5,-136(s0)
     bb8:	f7840713          	addi	a4,s0,-136
     bbc:	f7040793          	addi	a5,s0,-144
     bc0:	00070593          	addi	a1,a4,0
     bc4:	00078513          	addi	a0,a5,0
     bc8:	00000317          	auipc	t1,0x0
     bcc:	00033303          	ld	t1,0(t1) # bc8 <.LEHB17+0x50>
     bd0:	000300e7          	jalr	ra,0(t1)
     bd4:	00050793          	addi	a5,a0,0
     bd8:	02078c63          	beq	a5,zero,c10 <.L145>
     bdc:	f7040793          	addi	a5,s0,-144
     be0:	00078513          	addi	a0,a5,0
     be4:	00000317          	auipc	t1,0x0
     be8:	00033303          	ld	t1,0(t1) # be4 <.LEHB17+0x6c>
     bec:	000300e7          	jalr	ra,0(t1)
     bf0:	00050793          	addi	a5,a0,0
     bf4:	00878793          	addi	a5,a5,8
     bf8:	00078593          	addi	a1,a5,0
     bfc:	f5843503          	ld	a0,-168(s0)
     c00:	00000317          	auipc	t1,0x0
     c04:	00033303          	ld	t1,0(t1) # c00 <.LEHB17+0x88>
     c08:	000300e7          	jalr	ra,0(t1)
     c0c:	2b40006f          	jal	zero,ec0 <.L156>

0000000000000c10 <.L145>:
     c10:	f5043783          	ld	a5,-176(s0)
     c14:	00078513          	addi	a0,a5,0
     c18:	00000317          	auipc	t1,0x0
     c1c:	00033303          	ld	t1,0(t1) # c18 <.L145+0x8>
     c20:	000300e7          	jalr	ra,0(t1)
     c24:	00050793          	addi	a5,a0,0
     c28:	00078513          	addi	a0,a5,0
     c2c:	00000317          	auipc	t1,0x0
     c30:	00033303          	ld	t1,0(t1) # c2c <.L145+0x1c>
     c34:	000300e7          	jalr	ra,0(t1)
     c38:	00050793          	addi	a5,a0,0
     c3c:	0007b703          	ld	a4,0(a5)
     c40:	01070713          	addi	a4,a4,16
     c44:	00073703          	ld	a4,0(a4)
     c48:	f4c42683          	lw	a3,-180(s0)
     c4c:	f6840613          	addi	a2,s0,-152
     c50:	00068593          	addi	a1,a3,0
     c54:	00078513          	addi	a0,a5,0
     c58:	000700e7          	jalr	ra,0(a4)

0000000000000c5c <.LEHE17>:
     c5c:	00050793          	addi	a5,a0,0
     c60:	f6f43023          	sd	a5,-160(s0)
     c64:	f6043783          	ld	a5,-160(s0)
     c68:	0e079063          	bne	a5,zero,d48 <.L146>
     c6c:	01000513          	addi	a0,zero,16
     c70:	00000097          	auipc	ra,0x0
     c74:	000080e7          	jalr	ra,0(ra) # c70 <.LEHE17+0x14>
     c78:	00050793          	addi	a5,a0,0
     c7c:	00078493          	addi	s1,a5,0
     c80:	f4c42783          	lw	a5,-180(s0)
     c84:	00078513          	addi	a0,a5,0

0000000000000c88 <.LEHB18>:
     c88:	00000097          	auipc	ra,0x0
     c8c:	000080e7          	jalr	ra,0(ra) # c88 <.LEHB18>

0000000000000c90 <.LEHE18>:
     c90:	00050913          	addi	s2,a0,0
     c94:	fc040793          	addi	a5,s0,-64
     c98:	00078513          	addi	a0,a5,0
     c9c:	00000097          	auipc	ra,0x0
     ca0:	000080e7          	jalr	ra,0(ra) # c9c <.LEHE18+0xc>
     ca4:	fc040713          	addi	a4,s0,-64
     ca8:	fa040793          	addi	a5,s0,-96
     cac:	00070613          	addi	a2,a4,0
     cb0:	00090593          	addi	a1,s2,0
     cb4:	00078513          	addi	a0,a5,0

0000000000000cb8 <.LEHB19>:
     cb8:	00000097          	auipc	ra,0x0
     cbc:	000080e7          	jalr	ra,0(ra) # cb8 <.LEHB19>

0000000000000cc0 <.LEHE19>:
     cc0:	f8040793          	addi	a5,s0,-128
     cc4:	fa040713          	addi	a4,s0,-96
     cc8:	00000617          	auipc	a2,0x0
     ccc:	00060613          	addi	a2,a2,0 # cc8 <.LEHE19+0x8>
     cd0:	00070593          	addi	a1,a4,0
     cd4:	00078513          	addi	a0,a5,0
     cd8:	00000317          	auipc	t1,0x0
     cdc:	00033303          	ld	t1,0(t1) # cd8 <.LEHE19+0x18>

0000000000000ce0 <.LEHB20>:
     ce0:	000300e7          	jalr	ra,0(t1)

0000000000000ce4 <.LEHE20>:
     ce4:	f8040793          	addi	a5,s0,-128
     ce8:	00078593          	addi	a1,a5,0
     cec:	00048513          	addi	a0,s1,0
     cf0:	00000317          	auipc	t1,0x0
     cf4:	00033303          	ld	t1,0(t1) # cf0 <.LEHE20+0xc>

0000000000000cf8 <.LEHB21>:
     cf8:	000300e7          	jalr	ra,0(t1)

0000000000000cfc <.LEHE21>:
     cfc:	f8040793          	addi	a5,s0,-128
     d00:	00078513          	addi	a0,a5,0
     d04:	00000097          	auipc	ra,0x0
     d08:	000080e7          	jalr	ra,0(ra) # d04 <.LEHE21+0x8>
     d0c:	fa040793          	addi	a5,s0,-96
     d10:	00078513          	addi	a0,a5,0
     d14:	00000097          	auipc	ra,0x0
     d18:	000080e7          	jalr	ra,0(ra) # d14 <.LEHE21+0x18>
     d1c:	fc040793          	addi	a5,s0,-64
     d20:	00078513          	addi	a0,a5,0
     d24:	00000097          	auipc	ra,0x0
     d28:	000080e7          	jalr	ra,0(ra) # d24 <.LEHE21+0x28>
     d2c:	00000617          	auipc	a2,0x0
     d30:	00063603          	ld	a2,0(a2) # d2c <.LEHE21+0x30>
     d34:	00000597          	auipc	a1,0x0
     d38:	0005b583          	ld	a1,0(a1) # d34 <.LEHE21+0x38>
     d3c:	00048513          	addi	a0,s1,0

0000000000000d40 <.LEHB22>:
     d40:	00000097          	auipc	ra,0x0
     d44:	000080e7          	jalr	ra,0(ra) # d40 <.LEHB22>

0000000000000d48 <.L146>:
     d48:	f5043783          	ld	a5,-176(s0)
     d4c:	00078513          	addi	a0,a5,0
     d50:	00000317          	auipc	t1,0x0
     d54:	00033303          	ld	t1,0(t1) # d50 <.L146+0x8>
     d58:	000300e7          	jalr	ra,0(t1)
     d5c:	00050793          	addi	a5,a0,0
     d60:	08878793          	addi	a5,a5,136
     d64:	f4c40713          	addi	a4,s0,-180
     d68:	00070593          	addi	a1,a4,0
     d6c:	00078513          	addi	a0,a5,0
     d70:	00000317          	auipc	t1,0x0
     d74:	00033303          	ld	t1,0(t1) # d70 <.L146+0x28>
     d78:	000300e7          	jalr	ra,0(t1)
     d7c:	00050493          	addi	s1,a0,0
     d80:	00a00793          	addi	a5,zero,10
     d84:	fcf42e23          	sw	a5,-36(s0)
     d88:	f5043783          	ld	a5,-176(s0)
     d8c:	00078513          	addi	a0,a5,0
     d90:	00000317          	auipc	t1,0x0
     d94:	00033303          	ld	t1,0(t1) # d90 <.L146+0x48>
     d98:	000300e7          	jalr	ra,0(t1)
     d9c:	00050793          	addi	a5,a0,0
     da0:	01078793          	addi	a5,a5,16
     da4:	00078513          	addi	a0,a5,0
     da8:	00000317          	auipc	t1,0x0
     dac:	00033303          	ld	t1,0(t1) # da8 <.L146+0x60>
     db0:	000300e7          	jalr	ra,0(t1)
     db4:	00050793          	addi	a5,a0,0
     db8:	01c78713          	addi	a4,a5,28
     dbc:	fc840793          	addi	a5,s0,-56
     dc0:	f6840693          	addi	a3,s0,-152
     dc4:	f6040613          	addi	a2,s0,-160
     dc8:	fdc40593          	addi	a1,s0,-36
     dcc:	00078513          	addi	a0,a5,0
     dd0:	00000317          	auipc	t1,0x0
     dd4:	00033303          	ld	t1,0(t1) # dd0 <.L146+0x88>
     dd8:	000300e7          	jalr	ra,0(t1)
     ddc:	fc840793          	addi	a5,s0,-56
     de0:	00078593          	addi	a1,a5,0
     de4:	00048513          	addi	a0,s1,0
     de8:	00000317          	auipc	t1,0x0
     dec:	00033303          	ld	t1,0(t1) # de8 <.L146+0xa0>
     df0:	000300e7          	jalr	ra,0(t1)
     df4:	fc840793          	addi	a5,s0,-56
     df8:	00078513          	addi	a0,a5,0
     dfc:	00000317          	auipc	t1,0x0
     e00:	00033303          	ld	t1,0(t1) # dfc <.L146+0xb4>
     e04:	000300e7          	jalr	ra,0(t1)
     e08:	f5043783          	ld	a5,-176(s0)
     e0c:	00078513          	addi	a0,a5,0
     e10:	00000317          	auipc	t1,0x0
     e14:	00033303          	ld	t1,0(t1) # e10 <.L146+0xc8>
     e18:	000300e7          	jalr	ra,0(t1)
     e1c:	00050793          	addi	a5,a0,0
     e20:	08878793          	addi	a5,a5,136
     e24:	f4c40713          	addi	a4,s0,-180
     e28:	00070593          	addi	a1,a4,0
     e2c:	00078513          	addi	a0,a5,0
     e30:	00000317          	auipc	t1,0x0
     e34:	00033303          	ld	t1,0(t1) # e30 <.L146+0xe8>
     e38:	000300e7          	jalr	ra,0(t1)
     e3c:	00050793          	addi	a5,a0,0
     e40:	00078593          	addi	a1,a5,0
     e44:	f5843503          	ld	a0,-168(s0)
     e48:	00000317          	auipc	t1,0x0
     e4c:	00033303          	ld	t1,0(t1) # e48 <.L146+0x100>
     e50:	000300e7          	jalr	ra,0(t1)
     e54:	06c0006f          	jal	zero,ec0 <.L156>

0000000000000e58 <.L155>:
     e58:	00050913          	addi	s2,a0,0
     e5c:	f8040793          	addi	a5,s0,-128
     e60:	00078513          	addi	a0,a5,0
     e64:	00000097          	auipc	ra,0x0
     e68:	000080e7          	jalr	ra,0(ra) # e64 <.L155+0xc>
     e6c:	0080006f          	jal	zero,e74 <.L149>

0000000000000e70 <.L154>:
     e70:	00050913          	addi	s2,a0,0

0000000000000e74 <.L149>:
     e74:	fa040793          	addi	a5,s0,-96
     e78:	00078513          	addi	a0,a5,0
     e7c:	00000097          	auipc	ra,0x0
     e80:	000080e7          	jalr	ra,0(ra) # e7c <.L149+0x8>
     e84:	0080006f          	jal	zero,e8c <.L150>

0000000000000e88 <.L153>:
     e88:	00050913          	addi	s2,a0,0

0000000000000e8c <.L150>:
     e8c:	fc040793          	addi	a5,s0,-64
     e90:	00078513          	addi	a0,a5,0
     e94:	00000097          	auipc	ra,0x0
     e98:	000080e7          	jalr	ra,0(ra) # e94 <.L150+0x8>
     e9c:	0080006f          	jal	zero,ea4 <.L151>

0000000000000ea0 <.L152>:
     ea0:	00050913          	addi	s2,a0,0

0000000000000ea4 <.L151>:
     ea4:	00048513          	addi	a0,s1,0
     ea8:	00000097          	auipc	ra,0x0
     eac:	000080e7          	jalr	ra,0(ra) # ea8 <.L151+0x4>
     eb0:	00090793          	addi	a5,s2,0
     eb4:	00078513          	addi	a0,a5,0
     eb8:	00000097          	auipc	ra,0x0
     ebc:	000080e7          	jalr	ra,0(ra) # eb8 <.L151+0x14>

0000000000000ec0 <.L156>:
     ec0:	f5843503          	ld	a0,-168(s0)
     ec4:	0b813083          	ld	ra,184(sp)
     ec8:	0b013403          	ld	s0,176(sp)
     ecc:	0a813483          	ld	s1,168(sp)
     ed0:	0a013903          	ld	s2,160(sp)
     ed4:	0c010113          	addi	sp,sp,192
     ed8:	00008067          	jalr	zero,0(ra)

0000000000000edc <dwarf::unit::~unit()>:
     edc:	fe010113          	addi	sp,sp,-32
     ee0:	00113c23          	sd	ra,24(sp)
     ee4:	00813823          	sd	s0,16(sp)
     ee8:	02010413          	addi	s0,sp,32
     eec:	fea43423          	sd	a0,-24(s0)
     ef0:	00000797          	auipc	a5,0x0
     ef4:	0007b783          	ld	a5,0(a5) # ef0 <dwarf::unit::~unit()+0x14>
     ef8:	01078713          	addi	a4,a5,16
     efc:	fe843783          	ld	a5,-24(s0)
     f00:	00e7b023          	sd	a4,0(a5)
     f04:	fe843783          	ld	a5,-24(s0)
     f08:	00878793          	addi	a5,a5,8
     f0c:	00078513          	addi	a0,a5,0
     f10:	00000317          	auipc	t1,0x0
     f14:	00033303          	ld	t1,0(t1) # f10 <dwarf::unit::~unit()+0x34>
     f18:	000300e7          	jalr	ra,0(t1)
     f1c:	00000013          	addi	zero,zero,0
     f20:	01813083          	ld	ra,24(sp)
     f24:	01013403          	ld	s0,16(sp)
     f28:	02010113          	addi	sp,sp,32
     f2c:	00008067          	jalr	zero,0(ra)

0000000000000f30 <dwarf::unit::~unit()>:
     f30:	fe010113          	addi	sp,sp,-32
     f34:	00113c23          	sd	ra,24(sp)
     f38:	00813823          	sd	s0,16(sp)
     f3c:	02010413          	addi	s0,sp,32
     f40:	fea43423          	sd	a0,-24(s0)
     f44:	fe843503          	ld	a0,-24(s0)
     f48:	00000097          	auipc	ra,0x0
     f4c:	000080e7          	jalr	ra,0(ra) # f48 <dwarf::unit::~unit()+0x18>
     f50:	fe843503          	ld	a0,-24(s0)
     f54:	00000097          	auipc	ra,0x0
     f58:	000080e7          	jalr	ra,0(ra) # f54 <dwarf::unit::~unit()+0x24>
     f5c:	01813083          	ld	ra,24(sp)
     f60:	01013403          	ld	s0,16(sp)
     f64:	02010113          	addi	sp,sp,32
     f68:	00008067          	jalr	zero,0(ra)

0000000000000f6c <dwarf::unit::get_dwarf() const>:
     f6c:	fe010113          	addi	sp,sp,-32
     f70:	00113c23          	sd	ra,24(sp)
     f74:	00813823          	sd	s0,16(sp)
     f78:	02010413          	addi	s0,sp,32
     f7c:	fea43423          	sd	a0,-24(s0)
     f80:	fe843783          	ld	a5,-24(s0)
     f84:	00878793          	addi	a5,a5,8
     f88:	00078513          	addi	a0,a5,0
     f8c:	00000317          	auipc	t1,0x0
     f90:	00033303          	ld	t1,0(t1) # f8c <dwarf::unit::get_dwarf() const+0x20>
     f94:	000300e7          	jalr	ra,0(t1)
     f98:	00050793          	addi	a5,a0,0
     f9c:	00078513          	addi	a0,a5,0
     fa0:	01813083          	ld	ra,24(sp)
     fa4:	01013403          	ld	s0,16(sp)
     fa8:	02010113          	addi	sp,sp,32
     fac:	00008067          	jalr	zero,0(ra)

0000000000000fb0 <dwarf::unit::get_section_offset() const>:
     fb0:	fe010113          	addi	sp,sp,-32
     fb4:	00113c23          	sd	ra,24(sp)
     fb8:	00813823          	sd	s0,16(sp)
     fbc:	02010413          	addi	s0,sp,32
     fc0:	fea43423          	sd	a0,-24(s0)
     fc4:	fe843783          	ld	a5,-24(s0)
     fc8:	00878793          	addi	a5,a5,8
     fcc:	00078513          	addi	a0,a5,0
     fd0:	00000317          	auipc	t1,0x0
     fd4:	00033303          	ld	t1,0(t1) # fd0 <dwarf::unit::get_section_offset() const+0x20>
     fd8:	000300e7          	jalr	ra,0(t1)
     fdc:	00050793          	addi	a5,a0,0
     fe0:	0107b783          	ld	a5,16(a5)
     fe4:	00078513          	addi	a0,a5,0
     fe8:	01813083          	ld	ra,24(sp)
     fec:	01013403          	ld	s0,16(sp)
     ff0:	02010113          	addi	sp,sp,32
     ff4:	00008067          	jalr	zero,0(ra)

0000000000000ff8 <dwarf::unit::root() const>:
     ff8:	f6010113          	addi	sp,sp,-160
     ffc:	08113c23          	sd	ra,152(sp)
    1000:	08813823          	sd	s0,144(sp)
    1004:	08913423          	sd	s1,136(sp)
    1008:	0a010413          	addi	s0,sp,160
    100c:	f6a43423          	sd	a0,-152(s0)
    1010:	f6843783          	ld	a5,-152(s0)
    1014:	00878793          	addi	a5,a5,8
    1018:	00078513          	addi	a0,a5,0
    101c:	00000317          	auipc	t1,0x0
    1020:	00033303          	ld	t1,0(t1) # 101c <dwarf::unit::root() const+0x24>
    1024:	000300e7          	jalr	ra,0(t1)
    1028:	00050793          	addi	a5,a0,0
    102c:	04878793          	addi	a5,a5,72
    1030:	00078513          	addi	a0,a5,0
    1034:	00000317          	auipc	t1,0x0
    1038:	00033303          	ld	t1,0(t1) # 1034 <dwarf::unit::root() const+0x3c>
    103c:	000300e7          	jalr	ra,0(t1)
    1040:	00050793          	addi	a5,a0,0
    1044:	0017c793          	xori	a5,a5,1
    1048:	0ff7f793          	andi	a5,a5,255
    104c:	0c078e63          	beq	a5,zero,1128 <.L187>
    1050:	f6843783          	ld	a5,-152(s0)
    1054:	00878793          	addi	a5,a5,8
    1058:	00078513          	addi	a0,a5,0
    105c:	00000317          	auipc	t1,0x0
    1060:	00033303          	ld	t1,0(t1) # 105c <dwarf::unit::root() const+0x64>
    1064:	000300e7          	jalr	ra,0(t1)
    1068:	00050793          	addi	a5,a0,0
    106c:	00078513          	addi	a0,a5,0

0000000000001070 <.LEHB23>:
    1070:	00000097          	auipc	ra,0x0
    1074:	000080e7          	jalr	ra,0(ra) # 1070 <.LEHB23>
    1078:	f6843783          	ld	a5,-152(s0)
    107c:	00878793          	addi	a5,a5,8
    1080:	00078513          	addi	a0,a5,0
    1084:	00000317          	auipc	t1,0x0
    1088:	00033303          	ld	t1,0(t1) # 1084 <.LEHB23+0x14>
    108c:	000300e7          	jalr	ra,0(t1)
    1090:	00050793          	addi	a5,a0,0
    1094:	04878493          	addi	s1,a5,72
    1098:	f7040793          	addi	a5,s0,-144
    109c:	f6843583          	ld	a1,-152(s0)
    10a0:	00078513          	addi	a0,a5,0
    10a4:	00000097          	auipc	ra,0x0
    10a8:	000080e7          	jalr	ra,0(ra) # 10a4 <.LEHB23+0x34>

00000000000010ac <.LEHE23>:
    10ac:	f7040793          	addi	a5,s0,-144
    10b0:	00078593          	addi	a1,a5,0
    10b4:	00048513          	addi	a0,s1,0
    10b8:	00000317          	auipc	t1,0x0
    10bc:	00033303          	ld	t1,0(t1) # 10b8 <.LEHE23+0xc>

00000000000010c0 <.LEHB24>:
    10c0:	000300e7          	jalr	ra,0(t1)

00000000000010c4 <.LEHE24>:
    10c4:	f7040793          	addi	a5,s0,-144
    10c8:	00078513          	addi	a0,a5,0
    10cc:	00000317          	auipc	t1,0x0
    10d0:	00033303          	ld	t1,0(t1) # 10cc <.LEHE24+0x8>
    10d4:	000300e7          	jalr	ra,0(t1)
    10d8:	f6843783          	ld	a5,-152(s0)
    10dc:	00878793          	addi	a5,a5,8
    10e0:	00078513          	addi	a0,a5,0
    10e4:	00000317          	auipc	t1,0x0
    10e8:	00033303          	ld	t1,0(t1) # 10e4 <.LEHE24+0x20>
    10ec:	000300e7          	jalr	ra,0(t1)
    10f0:	00050793          	addi	a5,a0,0
    10f4:	04878493          	addi	s1,a5,72
    10f8:	f6843783          	ld	a5,-152(s0)
    10fc:	00878793          	addi	a5,a5,8
    1100:	00078513          	addi	a0,a5,0
    1104:	00000317          	auipc	t1,0x0
    1108:	00033303          	ld	t1,0(t1) # 1104 <.LEHE24+0x40>
    110c:	000300e7          	jalr	ra,0(t1)
    1110:	00050793          	addi	a5,a0,0
    1114:	0307b783          	ld	a5,48(a5)
    1118:	00078593          	addi	a1,a5,0
    111c:	00048513          	addi	a0,s1,0

0000000000001120 <.LEHB25>:
    1120:	00000097          	auipc	ra,0x0
    1124:	000080e7          	jalr	ra,0(ra) # 1120 <.LEHB25>

0000000000001128 <.L187>:
    1128:	f6843783          	ld	a5,-152(s0)
    112c:	00878793          	addi	a5,a5,8
    1130:	00078513          	addi	a0,a5,0
    1134:	00000317          	auipc	t1,0x0
    1138:	00033303          	ld	t1,0(t1) # 1134 <.L187+0xc>
    113c:	000300e7          	jalr	ra,0(t1)
    1140:	00050793          	addi	a5,a0,0
    1144:	04878793          	addi	a5,a5,72
    1148:	02c0006f          	jal	zero,1174 <.L191>

000000000000114c <.L190>:
    114c:	00050493          	addi	s1,a0,0
    1150:	f7040793          	addi	a5,s0,-144
    1154:	00078513          	addi	a0,a5,0
    1158:	00000317          	auipc	t1,0x0
    115c:	00033303          	ld	t1,0(t1) # 1158 <.L190+0xc>
    1160:	000300e7          	jalr	ra,0(t1)
    1164:	00048793          	addi	a5,s1,0
    1168:	00078513          	addi	a0,a5,0
    116c:	00000097          	auipc	ra,0x0
    1170:	000080e7          	jalr	ra,0(ra) # 116c <.L190+0x20>

0000000000001174 <.L191>:
    1174:	00078513          	addi	a0,a5,0
    1178:	09813083          	ld	ra,152(sp)
    117c:	09013403          	ld	s0,144(sp)
    1180:	08813483          	ld	s1,136(sp)
    1184:	0a010113          	addi	sp,sp,160
    1188:	00008067          	jalr	zero,0(ra)

000000000000118c <dwarf::unit::data() const>:
    118c:	fe010113          	addi	sp,sp,-32
    1190:	00113c23          	sd	ra,24(sp)
    1194:	00813823          	sd	s0,16(sp)
    1198:	02010413          	addi	s0,sp,32
    119c:	fea43423          	sd	a0,-24(s0)
    11a0:	fe843783          	ld	a5,-24(s0)
    11a4:	00878793          	addi	a5,a5,8
    11a8:	00078513          	addi	a0,a5,0
    11ac:	00000317          	auipc	t1,0x0
    11b0:	00033303          	ld	t1,0(t1) # 11ac <dwarf::unit::data() const+0x20>
    11b4:	000300e7          	jalr	ra,0(t1)
    11b8:	00050793          	addi	a5,a0,0
    11bc:	01878793          	addi	a5,a5,24
    11c0:	00078513          	addi	a0,a5,0
    11c4:	01813083          	ld	ra,24(sp)
    11c8:	01013403          	ld	s0,16(sp)
    11cc:	02010113          	addi	sp,sp,32
    11d0:	00008067          	jalr	zero,0(ra)

00000000000011d4 <dwarf::unit::get_abbrev(unsigned long) const>:
    11d4:	f7010113          	addi	sp,sp,-144
    11d8:	08113423          	sd	ra,136(sp)
    11dc:	08813023          	sd	s0,128(sp)
    11e0:	06913c23          	sd	s1,120(sp)
    11e4:	07213823          	sd	s2,112(sp)
    11e8:	09010413          	addi	s0,sp,144
    11ec:	f6a43c23          	sd	a0,-136(s0)
    11f0:	f6b43823          	sd	a1,-144(s0)
    11f4:	f7843783          	ld	a5,-136(s0)
    11f8:	00878793          	addi	a5,a5,8
    11fc:	00078513          	addi	a0,a5,0
    1200:	00000317          	auipc	t1,0x0
    1204:	00033303          	ld	t1,0(t1) # 1200 <dwarf::unit::get_abbrev(unsigned long) const+0x2c>
    1208:	000300e7          	jalr	ra,0(t1)
    120c:	00050793          	addi	a5,a0,0
    1210:	1387c783          	lbu	a5,312(a5)
    1214:	0017c793          	xori	a5,a5,1
    1218:	0ff7f793          	andi	a5,a5,255
    121c:	02078663          	beq	a5,zero,1248 <.L195>
    1220:	f7843783          	ld	a5,-136(s0)
    1224:	00878793          	addi	a5,a5,8
    1228:	00078513          	addi	a0,a5,0
    122c:	00000317          	auipc	t1,0x0
    1230:	00033303          	ld	t1,0(t1) # 122c <dwarf::unit::get_abbrev(unsigned long) const+0x58>
    1234:	000300e7          	jalr	ra,0(t1)
    1238:	00050793          	addi	a5,a0,0
    123c:	00078513          	addi	a0,a5,0

0000000000001240 <.LEHB26>:
    1240:	00000097          	auipc	ra,0x0
    1244:	000080e7          	jalr	ra,0(ra) # 1240 <.LEHB26>

0000000000001248 <.L195>:
    1248:	f7843783          	ld	a5,-136(s0)
    124c:	00878793          	addi	a5,a5,8
    1250:	00078513          	addi	a0,a5,0
    1254:	00000317          	auipc	t1,0x0
    1258:	00033303          	ld	t1,0(t1) # 1254 <.L195+0xc>
    125c:	000300e7          	jalr	ra,0(t1)
    1260:	00050793          	addi	a5,a0,0
    1264:	14078793          	addi	a5,a5,320
    1268:	00078513          	addi	a0,a5,0
    126c:	00000317          	auipc	t1,0x0
    1270:	00033303          	ld	t1,0(t1) # 126c <.L195+0x24>
    1274:	000300e7          	jalr	ra,0(t1)
    1278:	00050793          	addi	a5,a0,0
    127c:	0017c793          	xori	a5,a5,1
    1280:	0ff7f793          	andi	a5,a5,255
    1284:	08078e63          	beq	a5,zero,1320 <.L196>
    1288:	f7843783          	ld	a5,-136(s0)
    128c:	00878793          	addi	a5,a5,8
    1290:	00078513          	addi	a0,a5,0
    1294:	00000317          	auipc	t1,0x0
    1298:	00033303          	ld	t1,0(t1) # 1294 <.L195+0x4c>
    129c:	000300e7          	jalr	ra,0(t1)
    12a0:	00050793          	addi	a5,a0,0
    12a4:	14078793          	addi	a5,a5,320
    12a8:	00078513          	addi	a0,a5,0
    12ac:	00000317          	auipc	t1,0x0
    12b0:	00033303          	ld	t1,0(t1) # 12ac <.L195+0x64>
    12b4:	000300e7          	jalr	ra,0(t1)
    12b8:	00050713          	addi	a4,a0,0
    12bc:	f7043783          	ld	a5,-144(s0)
    12c0:	00e7b7b3          	sltu	a5,a5,a4
    12c4:	0017c793          	xori	a5,a5,1
    12c8:	0ff7f793          	andi	a5,a5,255
    12cc:	10079863          	bne	a5,zero,13dc <.L209>
    12d0:	f7843783          	ld	a5,-136(s0)
    12d4:	00878793          	addi	a5,a5,8
    12d8:	00078513          	addi	a0,a5,0
    12dc:	00000317          	auipc	t1,0x0
    12e0:	00033303          	ld	t1,0(t1) # 12dc <.L195+0x94>
    12e4:	000300e7          	jalr	ra,0(t1)
    12e8:	00050793          	addi	a5,a0,0
    12ec:	14078793          	addi	a5,a5,320
    12f0:	f7043703          	ld	a4,-144(s0)
    12f4:	00070593          	addi	a1,a4,0
    12f8:	00078513          	addi	a0,a5,0
    12fc:	00000317          	auipc	t1,0x0
    1300:	00033303          	ld	t1,0(t1) # 12fc <.L195+0xb4>
    1304:	000300e7          	jalr	ra,0(t1)
    1308:	fca43c23          	sd	a0,-40(s0)
    130c:	fd843783          	ld	a5,-40(s0)
    1310:	0007b783          	ld	a5,0(a5)
    1314:	0c078863          	beq	a5,zero,13e4 <.L210>
    1318:	fd843783          	ld	a5,-40(s0)
    131c:	1cc0006f          	jal	zero,14e8 <.L208>

0000000000001320 <.L196>:
    1320:	f7843783          	ld	a5,-136(s0)
    1324:	00878793          	addi	a5,a5,8
    1328:	00078513          	addi	a0,a5,0
    132c:	00000317          	auipc	t1,0x0
    1330:	00033303          	ld	t1,0(t1) # 132c <.L196+0xc>
    1334:	000300e7          	jalr	ra,0(t1)
    1338:	00050793          	addi	a5,a0,0
    133c:	15878793          	addi	a5,a5,344
    1340:	f7040713          	addi	a4,s0,-144
    1344:	00070593          	addi	a1,a4,0
    1348:	00078513          	addi	a0,a5,0
    134c:	00000317          	auipc	t1,0x0
    1350:	00033303          	ld	t1,0(t1) # 134c <.L196+0x2c>
    1354:	000300e7          	jalr	ra,0(t1)

0000000000001358 <.LEHE26>:
    1358:	00050793          	addi	a5,a0,0
    135c:	f8f43423          	sd	a5,-120(s0)
    1360:	f7843783          	ld	a5,-136(s0)
    1364:	00878793          	addi	a5,a5,8
    1368:	00078513          	addi	a0,a5,0
    136c:	00000317          	auipc	t1,0x0
    1370:	00033303          	ld	t1,0(t1) # 136c <.LEHE26+0x14>
    1374:	000300e7          	jalr	ra,0(t1)
    1378:	00050793          	addi	a5,a0,0
    137c:	15878793          	addi	a5,a5,344
    1380:	00078513          	addi	a0,a5,0
    1384:	00000317          	auipc	t1,0x0
    1388:	00033303          	ld	t1,0(t1) # 1384 <.LEHE26+0x2c>
    138c:	000300e7          	jalr	ra,0(t1)
    1390:	00050793          	addi	a5,a0,0
    1394:	f8f43823          	sd	a5,-112(s0)
    1398:	f9040713          	addi	a4,s0,-112
    139c:	f8840793          	addi	a5,s0,-120
    13a0:	00070593          	addi	a1,a4,0
    13a4:	00078513          	addi	a0,a5,0
    13a8:	00000317          	auipc	t1,0x0
    13ac:	00033303          	ld	t1,0(t1) # 13a8 <.LEHE26+0x50>
    13b0:	000300e7          	jalr	ra,0(t1)
    13b4:	00050793          	addi	a5,a0,0
    13b8:	02079a63          	bne	a5,zero,13ec <.L211>
    13bc:	f8840793          	addi	a5,s0,-120
    13c0:	00078513          	addi	a0,a5,0
    13c4:	00000317          	auipc	t1,0x0
    13c8:	00033303          	ld	t1,0(t1) # 13c4 <.LEHE26+0x6c>
    13cc:	000300e7          	jalr	ra,0(t1)
    13d0:	00050793          	addi	a5,a0,0
    13d4:	00878793          	addi	a5,a5,8
    13d8:	1100006f          	jal	zero,14e8 <.L208>

00000000000013dc <.L209>:
    13dc:	00000013          	addi	zero,zero,0
    13e0:	0100006f          	jal	zero,13f0 <.L198>

00000000000013e4 <.L210>:
    13e4:	00000013          	addi	zero,zero,0
    13e8:	0080006f          	jal	zero,13f0 <.L198>

00000000000013ec <.L211>:
    13ec:	00000013          	addi	zero,zero,0

00000000000013f0 <.L198>:
    13f0:	01000513          	addi	a0,zero,16
    13f4:	00000097          	auipc	ra,0x0
    13f8:	000080e7          	jalr	ra,0(ra) # 13f4 <.L198+0x4>
    13fc:	00050793          	addi	a5,a0,0
    1400:	00078493          	addi	s1,a5,0
    1404:	f7043703          	ld	a4,-144(s0)
    1408:	fb840793          	addi	a5,s0,-72
    140c:	00070593          	addi	a1,a4,0
    1410:	00078513          	addi	a0,a5,0
    1414:	00000317          	auipc	t1,0x0
    1418:	00033303          	ld	t1,0(t1) # 1414 <.L198+0x24>

000000000000141c <.LEHB27>:
    141c:	000300e7          	jalr	ra,0(t1)

0000000000001420 <.LEHE27>:
    1420:	f9840793          	addi	a5,s0,-104
    1424:	fb840713          	addi	a4,s0,-72
    1428:	00070613          	addi	a2,a4,0
    142c:	00000597          	auipc	a1,0x0
    1430:	00058593          	addi	a1,a1,0 # 142c <.LEHE27+0xc>
    1434:	00078513          	addi	a0,a5,0
    1438:	00000317          	auipc	t1,0x0
    143c:	00033303          	ld	t1,0(t1) # 1438 <.LEHE27+0x18>

0000000000001440 <.LEHB28>:
    1440:	000300e7          	jalr	ra,0(t1)

0000000000001444 <.LEHE28>:
    1444:	f9840793          	addi	a5,s0,-104
    1448:	00078593          	addi	a1,a5,0
    144c:	00048513          	addi	a0,s1,0
    1450:	00000317          	auipc	t1,0x0
    1454:	00033303          	ld	t1,0(t1) # 1450 <.LEHE28+0xc>

0000000000001458 <.LEHB29>:
    1458:	000300e7          	jalr	ra,0(t1)

000000000000145c <.LEHE29>:
    145c:	f9840793          	addi	a5,s0,-104
    1460:	00078513          	addi	a0,a5,0
    1464:	00000097          	auipc	ra,0x0
    1468:	000080e7          	jalr	ra,0(ra) # 1464 <.LEHE29+0x8>
    146c:	fb840793          	addi	a5,s0,-72
    1470:	00078513          	addi	a0,a5,0
    1474:	00000097          	auipc	ra,0x0
    1478:	000080e7          	jalr	ra,0(ra) # 1474 <.LEHE29+0x18>
    147c:	00000617          	auipc	a2,0x0
    1480:	00063603          	ld	a2,0(a2) # 147c <.LEHE29+0x20>
    1484:	00000597          	auipc	a1,0x0
    1488:	0005b583          	ld	a1,0(a1) # 1484 <.LEHE29+0x28>
    148c:	00048513          	addi	a0,s1,0

0000000000001490 <.LEHB30>:
    1490:	00000097          	auipc	ra,0x0
    1494:	000080e7          	jalr	ra,0(ra) # 1490 <.LEHB30>

0000000000001498 <.L207>:
    1498:	00050913          	addi	s2,a0,0
    149c:	f9840793          	addi	a5,s0,-104
    14a0:	00078513          	addi	a0,a5,0
    14a4:	00000097          	auipc	ra,0x0
    14a8:	000080e7          	jalr	ra,0(ra) # 14a4 <.L207+0xc>
    14ac:	0080006f          	jal	zero,14b4 <.L203>

00000000000014b0 <.L206>:
    14b0:	00050913          	addi	s2,a0,0

00000000000014b4 <.L203>:
    14b4:	fb840793          	addi	a5,s0,-72
    14b8:	00078513          	addi	a0,a5,0
    14bc:	00000097          	auipc	ra,0x0
    14c0:	000080e7          	jalr	ra,0(ra) # 14bc <.L203+0x8>
    14c4:	0080006f          	jal	zero,14cc <.L204>

00000000000014c8 <.L205>:
    14c8:	00050913          	addi	s2,a0,0

00000000000014cc <.L204>:
    14cc:	00048513          	addi	a0,s1,0
    14d0:	00000097          	auipc	ra,0x0
    14d4:	000080e7          	jalr	ra,0(ra) # 14d0 <.L204+0x4>
    14d8:	00090793          	addi	a5,s2,0
    14dc:	00078513          	addi	a0,a5,0
    14e0:	00000097          	auipc	ra,0x0
    14e4:	000080e7          	jalr	ra,0(ra) # 14e0 <.L204+0x14>

00000000000014e8 <.L208>:
    14e8:	00078513          	addi	a0,a5,0
    14ec:	08813083          	ld	ra,136(sp)
    14f0:	08013403          	ld	s0,128(sp)
    14f4:	07813483          	ld	s1,120(sp)
    14f8:	07013903          	ld	s2,112(sp)
    14fc:	09010113          	addi	sp,sp,144
    1500:	00008067          	jalr	zero,0(ra)

0000000000001504 <dwarf::unit::impl::force_abbrevs()>:
    1504:	f5010113          	addi	sp,sp,-176
    1508:	0a113423          	sd	ra,168(sp)
    150c:	0a813023          	sd	s0,160(sp)
    1510:	08913c23          	sd	s1,152(sp)
    1514:	0b010413          	addi	s0,sp,176
    1518:	f4a43c23          	sd	a0,-168(s0)
    151c:	f5843783          	ld	a5,-168(s0)
    1520:	1387c783          	lbu	a5,312(a5)
    1524:	00078663          	beq	a5,zero,1530 <.L220>
    1528:	00000013          	addi	zero,zero,0
    152c:	2cc0006f          	jal	zero,17f8 <.L219>

0000000000001530 <.L220>:
    1530:	f5843703          	ld	a4,-168(s0)
    1534:	fb840793          	addi	a5,s0,-72
    1538:	00000613          	addi	a2,zero,0
    153c:	00070593          	addi	a1,a4,0
    1540:	00078513          	addi	a0,a5,0

0000000000001544 <.LEHB31>:
    1544:	00000097          	auipc	ra,0x0
    1548:	000080e7          	jalr	ra,0(ra) # 1544 <.LEHB31>

000000000000154c <.LEHE31>:
    154c:	f5843783          	ld	a5,-168(s0)
    1550:	0287b683          	ld	a3,40(a5)
    1554:	fb840713          	addi	a4,s0,-72
    1558:	fa040793          	addi	a5,s0,-96
    155c:	00068613          	addi	a2,a3,0
    1560:	00070593          	addi	a1,a4,0
    1564:	00078513          	addi	a0,a5,0
    1568:	00000317          	auipc	t1,0x0
    156c:	00033303          	ld	t1,0(t1) # 1568 <.LEHE31+0x1c>
    1570:	000300e7          	jalr	ra,0(t1)
    1574:	fb840793          	addi	a5,s0,-72
    1578:	00078513          	addi	a0,a5,0
    157c:	00000317          	auipc	t1,0x0
    1580:	00033303          	ld	t1,0(t1) # 157c <.LEHE31+0x30>
    1584:	000300e7          	jalr	ra,0(t1)
    1588:	f7840793          	addi	a5,s0,-136
    158c:	00078513          	addi	a0,a5,0
    1590:	00000317          	auipc	t1,0x0
    1594:	00033303          	ld	t1,0(t1) # 1590 <.LEHE31+0x44>
    1598:	000300e7          	jalr	ra,0(t1)
    159c:	fc043c23          	sd	zero,-40(s0)
    15a0:	0540006f          	jal	zero,15f4 <.L222>

00000000000015a4 <.L224>:
    15a4:	f5843783          	ld	a5,-168(s0)
    15a8:	15878793          	addi	a5,a5,344
    15ac:	f7840713          	addi	a4,s0,-136
    15b0:	00070593          	addi	a1,a4,0
    15b4:	00078513          	addi	a0,a5,0
    15b8:	00000317          	auipc	t1,0x0
    15bc:	00033303          	ld	t1,0(t1) # 15b8 <.L224+0x14>

00000000000015c0 <.LEHB32>:
    15c0:	000300e7          	jalr	ra,0(t1)
    15c4:	00050713          	addi	a4,a0,0
    15c8:	f7840793          	addi	a5,s0,-136
    15cc:	00078593          	addi	a1,a5,0
    15d0:	00070513          	addi	a0,a4,0
    15d4:	00000317          	auipc	t1,0x0
    15d8:	00033303          	ld	t1,0(t1) # 15d4 <.LEHB32+0x14>
    15dc:	000300e7          	jalr	ra,0(t1)
    15e0:	f7843783          	ld	a5,-136(s0)
    15e4:	fd843703          	ld	a4,-40(s0)
    15e8:	00f77663          	bgeu	a4,a5,15f4 <.L222>
    15ec:	f7843783          	ld	a5,-136(s0)
    15f0:	fcf43c23          	sd	a5,-40(s0)

00000000000015f4 <.L222>:
    15f4:	fa040713          	addi	a4,s0,-96
    15f8:	f7840793          	addi	a5,s0,-136
    15fc:	00070593          	addi	a1,a4,0
    1600:	00078513          	addi	a0,a5,0
    1604:	00000097          	auipc	ra,0x0
    1608:	000080e7          	jalr	ra,0(ra) # 1604 <.L222+0x10>
    160c:	00050793          	addi	a5,a0,0
    1610:	f8079ae3          	bne	a5,zero,15a4 <.L224>
    1614:	fd843703          	ld	a4,-40(s0)
    1618:	00070793          	addi	a5,a4,0
    161c:	00279793          	slli	a5,a5,0x2
    1620:	00e787b3          	add	a5,a5,a4
    1624:	00179793          	slli	a5,a5,0x1
    1628:	00078493          	addi	s1,a5,0
    162c:	f5843783          	ld	a5,-168(s0)
    1630:	15878793          	addi	a5,a5,344
    1634:	00078513          	addi	a0,a5,0
    1638:	00000317          	auipc	t1,0x0
    163c:	00033303          	ld	t1,0(t1) # 1638 <.L222+0x44>
    1640:	000300e7          	jalr	ra,0(t1)
    1644:	00050713          	addi	a4,a0,0
    1648:	00070793          	addi	a5,a4,0
    164c:	00479793          	slli	a5,a5,0x4
    1650:	40e787b3          	sub	a5,a5,a4
    1654:	00f4b7b3          	sltu	a5,s1,a5
    1658:	0ff7f793          	andi	a5,a5,255
    165c:	12078463          	beq	a5,zero,1784 <.L225>
    1660:	f5843783          	ld	a5,-168(s0)
    1664:	14078713          	addi	a4,a5,320
    1668:	fd843783          	ld	a5,-40(s0)
    166c:	00178793          	addi	a5,a5,1
    1670:	00078593          	addi	a1,a5,0
    1674:	00070513          	addi	a0,a4,0
    1678:	00000317          	auipc	t1,0x0
    167c:	00033303          	ld	t1,0(t1) # 1678 <.L222+0x84>
    1680:	000300e7          	jalr	ra,0(t1)

0000000000001684 <.LEHE32>:
    1684:	f5843783          	ld	a5,-168(s0)
    1688:	15878793          	addi	a5,a5,344
    168c:	fcf43823          	sd	a5,-48(s0)
    1690:	fd043503          	ld	a0,-48(s0)
    1694:	00000317          	auipc	t1,0x0
    1698:	00033303          	ld	t1,0(t1) # 1694 <.LEHE32+0x10>
    169c:	000300e7          	jalr	ra,0(t1)
    16a0:	00050793          	addi	a5,a0,0
    16a4:	f6f43823          	sd	a5,-144(s0)
    16a8:	fd043503          	ld	a0,-48(s0)
    16ac:	00000317          	auipc	t1,0x0
    16b0:	00033303          	ld	t1,0(t1) # 16ac <.LEHE32+0x28>
    16b4:	000300e7          	jalr	ra,0(t1)
    16b8:	00050793          	addi	a5,a0,0
    16bc:	f6f43423          	sd	a5,-152(s0)
    16c0:	0880006f          	jal	zero,1748 <.L226>

00000000000016c4 <.L227>:
    16c4:	f7040793          	addi	a5,s0,-144
    16c8:	00078513          	addi	a0,a5,0
    16cc:	00000317          	auipc	t1,0x0
    16d0:	00033303          	ld	t1,0(t1) # 16cc <.L227+0x8>
    16d4:	000300e7          	jalr	ra,0(t1)
    16d8:	fca43423          	sd	a0,-56(s0)
    16dc:	f5843783          	ld	a5,-168(s0)
    16e0:	14078713          	addi	a4,a5,320
    16e4:	fc843783          	ld	a5,-56(s0)
    16e8:	0007b783          	ld	a5,0(a5)
    16ec:	00078593          	addi	a1,a5,0
    16f0:	00070513          	addi	a0,a4,0
    16f4:	00000317          	auipc	t1,0x0
    16f8:	00033303          	ld	t1,0(t1) # 16f4 <.L227+0x30>
    16fc:	000300e7          	jalr	ra,0(t1)
    1700:	00050493          	addi	s1,a0,0
    1704:	fc843783          	ld	a5,-56(s0)
    1708:	00878793          	addi	a5,a5,8
    170c:	00078513          	addi	a0,a5,0
    1710:	00000317          	auipc	t1,0x0
    1714:	00033303          	ld	t1,0(t1) # 1710 <.L227+0x4c>
    1718:	000300e7          	jalr	ra,0(t1)
    171c:	00050793          	addi	a5,a0,0
    1720:	00078593          	addi	a1,a5,0
    1724:	00048513          	addi	a0,s1,0
    1728:	00000317          	auipc	t1,0x0
    172c:	00033303          	ld	t1,0(t1) # 1728 <.L227+0x64>
    1730:	000300e7          	jalr	ra,0(t1)
    1734:	f7040793          	addi	a5,s0,-144
    1738:	00078513          	addi	a0,a5,0
    173c:	00000317          	auipc	t1,0x0
    1740:	00033303          	ld	t1,0(t1) # 173c <.L227+0x78>
    1744:	000300e7          	jalr	ra,0(t1)

0000000000001748 <.L226>:
    1748:	f6840713          	addi	a4,s0,-152
    174c:	f7040793          	addi	a5,s0,-144
    1750:	00070593          	addi	a1,a4,0
    1754:	00078513          	addi	a0,a5,0
    1758:	00000317          	auipc	t1,0x0
    175c:	00033303          	ld	t1,0(t1) # 1758 <.L226+0x10>
    1760:	000300e7          	jalr	ra,0(t1)
    1764:	00050793          	addi	a5,a0,0
    1768:	f4079ee3          	bne	a5,zero,16c4 <.L227>
    176c:	f5843783          	ld	a5,-168(s0)
    1770:	15878793          	addi	a5,a5,344
    1774:	00078513          	addi	a0,a5,0
    1778:	00000317          	auipc	t1,0x0
    177c:	00033303          	ld	t1,0(t1) # 1778 <.L226+0x30>
    1780:	000300e7          	jalr	ra,0(t1)

0000000000001784 <.L225>:
    1784:	f5843783          	ld	a5,-168(s0)
    1788:	00100713          	addi	a4,zero,1
    178c:	12e78c23          	sb	a4,312(a5)
    1790:	f7840793          	addi	a5,s0,-136
    1794:	00078513          	addi	a0,a5,0
    1798:	00000317          	auipc	t1,0x0
    179c:	00033303          	ld	t1,0(t1) # 1798 <.L225+0x14>
    17a0:	000300e7          	jalr	ra,0(t1)
    17a4:	fa040793          	addi	a5,s0,-96
    17a8:	00078513          	addi	a0,a5,0
    17ac:	00000317          	auipc	t1,0x0
    17b0:	00033303          	ld	t1,0(t1) # 17ac <.L225+0x28>
    17b4:	000300e7          	jalr	ra,0(t1)
    17b8:	0400006f          	jal	zero,17f8 <.L219>

00000000000017bc <.L229>:
    17bc:	00050493          	addi	s1,a0,0
    17c0:	f7840793          	addi	a5,s0,-136
    17c4:	00078513          	addi	a0,a5,0
    17c8:	00000317          	auipc	t1,0x0
    17cc:	00033303          	ld	t1,0(t1) # 17c8 <.L229+0xc>
    17d0:	000300e7          	jalr	ra,0(t1)
    17d4:	fa040793          	addi	a5,s0,-96
    17d8:	00078513          	addi	a0,a5,0
    17dc:	00000317          	auipc	t1,0x0
    17e0:	00033303          	ld	t1,0(t1) # 17dc <.L229+0x20>
    17e4:	000300e7          	jalr	ra,0(t1)
    17e8:	00048793          	addi	a5,s1,0
    17ec:	00078513          	addi	a0,a5,0

00000000000017f0 <.LEHB33>:
    17f0:	00000097          	auipc	ra,0x0
    17f4:	000080e7          	jalr	ra,0(ra) # 17f0 <.LEHB33>

00000000000017f8 <.L219>:
    17f8:	0a813083          	ld	ra,168(sp)
    17fc:	0a013403          	ld	s0,160(sp)
    1800:	09813483          	ld	s1,152(sp)
    1804:	0b010113          	addi	sp,sp,176
    1808:	00008067          	jalr	zero,0(ra)

000000000000180c <dwarf::compilation_unit::compilation_unit(dwarf::dwarf const&, unsigned long)>:
    180c:	ef010113          	addi	sp,sp,-272
    1810:	10113423          	sd	ra,264(sp)
    1814:	10813023          	sd	s0,256(sp)
    1818:	0e913c23          	sd	s1,248(sp)
    181c:	0f213823          	sd	s2,240(sp)
    1820:	11010413          	addi	s0,sp,272
    1824:	f0a43423          	sd	a0,-248(s0)
    1828:	f0b43023          	sd	a1,-256(s0)
    182c:	eec43c23          	sd	a2,-264(s0)
    1830:	f0843783          	ld	a5,-248(s0)
    1834:	00078513          	addi	a0,a5,0
    1838:	00000317          	auipc	t1,0x0
    183c:	00033303          	ld	t1,0(t1) # 1838 <dwarf::compilation_unit::compilation_unit(dwarf::dwarf const&, unsigned long)+0x2c>
    1840:	000300e7          	jalr	ra,0(t1)
    1844:	00000797          	auipc	a5,0x0
    1848:	0007b783          	ld	a5,0(a5) # 1844 <dwarf::compilation_unit::compilation_unit(dwarf::dwarf const&, unsigned long)+0x38>
    184c:	01078713          	addi	a4,a5,16
    1850:	f0843783          	ld	a5,-248(s0)
    1854:	00e7b023          	sd	a4,0(a5)
    1858:	f6040793          	addi	a5,s0,-160
    185c:	00300613          	addi	a2,zero,3
    1860:	f0043583          	ld	a1,-256(s0)
    1864:	00078513          	addi	a0,a5,0

0000000000001868 <.LEHB34>:
    1868:	00000097          	auipc	ra,0x0
    186c:	000080e7          	jalr	ra,0(ra) # 1868 <.LEHB34>

0000000000001870 <.LEHE34>:
    1870:	ef843683          	ld	a3,-264(s0)
    1874:	f6040713          	addi	a4,s0,-160
    1878:	f4840793          	addi	a5,s0,-184
    187c:	00068613          	addi	a2,a3,0
    1880:	00070593          	addi	a1,a4,0
    1884:	00078513          	addi	a0,a5,0
    1888:	00000317          	auipc	t1,0x0
    188c:	00033303          	ld	t1,0(t1) # 1888 <.LEHE34+0x18>
    1890:	000300e7          	jalr	ra,0(t1)
    1894:	f6040793          	addi	a5,s0,-160
    1898:	00078513          	addi	a0,a5,0
    189c:	00000317          	auipc	t1,0x0
    18a0:	00033303          	ld	t1,0(t1) # 189c <.LEHE34+0x2c>
    18a4:	000300e7          	jalr	ra,0(t1)
    18a8:	f3840793          	addi	a5,s0,-200
    18ac:	f4840713          	addi	a4,s0,-184
    18b0:	00070593          	addi	a1,a4,0
    18b4:	00078513          	addi	a0,a5,0

00000000000018b8 <.LEHB35>:
    18b8:	00000097          	auipc	ra,0x0
    18bc:	000080e7          	jalr	ra,0(ra) # 18b8 <.LEHB35>

00000000000018c0 <.LEHE35>:
    18c0:	f3840713          	addi	a4,s0,-200
    18c4:	f7040793          	addi	a5,s0,-144
    18c8:	00070593          	addi	a1,a4,0
    18cc:	00078513          	addi	a0,a5,0
    18d0:	00000317          	auipc	t1,0x0
    18d4:	00033303          	ld	t1,0(t1) # 18d0 <.LEHE35+0x10>
    18d8:	000300e7          	jalr	ra,0(t1)
    18dc:	f7040713          	addi	a4,s0,-144
    18e0:	f2040793          	addi	a5,s0,-224
    18e4:	00000613          	addi	a2,zero,0
    18e8:	00070593          	addi	a1,a4,0
    18ec:	00078513          	addi	a0,a5,0
    18f0:	00000317          	auipc	t1,0x0
    18f4:	00033303          	ld	t1,0(t1) # 18f0 <.LEHE35+0x30>
    18f8:	000300e7          	jalr	ra,0(t1)
    18fc:	f7040793          	addi	a5,s0,-144
    1900:	00078513          	addi	a0,a5,0
    1904:	00000317          	auipc	t1,0x0
    1908:	00033303          	ld	t1,0(t1) # 1904 <.LEHE35+0x44>
    190c:	000300e7          	jalr	ra,0(t1)
    1910:	f2040793          	addi	a5,s0,-224
    1914:	00078513          	addi	a0,a5,0

0000000000001918 <.LEHB36>:
    1918:	00000097          	auipc	ra,0x0
    191c:	000080e7          	jalr	ra,0(ra) # 1918 <.LEHB36>
    1920:	f2040793          	addi	a5,s0,-224
    1924:	00078513          	addi	a0,a5,0
    1928:	00000317          	auipc	t1,0x0
    192c:	00033303          	ld	t1,0(t1) # 1928 <.LEHB36+0x10>
    1930:	000300e7          	jalr	ra,0(t1)

0000000000001934 <.LEHE36>:
    1934:	00050793          	addi	a5,a0,0
    1938:	fcf41f23          	sh	a5,-34(s0)
    193c:	fde45783          	lhu	a5,-34(s0)
    1940:	0007871b          	addiw	a4,a5,0
    1944:	00100793          	addi	a5,zero,1
    1948:	00e7fa63          	bgeu	a5,a4,195c <.L232>
    194c:	fde45783          	lhu	a5,-34(s0)
    1950:	0007871b          	addiw	a4,a5,0
    1954:	00400793          	addi	a5,zero,4
    1958:	0ae7f863          	bgeu	a5,a4,1a08 <.L233>

000000000000195c <.L232>:
    195c:	01000513          	addi	a0,zero,16
    1960:	00000097          	auipc	ra,0x0
    1964:	000080e7          	jalr	ra,0(ra) # 1960 <.L232+0x4>
    1968:	00050793          	addi	a5,a0,0
    196c:	00078493          	addi	s1,a5,0
    1970:	fde45783          	lhu	a5,-34(s0)
    1974:	0007871b          	addiw	a4,a5,0
    1978:	fa040793          	addi	a5,s0,-96
    197c:	00070593          	addi	a1,a4,0
    1980:	00078513          	addi	a0,a5,0
    1984:	00000317          	auipc	t1,0x0
    1988:	00033303          	ld	t1,0(t1) # 1984 <.L232+0x28>
    198c:	000300e7          	jalr	ra,0(t1)
    1990:	f8040793          	addi	a5,s0,-128
    1994:	fa040713          	addi	a4,s0,-96
    1998:	00070613          	addi	a2,a4,0
    199c:	00000597          	auipc	a1,0x0
    19a0:	00058593          	addi	a1,a1,0 # 199c <.L232+0x40>
    19a4:	00078513          	addi	a0,a5,0
    19a8:	00000317          	auipc	t1,0x0
    19ac:	00033303          	ld	t1,0(t1) # 19a8 <.L232+0x4c>

00000000000019b0 <.LEHB37>:
    19b0:	000300e7          	jalr	ra,0(t1)

00000000000019b4 <.LEHE37>:
    19b4:	f8040793          	addi	a5,s0,-128
    19b8:	00078593          	addi	a1,a5,0
    19bc:	00048513          	addi	a0,s1,0
    19c0:	00000317          	auipc	t1,0x0
    19c4:	00033303          	ld	t1,0(t1) # 19c0 <.LEHE37+0xc>

00000000000019c8 <.LEHB38>:
    19c8:	000300e7          	jalr	ra,0(t1)

00000000000019cc <.LEHE38>:
    19cc:	f8040793          	addi	a5,s0,-128
    19d0:	00078513          	addi	a0,a5,0
    19d4:	00000097          	auipc	ra,0x0
    19d8:	000080e7          	jalr	ra,0(ra) # 19d4 <.LEHE38+0x8>
    19dc:	fa040793          	addi	a5,s0,-96
    19e0:	00078513          	addi	a0,a5,0
    19e4:	00000097          	auipc	ra,0x0
    19e8:	000080e7          	jalr	ra,0(ra) # 19e4 <.LEHE38+0x18>
    19ec:	00000617          	auipc	a2,0x0
    19f0:	00063603          	ld	a2,0(a2) # 19ec <.LEHE38+0x20>
    19f4:	00000597          	auipc	a1,0x0
    19f8:	0005b583          	ld	a1,0(a1) # 19f4 <.LEHE38+0x28>
    19fc:	00048513          	addi	a0,s1,0

0000000000001a00 <.LEHB39>:
    1a00:	00000097          	auipc	ra,0x0
    1a04:	000080e7          	jalr	ra,0(ra) # 1a00 <.LEHB39>

0000000000001a08 <.L233>:
    1a08:	f2040793          	addi	a5,s0,-224
    1a0c:	00078513          	addi	a0,a5,0
    1a10:	00000097          	auipc	ra,0x0
    1a14:	000080e7          	jalr	ra,0(ra) # 1a10 <.L233+0x8>
    1a18:	00050793          	addi	a5,a0,0
    1a1c:	f0f43c23          	sd	a5,-232(s0)
    1a20:	f2040793          	addi	a5,s0,-224
    1a24:	00078513          	addi	a0,a5,0
    1a28:	00000317          	auipc	t1,0x0
    1a2c:	00033303          	ld	t1,0(t1) # 1a28 <.L233+0x20>
    1a30:	000300e7          	jalr	ra,0(t1)
    1a34:	00050793          	addi	a5,a0,0
    1a38:	fcf40ea3          	sb	a5,-35(s0)
    1a3c:	f3840793          	addi	a5,s0,-200
    1a40:	00078513          	addi	a0,a5,0
    1a44:	00000317          	auipc	t1,0x0
    1a48:	00033303          	ld	t1,0(t1) # 1a44 <.L233+0x3c>
    1a4c:	000300e7          	jalr	ra,0(t1)
    1a50:	00050713          	addi	a4,a0,0
    1a54:	fdd44783          	lbu	a5,-35(s0)
    1a58:	0007879b          	addiw	a5,a5,0
    1a5c:	02f72023          	sw	a5,32(a4)
    1a60:	f0843783          	ld	a5,-248(s0)
    1a64:	00878493          	addi	s1,a5,8
    1a68:	f2040793          	addi	a5,s0,-224
    1a6c:	00078513          	addi	a0,a5,0
    1a70:	00000317          	auipc	t1,0x0
    1a74:	00033303          	ld	t1,0(t1) # 1a70 <.L233+0x68>
    1a78:	000300e7          	jalr	ra,0(t1)
    1a7c:	00050793          	addi	a5,a0,0
    1a80:	fcf43823          	sd	a5,-48(s0)
    1a84:	fc040513          	addi	a0,s0,-64
    1a88:	fd040793          	addi	a5,s0,-48
    1a8c:	f1840713          	addi	a4,s0,-232
    1a90:	f3840693          	addi	a3,s0,-200
    1a94:	ef840613          	addi	a2,s0,-264
    1a98:	f0043583          	ld	a1,-256(s0)
    1a9c:	00000317          	auipc	t1,0x0
    1aa0:	00033303          	ld	t1,0(t1) # 1a9c <.L233+0x94>
    1aa4:	000300e7          	jalr	ra,0(t1)

0000000000001aa8 <.LEHE39>:
    1aa8:	fc040793          	addi	a5,s0,-64
    1aac:	00078593          	addi	a1,a5,0
    1ab0:	00048513          	addi	a0,s1,0
    1ab4:	00000317          	auipc	t1,0x0
    1ab8:	00033303          	ld	t1,0(t1) # 1ab4 <.LEHE39+0xc>
    1abc:	000300e7          	jalr	ra,0(t1)
    1ac0:	fc040793          	addi	a5,s0,-64
    1ac4:	00078513          	addi	a0,a5,0
    1ac8:	00000317          	auipc	t1,0x0
    1acc:	00033303          	ld	t1,0(t1) # 1ac8 <.LEHE39+0x20>
    1ad0:	000300e7          	jalr	ra,0(t1)
    1ad4:	f2040793          	addi	a5,s0,-224
    1ad8:	00078513          	addi	a0,a5,0
    1adc:	00000317          	auipc	t1,0x0
    1ae0:	00033303          	ld	t1,0(t1) # 1adc <.LEHE39+0x34>
    1ae4:	000300e7          	jalr	ra,0(t1)
    1ae8:	f3840793          	addi	a5,s0,-200
    1aec:	00078513          	addi	a0,a5,0
    1af0:	00000317          	auipc	t1,0x0
    1af4:	00033303          	ld	t1,0(t1) # 1af0 <.LEHE39+0x48>
    1af8:	000300e7          	jalr	ra,0(t1)
    1afc:	f4840793          	addi	a5,s0,-184
    1b00:	00078513          	addi	a0,a5,0
    1b04:	00000317          	auipc	t1,0x0
    1b08:	00033303          	ld	t1,0(t1) # 1b04 <.LEHE39+0x5c>
    1b0c:	000300e7          	jalr	ra,0(t1)
    1b10:	0b40006f          	jal	zero,1bc4 <.L244>

0000000000001b14 <.L243>:
    1b14:	00050913          	addi	s2,a0,0
    1b18:	f8040793          	addi	a5,s0,-128
    1b1c:	00078513          	addi	a0,a5,0
    1b20:	00000097          	auipc	ra,0x0
    1b24:	000080e7          	jalr	ra,0(ra) # 1b20 <.L243+0xc>
    1b28:	0080006f          	jal	zero,1b30 <.L235>

0000000000001b2c <.L242>:
    1b2c:	00050913          	addi	s2,a0,0

0000000000001b30 <.L235>:
    1b30:	fa040793          	addi	a5,s0,-96
    1b34:	00078513          	addi	a0,a5,0
    1b38:	00000097          	auipc	ra,0x0
    1b3c:	000080e7          	jalr	ra,0(ra) # 1b38 <.L235+0x8>
    1b40:	00048513          	addi	a0,s1,0
    1b44:	00000097          	auipc	ra,0x0
    1b48:	000080e7          	jalr	ra,0(ra) # 1b44 <.L235+0x14>
    1b4c:	00090493          	addi	s1,s2,0
    1b50:	0080006f          	jal	zero,1b58 <.L236>

0000000000001b54 <.L241>:
    1b54:	00050493          	addi	s1,a0,0

0000000000001b58 <.L236>:
    1b58:	f2040793          	addi	a5,s0,-224
    1b5c:	00078513          	addi	a0,a5,0
    1b60:	00000317          	auipc	t1,0x0
    1b64:	00033303          	ld	t1,0(t1) # 1b60 <.L236+0x8>
    1b68:	000300e7          	jalr	ra,0(t1)
    1b6c:	f3840793          	addi	a5,s0,-200
    1b70:	00078513          	addi	a0,a5,0
    1b74:	00000317          	auipc	t1,0x0
    1b78:	00033303          	ld	t1,0(t1) # 1b74 <.L236+0x1c>
    1b7c:	000300e7          	jalr	ra,0(t1)
    1b80:	0080006f          	jal	zero,1b88 <.L237>

0000000000001b84 <.L240>:
    1b84:	00050493          	addi	s1,a0,0

0000000000001b88 <.L237>:
    1b88:	f4840793          	addi	a5,s0,-184
    1b8c:	00078513          	addi	a0,a5,0
    1b90:	00000317          	auipc	t1,0x0
    1b94:	00033303          	ld	t1,0(t1) # 1b90 <.L237+0x8>
    1b98:	000300e7          	jalr	ra,0(t1)
    1b9c:	0080006f          	jal	zero,1ba4 <.L238>

0000000000001ba0 <.L239>:
    1ba0:	00050493          	addi	s1,a0,0

0000000000001ba4 <.L238>:
    1ba4:	f0843783          	ld	a5,-248(s0)
    1ba8:	00078513          	addi	a0,a5,0
    1bac:	00000097          	auipc	ra,0x0
    1bb0:	000080e7          	jalr	ra,0(ra) # 1bac <.L238+0x8>
    1bb4:	00048793          	addi	a5,s1,0
    1bb8:	00078513          	addi	a0,a5,0

0000000000001bbc <.LEHB40>:
    1bbc:	00000097          	auipc	ra,0x0
    1bc0:	000080e7          	jalr	ra,0(ra) # 1bbc <.LEHB40>

0000000000001bc4 <.L244>:
    1bc4:	10813083          	ld	ra,264(sp)
    1bc8:	10013403          	ld	s0,256(sp)
    1bcc:	0f813483          	ld	s1,248(sp)
    1bd0:	0f013903          	ld	s2,240(sp)
    1bd4:	11010113          	addi	sp,sp,272
    1bd8:	00008067          	jalr	zero,0(ra)

0000000000001bdc <dwarf::compilation_unit::get_line_table() const>:
    1bdc:	f2010113          	addi	sp,sp,-224
    1be0:	0c113c23          	sd	ra,216(sp)
    1be4:	0c813823          	sd	s0,208(sp)
    1be8:	0c913423          	sd	s1,200(sp)
    1bec:	0d213023          	sd	s2,192(sp)
    1bf0:	0b313c23          	sd	s3,184(sp)
    1bf4:	0e010413          	addi	s0,sp,224
    1bf8:	f2a43423          	sd	a0,-216(s0)
    1bfc:	f2843783          	ld	a5,-216(s0)
    1c00:	00878793          	addi	a5,a5,8
    1c04:	00078513          	addi	a0,a5,0
    1c08:	00000317          	auipc	t1,0x0
    1c0c:	00033303          	ld	t1,0(t1) # 1c08 <dwarf::compilation_unit::get_line_table() const+0x2c>
    1c10:	000300e7          	jalr	ra,0(t1)
    1c14:	00050793          	addi	a5,a0,0
    1c18:	12878793          	addi	a5,a5,296
    1c1c:	00078513          	addi	a0,a5,0
    1c20:	00000317          	auipc	t1,0x0
    1c24:	00033303          	ld	t1,0(t1) # 1c20 <dwarf::compilation_unit::get_line_table() const+0x44>
    1c28:	000300e7          	jalr	ra,0(t1)
    1c2c:	00050793          	addi	a5,a0,0
    1c30:	0017c793          	xori	a5,a5,1
    1c34:	0ff7f793          	andi	a5,a5,255
    1c38:	26078a63          	beq	a5,zero,1eac <.L275>
    1c3c:	f2843783          	ld	a5,-216(s0)
    1c40:	00078513          	addi	a0,a5,0

0000000000001c44 <.LEHB41>:
    1c44:	00000097          	auipc	ra,0x0
    1c48:	000080e7          	jalr	ra,0(ra) # 1c44 <.LEHB41>
    1c4c:	00050793          	addi	a5,a0,0
    1c50:	fcf43423          	sd	a5,-56(s0)
    1c54:	01000593          	addi	a1,zero,16
    1c58:	fc843503          	ld	a0,-56(s0)
    1c5c:	00000097          	auipc	ra,0x0
    1c60:	000080e7          	jalr	ra,0(ra) # 1c5c <.LEHB41+0x18>
    1c64:	00050793          	addi	a5,a0,0
    1c68:	0017c793          	xori	a5,a5,1
    1c6c:	0ff7f793          	andi	a5,a5,255
    1c70:	02079263          	bne	a5,zero,1c94 <.L252>
    1c74:	00300593          	addi	a1,zero,3
    1c78:	fc843503          	ld	a0,-56(s0)
    1c7c:	00000097          	auipc	ra,0x0
    1c80:	000080e7          	jalr	ra,0(ra) # 1c7c <.LEHB41+0x38>

0000000000001c84 <.LEHE41>:
    1c84:	00050793          	addi	a5,a0,0
    1c88:	0017c793          	xori	a5,a5,1
    1c8c:	0ff7f793          	andi	a5,a5,255
    1c90:	00078663          	beq	a5,zero,1c9c <.L253>

0000000000001c94 <.L252>:
    1c94:	00100793          	addi	a5,zero,1
    1c98:	0080006f          	jal	zero,1ca0 <.L254>

0000000000001c9c <.L253>:
    1c9c:	00000793          	addi	a5,zero,0

0000000000001ca0 <.L254>:
    1ca0:	20079a63          	bne	a5,zero,1eb4 <.L276>
    1ca4:	f4043823          	sd	zero,-176(s0)
    1ca8:	f4043c23          	sd	zero,-168(s0)
    1cac:	f2843783          	ld	a5,-216(s0)
    1cb0:	00878793          	addi	a5,a5,8
    1cb4:	00078513          	addi	a0,a5,0
    1cb8:	00000317          	auipc	t1,0x0
    1cbc:	00033303          	ld	t1,0(t1) # 1cb8 <.L254+0x18>
    1cc0:	000300e7          	jalr	ra,0(t1)
    1cc4:	00050793          	addi	a5,a0,0
    1cc8:	00078713          	addi	a4,a5,0
    1ccc:	f6040793          	addi	a5,s0,-160
    1cd0:	00400613          	addi	a2,zero,4
    1cd4:	00070593          	addi	a1,a4,0
    1cd8:	00078513          	addi	a0,a5,0

0000000000001cdc <.LEHB42>:
    1cdc:	00000097          	auipc	ra,0x0
    1ce0:	000080e7          	jalr	ra,0(ra) # 1cdc <.LEHB42>

0000000000001ce4 <.LEHE42>:
    1ce4:	f6040713          	addi	a4,s0,-160
    1ce8:	f5040793          	addi	a5,s0,-176
    1cec:	00070593          	addi	a1,a4,0
    1cf0:	00078513          	addi	a0,a5,0
    1cf4:	00000317          	auipc	t1,0x0
    1cf8:	00033303          	ld	t1,0(t1) # 1cf4 <.LEHE42+0x10>
    1cfc:	000300e7          	jalr	ra,0(t1)
    1d00:	f6040793          	addi	a5,s0,-160
    1d04:	00078513          	addi	a0,a5,0
    1d08:	00000317          	auipc	t1,0x0
    1d0c:	00033303          	ld	t1,0(t1) # 1d08 <.LEHE42+0x24>
    1d10:	000300e7          	jalr	ra,0(t1)
    1d14:	01b00593          	addi	a1,zero,27
    1d18:	fc843503          	ld	a0,-56(s0)

0000000000001d1c <.LEHB43>:
    1d1c:	00000097          	auipc	ra,0x0
    1d20:	000080e7          	jalr	ra,0(ra) # 1d1c <.LEHB43>

0000000000001d24 <.LEHE43>:
    1d24:	00050793          	addi	a5,a0,0
    1d28:	00000493          	addi	s1,zero,0
    1d2c:	00078e63          	beq	a5,zero,1d48 <.L257>
    1d30:	f3040793          	addi	a5,s0,-208
    1d34:	fc843583          	ld	a1,-56(s0)
    1d38:	00078513          	addi	a0,a5,0

0000000000001d3c <.LEHB44>:
    1d3c:	00000097          	auipc	ra,0x0
    1d40:	000080e7          	jalr	ra,0(ra) # 1d3c <.LEHB44>
    1d44:	0380006f          	jal	zero,1d7c <.L258>

0000000000001d48 <.L257>:
    1d48:	f7040793          	addi	a5,s0,-144
    1d4c:	00078513          	addi	a0,a5,0
    1d50:	00000097          	auipc	ra,0x0
    1d54:	000080e7          	jalr	ra,0(ra) # 1d50 <.L257+0x8>
    1d58:	00100493          	addi	s1,zero,1
    1d5c:	f7040713          	addi	a4,s0,-144
    1d60:	f3040793          	addi	a5,s0,-208
    1d64:	00070613          	addi	a2,a4,0
    1d68:	00000597          	auipc	a1,0x0
    1d6c:	00058593          	addi	a1,a1,0 # 1d68 <.L257+0x20>
    1d70:	00078513          	addi	a0,a5,0
    1d74:	00000097          	auipc	ra,0x0
    1d78:	000080e7          	jalr	ra,0(ra) # 1d74 <.L257+0x2c>

0000000000001d7c <.L258>:
    1d7c:	00048a63          	beq	s1,zero,1d90 <.L259>
    1d80:	f7040793          	addi	a5,s0,-144
    1d84:	00078513          	addi	a0,a5,0
    1d88:	00000097          	auipc	ra,0x0
    1d8c:	000080e7          	jalr	ra,0(ra) # 1d88 <.L258+0xc>

0000000000001d90 <.L259>:
    1d90:	f2843783          	ld	a5,-216(s0)
    1d94:	00878793          	addi	a5,a5,8
    1d98:	00078513          	addi	a0,a5,0
    1d9c:	00000317          	auipc	t1,0x0
    1da0:	00033303          	ld	t1,0(t1) # 1d9c <.L259+0xc>
    1da4:	000300e7          	jalr	ra,0(t1)
    1da8:	00050793          	addi	a5,a0,0
    1dac:	12878493          	addi	s1,a5,296
    1db0:	f8840793          	addi	a5,s0,-120
    1db4:	01000613          	addi	a2,zero,16
    1db8:	fc843583          	ld	a1,-56(s0)
    1dbc:	00078513          	addi	a0,a5,0

0000000000001dc0 <.LEHB45>:
    1dc0:	00000097          	auipc	ra,0x0
    1dc4:	000080e7          	jalr	ra,0(ra) # 1dc0 <.LEHB45>
    1dc8:	f8840793          	addi	a5,s0,-120
    1dcc:	00078513          	addi	a0,a5,0
    1dd0:	00000097          	auipc	ra,0x0
    1dd4:	000080e7          	jalr	ra,0(ra) # 1dd0 <.LEHB45+0x10>
    1dd8:	00050993          	addi	s3,a0,0
    1ddc:	f2843783          	ld	a5,-216(s0)
    1de0:	00878793          	addi	a5,a5,8
    1de4:	00078513          	addi	a0,a5,0
    1de8:	00000317          	auipc	t1,0x0
    1dec:	00033303          	ld	t1,0(t1) # 1de8 <.LEHB45+0x28>
    1df0:	000300e7          	jalr	ra,0(t1)
    1df4:	00050793          	addi	a5,a0,0
    1df8:	01878793          	addi	a5,a5,24
    1dfc:	00078513          	addi	a0,a5,0
    1e00:	00000317          	auipc	t1,0x0
    1e04:	00033303          	ld	t1,0(t1) # 1e00 <.LEHB45+0x40>
    1e08:	000300e7          	jalr	ra,0(t1)
    1e0c:	00050793          	addi	a5,a0,0
    1e10:	0207a903          	lw	s2,32(a5)
    1e14:	fa040793          	addi	a5,s0,-96
    1e18:	fc843583          	ld	a1,-56(s0)
    1e1c:	00078513          	addi	a0,a5,0
    1e20:	00000097          	auipc	ra,0x0
    1e24:	000080e7          	jalr	ra,0(ra) # 1e20 <.LEHB45+0x60>

0000000000001e28 <.LEHE45>:
    1e28:	fa040793          	addi	a5,s0,-96
    1e2c:	f3040713          	addi	a4,s0,-208
    1e30:	f5040593          	addi	a1,s0,-176
    1e34:	f7840513          	addi	a0,s0,-136
    1e38:	00090693          	addi	a3,s2,0
    1e3c:	00098613          	addi	a2,s3,0

0000000000001e40 <.LEHB46>:
    1e40:	00000097          	auipc	ra,0x0
    1e44:	000080e7          	jalr	ra,0(ra) # 1e40 <.LEHB46>

0000000000001e48 <.LEHE46>:
    1e48:	f7840793          	addi	a5,s0,-136
    1e4c:	00078593          	addi	a1,a5,0
    1e50:	00048513          	addi	a0,s1,0
    1e54:	00000317          	auipc	t1,0x0
    1e58:	00033303          	ld	t1,0(t1) # 1e54 <.LEHE46+0xc>
    1e5c:	000300e7          	jalr	ra,0(t1)
    1e60:	f7840793          	addi	a5,s0,-136
    1e64:	00078513          	addi	a0,a5,0
    1e68:	00000317          	auipc	t1,0x0
    1e6c:	00033303          	ld	t1,0(t1) # 1e68 <.LEHE46+0x20>
    1e70:	000300e7          	jalr	ra,0(t1)
    1e74:	fa040793          	addi	a5,s0,-96
    1e78:	00078513          	addi	a0,a5,0
    1e7c:	00000097          	auipc	ra,0x0
    1e80:	000080e7          	jalr	ra,0(ra) # 1e7c <.LEHE46+0x34>
    1e84:	f3040793          	addi	a5,s0,-208
    1e88:	00078513          	addi	a0,a5,0
    1e8c:	00000097          	auipc	ra,0x0
    1e90:	000080e7          	jalr	ra,0(ra) # 1e8c <.LEHE46+0x44>

0000000000001e94 <.L264>:
    1e94:	f5040793          	addi	a5,s0,-176
    1e98:	00078513          	addi	a0,a5,0
    1e9c:	00000317          	auipc	t1,0x0
    1ea0:	00033303          	ld	t1,0(t1) # 1e9c <.L264+0x8>
    1ea4:	000300e7          	jalr	ra,0(t1)
    1ea8:	0100006f          	jal	zero,1eb8 <.L251>

0000000000001eac <.L275>:
    1eac:	00000013          	addi	zero,zero,0
    1eb0:	0080006f          	jal	zero,1eb8 <.L251>

0000000000001eb4 <.L276>:
    1eb4:	00000013          	addi	zero,zero,0

0000000000001eb8 <.L251>:
    1eb8:	f2843783          	ld	a5,-216(s0)
    1ebc:	00878793          	addi	a5,a5,8
    1ec0:	00078513          	addi	a0,a5,0
    1ec4:	00000317          	auipc	t1,0x0
    1ec8:	00033303          	ld	t1,0(t1) # 1ec4 <.L251+0xc>
    1ecc:	000300e7          	jalr	ra,0(t1)
    1ed0:	00050793          	addi	a5,a0,0
    1ed4:	12878793          	addi	a5,a5,296
    1ed8:	0bc0006f          	jal	zero,1f94 <.L274>

0000000000001edc <.L269>:
    1edc:	00050693          	addi	a3,a0,0
    1ee0:	00058793          	addi	a5,a1,0
    1ee4:	00078713          	addi	a4,a5,0
    1ee8:	00100793          	addi	a5,zero,1
    1eec:	00f70663          	beq	a4,a5,1ef8 <.L262>
    1ef0:	00068493          	addi	s1,a3,0
    1ef4:	07c0006f          	jal	zero,1f70 <.L263>

0000000000001ef8 <.L262>:
    1ef8:	00068793          	addi	a5,a3,0
    1efc:	00078513          	addi	a0,a5,0
    1f00:	00000097          	auipc	ra,0x0
    1f04:	000080e7          	jalr	ra,0(ra) # 1f00 <.L262+0x8>
    1f08:	00050793          	addi	a5,a0,0
    1f0c:	fcf43023          	sd	a5,-64(s0)

0000000000001f10 <.LEHB47>:
    1f10:	00000097          	auipc	ra,0x0
    1f14:	000080e7          	jalr	ra,0(ra) # 1f10 <.LEHB47>

0000000000001f18 <.LEHE47>:
    1f18:	f7dff06f          	jal	zero,1e94 <.L264>

0000000000001f1c <.L271>:
    1f1c:	00050913          	addi	s2,a0,0
    1f20:	00048a63          	beq	s1,zero,1f34 <.L266>
    1f24:	f7040793          	addi	a5,s0,-144
    1f28:	00078513          	addi	a0,a5,0
    1f2c:	00000097          	auipc	ra,0x0
    1f30:	000080e7          	jalr	ra,0(ra) # 1f2c <.L271+0x10>

0000000000001f34 <.L266>:
    1f34:	00090493          	addi	s1,s2,0
    1f38:	0380006f          	jal	zero,1f70 <.L263>

0000000000001f3c <.L273>:
    1f3c:	00050493          	addi	s1,a0,0
    1f40:	fa040793          	addi	a5,s0,-96
    1f44:	00078513          	addi	a0,a5,0
    1f48:	00000097          	auipc	ra,0x0
    1f4c:	000080e7          	jalr	ra,0(ra) # 1f48 <.L273+0xc>
    1f50:	0080006f          	jal	zero,1f58 <.L268>

0000000000001f54 <.L272>:
    1f54:	00050493          	addi	s1,a0,0

0000000000001f58 <.L268>:
    1f58:	f3040793          	addi	a5,s0,-208
    1f5c:	00078513          	addi	a0,a5,0
    1f60:	00000097          	auipc	ra,0x0
    1f64:	000080e7          	jalr	ra,0(ra) # 1f60 <.L268+0x8>
    1f68:	0080006f          	jal	zero,1f70 <.L263>

0000000000001f6c <.L270>:
    1f6c:	00050493          	addi	s1,a0,0

0000000000001f70 <.L263>:
    1f70:	f5040793          	addi	a5,s0,-176
    1f74:	00078513          	addi	a0,a5,0
    1f78:	00000317          	auipc	t1,0x0
    1f7c:	00033303          	ld	t1,0(t1) # 1f78 <.L263+0x8>
    1f80:	000300e7          	jalr	ra,0(t1)
    1f84:	00048793          	addi	a5,s1,0
    1f88:	00078513          	addi	a0,a5,0

0000000000001f8c <.LEHB48>:
    1f8c:	00000097          	auipc	ra,0x0
    1f90:	000080e7          	jalr	ra,0(ra) # 1f8c <.LEHB48>

0000000000001f94 <.L274>:
    1f94:	00078513          	addi	a0,a5,0
    1f98:	0d813083          	ld	ra,216(sp)
    1f9c:	0d013403          	ld	s0,208(sp)
    1fa0:	0c813483          	ld	s1,200(sp)
    1fa4:	0c013903          	ld	s2,192(sp)
    1fa8:	0b813983          	ld	s3,184(sp)
    1fac:	0e010113          	addi	sp,sp,224
    1fb0:	00008067          	jalr	zero,0(ra)

0000000000001fb4 <dwarf::type_unit::type_unit(dwarf::dwarf const&, unsigned long)>:
    1fb4:	ee010113          	addi	sp,sp,-288
    1fb8:	10113c23          	sd	ra,280(sp)
    1fbc:	10813823          	sd	s0,272(sp)
    1fc0:	10913423          	sd	s1,264(sp)
    1fc4:	11213023          	sd	s2,256(sp)
    1fc8:	12010413          	addi	s0,sp,288
    1fcc:	eea43c23          	sd	a0,-264(s0)
    1fd0:	eeb43823          	sd	a1,-272(s0)
    1fd4:	eec43423          	sd	a2,-280(s0)
    1fd8:	ef843783          	ld	a5,-264(s0)
    1fdc:	00078513          	addi	a0,a5,0
    1fe0:	00000317          	auipc	t1,0x0
    1fe4:	00033303          	ld	t1,0(t1) # 1fe0 <dwarf::type_unit::type_unit(dwarf::dwarf const&, unsigned long)+0x2c>
    1fe8:	000300e7          	jalr	ra,0(t1)
    1fec:	00000797          	auipc	a5,0x0
    1ff0:	0007b783          	ld	a5,0(a5) # 1fec <dwarf::type_unit::type_unit(dwarf::dwarf const&, unsigned long)+0x38>
    1ff4:	01078713          	addi	a4,a5,16
    1ff8:	ef843783          	ld	a5,-264(s0)
    1ffc:	00e7b023          	sd	a4,0(a5)
    2000:	f6040793          	addi	a5,s0,-160
    2004:	00b00613          	addi	a2,zero,11
    2008:	ef043583          	ld	a1,-272(s0)
    200c:	00078513          	addi	a0,a5,0

0000000000002010 <.LEHB49>:
    2010:	00000097          	auipc	ra,0x0
    2014:	000080e7          	jalr	ra,0(ra) # 2010 <.LEHB49>

0000000000002018 <.LEHE49>:
    2018:	ee843683          	ld	a3,-280(s0)
    201c:	f6040713          	addi	a4,s0,-160
    2020:	f4840793          	addi	a5,s0,-184
    2024:	00068613          	addi	a2,a3,0
    2028:	00070593          	addi	a1,a4,0
    202c:	00078513          	addi	a0,a5,0
    2030:	00000317          	auipc	t1,0x0
    2034:	00033303          	ld	t1,0(t1) # 2030 <.LEHE49+0x18>
    2038:	000300e7          	jalr	ra,0(t1)
    203c:	f6040793          	addi	a5,s0,-160
    2040:	00078513          	addi	a0,a5,0
    2044:	00000317          	auipc	t1,0x0
    2048:	00033303          	ld	t1,0(t1) # 2044 <.LEHE49+0x2c>
    204c:	000300e7          	jalr	ra,0(t1)
    2050:	f3840793          	addi	a5,s0,-200
    2054:	f4840713          	addi	a4,s0,-184
    2058:	00070593          	addi	a1,a4,0
    205c:	00078513          	addi	a0,a5,0

0000000000002060 <.LEHB50>:
    2060:	00000097          	auipc	ra,0x0
    2064:	000080e7          	jalr	ra,0(ra) # 2060 <.LEHB50>

0000000000002068 <.LEHE50>:
    2068:	f3840713          	addi	a4,s0,-200
    206c:	f7040793          	addi	a5,s0,-144
    2070:	00070593          	addi	a1,a4,0
    2074:	00078513          	addi	a0,a5,0
    2078:	00000317          	auipc	t1,0x0
    207c:	00033303          	ld	t1,0(t1) # 2078 <.LEHE50+0x10>
    2080:	000300e7          	jalr	ra,0(t1)
    2084:	f7040713          	addi	a4,s0,-144
    2088:	f2040793          	addi	a5,s0,-224
    208c:	00000613          	addi	a2,zero,0
    2090:	00070593          	addi	a1,a4,0
    2094:	00078513          	addi	a0,a5,0
    2098:	00000317          	auipc	t1,0x0
    209c:	00033303          	ld	t1,0(t1) # 2098 <.LEHE50+0x30>
    20a0:	000300e7          	jalr	ra,0(t1)
    20a4:	f7040793          	addi	a5,s0,-144
    20a8:	00078513          	addi	a0,a5,0
    20ac:	00000317          	auipc	t1,0x0
    20b0:	00033303          	ld	t1,0(t1) # 20ac <.LEHE50+0x44>
    20b4:	000300e7          	jalr	ra,0(t1)
    20b8:	f2040793          	addi	a5,s0,-224
    20bc:	00078513          	addi	a0,a5,0

00000000000020c0 <.LEHB51>:
    20c0:	00000097          	auipc	ra,0x0
    20c4:	000080e7          	jalr	ra,0(ra) # 20c0 <.LEHB51>
    20c8:	f2040793          	addi	a5,s0,-224
    20cc:	00078513          	addi	a0,a5,0
    20d0:	00000317          	auipc	t1,0x0
    20d4:	00033303          	ld	t1,0(t1) # 20d0 <.LEHB51+0x10>
    20d8:	000300e7          	jalr	ra,0(t1)

00000000000020dc <.LEHE51>:
    20dc:	00050793          	addi	a5,a0,0
    20e0:	fcf41f23          	sh	a5,-34(s0)
    20e4:	fde45783          	lhu	a5,-34(s0)
    20e8:	0007871b          	addiw	a4,a5,0
    20ec:	00400793          	addi	a5,zero,4
    20f0:	0af70863          	beq	a4,a5,21a0 <.L278>
    20f4:	01000513          	addi	a0,zero,16
    20f8:	00000097          	auipc	ra,0x0
    20fc:	000080e7          	jalr	ra,0(ra) # 20f8 <.LEHE51+0x1c>
    2100:	00050793          	addi	a5,a0,0
    2104:	00078493          	addi	s1,a5,0
    2108:	fde45783          	lhu	a5,-34(s0)
    210c:	0007871b          	addiw	a4,a5,0
    2110:	fa040793          	addi	a5,s0,-96
    2114:	00070593          	addi	a1,a4,0
    2118:	00078513          	addi	a0,a5,0
    211c:	00000317          	auipc	t1,0x0
    2120:	00033303          	ld	t1,0(t1) # 211c <.LEHE51+0x40>
    2124:	000300e7          	jalr	ra,0(t1)
    2128:	f8040793          	addi	a5,s0,-128
    212c:	fa040713          	addi	a4,s0,-96
    2130:	00070613          	addi	a2,a4,0
    2134:	00000597          	auipc	a1,0x0
    2138:	00058593          	addi	a1,a1,0 # 2134 <.LEHE51+0x58>
    213c:	00078513          	addi	a0,a5,0
    2140:	00000317          	auipc	t1,0x0
    2144:	00033303          	ld	t1,0(t1) # 2140 <.LEHE51+0x64>

0000000000002148 <.LEHB52>:
    2148:	000300e7          	jalr	ra,0(t1)

000000000000214c <.LEHE52>:
    214c:	f8040793          	addi	a5,s0,-128
    2150:	00078593          	addi	a1,a5,0
    2154:	00048513          	addi	a0,s1,0
    2158:	00000317          	auipc	t1,0x0
    215c:	00033303          	ld	t1,0(t1) # 2158 <.LEHE52+0xc>

0000000000002160 <.LEHB53>:
    2160:	000300e7          	jalr	ra,0(t1)

0000000000002164 <.LEHE53>:
    2164:	f8040793          	addi	a5,s0,-128
    2168:	00078513          	addi	a0,a5,0
    216c:	00000097          	auipc	ra,0x0
    2170:	000080e7          	jalr	ra,0(ra) # 216c <.LEHE53+0x8>
    2174:	fa040793          	addi	a5,s0,-96
    2178:	00078513          	addi	a0,a5,0
    217c:	00000097          	auipc	ra,0x0
    2180:	000080e7          	jalr	ra,0(ra) # 217c <.LEHE53+0x18>
    2184:	00000617          	auipc	a2,0x0
    2188:	00063603          	ld	a2,0(a2) # 2184 <.LEHE53+0x20>
    218c:	00000597          	auipc	a1,0x0
    2190:	0005b583          	ld	a1,0(a1) # 218c <.LEHE53+0x28>
    2194:	00048513          	addi	a0,s1,0

0000000000002198 <.LEHB54>:
    2198:	00000097          	auipc	ra,0x0
    219c:	000080e7          	jalr	ra,0(ra) # 2198 <.LEHB54>

00000000000021a0 <.L278>:
    21a0:	f2040793          	addi	a5,s0,-224
    21a4:	00078513          	addi	a0,a5,0
    21a8:	00000097          	auipc	ra,0x0
    21ac:	000080e7          	jalr	ra,0(ra) # 21a8 <.L278+0x8>
    21b0:	00050793          	addi	a5,a0,0
    21b4:	f0f43c23          	sd	a5,-232(s0)
    21b8:	f2040793          	addi	a5,s0,-224
    21bc:	00078513          	addi	a0,a5,0
    21c0:	00000317          	auipc	t1,0x0
    21c4:	00033303          	ld	t1,0(t1) # 21c0 <.L278+0x20>
    21c8:	000300e7          	jalr	ra,0(t1)
    21cc:	00050793          	addi	a5,a0,0
    21d0:	fcf40ea3          	sb	a5,-35(s0)
    21d4:	f3840793          	addi	a5,s0,-200
    21d8:	00078513          	addi	a0,a5,0
    21dc:	00000317          	auipc	t1,0x0
    21e0:	00033303          	ld	t1,0(t1) # 21dc <.L278+0x3c>
    21e4:	000300e7          	jalr	ra,0(t1)
    21e8:	00050713          	addi	a4,a0,0
    21ec:	fdd44783          	lbu	a5,-35(s0)
    21f0:	0007879b          	addiw	a5,a5,0
    21f4:	02f72023          	sw	a5,32(a4)
    21f8:	f2040793          	addi	a5,s0,-224
    21fc:	00078513          	addi	a0,a5,0
    2200:	00000317          	auipc	t1,0x0
    2204:	00033303          	ld	t1,0(t1) # 2200 <.L278+0x60>
    2208:	000300e7          	jalr	ra,0(t1)
    220c:	00050793          	addi	a5,a0,0
    2210:	f0f43823          	sd	a5,-240(s0)
    2214:	f2040793          	addi	a5,s0,-224
    2218:	00078513          	addi	a0,a5,0
    221c:	00000097          	auipc	ra,0x0
    2220:	000080e7          	jalr	ra,0(ra) # 221c <.L278+0x7c>
    2224:	00050793          	addi	a5,a0,0
    2228:	f0f43423          	sd	a5,-248(s0)
    222c:	ef843783          	ld	a5,-264(s0)
    2230:	00878493          	addi	s1,a5,8
    2234:	f2040793          	addi	a5,s0,-224
    2238:	00078513          	addi	a0,a5,0
    223c:	00000317          	auipc	t1,0x0
    2240:	00033303          	ld	t1,0(t1) # 223c <.L278+0x9c>
    2244:	000300e7          	jalr	ra,0(t1)
    2248:	00050793          	addi	a5,a0,0
    224c:	fcf43823          	sd	a5,-48(s0)
    2250:	fc040513          	addi	a0,s0,-64
    2254:	f0840813          	addi	a6,s0,-248
    2258:	f1040593          	addi	a1,s0,-240
    225c:	fd040793          	addi	a5,s0,-48
    2260:	f1840713          	addi	a4,s0,-232
    2264:	f3840693          	addi	a3,s0,-200
    2268:	ee840613          	addi	a2,s0,-280
    226c:	00080893          	addi	a7,a6,0
    2270:	00058813          	addi	a6,a1,0
    2274:	ef043583          	ld	a1,-272(s0)
    2278:	00000317          	auipc	t1,0x0
    227c:	00033303          	ld	t1,0(t1) # 2278 <.L278+0xd8>
    2280:	000300e7          	jalr	ra,0(t1)

0000000000002284 <.LEHE54>:
    2284:	fc040793          	addi	a5,s0,-64
    2288:	00078593          	addi	a1,a5,0
    228c:	00048513          	addi	a0,s1,0
    2290:	00000317          	auipc	t1,0x0
    2294:	00033303          	ld	t1,0(t1) # 2290 <.LEHE54+0xc>
    2298:	000300e7          	jalr	ra,0(t1)
    229c:	fc040793          	addi	a5,s0,-64
    22a0:	00078513          	addi	a0,a5,0
    22a4:	00000317          	auipc	t1,0x0
    22a8:	00033303          	ld	t1,0(t1) # 22a4 <.LEHE54+0x20>
    22ac:	000300e7          	jalr	ra,0(t1)
    22b0:	f2040793          	addi	a5,s0,-224
    22b4:	00078513          	addi	a0,a5,0
    22b8:	00000317          	auipc	t1,0x0
    22bc:	00033303          	ld	t1,0(t1) # 22b8 <.LEHE54+0x34>
    22c0:	000300e7          	jalr	ra,0(t1)
    22c4:	f3840793          	addi	a5,s0,-200
    22c8:	00078513          	addi	a0,a5,0
    22cc:	00000317          	auipc	t1,0x0
    22d0:	00033303          	ld	t1,0(t1) # 22cc <.LEHE54+0x48>
    22d4:	000300e7          	jalr	ra,0(t1)
    22d8:	f4840793          	addi	a5,s0,-184
    22dc:	00078513          	addi	a0,a5,0
    22e0:	00000317          	auipc	t1,0x0
    22e4:	00033303          	ld	t1,0(t1) # 22e0 <.LEHE54+0x5c>
    22e8:	000300e7          	jalr	ra,0(t1)
    22ec:	0b40006f          	jal	zero,23a0 <.L289>

00000000000022f0 <.L288>:
    22f0:	00050913          	addi	s2,a0,0
    22f4:	f8040793          	addi	a5,s0,-128
    22f8:	00078513          	addi	a0,a5,0
    22fc:	00000097          	auipc	ra,0x0
    2300:	000080e7          	jalr	ra,0(ra) # 22fc <.L288+0xc>
    2304:	0080006f          	jal	zero,230c <.L280>

0000000000002308 <.L287>:
    2308:	00050913          	addi	s2,a0,0

000000000000230c <.L280>:
    230c:	fa040793          	addi	a5,s0,-96
    2310:	00078513          	addi	a0,a5,0
    2314:	00000097          	auipc	ra,0x0
    2318:	000080e7          	jalr	ra,0(ra) # 2314 <.L280+0x8>
    231c:	00048513          	addi	a0,s1,0
    2320:	00000097          	auipc	ra,0x0
    2324:	000080e7          	jalr	ra,0(ra) # 2320 <.L280+0x14>
    2328:	00090493          	addi	s1,s2,0
    232c:	0080006f          	jal	zero,2334 <.L281>

0000000000002330 <.L286>:
    2330:	00050493          	addi	s1,a0,0

0000000000002334 <.L281>:
    2334:	f2040793          	addi	a5,s0,-224
    2338:	00078513          	addi	a0,a5,0
    233c:	00000317          	auipc	t1,0x0
    2340:	00033303          	ld	t1,0(t1) # 233c <.L281+0x8>
    2344:	000300e7          	jalr	ra,0(t1)
    2348:	f3840793          	addi	a5,s0,-200
    234c:	00078513          	addi	a0,a5,0
    2350:	00000317          	auipc	t1,0x0
    2354:	00033303          	ld	t1,0(t1) # 2350 <.L281+0x1c>
    2358:	000300e7          	jalr	ra,0(t1)
    235c:	0080006f          	jal	zero,2364 <.L282>

0000000000002360 <.L285>:
    2360:	00050493          	addi	s1,a0,0

0000000000002364 <.L282>:
    2364:	f4840793          	addi	a5,s0,-184
    2368:	00078513          	addi	a0,a5,0
    236c:	00000317          	auipc	t1,0x0
    2370:	00033303          	ld	t1,0(t1) # 236c <.L282+0x8>
    2374:	000300e7          	jalr	ra,0(t1)
    2378:	0080006f          	jal	zero,2380 <.L283>

000000000000237c <.L284>:
    237c:	00050493          	addi	s1,a0,0

0000000000002380 <.L283>:
    2380:	ef843783          	ld	a5,-264(s0)
    2384:	00078513          	addi	a0,a5,0
    2388:	00000097          	auipc	ra,0x0
    238c:	000080e7          	jalr	ra,0(ra) # 2388 <.L283+0x8>
    2390:	00048793          	addi	a5,s1,0
    2394:	00078513          	addi	a0,a5,0

0000000000002398 <.LEHB55>:
    2398:	00000097          	auipc	ra,0x0
    239c:	000080e7          	jalr	ra,0(ra) # 2398 <.LEHB55>

00000000000023a0 <.L289>:
    23a0:	11813083          	ld	ra,280(sp)
    23a4:	11013403          	ld	s0,272(sp)
    23a8:	10813483          	ld	s1,264(sp)
    23ac:	10013903          	ld	s2,256(sp)
    23b0:	12010113          	addi	sp,sp,288
    23b4:	00008067          	jalr	zero,0(ra)

00000000000023b8 <dwarf::type_unit::get_type_signature() const>:
    23b8:	fe010113          	addi	sp,sp,-32
    23bc:	00113c23          	sd	ra,24(sp)
    23c0:	00813823          	sd	s0,16(sp)
    23c4:	02010413          	addi	s0,sp,32
    23c8:	fea43423          	sd	a0,-24(s0)
    23cc:	fe843783          	ld	a5,-24(s0)
    23d0:	00878793          	addi	a5,a5,8
    23d4:	00078513          	addi	a0,a5,0
    23d8:	00000317          	auipc	t1,0x0
    23dc:	00033303          	ld	t1,0(t1) # 23d8 <dwarf::type_unit::get_type_signature() const+0x20>
    23e0:	000300e7          	jalr	ra,0(t1)
    23e4:	00050793          	addi	a5,a0,0
    23e8:	0387b783          	ld	a5,56(a5)
    23ec:	00078513          	addi	a0,a5,0
    23f0:	01813083          	ld	ra,24(sp)
    23f4:	01013403          	ld	s0,16(sp)
    23f8:	02010113          	addi	sp,sp,32
    23fc:	00008067          	jalr	zero,0(ra)

0000000000002400 <dwarf::type_unit::type() const>:
    2400:	f6010113          	addi	sp,sp,-160
    2404:	08113c23          	sd	ra,152(sp)
    2408:	08813823          	sd	s0,144(sp)
    240c:	08913423          	sd	s1,136(sp)
    2410:	0a010413          	addi	s0,sp,160
    2414:	f6a43423          	sd	a0,-152(s0)
    2418:	f6843783          	ld	a5,-152(s0)
    241c:	00878793          	addi	a5,a5,8
    2420:	00078513          	addi	a0,a5,0
    2424:	00000317          	auipc	t1,0x0
    2428:	00033303          	ld	t1,0(t1) # 2424 <dwarf::type_unit::type() const+0x24>
    242c:	000300e7          	jalr	ra,0(t1)
    2430:	00050793          	addi	a5,a0,0
    2434:	0b878793          	addi	a5,a5,184
    2438:	00078513          	addi	a0,a5,0
    243c:	00000317          	auipc	t1,0x0
    2440:	00033303          	ld	t1,0(t1) # 243c <dwarf::type_unit::type() const+0x3c>
    2444:	000300e7          	jalr	ra,0(t1)
    2448:	00050793          	addi	a5,a0,0
    244c:	0017c793          	xori	a5,a5,1
    2450:	0ff7f793          	andi	a5,a5,255
    2454:	0e078063          	beq	a5,zero,2534 <.L293>
    2458:	f6843783          	ld	a5,-152(s0)
    245c:	00878793          	addi	a5,a5,8
    2460:	00078513          	addi	a0,a5,0
    2464:	00000317          	auipc	t1,0x0
    2468:	00033303          	ld	t1,0(t1) # 2464 <dwarf::type_unit::type() const+0x64>
    246c:	000300e7          	jalr	ra,0(t1)
    2470:	00050793          	addi	a5,a0,0
    2474:	00078513          	addi	a0,a5,0

0000000000002478 <.LEHB56>:
    2478:	00000097          	auipc	ra,0x0
    247c:	000080e7          	jalr	ra,0(ra) # 2478 <.LEHB56>
    2480:	f6843783          	ld	a5,-152(s0)
    2484:	00878793          	addi	a5,a5,8
    2488:	00078513          	addi	a0,a5,0
    248c:	00000317          	auipc	t1,0x0
    2490:	00033303          	ld	t1,0(t1) # 248c <.LEHB56+0x14>
    2494:	000300e7          	jalr	ra,0(t1)
    2498:	00050793          	addi	a5,a0,0
    249c:	0b878493          	addi	s1,a5,184
    24a0:	f6843703          	ld	a4,-152(s0)
    24a4:	f7040793          	addi	a5,s0,-144
    24a8:	00070593          	addi	a1,a4,0
    24ac:	00078513          	addi	a0,a5,0
    24b0:	00000097          	auipc	ra,0x0
    24b4:	000080e7          	jalr	ra,0(ra) # 24b0 <.LEHB56+0x38>

00000000000024b8 <.LEHE56>:
    24b8:	f7040793          	addi	a5,s0,-144
    24bc:	00078593          	addi	a1,a5,0
    24c0:	00048513          	addi	a0,s1,0
    24c4:	00000317          	auipc	t1,0x0
    24c8:	00033303          	ld	t1,0(t1) # 24c4 <.LEHE56+0xc>

00000000000024cc <.LEHB57>:
    24cc:	000300e7          	jalr	ra,0(t1)

00000000000024d0 <.LEHE57>:
    24d0:	f7040793          	addi	a5,s0,-144
    24d4:	00078513          	addi	a0,a5,0
    24d8:	00000317          	auipc	t1,0x0
    24dc:	00033303          	ld	t1,0(t1) # 24d8 <.LEHE57+0x8>
    24e0:	000300e7          	jalr	ra,0(t1)
    24e4:	f6843783          	ld	a5,-152(s0)
    24e8:	00878793          	addi	a5,a5,8
    24ec:	00078513          	addi	a0,a5,0
    24f0:	00000317          	auipc	t1,0x0
    24f4:	00033303          	ld	t1,0(t1) # 24f0 <.LEHE57+0x20>
    24f8:	000300e7          	jalr	ra,0(t1)
    24fc:	00050793          	addi	a5,a0,0
    2500:	0b878493          	addi	s1,a5,184
    2504:	f6843783          	ld	a5,-152(s0)
    2508:	00878793          	addi	a5,a5,8
    250c:	00078513          	addi	a0,a5,0
    2510:	00000317          	auipc	t1,0x0
    2514:	00033303          	ld	t1,0(t1) # 2510 <.LEHE57+0x40>
    2518:	000300e7          	jalr	ra,0(t1)
    251c:	00050793          	addi	a5,a0,0
    2520:	0407b783          	ld	a5,64(a5)
    2524:	00078593          	addi	a1,a5,0
    2528:	00048513          	addi	a0,s1,0

000000000000252c <.LEHB58>:
    252c:	00000097          	auipc	ra,0x0
    2530:	000080e7          	jalr	ra,0(ra) # 252c <.LEHB58>

0000000000002534 <.L293>:
    2534:	f6843783          	ld	a5,-152(s0)
    2538:	00878793          	addi	a5,a5,8
    253c:	00078513          	addi	a0,a5,0
    2540:	00000317          	auipc	t1,0x0
    2544:	00033303          	ld	t1,0(t1) # 2540 <.L293+0xc>
    2548:	000300e7          	jalr	ra,0(t1)
    254c:	00050793          	addi	a5,a0,0
    2550:	0b878793          	addi	a5,a5,184
    2554:	02c0006f          	jal	zero,2580 <.L297>

0000000000002558 <.L296>:
    2558:	00050493          	addi	s1,a0,0
    255c:	f7040793          	addi	a5,s0,-144
    2560:	00078513          	addi	a0,a5,0
    2564:	00000317          	auipc	t1,0x0
    2568:	00033303          	ld	t1,0(t1) # 2564 <.L296+0xc>
    256c:	000300e7          	jalr	ra,0(t1)
    2570:	00048793          	addi	a5,s1,0
    2574:	00078513          	addi	a0,a5,0
    2578:	00000097          	auipc	ra,0x0
    257c:	000080e7          	jalr	ra,0(ra) # 2578 <.L296+0x20>

0000000000002580 <.L297>:
    2580:	00078513          	addi	a0,a5,0
    2584:	09813083          	ld	ra,152(sp)
    2588:	09013403          	ld	s0,144(sp)
    258c:	08813483          	ld	s1,136(sp)
    2590:	0a010113          	addi	sp,sp,160
    2594:	00008067          	jalr	zero,0(ra)

Disassembly of section .text._ZSt23__is_constant_evaluatedv:

0000000000000000 <std::__is_constant_evaluated()>:
   0:	ff010113          	addi	sp,sp,-16
   4:	00813423          	sd	s0,8(sp)
   8:	01010413          	addi	s0,sp,16
   c:	00000793          	addi	a5,zero,0
  10:	00078513          	addi	a0,a5,0
  14:	00813403          	ld	s0,8(sp)
  18:	01010113          	addi	sp,sp,16
  1c:	00008067          	jalr	zero,0(ra)

Disassembly of section .text._ZnwmPv:

0000000000000000 <operator new(unsigned long, void*)>:
   0:	fe010113          	addi	sp,sp,-32
   4:	00813c23          	sd	s0,24(sp)
   8:	02010413          	addi	s0,sp,32
   c:	fea43423          	sd	a0,-24(s0)
  10:	feb43023          	sd	a1,-32(s0)
  14:	fe043783          	ld	a5,-32(s0)
  18:	00078513          	addi	a0,a5,0
  1c:	01813403          	ld	s0,24(sp)
  20:	02010113          	addi	sp,sp,32
  24:	00008067          	jalr	zero,0(ra)

Disassembly of section .text._ZdlPvS_:

0000000000000000 <operator delete(void*, void*)>:
   0:	fe010113          	addi	sp,sp,-32
   4:	00813c23          	sd	s0,24(sp)
   8:	02010413          	addi	s0,sp,32
   c:	fea43423          	sd	a0,-24(s0)
  10:	feb43023          	sd	a1,-32(s0)
  14:	00000013          	addi	zero,zero,0
  18:	01813403          	ld	s0,24(sp)
  1c:	02010113          	addi	sp,sp,32
  20:	00008067          	jalr	zero,0(ra)

Disassembly of section .text._ZNSt7__cxx119to_stringEi:

0000000000000000 <std::__cxx11::to_string(int)>:
   0:	fc010113          	addi	sp,sp,-64
   4:	02113c23          	sd	ra,56(sp)
   8:	02813823          	sd	s0,48(sp)
   c:	02913423          	sd	s1,40(sp)
  10:	04010413          	addi	s0,sp,64
  14:	fca43423          	sd	a0,-56(s0)
  18:	00058793          	addi	a5,a1,0
  1c:	fcf42223          	sw	a5,-60(s0)
  20:	fc442783          	lw	a5,-60(s0)
  24:	01f7d79b          	srliw	a5,a5,0x1f
  28:	fcf40fa3          	sb	a5,-33(s0)
  2c:	fdf44783          	lbu	a5,-33(s0)
  30:	0ff7f793          	andi	a5,a5,255
  34:	00078a63          	beq	a5,zero,48 <.L7>
  38:	fc442783          	lw	a5,-60(s0)
  3c:	40f007bb          	subw	a5,zero,a5
  40:	0007879b          	addiw	a5,a5,0
  44:	0080006f          	jal	zero,4c <.L8>

0000000000000048 <.L7>:
  48:	fc442783          	lw	a5,-60(s0)

000000000000004c <.L8>:
  4c:	fcf42c23          	sw	a5,-40(s0)
  50:	fd842783          	lw	a5,-40(s0)
  54:	00a00593          	addi	a1,zero,10
  58:	00078513          	addi	a0,a5,0
  5c:	00000317          	auipc	t1,0x0
  60:	00033303          	ld	t1,0(t1) # 5c <.L8+0x10>
  64:	000300e7          	jalr	ra,0(t1)
  68:	00050793          	addi	a5,a0,0
  6c:	fcf42a23          	sw	a5,-44(s0)
  70:	fdf44783          	lbu	a5,-33(s0)
  74:	0007879b          	addiw	a5,a5,0
  78:	fd442703          	lw	a4,-44(s0)
  7c:	00f707bb          	addw	a5,a4,a5
  80:	0007879b          	addiw	a5,a5,0
  84:	02079493          	slli	s1,a5,0x20
  88:	0204d493          	srli	s1,s1,0x20
  8c:	fd040793          	addi	a5,s0,-48
  90:	00078513          	addi	a0,a5,0
  94:	00000097          	auipc	ra,0x0
  98:	000080e7          	jalr	ra,0(ra) # 94 <.L8+0x48>
  9c:	fd040793          	addi	a5,s0,-48
  a0:	00078693          	addi	a3,a5,0
  a4:	02d00613          	addi	a2,zero,45
  a8:	00048593          	addi	a1,s1,0
  ac:	fc843503          	ld	a0,-56(s0)
  b0:	00000097          	auipc	ra,0x0
  b4:	000080e7          	jalr	ra,0(ra) # b0 <.L8+0x64>
  b8:	fd040793          	addi	a5,s0,-48
  bc:	00078513          	addi	a0,a5,0
  c0:	00000097          	auipc	ra,0x0
  c4:	000080e7          	jalr	ra,0(ra) # c0 <.L8+0x74>
  c8:	fdf44783          	lbu	a5,-33(s0)
  cc:	00078593          	addi	a1,a5,0
  d0:	fc843503          	ld	a0,-56(s0)
  d4:	00000097          	auipc	ra,0x0
  d8:	000080e7          	jalr	ra,0(ra) # d4 <.L8+0x88>
  dc:	00050693          	addi	a3,a0,0
  e0:	fd842703          	lw	a4,-40(s0)
  e4:	fd442783          	lw	a5,-44(s0)
  e8:	00070613          	addi	a2,a4,0
  ec:	00078593          	addi	a1,a5,0
  f0:	00068513          	addi	a0,a3,0
  f4:	00000317          	auipc	t1,0x0
  f8:	00033303          	ld	t1,0(t1) # f4 <.L8+0xa8>
  fc:	000300e7          	jalr	ra,0(t1)
 100:	00000013          	addi	zero,zero,0
 104:	fc843503          	ld	a0,-56(s0)
 108:	03813083          	ld	ra,56(sp)
 10c:	03013403          	ld	s0,48(sp)
 110:	02813483          	ld	s1,40(sp)
 114:	04010113          	addi	sp,sp,64
 118:	00008067          	jalr	zero,0(ra)

Disassembly of section .text._ZNKSt4hashImEclEm:

0000000000000000 <std::hash<unsigned long>::operator()(unsigned long) const>:
   0:	fe010113          	addi	sp,sp,-32
   4:	00813c23          	sd	s0,24(sp)
   8:	02010413          	addi	s0,sp,32
   c:	fea43423          	sd	a0,-24(s0)
  10:	feb43023          	sd	a1,-32(s0)
  14:	fe043783          	ld	a5,-32(s0)
  18:	00078513          	addi	a0,a5,0
  1c:	01813403          	ld	s0,24(sp)
  20:	02010113          	addi	sp,sp,32
  24:	00008067          	jalr	zero,0(ra)

Disassembly of section .text._ZNSt15_Rb_tree_headerC2Ev:

0000000000000000 <std::_Rb_tree_header::_Rb_tree_header()>:
   0:	fe010113          	addi	sp,sp,-32
   4:	00113c23          	sd	ra,24(sp)
   8:	00813823          	sd	s0,16(sp)
   c:	02010413          	addi	s0,sp,32
  10:	fea43423          	sd	a0,-24(s0)
  14:	fe843783          	ld	a5,-24(s0)
  18:	0007a023          	sw	zero,0(a5)
  1c:	fe843503          	ld	a0,-24(s0)
  20:	00000317          	auipc	t1,0x0
  24:	00033303          	ld	t1,0(t1) # 20 <std::_Rb_tree_header::_Rb_tree_header()+0x20>
  28:	000300e7          	jalr	ra,0(t1)
  2c:	00000013          	addi	zero,zero,0
  30:	01813083          	ld	ra,24(sp)
  34:	01013403          	ld	s0,16(sp)
  38:	02010113          	addi	sp,sp,32
  3c:	00008067          	jalr	zero,0(ra)

Disassembly of section .text._ZNSt15_Rb_tree_header8_M_resetEv:

0000000000000000 <std::_Rb_tree_header::_M_reset()>:
   0:	fe010113          	addi	sp,sp,-32
   4:	00813c23          	sd	s0,24(sp)
   8:	02010413          	addi	s0,sp,32
   c:	fea43423          	sd	a0,-24(s0)
  10:	fe843783          	ld	a5,-24(s0)
  14:	0007b423          	sd	zero,8(a5)
  18:	fe843703          	ld	a4,-24(s0)
  1c:	fe843783          	ld	a5,-24(s0)
  20:	00e7b823          	sd	a4,16(a5)
  24:	fe843703          	ld	a4,-24(s0)
  28:	fe843783          	ld	a5,-24(s0)
  2c:	00e7bc23          	sd	a4,24(a5)
  30:	fe843783          	ld	a5,-24(s0)
  34:	0207b023          	sd	zero,32(a5)
  38:	00000013          	addi	zero,zero,0
  3c:	01813403          	ld	s0,24(sp)
  40:	02010113          	addi	sp,sp,32
  44:	00008067          	jalr	zero,0(ra)

Disassembly of section .text._ZNKSt9type_info4nameEv:

0000000000000000 <std::type_info::name() const>:
   0:	fe010113          	addi	sp,sp,-32
   4:	00813c23          	sd	s0,24(sp)
   8:	02010413          	addi	s0,sp,32
   c:	fea43423          	sd	a0,-24(s0)
  10:	fe843783          	ld	a5,-24(s0)
  14:	0087b783          	ld	a5,8(a5)
  18:	0007c783          	lbu	a5,0(a5)
  1c:	00078713          	addi	a4,a5,0
  20:	02a00793          	addi	a5,zero,42
  24:	00f71a63          	bne	a4,a5,38 <.L15>
  28:	fe843783          	ld	a5,-24(s0)
  2c:	0087b783          	ld	a5,8(a5)
  30:	00178793          	addi	a5,a5,1
  34:	00c0006f          	jal	zero,40 <.L17>

0000000000000038 <.L15>:
  38:	fe843783          	ld	a5,-24(s0)
  3c:	0087b783          	ld	a5,8(a5)

0000000000000040 <.L17>:
  40:	00078513          	addi	a0,a5,0
  44:	01813403          	ld	s0,24(sp)
  48:	02010113          	addi	sp,sp,32
  4c:	00008067          	jalr	zero,0(ra)

Disassembly of section .text._ZNKSt9type_infoeqERKS_:

0000000000000000 <std::type_info::operator==(std::type_info const&) const>:
   0:	fd010113          	addi	sp,sp,-48
   4:	02113423          	sd	ra,40(sp)
   8:	02813023          	sd	s0,32(sp)
   c:	00913c23          	sd	s1,24(sp)
  10:	03010413          	addi	s0,sp,48
  14:	fca43c23          	sd	a0,-40(s0)
  18:	fcb43823          	sd	a1,-48(s0)
  1c:	00000317          	auipc	t1,0x0
  20:	00033303          	ld	t1,0(t1) # 1c <std::type_info::operator==(std::type_info const&) const+0x1c>
  24:	000300e7          	jalr	ra,0(t1)
  28:	00050793          	addi	a5,a0,0
  2c:	00078e63          	beq	a5,zero,48 <.L19>
  30:	fd843703          	ld	a4,-40(s0)
  34:	fd043783          	ld	a5,-48(s0)
  38:	40f707b3          	sub	a5,a4,a5
  3c:	0017b793          	sltiu	a5,a5,1
  40:	0ff7f793          	andi	a5,a5,255
  44:	07c0006f          	jal	zero,c0 <.L20>

0000000000000048 <.L19>:
  48:	fd843783          	ld	a5,-40(s0)
  4c:	0087b703          	ld	a4,8(a5)
  50:	fd043783          	ld	a5,-48(s0)
  54:	0087b783          	ld	a5,8(a5)
  58:	00f71663          	bne	a4,a5,64 <.L21>
  5c:	00100793          	addi	a5,zero,1
  60:	0600006f          	jal	zero,c0 <.L20>

0000000000000064 <.L21>:
  64:	fd843783          	ld	a5,-40(s0)
  68:	0087b783          	ld	a5,8(a5)
  6c:	0007c783          	lbu	a5,0(a5)
  70:	00078713          	addi	a4,a5,0
  74:	02a00793          	addi	a5,zero,42
  78:	04f70063          	beq	a4,a5,b8 <.L22>
  7c:	fd843783          	ld	a5,-40(s0)
  80:	0087b483          	ld	s1,8(a5)
  84:	fd043503          	ld	a0,-48(s0)
  88:	00000317          	auipc	t1,0x0
  8c:	00033303          	ld	t1,0(t1) # 88 <.L21+0x24>
  90:	000300e7          	jalr	ra,0(t1)
  94:	00050793          	addi	a5,a0,0
  98:	00078593          	addi	a1,a5,0
  9c:	00048513          	addi	a0,s1,0
  a0:	00000097          	auipc	ra,0x0
  a4:	000080e7          	jalr	ra,0(ra) # a0 <.L21+0x3c>
  a8:	00050793          	addi	a5,a0,0
  ac:	00079663          	bne	a5,zero,b8 <.L22>
  b0:	00100793          	addi	a5,zero,1
  b4:	0080006f          	jal	zero,bc <.L24>

00000000000000b8 <.L22>:
  b8:	00000793          	addi	a5,zero,0

00000000000000bc <.L24>:
  bc:	00000013          	addi	zero,zero,0

00000000000000c0 <.L20>:
  c0:	00078513          	addi	a0,a5,0
  c4:	02813083          	ld	ra,40(sp)
  c8:	02013403          	ld	s0,32(sp)
  cc:	01813483          	ld	s1,24(sp)
  d0:	03010113          	addi	sp,sp,48
  d4:	00008067          	jalr	zero,0(ra)

Disassembly of section .text._ZN9__gnu_cxx7__mutexC2Ev:

0000000000000000 <__gnu_cxx::__mutex::__mutex()>:
   0:	fe010113          	addi	sp,sp,-32
   4:	00813c23          	sd	s0,24(sp)
   8:	02010413          	addi	s0,sp,32
   c:	fea43423          	sd	a0,-24(s0)
  10:	fe843783          	ld	a5,-24(s0)
  14:	0007a023          	sw	zero,0(a5)
  18:	fe843783          	ld	a5,-24(s0)
  1c:	0007a223          	sw	zero,4(a5)
  20:	fe843783          	ld	a5,-24(s0)
  24:	0007a423          	sw	zero,8(a5)
  28:	fe843783          	ld	a5,-24(s0)
  2c:	0007a623          	sw	zero,12(a5)
  30:	fe843783          	ld	a5,-24(s0)
  34:	0007a823          	sw	zero,16(a5)
  38:	fe843783          	ld	a5,-24(s0)
  3c:	0007aa23          	sw	zero,20(a5)
  40:	fe843783          	ld	a5,-24(s0)
  44:	0007bc23          	sd	zero,24(a5)
  48:	fe843783          	ld	a5,-24(s0)
  4c:	0207b023          	sd	zero,32(a5)
  50:	00000013          	addi	zero,zero,0
  54:	01813403          	ld	s0,24(sp)
  58:	02010113          	addi	sp,sp,32
  5c:	00008067          	jalr	zero,0(ra)

Disassembly of section .text._ZNSt16_Sp_counted_baseILN9__gnu_cxx12_Lock_policyE1EE10_M_releaseEv:

0000000000000000 <std::_Sp_counted_base<(__gnu_cxx::_Lock_policy)1>::_M_release()>:
   0:	fc010113          	addi	sp,sp,-64
   4:	02113c23          	sd	ra,56(sp)
   8:	02813823          	sd	s0,48(sp)
   c:	04010413          	addi	s0,sp,64
  10:	fca43423          	sd	a0,-56(s0)
  14:	fc843783          	ld	a5,-56(s0)
  18:	03078793          	addi	a5,a5,48
  1c:	fef43423          	sd	a5,-24(s0)
  20:	fff00793          	addi	a5,zero,-1
  24:	fef42223          	sw	a5,-28(s0)
  28:	00000797          	auipc	a5,0x0
  2c:	0007b783          	ld	a5,0(a5) # 28 <std::_Sp_counted_base<(__gnu_cxx::_Lock_policy)1>::_M_release()+0x28>
  30:	0007c783          	lbu	a5,0(a5)
  34:	0007879b          	addiw	a5,a5,0
  38:	00f037b3          	sltu	a5,zero,a5
  3c:	0ff7f793          	andi	a5,a5,255
  40:	04078263          	beq	a5,zero,84 <.L28>
  44:	fe843783          	ld	a5,-24(s0)
  48:	fcf43c23          	sd	a5,-40(s0)
  4c:	fe442783          	lw	a5,-28(s0)
  50:	fcf42a23          	sw	a5,-44(s0)
  54:	fd843783          	ld	a5,-40(s0)
  58:	0007a783          	lw	a5,0(a5)
  5c:	fcf42823          	sw	a5,-48(s0)
  60:	fd843783          	ld	a5,-40(s0)
  64:	0007a783          	lw	a5,0(a5)
  68:	fd442703          	lw	a4,-44(s0)
  6c:	00f707bb          	addw	a5,a4,a5
  70:	0007871b          	addiw	a4,a5,0
  74:	fd843783          	ld	a5,-40(s0)
  78:	00e7a023          	sw	a4,0(a5)
  7c:	fd042783          	lw	a5,-48(s0)
  80:	0200006f          	jal	zero,a0 <.L30>

0000000000000084 <.L28>:
  84:	fe442783          	lw	a5,-28(s0)
  88:	00078593          	addi	a1,a5,0
  8c:	fe843503          	ld	a0,-24(s0)
  90:	00000097          	auipc	ra,0x0
  94:	000080e7          	jalr	ra,0(ra) # 90 <.L28+0xc>
  98:	00050793          	addi	a5,a0,0
  9c:	00000013          	addi	zero,zero,0

00000000000000a0 <.L30>:
  a0:	00078713          	addi	a4,a5,0
  a4:	00100793          	addi	a5,zero,1
  a8:	40f707b3          	sub	a5,a4,a5
  ac:	0017b793          	sltiu	a5,a5,1
  b0:	0ff7f793          	andi	a5,a5,255
  b4:	00078a63          	beq	a5,zero,c8 <.L32>
  b8:	fc843503          	ld	a0,-56(s0)
  bc:	00000317          	auipc	t1,0x0
  c0:	00033303          	ld	t1,0(t1) # bc <.L30+0x1c>
  c4:	000300e7          	jalr	ra,0(t1)

00000000000000c8 <.L32>:
  c8:	00000013          	addi	zero,zero,0
  cc:	03813083          	ld	ra,56(sp)
  d0:	03013403          	ld	s0,48(sp)
  d4:	04010113          	addi	sp,sp,64
  d8:	00008067          	jalr	zero,0(ra)

Disassembly of section .text._ZNSt19_Sp_make_shared_tag5_S_tiEv:

0000000000000000 <std::_Sp_make_shared_tag::_S_ti()>:
   0:	ff010113          	addi	sp,sp,-16
   4:	00813423          	sd	s0,8(sp)
   8:	01010413          	addi	s0,sp,16
   c:	00000797          	auipc	a5,0x0
  10:	0007b783          	ld	a5,0(a5) # c <std::_Sp_make_shared_tag::_S_ti()+0xc>
  14:	00078513          	addi	a0,a5,0
  18:	00813403          	ld	s0,8(sp)
  1c:	01010113          	addi	sp,sp,16
  20:	00008067          	jalr	zero,0(ra)

Disassembly of section .text._ZN5dwarf12format_errorC2ERKNSt7__cxx1112basic_stringIcSt11char_traitsIcESaIcEEE:

0000000000000000 <dwarf::format_error::format_error(std::__cxx11::basic_string<char, std::char_traits<char>, std::allocator<char> > const&)>:
   0:	fe010113          	addi	sp,sp,-32
   4:	00113c23          	sd	ra,24(sp)
   8:	00813823          	sd	s0,16(sp)
   c:	02010413          	addi	s0,sp,32
  10:	fea43423          	sd	a0,-24(s0)
  14:	feb43023          	sd	a1,-32(s0)
  18:	fe843783          	ld	a5,-24(s0)
  1c:	fe043583          	ld	a1,-32(s0)
  20:	00078513          	addi	a0,a5,0
  24:	00000097          	auipc	ra,0x0
  28:	000080e7          	jalr	ra,0(ra) # 24 <dwarf::format_error::format_error(std::__cxx11::basic_string<char, std::char_traits<char>, std::allocator<char> > const&)+0x24>
  2c:	00000797          	auipc	a5,0x0
  30:	0007b783          	ld	a5,0(a5) # 2c <dwarf::format_error::format_error(std::__cxx11::basic_string<char, std::char_traits<char>, std::allocator<char> > const&)+0x2c>
  34:	01078713          	addi	a4,a5,16
  38:	fe843783          	ld	a5,-24(s0)
  3c:	00e7b023          	sd	a4,0(a5)
  40:	00000013          	addi	zero,zero,0
  44:	01813083          	ld	ra,24(sp)
  48:	01013403          	ld	s0,16(sp)
  4c:	02010113          	addi	sp,sp,32
  50:	00008067          	jalr	zero,0(ra)

Disassembly of section .text._ZN5dwarf12format_errorC2EPKc:

0000000000000000 <dwarf::format_error::format_error(char const*)>:
   0:	fe010113          	addi	sp,sp,-32
   4:	00113c23          	sd	ra,24(sp)
   8:	00813823          	sd	s0,16(sp)
   c:	02010413          	addi	s0,sp,32
  10:	fea43423          	sd	a0,-24(s0)
  14:	feb43023          	sd	a1,-32(s0)
  18:	fe843783          	ld	a5,-24(s0)
  1c:	fe043583          	ld	a1,-32(s0)
  20:	00078513          	addi	a0,a5,0
  24:	00000097          	auipc	ra,0x0
  28:	000080e7          	jalr	ra,0(ra) # 24 <dwarf::format_error::format_error(char const*)+0x24>
  2c:	00000797          	auipc	a5,0x0
  30:	0007b783          	ld	a5,0(a5) # 2c <dwarf::format_error::format_error(char const*)+0x2c>
  34:	01078713          	addi	a4,a5,16
  38:	fe843783          	ld	a5,-24(s0)
  3c:	00e7b023          	sd	a4,0(a5)
  40:	00000013          	addi	zero,zero,0
  44:	01813083          	ld	ra,24(sp)
  48:	01013403          	ld	s0,16(sp)
  4c:	02010113          	addi	sp,sp,32
  50:	00008067          	jalr	zero,0(ra)

Disassembly of section .text._ZN5dwarf3dieC2Ev:

0000000000000000 <dwarf::die::die()>:
   0:	fe010113          	addi	sp,sp,-32
   4:	00113c23          	sd	ra,24(sp)
   8:	00813823          	sd	s0,16(sp)
   c:	02010413          	addi	s0,sp,32
  10:	fea43423          	sd	a0,-24(s0)
  14:	fe843783          	ld	a5,-24(s0)
  18:	0007b423          	sd	zero,8(a5)
  1c:	fe843783          	ld	a5,-24(s0)
  20:	0007b823          	sd	zero,16(a5)
  24:	fe843783          	ld	a5,-24(s0)
  28:	02078793          	addi	a5,a5,32
  2c:	00078513          	addi	a0,a5,0
  30:	00000317          	auipc	t1,0x0
  34:	00033303          	ld	t1,0(t1) # 30 <dwarf::die::die()+0x30>
  38:	000300e7          	jalr	ra,0(t1)
  3c:	00000013          	addi	zero,zero,0
  40:	01813083          	ld	ra,24(sp)
  44:	01013403          	ld	s0,16(sp)
  48:	02010113          	addi	sp,sp,32
  4c:	00008067          	jalr	zero,0(ra)

Disassembly of section .text._ZNK5dwarf3die5validEv:

0000000000000000 <dwarf::die::valid() const>:
   0:	fe010113          	addi	sp,sp,-32
   4:	00813c23          	sd	s0,24(sp)
   8:	02010413          	addi	s0,sp,32
   c:	fea43423          	sd	a0,-24(s0)
  10:	fe843783          	ld	a5,-24(s0)
  14:	0107b783          	ld	a5,16(a5)
  18:	00f037b3          	sltu	a5,zero,a5
  1c:	0ff7f793          	andi	a5,a5,255
  20:	00078513          	addi	a0,a5,0
  24:	01813403          	ld	s0,24(sp)
  28:	02010113          	addi	sp,sp,32
  2c:	00008067          	jalr	zero,0(ra)

Disassembly of section .text._ZN5dwarf3dieD2Ev:

0000000000000000 <dwarf::die::~die()>:
   0:	fe010113          	addi	sp,sp,-32
   4:	00113c23          	sd	ra,24(sp)
   8:	00813823          	sd	s0,16(sp)
   c:	02010413          	addi	s0,sp,32
  10:	fea43423          	sd	a0,-24(s0)
  14:	fe843783          	ld	a5,-24(s0)
  18:	02078793          	addi	a5,a5,32
  1c:	00078513          	addi	a0,a5,0
  20:	00000317          	auipc	t1,0x0
  24:	00033303          	ld	t1,0(t1) # 20 <dwarf::die::~die()+0x20>
  28:	000300e7          	jalr	ra,0(t1)
  2c:	00000013          	addi	zero,zero,0
  30:	01813083          	ld	ra,24(sp)
  34:	01013403          	ld	s0,16(sp)
  38:	02010113          	addi	sp,sp,32
  3c:	00008067          	jalr	zero,0(ra)

Disassembly of section .text._ZNSt12__shared_ptrIN5dwarf7sectionELN9__gnu_cxx12_Lock_policyE1EED2Ev:

0000000000000000 <std::__shared_ptr<dwarf::section, (__gnu_cxx::_Lock_policy)1>::~__shared_ptr()>:
   0:	fe010113          	addi	sp,sp,-32
   4:	00113c23          	sd	ra,24(sp)
   8:	00813823          	sd	s0,16(sp)
   c:	02010413          	addi	s0,sp,32
  10:	fea43423          	sd	a0,-24(s0)
  14:	fe843783          	ld	a5,-24(s0)
  18:	00878793          	addi	a5,a5,8
  1c:	00078513          	addi	a0,a5,0
  20:	00000317          	auipc	t1,0x0
  24:	00033303          	ld	t1,0(t1) # 20 <std::__shared_ptr<dwarf::section, (__gnu_cxx::_Lock_policy)1>::~__shared_ptr()+0x20>
  28:	000300e7          	jalr	ra,0(t1)
  2c:	00000013          	addi	zero,zero,0
  30:	01813083          	ld	ra,24(sp)
  34:	01013403          	ld	s0,16(sp)
  38:	02010113          	addi	sp,sp,32
  3c:	00008067          	jalr	zero,0(ra)

Disassembly of section .text._ZNSt10shared_ptrIN5dwarf7sectionEED2Ev:

0000000000000000 <std::shared_ptr<dwarf::section>::~shared_ptr()>:
   0:	fe010113          	addi	sp,sp,-32
   4:	00113c23          	sd	ra,24(sp)
   8:	00813823          	sd	s0,16(sp)
   c:	02010413          	addi	s0,sp,32
  10:	fea43423          	sd	a0,-24(s0)
  14:	fe843783          	ld	a5,-24(s0)
  18:	00078513          	addi	a0,a5,0
  1c:	00000317          	auipc	t1,0x0
  20:	00033303          	ld	t1,0(t1) # 1c <std::shared_ptr<dwarf::section>::~shared_ptr()+0x1c>
  24:	000300e7          	jalr	ra,0(t1)
  28:	00000013          	addi	zero,zero,0
  2c:	01813083          	ld	ra,24(sp)
  30:	01013403          	ld	s0,16(sp)
  34:	02010113          	addi	sp,sp,32
  38:	00008067          	jalr	zero,0(ra)

Disassembly of section .text._ZNK5dwarf10line_table5validEv:

0000000000000000 <dwarf::line_table::valid() const>:
   0:	fe010113          	addi	sp,sp,-32
   4:	00113c23          	sd	ra,24(sp)
   8:	00813823          	sd	s0,16(sp)
   c:	02010413          	addi	s0,sp,32
  10:	fea43423          	sd	a0,-24(s0)
  14:	fe843783          	ld	a5,-24(s0)
  18:	00078513          	addi	a0,a5,0
  1c:	00000317          	auipc	t1,0x0
  20:	00033303          	ld	t1,0(t1) # 1c <dwarf::line_table::valid() const+0x1c>
  24:	000300e7          	jalr	ra,0(t1)
  28:	00050793          	addi	a5,a0,0
  2c:	00078513          	addi	a0,a5,0
  30:	01813083          	ld	ra,24(sp)
  34:	01013403          	ld	s0,16(sp)
  38:	02010113          	addi	sp,sp,32
  3c:	00008067          	jalr	zero,0(ra)

Disassembly of section .text._ZNSt8__detail15_Hash_node_baseC2Ev:

0000000000000000 <std::__detail::_Hash_node_base::_Hash_node_base()>:
   0:	fe010113          	addi	sp,sp,-32
   4:	00813c23          	sd	s0,24(sp)
   8:	02010413          	addi	s0,sp,32
   c:	fea43423          	sd	a0,-24(s0)
  10:	fe843783          	ld	a5,-24(s0)
  14:	0007b023          	sd	zero,0(a5)
  18:	00000013          	addi	zero,zero,0
  1c:	01813403          	ld	s0,24(sp)
  20:	02010113          	addi	sp,sp,32
  24:	00008067          	jalr	zero,0(ra)

Disassembly of section .text._ZNKSt8__detail18_Mod_range_hashingclEmm:

0000000000000000 <std::__detail::_Mod_range_hashing::operator()(unsigned long, unsigned long) const>:
   0:	fd010113          	addi	sp,sp,-48
   4:	02813423          	sd	s0,40(sp)
   8:	03010413          	addi	s0,sp,48
   c:	fea43423          	sd	a0,-24(s0)
  10:	feb43023          	sd	a1,-32(s0)
  14:	fcc43c23          	sd	a2,-40(s0)
  18:	fe043703          	ld	a4,-32(s0)
  1c:	fd843783          	ld	a5,-40(s0)
  20:	02f777b3          	remu	a5,a4,a5
  24:	00078513          	addi	a0,a5,0
  28:	02813403          	ld	s0,40(sp)
  2c:	03010113          	addi	sp,sp,48
  30:	00008067          	jalr	zero,0(ra)

Disassembly of section .text._ZNSt8__detail20_Prime_rehash_policyC2Ef:

0000000000000000 <std::__detail::_Prime_rehash_policy::_Prime_rehash_policy(float)>:
   0:	fe010113          	addi	sp,sp,-32
   4:	00813c23          	sd	s0,24(sp)
   8:	02010413          	addi	s0,sp,32
   c:	fea43423          	sd	a0,-24(s0)
  10:	fea42227          	fsw	fa0,-28(s0)
  14:	fe843783          	ld	a5,-24(s0)
  18:	fe442787          	flw	fa5,-28(s0)
  1c:	00f7a027          	fsw	fa5,0(a5)
  20:	fe843783          	ld	a5,-24(s0)
  24:	0007b423          	sd	zero,8(a5)
  28:	00000013          	addi	zero,zero,0
  2c:	01813403          	ld	s0,24(sp)
  30:	02010113          	addi	sp,sp,32
  34:	00008067          	jalr	zero,0(ra)

Disassembly of section .text._ZNKSt8__detail20_Prime_rehash_policy8_M_stateEv:

0000000000000000 <std::__detail::_Prime_rehash_policy::_M_state() const>:
   0:	fe010113          	addi	sp,sp,-32
   4:	00813c23          	sd	s0,24(sp)
   8:	02010413          	addi	s0,sp,32
   c:	fea43423          	sd	a0,-24(s0)
  10:	fe843783          	ld	a5,-24(s0)
  14:	0087b783          	ld	a5,8(a5)
  18:	00078513          	addi	a0,a5,0
  1c:	01813403          	ld	s0,24(sp)
  20:	02010113          	addi	sp,sp,32
  24:	00008067          	jalr	zero,0(ra)

Disassembly of section .text._ZNSt8__detail20_Prime_rehash_policy8_M_resetEm:

0000000000000000 <std::__detail::_Prime_rehash_policy::_M_reset(unsigned long)>:
   0:	fe010113          	addi	sp,sp,-32
   4:	00813c23          	sd	s0,24(sp)
   8:	02010413          	addi	s0,sp,32
   c:	fea43423          	sd	a0,-24(s0)
  10:	feb43023          	sd	a1,-32(s0)
  14:	fe843783          	ld	a5,-24(s0)
  18:	fe043703          	ld	a4,-32(s0)
  1c:	00e7b423          	sd	a4,8(a5)
  20:	00000013          	addi	zero,zero,0
  24:	01813403          	ld	s0,24(sp)
  28:	02010113          	addi	sp,sp,32
  2c:	00008067          	jalr	zero,0(ra)

Disassembly of section .text._ZN5dwarf7sectionC2ENS_12section_typeEPKvmNS_10byte_orderENS_6formatEj:

0000000000000000 <dwarf::section::section(dwarf::section_type, void const*, unsigned long, dwarf::byte_order, dwarf::format, unsigned int)>:
   0:	fc010113          	addi	sp,sp,-64
   4:	02813c23          	sd	s0,56(sp)
   8:	04010413          	addi	s0,sp,64
   c:	fea43423          	sd	a0,-24(s0)
  10:	fcc43c23          	sd	a2,-40(s0)
  14:	fcd43823          	sd	a3,-48(s0)
  18:	00070613          	addi	a2,a4,0
  1c:	00078693          	addi	a3,a5,0
  20:	00080713          	addi	a4,a6,0
  24:	00058793          	addi	a5,a1,0
  28:	fef42223          	sw	a5,-28(s0)
  2c:	00060793          	addi	a5,a2,0
  30:	fef42023          	sw	a5,-32(s0)
  34:	00068793          	addi	a5,a3,0
  38:	fcf42623          	sw	a5,-52(s0)
  3c:	00070793          	addi	a5,a4,0
  40:	fcf42423          	sw	a5,-56(s0)
  44:	fe843783          	ld	a5,-24(s0)
  48:	fe442703          	lw	a4,-28(s0)
  4c:	00e7a023          	sw	a4,0(a5)
  50:	fe843783          	ld	a5,-24(s0)
  54:	fd843703          	ld	a4,-40(s0)
  58:	00e7b423          	sd	a4,8(a5)
  5c:	fd843703          	ld	a4,-40(s0)
  60:	fd043783          	ld	a5,-48(s0)
  64:	00f70733          	add	a4,a4,a5
  68:	fe843783          	ld	a5,-24(s0)
  6c:	00e7b823          	sd	a4,16(a5)
  70:	fe843783          	ld	a5,-24(s0)
  74:	fcc42703          	lw	a4,-52(s0)
  78:	00e7ac23          	sw	a4,24(a5)
  7c:	fe843783          	ld	a5,-24(s0)
  80:	fe042703          	lw	a4,-32(s0)
  84:	00e7ae23          	sw	a4,28(a5)
  88:	fe843783          	ld	a5,-24(s0)
  8c:	fc842703          	lw	a4,-56(s0)
  90:	02e7a023          	sw	a4,32(a5)
  94:	00000013          	addi	zero,zero,0
  98:	03813403          	ld	s0,56(sp)
  9c:	04010113          	addi	sp,sp,64
  a0:	00008067          	jalr	zero,0(ra)

Disassembly of section .text._ZNSt12__shared_ptrIN5dwarf7sectionELN9__gnu_cxx12_Lock_policyE1EEC2ERKS4_:

0000000000000000 <std::__shared_ptr<dwarf::section, (__gnu_cxx::_Lock_policy)1>::__shared_ptr(std::__shared_ptr<dwarf::section, (__gnu_cxx::_Lock_policy)1> const&)>:
   0:	fe010113          	addi	sp,sp,-32
   4:	00113c23          	sd	ra,24(sp)
   8:	00813823          	sd	s0,16(sp)
   c:	02010413          	addi	s0,sp,32
  10:	fea43423          	sd	a0,-24(s0)
  14:	feb43023          	sd	a1,-32(s0)
  18:	fe043783          	ld	a5,-32(s0)
  1c:	0007b703          	ld	a4,0(a5)
  20:	fe843783          	ld	a5,-24(s0)
  24:	00e7b023          	sd	a4,0(a5)
  28:	fe843783          	ld	a5,-24(s0)
  2c:	00878713          	addi	a4,a5,8
  30:	fe043783          	ld	a5,-32(s0)
  34:	00878793          	addi	a5,a5,8
  38:	00078593          	addi	a1,a5,0
  3c:	00070513          	addi	a0,a4,0
  40:	00000317          	auipc	t1,0x0
  44:	00033303          	ld	t1,0(t1) # 40 <std::__shared_ptr<dwarf::section, (__gnu_cxx::_Lock_policy)1>::__shared_ptr(std::__shared_ptr<dwarf::section, (__gnu_cxx::_Lock_policy)1> const&)+0x40>
  48:	000300e7          	jalr	ra,0(t1)
  4c:	00000013          	addi	zero,zero,0
  50:	01813083          	ld	ra,24(sp)
  54:	01013403          	ld	s0,16(sp)
  58:	02010113          	addi	sp,sp,32
  5c:	00008067          	jalr	zero,0(ra)

Disassembly of section .text._ZNSt10shared_ptrIN5dwarf7sectionEEC2ERKS2_:

0000000000000000 <std::shared_ptr<dwarf::section>::shared_ptr(std::shared_ptr<dwarf::section> const&)>:
   0:	fe010113          	addi	sp,sp,-32
   4:	00113c23          	sd	ra,24(sp)
   8:	00813823          	sd	s0,16(sp)
   c:	02010413          	addi	s0,sp,32
  10:	fea43423          	sd	a0,-24(s0)
  14:	feb43023          	sd	a1,-32(s0)
  18:	fe843783          	ld	a5,-24(s0)
  1c:	fe043703          	ld	a4,-32(s0)
  20:	00070593          	addi	a1,a4,0
  24:	00078513          	addi	a0,a5,0
  28:	00000317          	auipc	t1,0x0
  2c:	00033303          	ld	t1,0(t1) # 28 <std::shared_ptr<dwarf::section>::shared_ptr(std::shared_ptr<dwarf::section> const&)+0x28>
  30:	000300e7          	jalr	ra,0(t1)
  34:	00000013          	addi	zero,zero,0
  38:	01813083          	ld	ra,24(sp)
  3c:	01013403          	ld	s0,16(sp)
  40:	02010113          	addi	sp,sp,32
  44:	00008067          	jalr	zero,0(ra)

Disassembly of section .text._ZN5dwarf6cursorC2ESt10shared_ptrINS_7sectionEEm:

0000000000000000 <dwarf::cursor::cursor(std::shared_ptr<dwarf::section>, unsigned long)>:
   0:	fd010113          	addi	sp,sp,-48
   4:	02113423          	sd	ra,40(sp)
   8:	02813023          	sd	s0,32(sp)
   c:	03010413          	addi	s0,sp,48
  10:	fea43423          	sd	a0,-24(s0)
  14:	feb43023          	sd	a1,-32(s0)
  18:	fcc43c23          	sd	a2,-40(s0)
  1c:	fe843783          	ld	a5,-24(s0)
  20:	fe043583          	ld	a1,-32(s0)
  24:	00078513          	addi	a0,a5,0
  28:	00000317          	auipc	t1,0x0
  2c:	00033303          	ld	t1,0(t1) # 28 <dwarf::cursor::cursor(std::shared_ptr<dwarf::section>, unsigned long)+0x28>
  30:	000300e7          	jalr	ra,0(t1)
  34:	fe043503          	ld	a0,-32(s0)
  38:	00000317          	auipc	t1,0x0
  3c:	00033303          	ld	t1,0(t1) # 38 <dwarf::cursor::cursor(std::shared_ptr<dwarf::section>, unsigned long)+0x38>
  40:	000300e7          	jalr	ra,0(t1)
  44:	00050793          	addi	a5,a0,0
  48:	0087b703          	ld	a4,8(a5)
  4c:	fd843783          	ld	a5,-40(s0)
  50:	00f70733          	add	a4,a4,a5
  54:	fe843783          	ld	a5,-24(s0)
  58:	00e7b823          	sd	a4,16(a5)
  5c:	00000013          	addi	zero,zero,0
  60:	02813083          	ld	ra,40(sp)
  64:	02013403          	ld	s0,32(sp)
  68:	03010113          	addi	sp,sp,48
  6c:	00008067          	jalr	zero,0(ra)

Disassembly of section .text._ZN5dwarf6cursor6ensureEm:

0000000000000000 <dwarf::cursor::ensure(unsigned long)>:
   0:	fd010113          	addi	sp,sp,-48
   4:	02113423          	sd	ra,40(sp)
   8:	02813023          	sd	s0,32(sp)
   c:	00913c23          	sd	s1,24(sp)
  10:	03010413          	addi	s0,sp,48
  14:	fca43c23          	sd	a0,-40(s0)
  18:	fcb43823          	sd	a1,-48(s0)
  1c:	fd843783          	ld	a5,-40(s0)
  20:	00078513          	addi	a0,a5,0
  24:	00000317          	auipc	t1,0x0
  28:	00033303          	ld	t1,0(t1) # 24 <dwarf::cursor::ensure(unsigned long)+0x24>
  2c:	000300e7          	jalr	ra,0(t1)
  30:	00050793          	addi	a5,a0,0
  34:	0107b703          	ld	a4,16(a5)
  38:	fd843783          	ld	a5,-40(s0)
  3c:	0107b783          	ld	a5,16(a5)
  40:	40f707b3          	sub	a5,a4,a5
  44:	00078713          	addi	a4,a5,0
  48:	fd043783          	ld	a5,-48(s0)
  4c:	02f76663          	bltu	a4,a5,78 <.L57>
  50:	fd843783          	ld	a5,-40(s0)
  54:	0107b483          	ld	s1,16(a5)
  58:	fd843783          	ld	a5,-40(s0)
  5c:	00078513          	addi	a0,a5,0
  60:	00000317          	auipc	t1,0x0
  64:	00033303          	ld	t1,0(t1) # 60 <dwarf::cursor::ensure(unsigned long)+0x60>
  68:	000300e7          	jalr	ra,0(t1)
  6c:	00050793          	addi	a5,a0,0
  70:	0107b783          	ld	a5,16(a5)
  74:	00f4e663          	bltu	s1,a5,80 <.L58>

0000000000000078 <.L57>:
  78:	00100793          	addi	a5,zero,1
  7c:	0080006f          	jal	zero,84 <.L59>

0000000000000080 <.L58>:
  80:	00000793          	addi	a5,zero,0

0000000000000084 <.L59>:
  84:	00078863          	beq	a5,zero,94 <.L61>
  88:	fd843503          	ld	a0,-40(s0)
  8c:	00000097          	auipc	ra,0x0
  90:	000080e7          	jalr	ra,0(ra) # 8c <.L59+0x8>

0000000000000094 <.L61>:
  94:	00000013          	addi	zero,zero,0
  98:	02813083          	ld	ra,40(sp)
  9c:	02013403          	ld	s0,32(sp)
  a0:	01813483          	ld	s1,24(sp)
  a4:	03010113          	addi	sp,sp,48
  a8:	00008067          	jalr	zero,0(ra)

Disassembly of section .text._ZN5dwarf6cursorD2Ev:

0000000000000000 <dwarf::cursor::~cursor()>:
   0:	fe010113          	addi	sp,sp,-32
   4:	00113c23          	sd	ra,24(sp)
   8:	00813823          	sd	s0,16(sp)
   c:	02010413          	addi	s0,sp,32
  10:	fea43423          	sd	a0,-24(s0)
  14:	fe843783          	ld	a5,-24(s0)
  18:	00078513          	addi	a0,a5,0
  1c:	00000317          	auipc	t1,0x0
  20:	00033303          	ld	t1,0(t1) # 1c <dwarf::cursor::~cursor()+0x1c>
  24:	000300e7          	jalr	ra,0(t1)
  28:	00000013          	addi	zero,zero,0
  2c:	01813083          	ld	ra,24(sp)
  30:	01013403          	ld	s0,16(sp)
  34:	02010113          	addi	sp,sp,32
  38:	00008067          	jalr	zero,0(ra)

Disassembly of section .text._ZNK5dwarf6cursor3endEv:

0000000000000000 <dwarf::cursor::end() const>:
   0:	fd010113          	addi	sp,sp,-48
   4:	02113423          	sd	ra,40(sp)
   8:	02813023          	sd	s0,32(sp)
   c:	00913c23          	sd	s1,24(sp)
  10:	03010413          	addi	s0,sp,48
  14:	fca43c23          	sd	a0,-40(s0)
  18:	fd843783          	ld	a5,-40(s0)
  1c:	0107b483          	ld	s1,16(a5)
  20:	fd843783          	ld	a5,-40(s0)
  24:	00078513          	addi	a0,a5,0
  28:	00000317          	auipc	t1,0x0
  2c:	00033303          	ld	t1,0(t1) # 28 <dwarf::cursor::end() const+0x28>
  30:	000300e7          	jalr	ra,0(t1)
  34:	00050793          	addi	a5,a0,0
  38:	0107b783          	ld	a5,16(a5)
  3c:	00f4b7b3          	sltu	a5,s1,a5
  40:	0017c793          	xori	a5,a5,1
  44:	0ff7f793          	andi	a5,a5,255
  48:	00078513          	addi	a0,a5,0
  4c:	02813083          	ld	ra,40(sp)
  50:	02013403          	ld	s0,32(sp)
  54:	01813483          	ld	s1,24(sp)
  58:	03010113          	addi	sp,sp,48
  5c:	00008067          	jalr	zero,0(ra)

Disassembly of section .text._ZNK5dwarf6cursor18get_section_offsetEv:

0000000000000000 <dwarf::cursor::get_section_offset() const>:
   0:	fd010113          	addi	sp,sp,-48
   4:	02113423          	sd	ra,40(sp)
   8:	02813023          	sd	s0,32(sp)
   c:	00913c23          	sd	s1,24(sp)
  10:	03010413          	addi	s0,sp,48
  14:	fca43c23          	sd	a0,-40(s0)
  18:	fd843783          	ld	a5,-40(s0)
  1c:	0107b483          	ld	s1,16(a5)
  20:	fd843783          	ld	a5,-40(s0)
  24:	00078513          	addi	a0,a5,0
  28:	00000317          	auipc	t1,0x0
  2c:	00033303          	ld	t1,0(t1) # 28 <dwarf::cursor::get_section_offset() const+0x28>
  30:	000300e7          	jalr	ra,0(t1)
  34:	00050793          	addi	a5,a0,0
  38:	0087b783          	ld	a5,8(a5)
  3c:	40f487b3          	sub	a5,s1,a5
  40:	00078513          	addi	a0,a5,0
  44:	02813083          	ld	ra,40(sp)
  48:	02013403          	ld	s0,32(sp)
  4c:	01813483          	ld	s1,24(sp)
  50:	03010113          	addi	sp,sp,48
  54:	00008067          	jalr	zero,0(ra)

Disassembly of section .text._ZNSt12_Vector_baseIN5dwarf14attribute_specESaIS1_EE12_Vector_implD2Ev:

0000000000000000 <std::_Vector_base<dwarf::attribute_spec, std::allocator<dwarf::attribute_spec> >::_Vector_impl::~_Vector_impl()>:
   0:	fe010113          	addi	sp,sp,-32
   4:	00113c23          	sd	ra,24(sp)
   8:	00813823          	sd	s0,16(sp)
   c:	02010413          	addi	s0,sp,32
  10:	fea43423          	sd	a0,-24(s0)
  14:	fe843503          	ld	a0,-24(s0)
  18:	00000317          	auipc	t1,0x0
  1c:	00033303          	ld	t1,0(t1) # 18 <std::_Vector_base<dwarf::attribute_spec, std::allocator<dwarf::attribute_spec> >::_Vector_impl::~_Vector_impl()+0x18>
  20:	000300e7          	jalr	ra,0(t1)
  24:	00000013          	addi	zero,zero,0
  28:	01813083          	ld	ra,24(sp)
  2c:	01013403          	ld	s0,16(sp)
  30:	02010113          	addi	sp,sp,32
  34:	00008067          	jalr	zero,0(ra)

Disassembly of section .text._ZNSt12_Vector_baseIN5dwarf14attribute_specESaIS1_EEC2Ev:

0000000000000000 <std::_Vector_base<dwarf::attribute_spec, std::allocator<dwarf::attribute_spec> >::_Vector_base()>:
   0:	fe010113          	addi	sp,sp,-32
   4:	00113c23          	sd	ra,24(sp)
   8:	00813823          	sd	s0,16(sp)
   c:	02010413          	addi	s0,sp,32
  10:	fea43423          	sd	a0,-24(s0)
  14:	fe843783          	ld	a5,-24(s0)
  18:	00078513          	addi	a0,a5,0
  1c:	00000317          	auipc	t1,0x0
  20:	00033303          	ld	t1,0(t1) # 1c <std::_Vector_base<dwarf::attribute_spec, std::allocator<dwarf::attribute_spec> >::_Vector_base()+0x1c>
  24:	000300e7          	jalr	ra,0(t1)
  28:	00000013          	addi	zero,zero,0
  2c:	01813083          	ld	ra,24(sp)
  30:	01013403          	ld	s0,16(sp)
  34:	02010113          	addi	sp,sp,32
  38:	00008067          	jalr	zero,0(ra)

Disassembly of section .text._ZNSt6vectorIN5dwarf14attribute_specESaIS1_EEC2Ev:

0000000000000000 <std::vector<dwarf::attribute_spec, std::allocator<dwarf::attribute_spec> >::vector()>:
   0:	fe010113          	addi	sp,sp,-32
   4:	00113c23          	sd	ra,24(sp)
   8:	00813823          	sd	s0,16(sp)
   c:	02010413          	addi	s0,sp,32
  10:	fea43423          	sd	a0,-24(s0)
  14:	fe843783          	ld	a5,-24(s0)
  18:	00078513          	addi	a0,a5,0
  1c:	00000317          	auipc	t1,0x0
  20:	00033303          	ld	t1,0(t1) # 1c <std::vector<dwarf::attribute_spec, std::allocator<dwarf::attribute_spec> >::vector()+0x1c>
  24:	000300e7          	jalr	ra,0(t1)
  28:	00000013          	addi	zero,zero,0
  2c:	01813083          	ld	ra,24(sp)
  30:	01013403          	ld	s0,16(sp)
  34:	02010113          	addi	sp,sp,32
  38:	00008067          	jalr	zero,0(ra)

Disassembly of section .text._ZN5dwarf12abbrev_entryC2Ev:

0000000000000000 <dwarf::abbrev_entry::abbrev_entry()>:
   0:	fe010113          	addi	sp,sp,-32
   4:	00113c23          	sd	ra,24(sp)
   8:	00813823          	sd	s0,16(sp)
   c:	02010413          	addi	s0,sp,32
  10:	fea43423          	sd	a0,-24(s0)
  14:	fe843783          	ld	a5,-24(s0)
  18:	0007b023          	sd	zero,0(a5)
  1c:	fe843783          	ld	a5,-24(s0)
  20:	01078793          	addi	a5,a5,16
  24:	00078513          	addi	a0,a5,0
  28:	00000317          	auipc	t1,0x0
  2c:	00033303          	ld	t1,0(t1) # 28 <dwarf::abbrev_entry::abbrev_entry()+0x28>
  30:	000300e7          	jalr	ra,0(t1)
  34:	00000013          	addi	zero,zero,0
  38:	01813083          	ld	ra,24(sp)
  3c:	01013403          	ld	s0,16(sp)
  40:	02010113          	addi	sp,sp,32
  44:	00008067          	jalr	zero,0(ra)

Disassembly of section .text._ZNSt12__shared_ptrIN5dwarf6loaderELN9__gnu_cxx12_Lock_policyE1EEC2ERKS4_:

0000000000000000 <std::__shared_ptr<dwarf::loader, (__gnu_cxx::_Lock_policy)1>::__shared_ptr(std::__shared_ptr<dwarf::loader, (__gnu_cxx::_Lock_policy)1> const&)>:
   0:	fe010113          	addi	sp,sp,-32
   4:	00113c23          	sd	ra,24(sp)
   8:	00813823          	sd	s0,16(sp)
   c:	02010413          	addi	s0,sp,32
  10:	fea43423          	sd	a0,-24(s0)
  14:	feb43023          	sd	a1,-32(s0)
  18:	fe043783          	ld	a5,-32(s0)
  1c:	0007b703          	ld	a4,0(a5)
  20:	fe843783          	ld	a5,-24(s0)
  24:	00e7b023          	sd	a4,0(a5)
  28:	fe843783          	ld	a5,-24(s0)
  2c:	00878713          	addi	a4,a5,8
  30:	fe043783          	ld	a5,-32(s0)
  34:	00878793          	addi	a5,a5,8
  38:	00078593          	addi	a1,a5,0
  3c:	00070513          	addi	a0,a4,0
  40:	00000317          	auipc	t1,0x0
  44:	00033303          	ld	t1,0(t1) # 40 <std::__shared_ptr<dwarf::loader, (__gnu_cxx::_Lock_policy)1>::__shared_ptr(std::__shared_ptr<dwarf::loader, (__gnu_cxx::_Lock_policy)1> const&)+0x40>
  48:	000300e7          	jalr	ra,0(t1)
  4c:	00000013          	addi	zero,zero,0
  50:	01813083          	ld	ra,24(sp)
  54:	01013403          	ld	s0,16(sp)
  58:	02010113          	addi	sp,sp,32
  5c:	00008067          	jalr	zero,0(ra)

Disassembly of section .text._ZNSt12__shared_ptrIN5dwarf6loaderELN9__gnu_cxx12_Lock_policyE1EED2Ev:

0000000000000000 <std::__shared_ptr<dwarf::loader, (__gnu_cxx::_Lock_policy)1>::~__shared_ptr()>:
   0:	fe010113          	addi	sp,sp,-32
   4:	00113c23          	sd	ra,24(sp)
   8:	00813823          	sd	s0,16(sp)
   c:	02010413          	addi	s0,sp,32
  10:	fea43423          	sd	a0,-24(s0)
  14:	fe843783          	ld	a5,-24(s0)
  18:	00878793          	addi	a5,a5,8
  1c:	00078513          	addi	a0,a5,0
  20:	00000317          	auipc	t1,0x0
  24:	00033303          	ld	t1,0(t1) # 20 <std::__shared_ptr<dwarf::loader, (__gnu_cxx::_Lock_policy)1>::~__shared_ptr()+0x20>
  28:	000300e7          	jalr	ra,0(t1)
  2c:	00000013          	addi	zero,zero,0
  30:	01813083          	ld	ra,24(sp)
  34:	01013403          	ld	s0,16(sp)
  38:	02010113          	addi	sp,sp,32
  3c:	00008067          	jalr	zero,0(ra)

Disassembly of section .text._ZNSt10shared_ptrIN5dwarf6loaderEEC2ERKS2_:

0000000000000000 <std::shared_ptr<dwarf::loader>::shared_ptr(std::shared_ptr<dwarf::loader> const&)>:
   0:	fe010113          	addi	sp,sp,-32
   4:	00113c23          	sd	ra,24(sp)
   8:	00813823          	sd	s0,16(sp)
   c:	02010413          	addi	s0,sp,32
  10:	fea43423          	sd	a0,-24(s0)
  14:	feb43023          	sd	a1,-32(s0)
  18:	fe843783          	ld	a5,-24(s0)
  1c:	fe043703          	ld	a4,-32(s0)
  20:	00070593          	addi	a1,a4,0
  24:	00078513          	addi	a0,a5,0
  28:	00000317          	auipc	t1,0x0
  2c:	00033303          	ld	t1,0(t1) # 28 <std::shared_ptr<dwarf::loader>::shared_ptr(std::shared_ptr<dwarf::loader> const&)+0x28>
  30:	000300e7          	jalr	ra,0(t1)
  34:	00000013          	addi	zero,zero,0
  38:	01813083          	ld	ra,24(sp)
  3c:	01013403          	ld	s0,16(sp)
  40:	02010113          	addi	sp,sp,32
  44:	00008067          	jalr	zero,0(ra)

Disassembly of section .text._ZNSt10shared_ptrIN5dwarf6loaderEED2Ev:

0000000000000000 <std::shared_ptr<dwarf::loader>::~shared_ptr()>:
   0:	fe010113          	addi	sp,sp,-32
   4:	00113c23          	sd	ra,24(sp)
   8:	00813823          	sd	s0,16(sp)
   c:	02010413          	addi	s0,sp,32
  10:	fea43423          	sd	a0,-24(s0)
  14:	fe843783          	ld	a5,-24(s0)
  18:	00078513          	addi	a0,a5,0
  1c:	00000317          	auipc	t1,0x0
  20:	00033303          	ld	t1,0(t1) # 1c <std::shared_ptr<dwarf::loader>::~shared_ptr()+0x1c>
  24:	000300e7          	jalr	ra,0(t1)
  28:	00000013          	addi	zero,zero,0
  2c:	01813083          	ld	ra,24(sp)
  30:	01013403          	ld	s0,16(sp)
  34:	02010113          	addi	sp,sp,32
  38:	00008067          	jalr	zero,0(ra)

Disassembly of section .text._ZNSt12_Vector_baseIN5dwarf16compilation_unitESaIS1_EE12_Vector_implD2Ev:

0000000000000000 <std::_Vector_base<dwarf::compilation_unit, std::allocator<dwarf::compilation_unit> >::_Vector_impl::~_Vector_impl()>:
   0:	fe010113          	addi	sp,sp,-32
   4:	00113c23          	sd	ra,24(sp)
   8:	00813823          	sd	s0,16(sp)
   c:	02010413          	addi	s0,sp,32
  10:	fea43423          	sd	a0,-24(s0)
  14:	fe843503          	ld	a0,-24(s0)
  18:	00000317          	auipc	t1,0x0
  1c:	00033303          	ld	t1,0(t1) # 18 <std::_Vector_base<dwarf::compilation_unit, std::allocator<dwarf::compilation_unit> >::_Vector_impl::~_Vector_impl()+0x18>
  20:	000300e7          	jalr	ra,0(t1)
  24:	00000013          	addi	zero,zero,0
  28:	01813083          	ld	ra,24(sp)
  2c:	01013403          	ld	s0,16(sp)
  30:	02010113          	addi	sp,sp,32
  34:	00008067          	jalr	zero,0(ra)

Disassembly of section .text._ZNSt12_Vector_baseIN5dwarf16compilation_unitESaIS1_EEC2Ev:

0000000000000000 <std::_Vector_base<dwarf::compilation_unit, std::allocator<dwarf::compilation_unit> >::_Vector_base()>:
   0:	fe010113          	addi	sp,sp,-32
   4:	00113c23          	sd	ra,24(sp)
   8:	00813823          	sd	s0,16(sp)
   c:	02010413          	addi	s0,sp,32
  10:	fea43423          	sd	a0,-24(s0)
  14:	fe843783          	ld	a5,-24(s0)
  18:	00078513          	addi	a0,a5,0
  1c:	00000317          	auipc	t1,0x0
  20:	00033303          	ld	t1,0(t1) # 1c <std::_Vector_base<dwarf::compilation_unit, std::allocator<dwarf::compilation_unit> >::_Vector_base()+0x1c>
  24:	000300e7          	jalr	ra,0(t1)
  28:	00000013          	addi	zero,zero,0
  2c:	01813083          	ld	ra,24(sp)
  30:	01013403          	ld	s0,16(sp)
  34:	02010113          	addi	sp,sp,32
  38:	00008067          	jalr	zero,0(ra)

Disassembly of section .text._ZNSt6vectorIN5dwarf16compilation_unitESaIS1_EEC2Ev:

0000000000000000 <std::vector<dwarf::compilation_unit, std::allocator<dwarf::compilation_unit> >::vector()>:
   0:	fe010113          	addi	sp,sp,-32
   4:	00113c23          	sd	ra,24(sp)
   8:	00813823          	sd	s0,16(sp)
   c:	02010413          	addi	s0,sp,32
  10:	fea43423          	sd	a0,-24(s0)
  14:	fe843783          	ld	a5,-24(s0)
  18:	00078513          	addi	a0,a5,0
  1c:	00000317          	auipc	t1,0x0
  20:	00033303          	ld	t1,0(t1) # 1c <std::vector<dwarf::compilation_unit, std::allocator<dwarf::compilation_unit> >::vector()+0x1c>
  24:	000300e7          	jalr	ra,0(t1)
  28:	00000013          	addi	zero,zero,0
  2c:	01813083          	ld	ra,24(sp)
  30:	01013403          	ld	s0,16(sp)
  34:	02010113          	addi	sp,sp,32
  38:	00008067          	jalr	zero,0(ra)

Disassembly of section .text._ZNSt8__detail15_Hash_code_baseImSt4pairIKmN5dwarf9type_unitEENS_10_Select1stESt4hashImENS_18_Mod_range_hashingENS_20_Default_ranged_hashELb0EEC2Ev:

0000000000000000 <std::__detail::_Hash_code_base<unsigned long, std::pair<unsigned long const, dwarf::type_unit>, std::__detail::_Select1st, std::hash<unsigned long>, std::__detail::_Mod_range_hashing, std::__detail::_Default_ranged_hash, false>::_Hash_code_base()>:
   0:	fe010113          	addi	sp,sp,-32
   4:	00113c23          	sd	ra,24(sp)
   8:	00813823          	sd	s0,16(sp)
   c:	02010413          	addi	s0,sp,32
  10:	fea43423          	sd	a0,-24(s0)
  14:	fe843503          	ld	a0,-24(s0)
  18:	00000317          	auipc	t1,0x0
  1c:	00033303          	ld	t1,0(t1) # 18 <std::__detail::_Hash_code_base<unsigned long, std::pair<unsigned long const, dwarf::type_unit>, std::__detail::_Select1st, std::hash<unsigned long>, std::__detail::_Mod_range_hashing, std::__detail::_Default_ranged_hash, false>::_Hash_code_base()+0x18>
  20:	000300e7          	jalr	ra,0(t1)
  24:	00000013          	addi	zero,zero,0
  28:	01813083          	ld	ra,24(sp)
  2c:	01013403          	ld	s0,16(sp)
  30:	02010113          	addi	sp,sp,32
  34:	00008067          	jalr	zero,0(ra)

Disassembly of section .text._ZNSt8__detail15_Hashtable_baseImSt4pairIKmN5dwarf9type_unitEENS_10_Select1stESt8equal_toImESt4hashImENS_18_Mod_range_hashingENS_20_Default_ranged_hashENS_17_Hashtable_traitsILb0ELb0ELb1EEEEC2Ev:

0000000000000000 <std::__detail::_Hashtable_base<unsigned long, std::pair<unsigned long const, dwarf::type_unit>, std::__detail::_Select1st, std::equal_to<unsigned long>, std::hash<unsigned long>, std::__detail::_Mod_range_hashing, std::__detail::_Default_ranged_hash, std::__detail::_Hashtable_traits<false, false, true> >::_Hashtable_base()>:
   0:	fe010113          	addi	sp,sp,-32
   4:	00113c23          	sd	ra,24(sp)
   8:	00813823          	sd	s0,16(sp)
   c:	02010413          	addi	s0,sp,32
  10:	fea43423          	sd	a0,-24(s0)
  14:	fe843503          	ld	a0,-24(s0)
  18:	00000317          	auipc	t1,0x0
  1c:	00033303          	ld	t1,0(t1) # 18 <std::__detail::_Hashtable_base<unsigned long, std::pair<unsigned long const, dwarf::type_unit>, std::__detail::_Select1st, std::equal_to<unsigned long>, std::hash<unsigned long>, std::__detail::_Mod_range_hashing, std::__detail::_Default_ranged_hash, std::__detail::_Hashtable_traits<false, false, true> >::_Hashtable_base()+0x18>
  20:	000300e7          	jalr	ra,0(t1)
  24:	fe843503          	ld	a0,-24(s0)
  28:	00000317          	auipc	t1,0x0
  2c:	00033303          	ld	t1,0(t1) # 28 <std::__detail::_Hashtable_base<unsigned long, std::pair<unsigned long const, dwarf::type_unit>, std::__detail::_Select1st, std::equal_to<unsigned long>, std::hash<unsigned long>, std::__detail::_Mod_range_hashing, std::__detail::_Default_ranged_hash, std::__detail::_Hashtable_traits<false, false, true> >::_Hashtable_base()+0x28>
  30:	000300e7          	jalr	ra,0(t1)
  34:	00000013          	addi	zero,zero,0
  38:	01813083          	ld	ra,24(sp)
  3c:	01013403          	ld	s0,16(sp)
  40:	02010113          	addi	sp,sp,32
  44:	00008067          	jalr	zero,0(ra)

Disassembly of section .text._ZNSt8__detail21_Hashtable_ebo_helperILi0ESaINS_10_Hash_nodeISt4pairIKmN5dwarf9type_unitEELb0EEEELb1EED2Ev:

0000000000000000 <std::__detail::_Hashtable_ebo_helper<0, std::allocator<std::__detail::_Hash_node<std::pair<unsigned long const, dwarf::type_unit>, false> >, true>::~_Hashtable_ebo_helper()>:
   0:	fe010113          	addi	sp,sp,-32
   4:	00113c23          	sd	ra,24(sp)
   8:	00813823          	sd	s0,16(sp)
   c:	02010413          	addi	s0,sp,32
  10:	fea43423          	sd	a0,-24(s0)
  14:	fe843503          	ld	a0,-24(s0)
  18:	00000317          	auipc	t1,0x0
  1c:	00033303          	ld	t1,0(t1) # 18 <std::__detail::_Hashtable_ebo_helper<0, std::allocator<std::__detail::_Hash_node<std::pair<unsigned long const, dwarf::type_unit>, false> >, true>::~_Hashtable_ebo_helper()+0x18>
  20:	000300e7          	jalr	ra,0(t1)
  24:	00000013          	addi	zero,zero,0
  28:	01813083          	ld	ra,24(sp)
  2c:	01013403          	ld	s0,16(sp)
  30:	02010113          	addi	sp,sp,32
  34:	00008067          	jalr	zero,0(ra)

Disassembly of section .text._ZNSt8__detail16_Hashtable_allocISaINS_10_Hash_nodeISt4pairIKmN5dwarf9type_unitEELb0EEEEEC2Ev:

0000000000000000 <std::__detail::_Hashtable_alloc<std::allocator<std::__detail::_Hash_node<std::pair<unsigned long const, dwarf::type_unit>, false> > >::_Hashtable_alloc()>:
   0:	fe010113          	addi	sp,sp,-32
   4:	00113c23          	sd	ra,24(sp)
   8:	00813823          	sd	s0,16(sp)
   c:	02010413          	addi	s0,sp,32
  10:	fea43423          	sd	a0,-24(s0)
  14:	fe843503          	ld	a0,-24(s0)
  18:	00000317          	auipc	t1,0x0
  1c:	00033303          	ld	t1,0(t1) # 18 <std::__detail::_Hashtable_alloc<std::allocator<std::__detail::_Hash_node<std::pair<unsigned long const, dwarf::type_unit>, false> > >::_Hashtable_alloc()+0x18>
  20:	000300e7          	jalr	ra,0(t1)
  24:	00000013          	addi	zero,zero,0
  28:	01813083          	ld	ra,24(sp)
  2c:	01013403          	ld	s0,16(sp)
  30:	02010113          	addi	sp,sp,32
  34:	00008067          	jalr	zero,0(ra)

Disassembly of section .text._ZNSt8__detail16_Hashtable_allocISaINS_10_Hash_nodeISt4pairIKmN5dwarf9type_unitEELb0EEEEED2Ev:

0000000000000000 <std::__detail::_Hashtable_alloc<std::allocator<std::__detail::_Hash_node<std::pair<unsigned long const, dwarf::type_unit>, false> > >::~_Hashtable_alloc()>:
   0:	fe010113          	addi	sp,sp,-32
   4:	00113c23          	sd	ra,24(sp)
   8:	00813823          	sd	s0,16(sp)
   c:	02010413          	addi	s0,sp,32
  10:	fea43423          	sd	a0,-24(s0)
  14:	fe843503          	ld	a0,-24(s0)
  18:	00000317          	auipc	t1,0x0
  1c:	00033303          	ld	t1,0(t1) # 18 <std::__detail::_Hashtable_alloc<std::allocator<std::__detail::_Hash_node<std::pair<unsigned long const, dwarf::type_unit>, false> > >::~_Hashtable_alloc()+0x18>
  20:	000300e7          	jalr	ra,0(t1)
  24:	00000013          	addi	zero,zero,0
  28:	01813083          	ld	ra,24(sp)
  2c:	01013403          	ld	s0,16(sp)
  30:	02010113          	addi	sp,sp,32
  34:	00008067          	jalr	zero,0(ra)

Disassembly of section .text._ZNSt10_HashtableImSt4pairIKmN5dwarf9type_unitEESaIS4_ENSt8__detail10_Select1stESt8equal_toImESt4hashImENS6_18_Mod_range_hashingENS6_20_Default_ranged_hashENS6_20_Prime_rehash_policyENS6_17_Hashtable_traitsILb0ELb0ELb1EEEEC2Ev:

0000000000000000 <std::_Hashtable<unsigned long, std::pair<unsigned long const, dwarf::type_unit>, std::allocator<std::pair<unsigned long const, dwarf::type_unit> >, std::__detail::_Select1st, std::equal_to<unsigned long>, std::hash<unsigned long>, std::__detail::_Mod_range_hashing, std::__detail::_Default_ranged_hash, std::__detail::_Prime_rehash_policy, std::__detail::_Hashtable_traits<false, false, true> >::_Hashtable()>:
   0:	fe010113          	addi	sp,sp,-32
   4:	00113c23          	sd	ra,24(sp)
   8:	00813823          	sd	s0,16(sp)
   c:	02010413          	addi	s0,sp,32
  10:	fea43423          	sd	a0,-24(s0)
  14:	fe843503          	ld	a0,-24(s0)
  18:	00000317          	auipc	t1,0x0
  1c:	00033303          	ld	t1,0(t1) # 18 <std::_Hashtable<unsigned long, std::pair<unsigned long const, dwarf::type_unit>, std::allocator<std::pair<unsigned long const, dwarf::type_unit> >, std::__detail::_Select1st, std::equal_to<unsigned long>, std::hash<unsigned long>, std::__detail::_Mod_range_hashing, std::__detail::_Default_ranged_hash, std::__detail::_Prime_rehash_policy, std::__detail::_Hashtable_traits<false, false, true> >::_Hashtable()+0x18>
  20:	000300e7          	jalr	ra,0(t1)
  24:	fe843503          	ld	a0,-24(s0)
  28:	00000317          	auipc	t1,0x0
  2c:	00033303          	ld	t1,0(t1) # 28 <std::_Hashtable<unsigned long, std::pair<unsigned long const, dwarf::type_unit>, std::allocator<std::pair<unsigned long const, dwarf::type_unit> >, std::__detail::_Select1st, std::equal_to<unsigned long>, std::hash<unsigned long>, std::__detail::_Mod_range_hashing, std::__detail::_Default_ranged_hash, std::__detail::_Prime_rehash_policy, std::__detail::_Hashtable_traits<false, false, true> >::_Hashtable()+0x28>
  30:	000300e7          	jalr	ra,0(t1)
  34:	fe843783          	ld	a5,-24(s0)
  38:	03078713          	addi	a4,a5,48
  3c:	fe843783          	ld	a5,-24(s0)
  40:	00e7b023          	sd	a4,0(a5)
  44:	fe843783          	ld	a5,-24(s0)
  48:	00100713          	addi	a4,zero,1
  4c:	00e7b423          	sd	a4,8(a5)
  50:	fe843783          	ld	a5,-24(s0)
  54:	01078793          	addi	a5,a5,16
  58:	00078513          	addi	a0,a5,0
  5c:	00000317          	auipc	t1,0x0
  60:	00033303          	ld	t1,0(t1) # 5c <std::_Hashtable<unsigned long, std::pair<unsigned long const, dwarf::type_unit>, std::allocator<std::pair<unsigned long const, dwarf::type_unit> >, std::__detail::_Select1st, std::equal_to<unsigned long>, std::hash<unsigned long>, std::__detail::_Mod_range_hashing, std::__detail::_Default_ranged_hash, std::__detail::_Prime_rehash_policy, std::__detail::_Hashtable_traits<false, false, true> >::_Hashtable()+0x5c>
  64:	000300e7          	jalr	ra,0(t1)
  68:	fe843783          	ld	a5,-24(s0)
  6c:	0007bc23          	sd	zero,24(a5)
  70:	fe843783          	ld	a5,-24(s0)
  74:	02078713          	addi	a4,a5,32
  78:	00000797          	auipc	a5,0x0
  7c:	00078793          	addi	a5,a5,0 # 78 <std::_Hashtable<unsigned long, std::pair<unsigned long const, dwarf::type_unit>, std::allocator<std::pair<unsigned long const, dwarf::type_unit> >, std::__detail::_Select1st, std::equal_to<unsigned long>, std::hash<unsigned long>, std::__detail::_Mod_range_hashing, std::__detail::_Default_ranged_hash, std::__detail::_Prime_rehash_policy, std::__detail::_Hashtable_traits<false, false, true> >::_Hashtable()+0x78>
  80:	0007a787          	flw	fa5,0(a5)
  84:	20f78553          	fsgnj.s	fa0,fa5,fa5
  88:	00070513          	addi	a0,a4,0
  8c:	00000317          	auipc	t1,0x0
  90:	00033303          	ld	t1,0(t1) # 8c <std::_Hashtable<unsigned long, std::pair<unsigned long const, dwarf::type_unit>, std::allocator<std::pair<unsigned long const, dwarf::type_unit> >, std::__detail::_Select1st, std::equal_to<unsigned long>, std::hash<unsigned long>, std::__detail::_Mod_range_hashing, std::__detail::_Default_ranged_hash, std::__detail::_Prime_rehash_policy, std::__detail::_Hashtable_traits<false, false, true> >::_Hashtable()+0x8c>
  94:	000300e7          	jalr	ra,0(t1)
  98:	fe843783          	ld	a5,-24(s0)
  9c:	0207b823          	sd	zero,48(a5)
  a0:	00000013          	addi	zero,zero,0
  a4:	01813083          	ld	ra,24(sp)
  a8:	01013403          	ld	s0,16(sp)
  ac:	02010113          	addi	sp,sp,32
  b0:	00008067          	jalr	zero,0(ra)

Disassembly of section .text._ZNSt13unordered_mapImN5dwarf9type_unitESt4hashImESt8equal_toImESaISt4pairIKmS1_EEEC2Ev:

0000000000000000 <std::unordered_map<unsigned long, dwarf::type_unit, std::hash<unsigned long>, std::equal_to<unsigned long>, std::allocator<std::pair<unsigned long const, dwarf::type_unit> > >::unordered_map()>:
   0:	fe010113          	addi	sp,sp,-32
   4:	00113c23          	sd	ra,24(sp)
   8:	00813823          	sd	s0,16(sp)
   c:	02010413          	addi	s0,sp,32
  10:	fea43423          	sd	a0,-24(s0)
  14:	fe843783          	ld	a5,-24(s0)
  18:	00078513          	addi	a0,a5,0
  1c:	00000317          	auipc	t1,0x0
  20:	00033303          	ld	t1,0(t1) # 1c <std::unordered_map<unsigned long, dwarf::type_unit, std::hash<unsigned long>, std::equal_to<unsigned long>, std::allocator<std::pair<unsigned long const, dwarf::type_unit> > >::unordered_map()+0x1c>
  24:	000300e7          	jalr	ra,0(t1)
  28:	00000013          	addi	zero,zero,0
  2c:	01813083          	ld	ra,24(sp)
  30:	01013403          	ld	s0,16(sp)
  34:	02010113          	addi	sp,sp,32
  38:	00008067          	jalr	zero,0(ra)

Disassembly of section .text._ZNSt13unordered_mapImN5dwarf9type_unitESt4hashImESt8equal_toImESaISt4pairIKmS1_EEED2Ev:

0000000000000000 <std::unordered_map<unsigned long, dwarf::type_unit, std::hash<unsigned long>, std::equal_to<unsigned long>, std::allocator<std::pair<unsigned long const, dwarf::type_unit> > >::~unordered_map()>:
   0:	fe010113          	addi	sp,sp,-32
   4:	00113c23          	sd	ra,24(sp)
   8:	00813823          	sd	s0,16(sp)
   c:	02010413          	addi	s0,sp,32
  10:	fea43423          	sd	a0,-24(s0)
  14:	fe843783          	ld	a5,-24(s0)
  18:	00078513          	addi	a0,a5,0
  1c:	00000317          	auipc	t1,0x0
  20:	00033303          	ld	t1,0(t1) # 1c <std::unordered_map<unsigned long, dwarf::type_unit, std::hash<unsigned long>, std::equal_to<unsigned long>, std::allocator<std::pair<unsigned long const, dwarf::type_unit> > >::~unordered_map()+0x1c>
  24:	000300e7          	jalr	ra,0(t1)
  28:	00000013          	addi	zero,zero,0
  2c:	01813083          	ld	ra,24(sp)
  30:	01013403          	ld	s0,16(sp)
  34:	02010113          	addi	sp,sp,32
  38:	00008067          	jalr	zero,0(ra)

Disassembly of section .text._ZNSt8_Rb_treeIN5dwarf12section_typeESt4pairIKS1_St10shared_ptrINS0_7sectionEEESt10_Select1stIS7_ESt4lessIS1_ESaIS7_EE13_Rb_tree_implISB_Lb1EED2Ev:

0000000000000000 <std::_Rb_tree<dwarf::section_type, std::pair<dwarf::section_type const, std::shared_ptr<dwarf::section> >, std::_Select1st<std::pair<dwarf::section_type const, std::shared_ptr<dwarf::section> > >, std::less<dwarf::section_type>, std::allocator<std::pair<dwarf::section_type const, std::shared_ptr<dwarf::section> > > >::_Rb_tree_impl<std::less<dwarf::section_type>, true>::~_Rb_tree_impl()>:
   0:	fe010113          	addi	sp,sp,-32
   4:	00113c23          	sd	ra,24(sp)
   8:	00813823          	sd	s0,16(sp)
   c:	02010413          	addi	s0,sp,32
  10:	fea43423          	sd	a0,-24(s0)
  14:	fe843503          	ld	a0,-24(s0)
  18:	00000317          	auipc	t1,0x0
  1c:	00033303          	ld	t1,0(t1) # 18 <std::_Rb_tree<dwarf::section_type, std::pair<dwarf::section_type const, std::shared_ptr<dwarf::section> >, std::_Select1st<std::pair<dwarf::section_type const, std::shared_ptr<dwarf::section> > >, std::less<dwarf::section_type>, std::allocator<std::pair<dwarf::section_type const, std::shared_ptr<dwarf::section> > > >::_Rb_tree_impl<std::less<dwarf::section_type>, true>::~_Rb_tree_impl()+0x18>
  20:	000300e7          	jalr	ra,0(t1)
  24:	00000013          	addi	zero,zero,0
  28:	01813083          	ld	ra,24(sp)
  2c:	01013403          	ld	s0,16(sp)
  30:	02010113          	addi	sp,sp,32
  34:	00008067          	jalr	zero,0(ra)

Disassembly of section .text._ZNSt8_Rb_treeIN5dwarf12section_typeESt4pairIKS1_St10shared_ptrINS0_7sectionEEESt10_Select1stIS7_ESt4lessIS1_ESaIS7_EEC2Ev:

0000000000000000 <std::_Rb_tree<dwarf::section_type, std::pair<dwarf::section_type const, std::shared_ptr<dwarf::section> >, std::_Select1st<std::pair<dwarf::section_type const, std::shared_ptr<dwarf::section> > >, std::less<dwarf::section_type>, std::allocator<std::pair<dwarf::section_type const, std::shared_ptr<dwarf::section> > > >::_Rb_tree()>:
   0:	fe010113          	addi	sp,sp,-32
   4:	00113c23          	sd	ra,24(sp)
   8:	00813823          	sd	s0,16(sp)
   c:	02010413          	addi	s0,sp,32
  10:	fea43423          	sd	a0,-24(s0)
  14:	fe843783          	ld	a5,-24(s0)
  18:	00078513          	addi	a0,a5,0
  1c:	00000317          	auipc	t1,0x0
  20:	00033303          	ld	t1,0(t1) # 1c <std::_Rb_tree<dwarf::section_type, std::pair<dwarf::section_type const, std::shared_ptr<dwarf::section> >, std::_Select1st<std::pair<dwarf::section_type const, std::shared_ptr<dwarf::section> > >, std::less<dwarf::section_type>, std::allocator<std::pair<dwarf::section_type const, std::shared_ptr<dwarf::section> > > >::_Rb_tree()+0x1c>
  24:	000300e7          	jalr	ra,0(t1)
  28:	00000013          	addi	zero,zero,0
  2c:	01813083          	ld	ra,24(sp)
  30:	01013403          	ld	s0,16(sp)
  34:	02010113          	addi	sp,sp,32
  38:	00008067          	jalr	zero,0(ra)

Disassembly of section .text._ZNSt3mapIN5dwarf12section_typeESt10shared_ptrINS0_7sectionEESt4lessIS1_ESaISt4pairIKS1_S4_EEEC2Ev:

0000000000000000 <std::map<dwarf::section_type, std::shared_ptr<dwarf::section>, std::less<dwarf::section_type>, std::allocator<std::pair<dwarf::section_type const, std::shared_ptr<dwarf::section> > > >::map()>:
   0:	fe010113          	addi	sp,sp,-32
   4:	00113c23          	sd	ra,24(sp)
   8:	00813823          	sd	s0,16(sp)
   c:	02010413          	addi	s0,sp,32
  10:	fea43423          	sd	a0,-24(s0)
  14:	fe843783          	ld	a5,-24(s0)
  18:	00078513          	addi	a0,a5,0
  1c:	00000317          	auipc	t1,0x0
  20:	00033303          	ld	t1,0(t1) # 1c <std::map<dwarf::section_type, std::shared_ptr<dwarf::section>, std::less<dwarf::section_type>, std::allocator<std::pair<dwarf::section_type const, std::shared_ptr<dwarf::section> > > >::map()+0x1c>
  24:	000300e7          	jalr	ra,0(t1)
  28:	00000013          	addi	zero,zero,0
  2c:	01813083          	ld	ra,24(sp)
  30:	01013403          	ld	s0,16(sp)
  34:	02010113          	addi	sp,sp,32
  38:	00008067          	jalr	zero,0(ra)

Disassembly of section .text._ZNSt3mapIN5dwarf12section_typeESt10shared_ptrINS0_7sectionEESt4lessIS1_ESaISt4pairIKS1_S4_EEED2Ev:

0000000000000000 <std::map<dwarf::section_type, std::shared_ptr<dwarf::section>, std::less<dwarf::section_type>, std::allocator<std::pair<dwarf::section_type const, std::shared_ptr<dwarf::section> > > >::~map()>:
   0:	fe010113          	addi	sp,sp,-32
   4:	00113c23          	sd	ra,24(sp)
   8:	00813823          	sd	s0,16(sp)
   c:	02010413          	addi	s0,sp,32
  10:	fea43423          	sd	a0,-24(s0)
  14:	fe843783          	ld	a5,-24(s0)
  18:	00078513          	addi	a0,a5,0
  1c:	00000317          	auipc	t1,0x0
  20:	00033303          	ld	t1,0(t1) # 1c <std::map<dwarf::section_type, std::shared_ptr<dwarf::section>, std::less<dwarf::section_type>, std::allocator<std::pair<dwarf::section_type const, std::shared_ptr<dwarf::section> > > >::~map()+0x1c>
  24:	000300e7          	jalr	ra,0(t1)
  28:	00000013          	addi	zero,zero,0
  2c:	01813083          	ld	ra,24(sp)
  30:	01013403          	ld	s0,16(sp)
  34:	02010113          	addi	sp,sp,32
  38:	00008067          	jalr	zero,0(ra)

Disassembly of section .text._ZN5dwarf5dwarf4implC2ERKSt10shared_ptrINS_6loaderEE:

0000000000000000 <dwarf::dwarf::impl::impl(std::shared_ptr<dwarf::loader> const&)>:
   0:	fe010113          	addi	sp,sp,-32
   4:	00113c23          	sd	ra,24(sp)
   8:	00813823          	sd	s0,16(sp)
   c:	02010413          	addi	s0,sp,32
  10:	fea43423          	sd	a0,-24(s0)
  14:	feb43023          	sd	a1,-32(s0)
  18:	fe843783          	ld	a5,-24(s0)
  1c:	fe043583          	ld	a1,-32(s0)
  20:	00078513          	addi	a0,a5,0
  24:	00000317          	auipc	t1,0x0
  28:	00033303          	ld	t1,0(t1) # 24 <dwarf::dwarf::impl::impl(std::shared_ptr<dwarf::loader> const&)+0x24>
  2c:	000300e7          	jalr	ra,0(t1)
  30:	fe843783          	ld	a5,-24(s0)
  34:	01078793          	addi	a5,a5,16
  38:	00078513          	addi	a0,a5,0
  3c:	00000317          	auipc	t1,0x0
  40:	00033303          	ld	t1,0(t1) # 3c <dwarf::dwarf::impl::impl(std::shared_ptr<dwarf::loader> const&)+0x3c>
  44:	000300e7          	jalr	ra,0(t1)
  48:	fe843783          	ld	a5,-24(s0)
  4c:	02078793          	addi	a5,a5,32
  50:	00078513          	addi	a0,a5,0
  54:	00000317          	auipc	t1,0x0
  58:	00033303          	ld	t1,0(t1) # 54 <dwarf::dwarf::impl::impl(std::shared_ptr<dwarf::loader> const&)+0x54>
  5c:	000300e7          	jalr	ra,0(t1)
  60:	fe843783          	ld	a5,-24(s0)
  64:	03078793          	addi	a5,a5,48
  68:	00078513          	addi	a0,a5,0
  6c:	00000317          	auipc	t1,0x0
  70:	00033303          	ld	t1,0(t1) # 6c <dwarf::dwarf::impl::impl(std::shared_ptr<dwarf::loader> const&)+0x6c>
  74:	000300e7          	jalr	ra,0(t1)
  78:	fe843783          	ld	a5,-24(s0)
  7c:	04878793          	addi	a5,a5,72
  80:	00078513          	addi	a0,a5,0
  84:	00000317          	auipc	t1,0x0
  88:	00033303          	ld	t1,0(t1) # 84 <dwarf::dwarf::impl::impl(std::shared_ptr<dwarf::loader> const&)+0x84>
  8c:	000300e7          	jalr	ra,0(t1)
  90:	fe843783          	ld	a5,-24(s0)
  94:	08078023          	sb	zero,128(a5)
  98:	fe843783          	ld	a5,-24(s0)
  9c:	08878793          	addi	a5,a5,136
  a0:	00078513          	addi	a0,a5,0
  a4:	00000317          	auipc	t1,0x0
  a8:	00033303          	ld	t1,0(t1) # a4 <dwarf::dwarf::impl::impl(std::shared_ptr<dwarf::loader> const&)+0xa4>
  ac:	000300e7          	jalr	ra,0(t1)
  b0:	00000013          	addi	zero,zero,0
  b4:	01813083          	ld	ra,24(sp)
  b8:	01013403          	ld	s0,16(sp)
  bc:	02010113          	addi	sp,sp,32
  c0:	00008067          	jalr	zero,0(ra)

Disassembly of section .text._ZNSt12__shared_ptrIN5dwarf5dwarf4implELN9__gnu_cxx12_Lock_policyE1EED2Ev:

0000000000000000 <std::__shared_ptr<dwarf::dwarf::impl, (__gnu_cxx::_Lock_policy)1>::~__shared_ptr()>:
   0:	fe010113          	addi	sp,sp,-32
   4:	00113c23          	sd	ra,24(sp)
   8:	00813823          	sd	s0,16(sp)
   c:	02010413          	addi	s0,sp,32
  10:	fea43423          	sd	a0,-24(s0)
  14:	fe843783          	ld	a5,-24(s0)
  18:	00878793          	addi	a5,a5,8
  1c:	00078513          	addi	a0,a5,0
  20:	00000317          	auipc	t1,0x0
  24:	00033303          	ld	t1,0(t1) # 20 <std::__shared_ptr<dwarf::dwarf::impl, (__gnu_cxx::_Lock_policy)1>::~__shared_ptr()+0x20>
  28:	000300e7          	jalr	ra,0(t1)
  2c:	00000013          	addi	zero,zero,0
  30:	01813083          	ld	ra,24(sp)
  34:	01013403          	ld	s0,16(sp)
  38:	02010113          	addi	sp,sp,32
  3c:	00008067          	jalr	zero,0(ra)

Disassembly of section .text._ZNSt10shared_ptrIN5dwarf5dwarf4implEED2Ev:

0000000000000000 <std::shared_ptr<dwarf::dwarf::impl>::~shared_ptr()>:
   0:	fe010113          	addi	sp,sp,-32
   4:	00113c23          	sd	ra,24(sp)
   8:	00813823          	sd	s0,16(sp)
   c:	02010413          	addi	s0,sp,32
  10:	fea43423          	sd	a0,-24(s0)
  14:	fe843783          	ld	a5,-24(s0)
  18:	00078513          	addi	a0,a5,0
  1c:	00000317          	auipc	t1,0x0
  20:	00033303          	ld	t1,0(t1) # 1c <std::shared_ptr<dwarf::dwarf::impl>::~shared_ptr()+0x1c>
  24:	000300e7          	jalr	ra,0(t1)
  28:	00000013          	addi	zero,zero,0
  2c:	01813083          	ld	ra,24(sp)
  30:	01013403          	ld	s0,16(sp)
  34:	02010113          	addi	sp,sp,32
  38:	00008067          	jalr	zero,0(ra)

Disassembly of section .text._ZNSt12__shared_ptrIN5dwarf4unit4implELN9__gnu_cxx12_Lock_policyE1EEaSERKS5_:

0000000000000000 <std::__shared_ptr<dwarf::unit::impl, (__gnu_cxx::_Lock_policy)1>::operator=(std::__shared_ptr<dwarf::unit::impl, (__gnu_cxx::_Lock_policy)1> const&)>:
   0:	fe010113          	addi	sp,sp,-32
   4:	00113c23          	sd	ra,24(sp)
   8:	00813823          	sd	s0,16(sp)
   c:	02010413          	addi	s0,sp,32
  10:	fea43423          	sd	a0,-24(s0)
  14:	feb43023          	sd	a1,-32(s0)
  18:	fe043783          	ld	a5,-32(s0)
  1c:	0007b703          	ld	a4,0(a5)
  20:	fe843783          	ld	a5,-24(s0)
  24:	00e7b023          	sd	a4,0(a5)
  28:	fe843783          	ld	a5,-24(s0)
  2c:	00878713          	addi	a4,a5,8
  30:	fe043783          	ld	a5,-32(s0)
  34:	00878793          	addi	a5,a5,8
  38:	00078593          	addi	a1,a5,0
  3c:	00070513          	addi	a0,a4,0
  40:	00000317          	auipc	t1,0x0
  44:	00033303          	ld	t1,0(t1) # 40 <std::__shared_ptr<dwarf::unit::impl, (__gnu_cxx::_Lock_policy)1>::operator=(std::__shared_ptr<dwarf::unit::impl, (__gnu_cxx::_Lock_policy)1> const&)+0x40>
  48:	000300e7          	jalr	ra,0(t1)
  4c:	fe843783          	ld	a5,-24(s0)
  50:	00078513          	addi	a0,a5,0
  54:	01813083          	ld	ra,24(sp)
  58:	01013403          	ld	s0,16(sp)
  5c:	02010113          	addi	sp,sp,32
  60:	00008067          	jalr	zero,0(ra)

Disassembly of section .text._ZNSt10shared_ptrIN5dwarf4unit4implEEaSERKS3_:

0000000000000000 <std::shared_ptr<dwarf::unit::impl>::operator=(std::shared_ptr<dwarf::unit::impl> const&)>:
   0:	fe010113          	addi	sp,sp,-32
   4:	00113c23          	sd	ra,24(sp)
   8:	00813823          	sd	s0,16(sp)
   c:	02010413          	addi	s0,sp,32
  10:	fea43423          	sd	a0,-24(s0)
  14:	feb43023          	sd	a1,-32(s0)
  18:	fe843783          	ld	a5,-24(s0)
  1c:	fe043703          	ld	a4,-32(s0)
  20:	00070593          	addi	a1,a4,0
  24:	00078513          	addi	a0,a5,0
  28:	00000317          	auipc	t1,0x0
  2c:	00033303          	ld	t1,0(t1) # 28 <std::shared_ptr<dwarf::unit::impl>::operator=(std::shared_ptr<dwarf::unit::impl> const&)+0x28>
  30:	000300e7          	jalr	ra,0(t1)
  34:	fe843783          	ld	a5,-24(s0)
  38:	00078513          	addi	a0,a5,0
  3c:	01813083          	ld	ra,24(sp)
  40:	01013403          	ld	s0,16(sp)
  44:	02010113          	addi	sp,sp,32
  48:	00008067          	jalr	zero,0(ra)

Disassembly of section .text._ZN5dwarf4unitaSERKS0_:

0000000000000000 <dwarf::unit::operator=(dwarf::unit const&)>:
   0:	fe010113          	addi	sp,sp,-32
   4:	00113c23          	sd	ra,24(sp)
   8:	00813823          	sd	s0,16(sp)
   c:	02010413          	addi	s0,sp,32
  10:	fea43423          	sd	a0,-24(s0)
  14:	feb43023          	sd	a1,-32(s0)
  18:	fe843783          	ld	a5,-24(s0)
  1c:	00878713          	addi	a4,a5,8
  20:	fe043783          	ld	a5,-32(s0)
  24:	00878793          	addi	a5,a5,8
  28:	00078593          	addi	a1,a5,0
  2c:	00070513          	addi	a0,a4,0
  30:	00000317          	auipc	t1,0x0
  34:	00033303          	ld	t1,0(t1) # 30 <dwarf::unit::operator=(dwarf::unit const&)+0x30>
  38:	000300e7          	jalr	ra,0(t1)
  3c:	fe843783          	ld	a5,-24(s0)
  40:	00078513          	addi	a0,a5,0
  44:	01813083          	ld	ra,24(sp)
  48:	01013403          	ld	s0,16(sp)
  4c:	02010113          	addi	sp,sp,32
  50:	00008067          	jalr	zero,0(ra)

Disassembly of section .text._ZN5dwarf9type_unitaSERKS0_:

0000000000000000 <dwarf::type_unit::operator=(dwarf::type_unit const&)>:
   0:	fe010113          	addi	sp,sp,-32
   4:	00113c23          	sd	ra,24(sp)
   8:	00813823          	sd	s0,16(sp)
   c:	02010413          	addi	s0,sp,32
  10:	fea43423          	sd	a0,-24(s0)
  14:	feb43023          	sd	a1,-32(s0)
  18:	fe843783          	ld	a5,-24(s0)
  1c:	fe043703          	ld	a4,-32(s0)
  20:	00070593          	addi	a1,a4,0
  24:	00078513          	addi	a0,a5,0
  28:	00000317          	auipc	t1,0x0
  2c:	00033303          	ld	t1,0(t1) # 28 <dwarf::type_unit::operator=(dwarf::type_unit const&)+0x28>
  30:	000300e7          	jalr	ra,0(t1)
  34:	fe843783          	ld	a5,-24(s0)
  38:	00078513          	addi	a0,a5,0
  3c:	01813083          	ld	ra,24(sp)
  40:	01013403          	ld	s0,16(sp)
  44:	02010113          	addi	sp,sp,32
  48:	00008067          	jalr	zero,0(ra)

Disassembly of section .text._ZNSt12__shared_ptrIN5dwarf5dwarf4implELN9__gnu_cxx12_Lock_policyE1EEC2ERKS5_:

0000000000000000 <std::__shared_ptr<dwarf::dwarf::impl, (__gnu_cxx::_Lock_policy)1>::__shared_ptr(std::__shared_ptr<dwarf::dwarf::impl, (__gnu_cxx::_Lock_policy)1> const&)>:
   0:	fe010113          	addi	sp,sp,-32
   4:	00113c23          	sd	ra,24(sp)
   8:	00813823          	sd	s0,16(sp)
   c:	02010413          	addi	s0,sp,32
  10:	fea43423          	sd	a0,-24(s0)
  14:	feb43023          	sd	a1,-32(s0)
  18:	fe043783          	ld	a5,-32(s0)
  1c:	0007b703          	ld	a4,0(a5)
  20:	fe843783          	ld	a5,-24(s0)
  24:	00e7b023          	sd	a4,0(a5)
  28:	fe843783          	ld	a5,-24(s0)
  2c:	00878713          	addi	a4,a5,8
  30:	fe043783          	ld	a5,-32(s0)
  34:	00878793          	addi	a5,a5,8
  38:	00078593          	addi	a1,a5,0
  3c:	00070513          	addi	a0,a4,0
  40:	00000317          	auipc	t1,0x0
  44:	00033303          	ld	t1,0(t1) # 40 <std::__shared_ptr<dwarf::dwarf::impl, (__gnu_cxx::_Lock_policy)1>::__shared_ptr(std::__shared_ptr<dwarf::dwarf::impl, (__gnu_cxx::_Lock_policy)1> const&)+0x40>
  48:	000300e7          	jalr	ra,0(t1)
  4c:	00000013          	addi	zero,zero,0
  50:	01813083          	ld	ra,24(sp)
  54:	01013403          	ld	s0,16(sp)
  58:	02010113          	addi	sp,sp,32
  5c:	00008067          	jalr	zero,0(ra)

Disassembly of section .text._ZNSt10shared_ptrIN5dwarf5dwarf4implEEC2ERKS3_:

0000000000000000 <std::shared_ptr<dwarf::dwarf::impl>::shared_ptr(std::shared_ptr<dwarf::dwarf::impl> const&)>:
   0:	fe010113          	addi	sp,sp,-32
   4:	00113c23          	sd	ra,24(sp)
   8:	00813823          	sd	s0,16(sp)
   c:	02010413          	addi	s0,sp,32
  10:	fea43423          	sd	a0,-24(s0)
  14:	feb43023          	sd	a1,-32(s0)
  18:	fe843783          	ld	a5,-24(s0)
  1c:	fe043703          	ld	a4,-32(s0)
  20:	00070593          	addi	a1,a4,0
  24:	00078513          	addi	a0,a5,0
  28:	00000317          	auipc	t1,0x0
  2c:	00033303          	ld	t1,0(t1) # 28 <std::shared_ptr<dwarf::dwarf::impl>::shared_ptr(std::shared_ptr<dwarf::dwarf::impl> const&)+0x28>
  30:	000300e7          	jalr	ra,0(t1)
  34:	00000013          	addi	zero,zero,0
  38:	01813083          	ld	ra,24(sp)
  3c:	01013403          	ld	s0,16(sp)
  40:	02010113          	addi	sp,sp,32
  44:	00008067          	jalr	zero,0(ra)

Disassembly of section .text._ZN5dwarf5dwarfC2ERKS0_:

0000000000000000 <dwarf::dwarf::dwarf(dwarf::dwarf const&)>:
   0:	fe010113          	addi	sp,sp,-32
   4:	00113c23          	sd	ra,24(sp)
   8:	00813823          	sd	s0,16(sp)
   c:	02010413          	addi	s0,sp,32
  10:	fea43423          	sd	a0,-24(s0)
  14:	feb43023          	sd	a1,-32(s0)
  18:	fe843783          	ld	a5,-24(s0)
  1c:	fe043703          	ld	a4,-32(s0)
  20:	00070593          	addi	a1,a4,0
  24:	00078513          	addi	a0,a5,0
  28:	00000317          	auipc	t1,0x0
  2c:	00033303          	ld	t1,0(t1) # 28 <dwarf::dwarf::dwarf(dwarf::dwarf const&)+0x28>
  30:	000300e7          	jalr	ra,0(t1)
  34:	00000013          	addi	zero,zero,0
  38:	01813083          	ld	ra,24(sp)
  3c:	01013403          	ld	s0,16(sp)
  40:	02010113          	addi	sp,sp,32
  44:	00008067          	jalr	zero,0(ra)

Disassembly of section .text._ZNSt12__shared_ptrIN5dwarf10line_table4implELN9__gnu_cxx12_Lock_policyE1EED2Ev:

0000000000000000 <std::__shared_ptr<dwarf::line_table::impl, (__gnu_cxx::_Lock_policy)1>::~__shared_ptr()>:
   0:	fe010113          	addi	sp,sp,-32
   4:	00113c23          	sd	ra,24(sp)
   8:	00813823          	sd	s0,16(sp)
   c:	02010413          	addi	s0,sp,32
  10:	fea43423          	sd	a0,-24(s0)
  14:	fe843783          	ld	a5,-24(s0)
  18:	00878793          	addi	a5,a5,8
  1c:	00078513          	addi	a0,a5,0
  20:	00000317          	auipc	t1,0x0
  24:	00033303          	ld	t1,0(t1) # 20 <std::__shared_ptr<dwarf::line_table::impl, (__gnu_cxx::_Lock_policy)1>::~__shared_ptr()+0x20>
  28:	000300e7          	jalr	ra,0(t1)
  2c:	00000013          	addi	zero,zero,0
  30:	01813083          	ld	ra,24(sp)
  34:	01013403          	ld	s0,16(sp)
  38:	02010113          	addi	sp,sp,32
  3c:	00008067          	jalr	zero,0(ra)

Disassembly of section .text._ZNSt10shared_ptrIN5dwarf10line_table4implEED2Ev:

0000000000000000 <std::shared_ptr<dwarf::line_table::impl>::~shared_ptr()>:
   0:	fe010113          	addi	sp,sp,-32
   4:	00113c23          	sd	ra,24(sp)
   8:	00813823          	sd	s0,16(sp)
   c:	02010413          	addi	s0,sp,32
  10:	fea43423          	sd	a0,-24(s0)
  14:	fe843783          	ld	a5,-24(s0)
  18:	00078513          	addi	a0,a5,0
  1c:	00000317          	auipc	t1,0x0
  20:	00033303          	ld	t1,0(t1) # 1c <std::shared_ptr<dwarf::line_table::impl>::~shared_ptr()+0x1c>
  24:	000300e7          	jalr	ra,0(t1)
  28:	00000013          	addi	zero,zero,0
  2c:	01813083          	ld	ra,24(sp)
  30:	01013403          	ld	s0,16(sp)
  34:	02010113          	addi	sp,sp,32
  38:	00008067          	jalr	zero,0(ra)

Disassembly of section .text._ZN5dwarf10line_tableC2Ev:

0000000000000000 <dwarf::line_table::line_table()>:
   0:	fe010113          	addi	sp,sp,-32
   4:	00113c23          	sd	ra,24(sp)
   8:	00813823          	sd	s0,16(sp)
   c:	02010413          	addi	s0,sp,32
  10:	fea43423          	sd	a0,-24(s0)
  14:	fe843783          	ld	a5,-24(s0)
  18:	00078513          	addi	a0,a5,0
  1c:	00000317          	auipc	t1,0x0
  20:	00033303          	ld	t1,0(t1) # 1c <dwarf::line_table::line_table()+0x1c>
  24:	000300e7          	jalr	ra,0(t1)
  28:	00000013          	addi	zero,zero,0
  2c:	01813083          	ld	ra,24(sp)
  30:	01013403          	ld	s0,16(sp)
  34:	02010113          	addi	sp,sp,32
  38:	00008067          	jalr	zero,0(ra)

Disassembly of section .text._ZN5dwarf10line_tableD2Ev:

0000000000000000 <dwarf::line_table::~line_table()>:
   0:	fe010113          	addi	sp,sp,-32
   4:	00113c23          	sd	ra,24(sp)
   8:	00813823          	sd	s0,16(sp)
   c:	02010413          	addi	s0,sp,32
  10:	fea43423          	sd	a0,-24(s0)
  14:	fe843783          	ld	a5,-24(s0)
  18:	00078513          	addi	a0,a5,0
  1c:	00000317          	auipc	t1,0x0
  20:	00033303          	ld	t1,0(t1) # 1c <dwarf::line_table::~line_table()+0x1c>
  24:	000300e7          	jalr	ra,0(t1)
  28:	00000013          	addi	zero,zero,0
  2c:	01813083          	ld	ra,24(sp)
  30:	01013403          	ld	s0,16(sp)
  34:	02010113          	addi	sp,sp,32
  38:	00008067          	jalr	zero,0(ra)

Disassembly of section .text._ZNSt12_Vector_baseIN5dwarf12abbrev_entryESaIS1_EE12_Vector_implD2Ev:

0000000000000000 <std::_Vector_base<dwarf::abbrev_entry, std::allocator<dwarf::abbrev_entry> >::_Vector_impl::~_Vector_impl()>:
   0:	fe010113          	addi	sp,sp,-32
   4:	00113c23          	sd	ra,24(sp)
   8:	00813823          	sd	s0,16(sp)
   c:	02010413          	addi	s0,sp,32
  10:	fea43423          	sd	a0,-24(s0)
  14:	fe843503          	ld	a0,-24(s0)
  18:	00000317          	auipc	t1,0x0
  1c:	00033303          	ld	t1,0(t1) # 18 <std::_Vector_base<dwarf::abbrev_entry, std::allocator<dwarf::abbrev_entry> >::_Vector_impl::~_Vector_impl()+0x18>
  20:	000300e7          	jalr	ra,0(t1)
  24:	00000013          	addi	zero,zero,0
  28:	01813083          	ld	ra,24(sp)
  2c:	01013403          	ld	s0,16(sp)
  30:	02010113          	addi	sp,sp,32
  34:	00008067          	jalr	zero,0(ra)

Disassembly of section .text._ZNSt12_Vector_baseIN5dwarf12abbrev_entryESaIS1_EEC2Ev:

0000000000000000 <std::_Vector_base<dwarf::abbrev_entry, std::allocator<dwarf::abbrev_entry> >::_Vector_base()>:
   0:	fe010113          	addi	sp,sp,-32
   4:	00113c23          	sd	ra,24(sp)
   8:	00813823          	sd	s0,16(sp)
   c:	02010413          	addi	s0,sp,32
  10:	fea43423          	sd	a0,-24(s0)
  14:	fe843783          	ld	a5,-24(s0)
  18:	00078513          	addi	a0,a5,0
  1c:	00000317          	auipc	t1,0x0
  20:	00033303          	ld	t1,0(t1) # 1c <std::_Vector_base<dwarf::abbrev_entry, std::allocator<dwarf::abbrev_entry> >::_Vector_base()+0x1c>
  24:	000300e7          	jalr	ra,0(t1)
  28:	00000013          	addi	zero,zero,0
  2c:	01813083          	ld	ra,24(sp)
  30:	01013403          	ld	s0,16(sp)
  34:	02010113          	addi	sp,sp,32
  38:	00008067          	jalr	zero,0(ra)

Disassembly of section .text._ZNSt6vectorIN5dwarf12abbrev_entryESaIS1_EEC2Ev:

0000000000000000 <std::vector<dwarf::abbrev_entry, std::allocator<dwarf::abbrev_entry> >::vector()>:
   0:	fe010113          	addi	sp,sp,-32
   4:	00113c23          	sd	ra,24(sp)
   8:	00813823          	sd	s0,16(sp)
   c:	02010413          	addi	s0,sp,32
  10:	fea43423          	sd	a0,-24(s0)
  14:	fe843783          	ld	a5,-24(s0)
  18:	00078513          	addi	a0,a5,0
  1c:	00000317          	auipc	t1,0x0
  20:	00033303          	ld	t1,0(t1) # 1c <std::vector<dwarf::abbrev_entry, std::allocator<dwarf::abbrev_entry> >::vector()+0x1c>
  24:	000300e7          	jalr	ra,0(t1)
  28:	00000013          	addi	zero,zero,0
  2c:	01813083          	ld	ra,24(sp)
  30:	01013403          	ld	s0,16(sp)
  34:	02010113          	addi	sp,sp,32
  38:	00008067          	jalr	zero,0(ra)

Disassembly of section .text._ZNSt8__detail15_Hash_code_baseImSt4pairIKmN5dwarf12abbrev_entryEENS_10_Select1stESt4hashImENS_18_Mod_range_hashingENS_20_Default_ranged_hashELb0EEC2Ev:

0000000000000000 <std::__detail::_Hash_code_base<unsigned long, std::pair<unsigned long const, dwarf::abbrev_entry>, std::__detail::_Select1st, std::hash<unsigned long>, std::__detail::_Mod_range_hashing, std::__detail::_Default_ranged_hash, false>::_Hash_code_base()>:
   0:	fe010113          	addi	sp,sp,-32
   4:	00113c23          	sd	ra,24(sp)
   8:	00813823          	sd	s0,16(sp)
   c:	02010413          	addi	s0,sp,32
  10:	fea43423          	sd	a0,-24(s0)
  14:	fe843503          	ld	a0,-24(s0)
  18:	00000317          	auipc	t1,0x0
  1c:	00033303          	ld	t1,0(t1) # 18 <std::__detail::_Hash_code_base<unsigned long, std::pair<unsigned long const, dwarf::abbrev_entry>, std::__detail::_Select1st, std::hash<unsigned long>, std::__detail::_Mod_range_hashing, std::__detail::_Default_ranged_hash, false>::_Hash_code_base()+0x18>
  20:	000300e7          	jalr	ra,0(t1)
  24:	00000013          	addi	zero,zero,0
  28:	01813083          	ld	ra,24(sp)
  2c:	01013403          	ld	s0,16(sp)
  30:	02010113          	addi	sp,sp,32
  34:	00008067          	jalr	zero,0(ra)

Disassembly of section .text._ZNSt8__detail15_Hashtable_baseImSt4pairIKmN5dwarf12abbrev_entryEENS_10_Select1stESt8equal_toImESt4hashImENS_18_Mod_range_hashingENS_20_Default_ranged_hashENS_17_Hashtable_traitsILb0ELb0ELb1EEEEC2Ev:

0000000000000000 <std::__detail::_Hashtable_base<unsigned long, std::pair<unsigned long const, dwarf::abbrev_entry>, std::__detail::_Select1st, std::equal_to<unsigned long>, std::hash<unsigned long>, std::__detail::_Mod_range_hashing, std::__detail::_Default_ranged_hash, std::__detail::_Hashtable_traits<false, false, true> >::_Hashtable_base()>:
   0:	fe010113          	addi	sp,sp,-32
   4:	00113c23          	sd	ra,24(sp)
   8:	00813823          	sd	s0,16(sp)
   c:	02010413          	addi	s0,sp,32
  10:	fea43423          	sd	a0,-24(s0)
  14:	fe843503          	ld	a0,-24(s0)
  18:	00000317          	auipc	t1,0x0
  1c:	00033303          	ld	t1,0(t1) # 18 <std::__detail::_Hashtable_base<unsigned long, std::pair<unsigned long const, dwarf::abbrev_entry>, std::__detail::_Select1st, std::equal_to<unsigned long>, std::hash<unsigned long>, std::__detail::_Mod_range_hashing, std::__detail::_Default_ranged_hash, std::__detail::_Hashtable_traits<false, false, true> >::_Hashtable_base()+0x18>
  20:	000300e7          	jalr	ra,0(t1)
  24:	fe843503          	ld	a0,-24(s0)
  28:	00000317          	auipc	t1,0x0
  2c:	00033303          	ld	t1,0(t1) # 28 <std::__detail::_Hashtable_base<unsigned long, std::pair<unsigned long const, dwarf::abbrev_entry>, std::__detail::_Select1st, std::equal_to<unsigned long>, std::hash<unsigned long>, std::__detail::_Mod_range_hashing, std::__detail::_Default_ranged_hash, std::__detail::_Hashtable_traits<false, false, true> >::_Hashtable_base()+0x28>
  30:	000300e7          	jalr	ra,0(t1)
  34:	00000013          	addi	zero,zero,0
  38:	01813083          	ld	ra,24(sp)
  3c:	01013403          	ld	s0,16(sp)
  40:	02010113          	addi	sp,sp,32
  44:	00008067          	jalr	zero,0(ra)

Disassembly of section .text._ZNSt8__detail21_Hashtable_ebo_helperILi0ESaINS_10_Hash_nodeISt4pairIKmN5dwarf12abbrev_entryEELb0EEEELb1EED2Ev:

0000000000000000 <std::__detail::_Hashtable_ebo_helper<0, std::allocator<std::__detail::_Hash_node<std::pair<unsigned long const, dwarf::abbrev_entry>, false> >, true>::~_Hashtable_ebo_helper()>:
   0:	fe010113          	addi	sp,sp,-32
   4:	00113c23          	sd	ra,24(sp)
   8:	00813823          	sd	s0,16(sp)
   c:	02010413          	addi	s0,sp,32
  10:	fea43423          	sd	a0,-24(s0)
  14:	fe843503          	ld	a0,-24(s0)
  18:	00000317          	auipc	t1,0x0
  1c:	00033303          	ld	t1,0(t1) # 18 <std::__detail::_Hashtable_ebo_helper<0, std::allocator<std::__detail::_Hash_node<std::pair<unsigned long const, dwarf::abbrev_entry>, false> >, true>::~_Hashtable_ebo_helper()+0x18>
  20:	000300e7          	jalr	ra,0(t1)
  24:	00000013          	addi	zero,zero,0
  28:	01813083          	ld	ra,24(sp)
  2c:	01013403          	ld	s0,16(sp)
  30:	02010113          	addi	sp,sp,32
  34:	00008067          	jalr	zero,0(ra)

Disassembly of section .text._ZNSt8__detail16_Hashtable_allocISaINS_10_Hash_nodeISt4pairIKmN5dwarf12abbrev_entryEELb0EEEEEC2Ev:

0000000000000000 <std::__detail::_Hashtable_alloc<std::allocator<std::__detail::_Hash_node<std::pair<unsigned long const, dwarf::abbrev_entry>, false> > >::_Hashtable_alloc()>:
   0:	fe010113          	addi	sp,sp,-32
   4:	00113c23          	sd	ra,24(sp)
   8:	00813823          	sd	s0,16(sp)
   c:	02010413          	addi	s0,sp,32
  10:	fea43423          	sd	a0,-24(s0)
  14:	fe843503          	ld	a0,-24(s0)
  18:	00000317          	auipc	t1,0x0
  1c:	00033303          	ld	t1,0(t1) # 18 <std::__detail::_Hashtable_alloc<std::allocator<std::__detail::_Hash_node<std::pair<unsigned long const, dwarf::abbrev_entry>, false> > >::_Hashtable_alloc()+0x18>
  20:	000300e7          	jalr	ra,0(t1)
  24:	00000013          	addi	zero,zero,0
  28:	01813083          	ld	ra,24(sp)
  2c:	01013403          	ld	s0,16(sp)
  30:	02010113          	addi	sp,sp,32
  34:	00008067          	jalr	zero,0(ra)

Disassembly of section .text._ZNSt8__detail16_Hashtable_allocISaINS_10_Hash_nodeISt4pairIKmN5dwarf12abbrev_entryEELb0EEEEED2Ev:

0000000000000000 <std::__detail::_Hashtable_alloc<std::allocator<std::__detail::_Hash_node<std::pair<unsigned long const, dwarf::abbrev_entry>, false> > >::~_Hashtable_alloc()>:
   0:	fe010113          	addi	sp,sp,-32
   4:	00113c23          	sd	ra,24(sp)
   8:	00813823          	sd	s0,16(sp)
   c:	02010413          	addi	s0,sp,32
  10:	fea43423          	sd	a0,-24(s0)
  14:	fe843503          	ld	a0,-24(s0)
  18:	00000317          	auipc	t1,0x0
  1c:	00033303          	ld	t1,0(t1) # 18 <std::__detail::_Hashtable_alloc<std::allocator<std::__detail::_Hash_node<std::pair<unsigned long const, dwarf::abbrev_entry>, false> > >::~_Hashtable_alloc()+0x18>
  20:	000300e7          	jalr	ra,0(t1)
  24:	00000013          	addi	zero,zero,0
  28:	01813083          	ld	ra,24(sp)
  2c:	01013403          	ld	s0,16(sp)
  30:	02010113          	addi	sp,sp,32
  34:	00008067          	jalr	zero,0(ra)

Disassembly of section .text._ZNSt10_HashtableImSt4pairIKmN5dwarf12abbrev_entryEESaIS4_ENSt8__detail10_Select1stESt8equal_toImESt4hashImENS6_18_Mod_range_hashingENS6_20_Default_ranged_hashENS6_20_Prime_rehash_policyENS6_17_Hashtable_traitsILb0ELb0ELb1EEEEC2Ev:

0000000000000000 <std::_Hashtable<unsigned long, std::pair<unsigned long const, dwarf::abbrev_entry>, std::allocator<std::pair<unsigned long const, dwarf::abbrev_entry> >, std::__detail::_Select1st, std::equal_to<unsigned long>, std::hash<unsigned long>, std::__detail::_Mod_range_hashing, std::__detail::_Default_ranged_hash, std::__detail::_Prime_rehash_policy, std::__detail::_Hashtable_traits<false, false, true> >::_Hashtable()>:
   0:	fe010113          	addi	sp,sp,-32
   4:	00113c23          	sd	ra,24(sp)
   8:	00813823          	sd	s0,16(sp)
   c:	02010413          	addi	s0,sp,32
  10:	fea43423          	sd	a0,-24(s0)
  14:	fe843503          	ld	a0,-24(s0)
  18:	00000317          	auipc	t1,0x0
  1c:	00033303          	ld	t1,0(t1) # 18 <std::_Hashtable<unsigned long, std::pair<unsigned long const, dwarf::abbrev_entry>, std::allocator<std::pair<unsigned long const, dwarf::abbrev_entry> >, std::__detail::_Select1st, std::equal_to<unsigned long>, std::hash<unsigned long>, std::__detail::_Mod_range_hashing, std::__detail::_Default_ranged_hash, std::__detail::_Prime_rehash_policy, std::__detail::_Hashtable_traits<false, false, true> >::_Hashtable()+0x18>
  20:	000300e7          	jalr	ra,0(t1)
  24:	fe843503          	ld	a0,-24(s0)
  28:	00000317          	auipc	t1,0x0
  2c:	00033303          	ld	t1,0(t1) # 28 <std::_Hashtable<unsigned long, std::pair<unsigned long const, dwarf::abbrev_entry>, std::allocator<std::pair<unsigned long const, dwarf::abbrev_entry> >, std::__detail::_Select1st, std::equal_to<unsigned long>, std::hash<unsigned long>, std::__detail::_Mod_range_hashing, std::__detail::_Default_ranged_hash, std::__detail::_Prime_rehash_policy, std::__detail::_Hashtable_traits<false, false, true> >::_Hashtable()+0x28>
  30:	000300e7          	jalr	ra,0(t1)
  34:	fe843783          	ld	a5,-24(s0)
  38:	03078713          	addi	a4,a5,48
  3c:	fe843783          	ld	a5,-24(s0)
  40:	00e7b023          	sd	a4,0(a5)
  44:	fe843783          	ld	a5,-24(s0)
  48:	00100713          	addi	a4,zero,1
  4c:	00e7b423          	sd	a4,8(a5)
  50:	fe843783          	ld	a5,-24(s0)
  54:	01078793          	addi	a5,a5,16
  58:	00078513          	addi	a0,a5,0
  5c:	00000317          	auipc	t1,0x0
  60:	00033303          	ld	t1,0(t1) # 5c <std::_Hashtable<unsigned long, std::pair<unsigned long const, dwarf::abbrev_entry>, std::allocator<std::pair<unsigned long const, dwarf::abbrev_entry> >, std::__detail::_Select1st, std::equal_to<unsigned long>, std::hash<unsigned long>, std::__detail::_Mod_range_hashing, std::__detail::_Default_ranged_hash, std::__detail::_Prime_rehash_policy, std::__detail::_Hashtable_traits<false, false, true> >::_Hashtable()+0x5c>
  64:	000300e7          	jalr	ra,0(t1)
  68:	fe843783          	ld	a5,-24(s0)
  6c:	0007bc23          	sd	zero,24(a5)
  70:	fe843783          	ld	a5,-24(s0)
  74:	02078713          	addi	a4,a5,32
  78:	00000797          	auipc	a5,0x0
  7c:	00078793          	addi	a5,a5,0 # 78 <std::_Hashtable<unsigned long, std::pair<unsigned long const, dwarf::abbrev_entry>, std::allocator<std::pair<unsigned long const, dwarf::abbrev_entry> >, std::__detail::_Select1st, std::equal_to<unsigned long>, std::hash<unsigned long>, std::__detail::_Mod_range_hashing, std::__detail::_Default_ranged_hash, std::__detail::_Prime_rehash_policy, std::__detail::_Hashtable_traits<false, false, true> >::_Hashtable()+0x78>
  80:	0007a787          	flw	fa5,0(a5)
  84:	20f78553          	fsgnj.s	fa0,fa5,fa5
  88:	00070513          	addi	a0,a4,0
  8c:	00000317          	auipc	t1,0x0
  90:	00033303          	ld	t1,0(t1) # 8c <std::_Hashtable<unsigned long, std::pair<unsigned long const, dwarf::abbrev_entry>, std::allocator<std::pair<unsigned long const, dwarf::abbrev_entry> >, std::__detail::_Select1st, std::equal_to<unsigned long>, std::hash<unsigned long>, std::__detail::_Mod_range_hashing, std::__detail::_Default_ranged_hash, std::__detail::_Prime_rehash_policy, std::__detail::_Hashtable_traits<false, false, true> >::_Hashtable()+0x8c>
  94:	000300e7          	jalr	ra,0(t1)
  98:	fe843783          	ld	a5,-24(s0)
  9c:	0207b823          	sd	zero,48(a5)
  a0:	00000013          	addi	zero,zero,0
  a4:	01813083          	ld	ra,24(sp)
  a8:	01013403          	ld	s0,16(sp)
  ac:	02010113          	addi	sp,sp,32
  b0:	00008067          	jalr	zero,0(ra)

Disassembly of section .text._ZNSt13unordered_mapImN5dwarf12abbrev_entryESt4hashImESt8equal_toImESaISt4pairIKmS1_EEEC2Ev:

0000000000000000 <std::unordered_map<unsigned long, dwarf::abbrev_entry, std::hash<unsigned long>, std::equal_to<unsigned long>, std::allocator<std::pair<unsigned long const, dwarf::abbrev_entry> > >::unordered_map()>:
   0:	fe010113          	addi	sp,sp,-32
   4:	00113c23          	sd	ra,24(sp)
   8:	00813823          	sd	s0,16(sp)
   c:	02010413          	addi	s0,sp,32
  10:	fea43423          	sd	a0,-24(s0)
  14:	fe843783          	ld	a5,-24(s0)
  18:	00078513          	addi	a0,a5,0
  1c:	00000317          	auipc	t1,0x0
  20:	00033303          	ld	t1,0(t1) # 1c <std::unordered_map<unsigned long, dwarf::abbrev_entry, std::hash<unsigned long>, std::equal_to<unsigned long>, std::allocator<std::pair<unsigned long const, dwarf::abbrev_entry> > >::unordered_map()+0x1c>
  24:	000300e7          	jalr	ra,0(t1)
  28:	00000013          	addi	zero,zero,0
  2c:	01813083          	ld	ra,24(sp)
  30:	01013403          	ld	s0,16(sp)
  34:	02010113          	addi	sp,sp,32
  38:	00008067          	jalr	zero,0(ra)

Disassembly of section .text._ZNSt13unordered_mapImN5dwarf12abbrev_entryESt4hashImESt8equal_toImESaISt4pairIKmS1_EEED2Ev:

0000000000000000 <std::unordered_map<unsigned long, dwarf::abbrev_entry, std::hash<unsigned long>, std::equal_to<unsigned long>, std::allocator<std::pair<unsigned long const, dwarf::abbrev_entry> > >::~unordered_map()>:
   0:	fe010113          	addi	sp,sp,-32
   4:	00113c23          	sd	ra,24(sp)
   8:	00813823          	sd	s0,16(sp)
   c:	02010413          	addi	s0,sp,32
  10:	fea43423          	sd	a0,-24(s0)
  14:	fe843783          	ld	a5,-24(s0)
  18:	00078513          	addi	a0,a5,0
  1c:	00000317          	auipc	t1,0x0
  20:	00033303          	ld	t1,0(t1) # 1c <std::unordered_map<unsigned long, dwarf::abbrev_entry, std::hash<unsigned long>, std::equal_to<unsigned long>, std::allocator<std::pair<unsigned long const, dwarf::abbrev_entry> > >::~unordered_map()+0x1c>
  24:	000300e7          	jalr	ra,0(t1)
  28:	00000013          	addi	zero,zero,0
  2c:	01813083          	ld	ra,24(sp)
  30:	01013403          	ld	s0,16(sp)
  34:	02010113          	addi	sp,sp,32
  38:	00008067          	jalr	zero,0(ra)

Disassembly of section .text._ZN5dwarf4unit4implC2ERKNS_5dwarfEmRKSt10shared_ptrINS_7sectionEEmmmm:

0000000000000000 <dwarf::unit::impl::impl(dwarf::dwarf const&, unsigned long, std::shared_ptr<dwarf::section> const&, unsigned long, unsigned long, unsigned long, unsigned long)>:
   0:	fb010113          	addi	sp,sp,-80
   4:	04113423          	sd	ra,72(sp)
   8:	04813023          	sd	s0,64(sp)
   c:	05010413          	addi	s0,sp,80
  10:	fea43423          	sd	a0,-24(s0)
  14:	feb43023          	sd	a1,-32(s0)
  18:	fcc43c23          	sd	a2,-40(s0)
  1c:	fcd43823          	sd	a3,-48(s0)
  20:	fce43423          	sd	a4,-56(s0)
  24:	fcf43023          	sd	a5,-64(s0)
  28:	fb043c23          	sd	a6,-72(s0)
  2c:	fb143823          	sd	a7,-80(s0)
  30:	fe843783          	ld	a5,-24(s0)
  34:	fe043583          	ld	a1,-32(s0)
  38:	00078513          	addi	a0,a5,0
  3c:	00000317          	auipc	t1,0x0
  40:	00033303          	ld	t1,0(t1) # 3c <dwarf::unit::impl::impl(dwarf::dwarf const&, unsigned long, std::shared_ptr<dwarf::section> const&, unsigned long, unsigned long, unsigned long, unsigned long)+0x3c>
  44:	000300e7          	jalr	ra,0(t1)
  48:	fe843783          	ld	a5,-24(s0)
  4c:	fd843703          	ld	a4,-40(s0)
  50:	00e7b823          	sd	a4,16(a5)
  54:	fe843783          	ld	a5,-24(s0)
  58:	01878793          	addi	a5,a5,24
  5c:	fd043583          	ld	a1,-48(s0)
  60:	00078513          	addi	a0,a5,0
  64:	00000317          	auipc	t1,0x0
  68:	00033303          	ld	t1,0(t1) # 64 <dwarf::unit::impl::impl(dwarf::dwarf const&, unsigned long, std::shared_ptr<dwarf::section> const&, unsigned long, unsigned long, unsigned long, unsigned long)+0x64>
  6c:	000300e7          	jalr	ra,0(t1)
  70:	fe843783          	ld	a5,-24(s0)
  74:	fc843703          	ld	a4,-56(s0)
  78:	02e7b423          	sd	a4,40(a5)
  7c:	fe843783          	ld	a5,-24(s0)
  80:	fc043703          	ld	a4,-64(s0)
  84:	02e7b823          	sd	a4,48(a5)
  88:	fe843783          	ld	a5,-24(s0)
  8c:	fb843703          	ld	a4,-72(s0)
  90:	02e7bc23          	sd	a4,56(a5)
  94:	fe843783          	ld	a5,-24(s0)
  98:	fb043703          	ld	a4,-80(s0)
  9c:	04e7b023          	sd	a4,64(a5)
  a0:	fe843783          	ld	a5,-24(s0)
  a4:	04878793          	addi	a5,a5,72
  a8:	00078513          	addi	a0,a5,0
  ac:	00000317          	auipc	t1,0x0
  b0:	00033303          	ld	t1,0(t1) # ac <dwarf::unit::impl::impl(dwarf::dwarf const&, unsigned long, std::shared_ptr<dwarf::section> const&, unsigned long, unsigned long, unsigned long, unsigned long)+0xac>
  b4:	000300e7          	jalr	ra,0(t1)
  b8:	fe843783          	ld	a5,-24(s0)
  bc:	0b878793          	addi	a5,a5,184
  c0:	00078513          	addi	a0,a5,0
  c4:	00000317          	auipc	t1,0x0
  c8:	00033303          	ld	t1,0(t1) # c4 <dwarf::unit::impl::impl(dwarf::dwarf const&, unsigned long, std::shared_ptr<dwarf::section> const&, unsigned long, unsigned long, unsigned long, unsigned long)+0xc4>
  cc:	000300e7          	jalr	ra,0(t1)
  d0:	fe843783          	ld	a5,-24(s0)
  d4:	12878793          	addi	a5,a5,296
  d8:	00078513          	addi	a0,a5,0
  dc:	00000317          	auipc	t1,0x0
  e0:	00033303          	ld	t1,0(t1) # dc <dwarf::unit::impl::impl(dwarf::dwarf const&, unsigned long, std::shared_ptr<dwarf::section> const&, unsigned long, unsigned long, unsigned long, unsigned long)+0xdc>
  e4:	000300e7          	jalr	ra,0(t1)
  e8:	fe843783          	ld	a5,-24(s0)
  ec:	12078c23          	sb	zero,312(a5)
  f0:	fe843783          	ld	a5,-24(s0)
  f4:	14078793          	addi	a5,a5,320
  f8:	00078513          	addi	a0,a5,0
  fc:	00000317          	auipc	t1,0x0
 100:	00033303          	ld	t1,0(t1) # fc <dwarf::unit::impl::impl(dwarf::dwarf const&, unsigned long, std::shared_ptr<dwarf::section> const&, unsigned long, unsigned long, unsigned long, unsigned long)+0xfc>
 104:	000300e7          	jalr	ra,0(t1)
 108:	fe843783          	ld	a5,-24(s0)
 10c:	15878793          	addi	a5,a5,344
 110:	00078513          	addi	a0,a5,0
 114:	00000317          	auipc	t1,0x0
 118:	00033303          	ld	t1,0(t1) # 114 <dwarf::unit::impl::impl(dwarf::dwarf const&, unsigned long, std::shared_ptr<dwarf::section> const&, unsigned long, unsigned long, unsigned long, unsigned long)+0x114>
 11c:	000300e7          	jalr	ra,0(t1)
 120:	00000013          	addi	zero,zero,0
 124:	04813083          	ld	ra,72(sp)
 128:	04013403          	ld	s0,64(sp)
 12c:	05010113          	addi	sp,sp,80
 130:	00008067          	jalr	zero,0(ra)

Disassembly of section .text._ZNSt12__shared_ptrIN5dwarf4unit4implELN9__gnu_cxx12_Lock_policyE1EED2Ev:

0000000000000000 <std::__shared_ptr<dwarf::unit::impl, (__gnu_cxx::_Lock_policy)1>::~__shared_ptr()>:
   0:	fe010113          	addi	sp,sp,-32
   4:	00113c23          	sd	ra,24(sp)
   8:	00813823          	sd	s0,16(sp)
   c:	02010413          	addi	s0,sp,32
  10:	fea43423          	sd	a0,-24(s0)
  14:	fe843783          	ld	a5,-24(s0)
  18:	00878793          	addi	a5,a5,8
  1c:	00078513          	addi	a0,a5,0
  20:	00000317          	auipc	t1,0x0
  24:	00033303          	ld	t1,0(t1) # 20 <std::__shared_ptr<dwarf::unit::impl, (__gnu_cxx::_Lock_policy)1>::~__shared_ptr()+0x20>
  28:	000300e7          	jalr	ra,0(t1)
  2c:	00000013          	addi	zero,zero,0
  30:	01813083          	ld	ra,24(sp)
  34:	01013403          	ld	s0,16(sp)
  38:	02010113          	addi	sp,sp,32
  3c:	00008067          	jalr	zero,0(ra)

Disassembly of section .text._ZNSt10shared_ptrIN5dwarf4unit4implEED2Ev:

0000000000000000 <std::shared_ptr<dwarf::unit::impl>::~shared_ptr()>:
   0:	fe010113          	addi	sp,sp,-32
   4:	00113c23          	sd	ra,24(sp)
   8:	00813823          	sd	s0,16(sp)
   c:	02010413          	addi	s0,sp,32
  10:	fea43423          	sd	a0,-24(s0)
  14:	fe843783          	ld	a5,-24(s0)
  18:	00078513          	addi	a0,a5,0
  1c:	00000317          	auipc	t1,0x0
  20:	00033303          	ld	t1,0(t1) # 1c <std::shared_ptr<dwarf::unit::impl>::~shared_ptr()+0x1c>
  24:	000300e7          	jalr	ra,0(t1)
  28:	00000013          	addi	zero,zero,0
  2c:	01813083          	ld	ra,24(sp)
  30:	01013403          	ld	s0,16(sp)
  34:	02010113          	addi	sp,sp,32
  38:	00008067          	jalr	zero,0(ra)

Disassembly of section .text._ZN5dwarf3dieaSEOS0_:

0000000000000000 <dwarf::die::operator=(dwarf::die&&)>:
   0:	fe010113          	addi	sp,sp,-32
   4:	00113c23          	sd	ra,24(sp)
   8:	00813823          	sd	s0,16(sp)
   c:	02010413          	addi	s0,sp,32
  10:	fea43423          	sd	a0,-24(s0)
  14:	feb43023          	sd	a1,-32(s0)
  18:	fe043783          	ld	a5,-32(s0)
  1c:	0007a703          	lw	a4,0(a5)
  20:	fe843783          	ld	a5,-24(s0)
  24:	00e7a023          	sw	a4,0(a5)
  28:	fe043783          	ld	a5,-32(s0)
  2c:	0087b703          	ld	a4,8(a5)
  30:	fe843783          	ld	a5,-24(s0)
  34:	00e7b423          	sd	a4,8(a5)
  38:	fe043783          	ld	a5,-32(s0)
  3c:	0107b703          	ld	a4,16(a5)
  40:	fe843783          	ld	a5,-24(s0)
  44:	00e7b823          	sd	a4,16(a5)
  48:	fe043783          	ld	a5,-32(s0)
  4c:	0187b703          	ld	a4,24(a5)
  50:	fe843783          	ld	a5,-24(s0)
  54:	00e7bc23          	sd	a4,24(a5)
  58:	fe843783          	ld	a5,-24(s0)
  5c:	02078713          	addi	a4,a5,32
  60:	fe043783          	ld	a5,-32(s0)
  64:	02078793          	addi	a5,a5,32
  68:	00078593          	addi	a1,a5,0
  6c:	00070513          	addi	a0,a4,0
  70:	00000317          	auipc	t1,0x0
  74:	00033303          	ld	t1,0(t1) # 70 <dwarf::die::operator=(dwarf::die&&)+0x70>
  78:	000300e7          	jalr	ra,0(t1)
  7c:	fe043783          	ld	a5,-32(s0)
  80:	0687b703          	ld	a4,104(a5)
  84:	fe843783          	ld	a5,-24(s0)
  88:	06e7b423          	sd	a4,104(a5)
  8c:	fe843783          	ld	a5,-24(s0)
  90:	00078513          	addi	a0,a5,0
  94:	01813083          	ld	ra,24(sp)
  98:	01013403          	ld	s0,16(sp)
  9c:	02010113          	addi	sp,sp,32
  a0:	00008067          	jalr	zero,0(ra)

Disassembly of section .text._ZN5dwarf12abbrev_entryD2Ev:

0000000000000000 <dwarf::abbrev_entry::~abbrev_entry()>:
   0:	fe010113          	addi	sp,sp,-32
   4:	00113c23          	sd	ra,24(sp)
   8:	00813823          	sd	s0,16(sp)
   c:	02010413          	addi	s0,sp,32
  10:	fea43423          	sd	a0,-24(s0)
  14:	fe843783          	ld	a5,-24(s0)
  18:	01078793          	addi	a5,a5,16
  1c:	00078513          	addi	a0,a5,0
  20:	00000317          	auipc	t1,0x0
  24:	00033303          	ld	t1,0(t1) # 20 <dwarf::abbrev_entry::~abbrev_entry()+0x20>
  28:	000300e7          	jalr	ra,0(t1)
  2c:	00000013          	addi	zero,zero,0
  30:	01813083          	ld	ra,24(sp)
  34:	01013403          	ld	s0,16(sp)
  38:	02010113          	addi	sp,sp,32
  3c:	00008067          	jalr	zero,0(ra)

Disassembly of section .text._ZN5dwarf12abbrev_entryaSERKS0_:

0000000000000000 <dwarf::abbrev_entry::operator=(dwarf::abbrev_entry const&)>:
   0:	fe010113          	addi	sp,sp,-32
   4:	00113c23          	sd	ra,24(sp)
   8:	00813823          	sd	s0,16(sp)
   c:	02010413          	addi	s0,sp,32
  10:	fea43423          	sd	a0,-24(s0)
  14:	feb43023          	sd	a1,-32(s0)
  18:	fe043783          	ld	a5,-32(s0)
  1c:	0007b703          	ld	a4,0(a5)
  20:	fe843783          	ld	a5,-24(s0)
  24:	00e7b023          	sd	a4,0(a5)
  28:	fe043783          	ld	a5,-32(s0)
  2c:	0087a703          	lw	a4,8(a5)
  30:	fe843783          	ld	a5,-24(s0)
  34:	00e7a423          	sw	a4,8(a5)
  38:	fe043783          	ld	a5,-32(s0)
  3c:	00c7c703          	lbu	a4,12(a5)
  40:	fe843783          	ld	a5,-24(s0)
  44:	00e78623          	sb	a4,12(a5)
  48:	fe843783          	ld	a5,-24(s0)
  4c:	01078713          	addi	a4,a5,16
  50:	fe043783          	ld	a5,-32(s0)
  54:	01078793          	addi	a5,a5,16
  58:	00078593          	addi	a1,a5,0
  5c:	00070513          	addi	a0,a4,0
  60:	00000317          	auipc	t1,0x0
  64:	00033303          	ld	t1,0(t1) # 60 <dwarf::abbrev_entry::operator=(dwarf::abbrev_entry const&)+0x60>
  68:	000300e7          	jalr	ra,0(t1)
  6c:	fe843783          	ld	a5,-24(s0)
  70:	00078513          	addi	a0,a5,0
  74:	01813083          	ld	ra,24(sp)
  78:	01013403          	ld	s0,16(sp)
  7c:	02010113          	addi	sp,sp,32
  80:	00008067          	jalr	zero,0(ra)

Disassembly of section .text._ZN9__gnu_cxx14__alloc_traitsISaIN5dwarf14attribute_specEES2_E15_S_always_equalEv:

0000000000000000 <__gnu_cxx::__alloc_traits<std::allocator<dwarf::attribute_spec>, dwarf::attribute_spec>::_S_always_equal()>:
   0:	ff010113          	addi	sp,sp,-16
   4:	00813423          	sd	s0,8(sp)
   8:	01010413          	addi	s0,sp,16
   c:	00100793          	addi	a5,zero,1
  10:	00078513          	addi	a0,a5,0
  14:	00813403          	ld	s0,8(sp)
  18:	01010113          	addi	sp,sp,16
  1c:	00008067          	jalr	zero,0(ra)

Disassembly of section .text._ZN5dwarf12abbrev_entryaSEOS0_:

0000000000000000 <dwarf::abbrev_entry::operator=(dwarf::abbrev_entry&&)>:
   0:	fe010113          	addi	sp,sp,-32
   4:	00113c23          	sd	ra,24(sp)
   8:	00813823          	sd	s0,16(sp)
   c:	02010413          	addi	s0,sp,32
  10:	fea43423          	sd	a0,-24(s0)
  14:	feb43023          	sd	a1,-32(s0)
  18:	fe043783          	ld	a5,-32(s0)
  1c:	0007b703          	ld	a4,0(a5)
  20:	fe843783          	ld	a5,-24(s0)
  24:	00e7b023          	sd	a4,0(a5)
  28:	fe043783          	ld	a5,-32(s0)
  2c:	0087a703          	lw	a4,8(a5)
  30:	fe843783          	ld	a5,-24(s0)
  34:	00e7a423          	sw	a4,8(a5)
  38:	fe043783          	ld	a5,-32(s0)
  3c:	00c7c703          	lbu	a4,12(a5)
  40:	fe843783          	ld	a5,-24(s0)
  44:	00e78623          	sb	a4,12(a5)
  48:	fe843783          	ld	a5,-24(s0)
  4c:	01078713          	addi	a4,a5,16
  50:	fe043783          	ld	a5,-32(s0)
  54:	01078793          	addi	a5,a5,16
  58:	00078593          	addi	a1,a5,0
  5c:	00070513          	addi	a0,a4,0
  60:	00000317          	auipc	t1,0x0
  64:	00033303          	ld	t1,0(t1) # 60 <dwarf::abbrev_entry::operator=(dwarf::abbrev_entry&&)+0x60>
  68:	000300e7          	jalr	ra,0(t1)
  6c:	fe843783          	ld	a5,-24(s0)
  70:	00078513          	addi	a0,a5,0
  74:	01813083          	ld	ra,24(sp)
  78:	01013403          	ld	s0,16(sp)
  7c:	02010113          	addi	sp,sp,32
  80:	00008067          	jalr	zero,0(ra)

Disassembly of section .text._ZN5dwarf4unitC2Ev:

0000000000000000 <dwarf::unit::unit()>:
   0:	fe010113          	addi	sp,sp,-32
   4:	00113c23          	sd	ra,24(sp)
   8:	00813823          	sd	s0,16(sp)
   c:	02010413          	addi	s0,sp,32
  10:	fea43423          	sd	a0,-24(s0)
  14:	00000797          	auipc	a5,0x0
  18:	0007b783          	ld	a5,0(a5) # 14 <dwarf::unit::unit()+0x14>
  1c:	01078713          	addi	a4,a5,16
  20:	fe843783          	ld	a5,-24(s0)
  24:	00e7b023          	sd	a4,0(a5)
  28:	fe843783          	ld	a5,-24(s0)
  2c:	00878793          	addi	a5,a5,8
  30:	00078513          	addi	a0,a5,0
  34:	00000317          	auipc	t1,0x0
  38:	00033303          	ld	t1,0(t1) # 34 <dwarf::unit::unit()+0x34>
  3c:	000300e7          	jalr	ra,0(t1)
  40:	00000013          	addi	zero,zero,0
  44:	01813083          	ld	ra,24(sp)
  48:	01013403          	ld	s0,16(sp)
  4c:	02010113          	addi	sp,sp,32
  50:	00008067          	jalr	zero,0(ra)

Disassembly of section .text._ZNSt10shared_ptrIN5dwarf7sectionEEC1Ev:

0000000000000000 <std::shared_ptr<dwarf::section>::shared_ptr()>:
   0:	fe010113          	addi	sp,sp,-32
   4:	00113c23          	sd	ra,24(sp)
   8:	00813823          	sd	s0,16(sp)
   c:	02010413          	addi	s0,sp,32
  10:	fea43423          	sd	a0,-24(s0)
  14:	fe843783          	ld	a5,-24(s0)
  18:	00078513          	addi	a0,a5,0
  1c:	00000317          	auipc	t1,0x0
  20:	00033303          	ld	t1,0(t1) # 1c <std::shared_ptr<dwarf::section>::shared_ptr()+0x1c>
  24:	000300e7          	jalr	ra,0(t1)
  28:	00000013          	addi	zero,zero,0
  2c:	01813083          	ld	ra,24(sp)
  30:	01013403          	ld	s0,16(sp)
  34:	02010113          	addi	sp,sp,32
  38:	00008067          	jalr	zero,0(ra)

Disassembly of section .text._ZNSt12__shared_ptrIN5dwarf7sectionELN9__gnu_cxx12_Lock_policyE1EEC2Ev:

0000000000000000 <std::__shared_ptr<dwarf::section, (__gnu_cxx::_Lock_policy)1>::__shared_ptr()>:
   0:	fe010113          	addi	sp,sp,-32
   4:	00113c23          	sd	ra,24(sp)
   8:	00813823          	sd	s0,16(sp)
   c:	02010413          	addi	s0,sp,32
  10:	fea43423          	sd	a0,-24(s0)
  14:	fe843783          	ld	a5,-24(s0)
  18:	0007b023          	sd	zero,0(a5)
  1c:	fe843783          	ld	a5,-24(s0)
  20:	00878793          	addi	a5,a5,8
  24:	00078513          	addi	a0,a5,0
  28:	00000317          	auipc	t1,0x0
  2c:	00033303          	ld	t1,0(t1) # 28 <std::__shared_ptr<dwarf::section, (__gnu_cxx::_Lock_policy)1>::__shared_ptr()+0x28>
  30:	000300e7          	jalr	ra,0(t1)
  34:	00000013          	addi	zero,zero,0
  38:	01813083          	ld	ra,24(sp)
  3c:	01013403          	ld	s0,16(sp)
  40:	02010113          	addi	sp,sp,32
  44:	00008067          	jalr	zero,0(ra)

Disassembly of section .text._ZNSt14__shared_countILN9__gnu_cxx12_Lock_policyE1EEC1Ev:

0000000000000000 <std::__shared_count<(__gnu_cxx::_Lock_policy)1>::__shared_count()>:
   0:	fe010113          	addi	sp,sp,-32
   4:	00813c23          	sd	s0,24(sp)
   8:	02010413          	addi	s0,sp,32
   c:	fea43423          	sd	a0,-24(s0)
  10:	fe843783          	ld	a5,-24(s0)
  14:	0007b023          	sd	zero,0(a5)
  18:	00000013          	addi	zero,zero,0
  1c:	01813403          	ld	s0,24(sp)
  20:	02010113          	addi	sp,sp,32
  24:	00008067          	jalr	zero,0(ra)

Disassembly of section .text._ZN5dwarf10line_tableaSEOS0_:

0000000000000000 <dwarf::line_table::operator=(dwarf::line_table&&)>:
   0:	fe010113          	addi	sp,sp,-32
   4:	00113c23          	sd	ra,24(sp)
   8:	00813823          	sd	s0,16(sp)
   c:	02010413          	addi	s0,sp,32
  10:	fea43423          	sd	a0,-24(s0)
  14:	feb43023          	sd	a1,-32(s0)
  18:	fe843783          	ld	a5,-24(s0)
  1c:	fe043703          	ld	a4,-32(s0)
  20:	00070593          	addi	a1,a4,0
  24:	00078513          	addi	a0,a5,0
  28:	00000317          	auipc	t1,0x0
  2c:	00033303          	ld	t1,0(t1) # 28 <dwarf::line_table::operator=(dwarf::line_table&&)+0x28>
  30:	000300e7          	jalr	ra,0(t1)
  34:	fe843783          	ld	a5,-24(s0)
  38:	00078513          	addi	a0,a5,0
  3c:	01813083          	ld	ra,24(sp)
  40:	01013403          	ld	s0,16(sp)
  44:	02010113          	addi	sp,sp,32
  48:	00008067          	jalr	zero,0(ra)

Disassembly of section .text._ZNSt8__detail14__to_chars_lenIjEEjT_i:

0000000000000000 <unsigned int std::__detail::__to_chars_len<unsigned int>(unsigned int, int)>:
   0:	fc010113          	addi	sp,sp,-64
   4:	02813c23          	sd	s0,56(sp)
   8:	04010413          	addi	s0,sp,64
   c:	00050793          	addi	a5,a0,0
  10:	00058713          	addi	a4,a1,0
  14:	fcf42623          	sw	a5,-52(s0)
  18:	00070793          	addi	a5,a4,0
  1c:	fcf42423          	sw	a5,-56(s0)
  20:	00100793          	addi	a5,zero,1
  24:	fef42623          	sw	a5,-20(s0)
  28:	fc842783          	lw	a5,-56(s0)
  2c:	02f787bb          	mulw	a5,a5,a5
  30:	0007879b          	addiw	a5,a5,0
  34:	fef42423          	sw	a5,-24(s0)
  38:	fc842783          	lw	a5,-56(s0)
  3c:	fe842703          	lw	a4,-24(s0)
  40:	02f707bb          	mulw	a5,a4,a5
  44:	fef42223          	sw	a5,-28(s0)
  48:	fc842783          	lw	a5,-56(s0)
  4c:	fe442703          	lw	a4,-28(s0)
  50:	02f707bb          	mulw	a5,a4,a5
  54:	0007879b          	addiw	a5,a5,0
  58:	02079793          	slli	a5,a5,0x20
  5c:	0207d793          	srli	a5,a5,0x20
  60:	fcf43c23          	sd	a5,-40(s0)

0000000000000064 <.L304>:
  64:	fc842703          	lw	a4,-56(s0)
  68:	fcc42783          	lw	a5,-52(s0)
  6c:	0007879b          	addiw	a5,a5,0
  70:	00e7f663          	bgeu	a5,a4,7c <.L299>
  74:	fec42783          	lw	a5,-20(s0)
  78:	0900006f          	jal	zero,108 <.L300>

000000000000007c <.L299>:
  7c:	fcc42783          	lw	a5,-52(s0)
  80:	00078713          	addi	a4,a5,0
  84:	fe842783          	lw	a5,-24(s0)
  88:	0007071b          	addiw	a4,a4,0
  8c:	0007879b          	addiw	a5,a5,0
  90:	00f77a63          	bgeu	a4,a5,a4 <.L301>
  94:	fec42783          	lw	a5,-20(s0)
  98:	0017879b          	addiw	a5,a5,1
  9c:	0007879b          	addiw	a5,a5,0
  a0:	0680006f          	jal	zero,108 <.L300>

00000000000000a4 <.L301>:
  a4:	fcc42783          	lw	a5,-52(s0)
  a8:	00078713          	addi	a4,a5,0
  ac:	fe442783          	lw	a5,-28(s0)
  b0:	0007071b          	addiw	a4,a4,0
  b4:	0007879b          	addiw	a5,a5,0
  b8:	00f77a63          	bgeu	a4,a5,cc <.L302>
  bc:	fec42783          	lw	a5,-20(s0)
  c0:	0027879b          	addiw	a5,a5,2
  c4:	0007879b          	addiw	a5,a5,0
  c8:	0400006f          	jal	zero,108 <.L300>

00000000000000cc <.L302>:
  cc:	fcc46783          	lwu	a5,-52(s0)
  d0:	fd843703          	ld	a4,-40(s0)
  d4:	00e7fa63          	bgeu	a5,a4,e8 <.L303>
  d8:	fec42783          	lw	a5,-20(s0)
  dc:	0037879b          	addiw	a5,a5,3
  e0:	0007879b          	addiw	a5,a5,0
  e4:	0240006f          	jal	zero,108 <.L300>

00000000000000e8 <.L303>:
  e8:	fcc46703          	lwu	a4,-52(s0)
  ec:	fd843783          	ld	a5,-40(s0)
  f0:	02f757b3          	divu	a5,a4,a5
  f4:	fcf42623          	sw	a5,-52(s0)
  f8:	fec42783          	lw	a5,-20(s0)
  fc:	0047879b          	addiw	a5,a5,4
 100:	fef42623          	sw	a5,-20(s0)
 104:	f61ff06f          	jal	zero,64 <.L304>

0000000000000108 <.L300>:
 108:	00078513          	addi	a0,a5,0
 10c:	03813403          	ld	s0,56(sp)
 110:	04010113          	addi	sp,sp,64
 114:	00008067          	jalr	zero,0(ra)

Disassembly of section .text._ZNSt8__detail18__to_chars_10_implIjEEvPcjT_:

0000000000000000 <void std::__detail::__to_chars_10_impl<unsigned int>(char*, unsigned int, unsigned int)>:
   0:	fd010113          	addi	sp,sp,-48
   4:	02813423          	sd	s0,40(sp)
   8:	03010413          	addi	s0,sp,48
   c:	fca43c23          	sd	a0,-40(s0)
  10:	00058793          	addi	a5,a1,0
  14:	00060713          	addi	a4,a2,0
  18:	fcf42a23          	sw	a5,-44(s0)
  1c:	00070793          	addi	a5,a4,0
  20:	fcf42823          	sw	a5,-48(s0)
  24:	fd442783          	lw	a5,-44(s0)
  28:	fff7879b          	addiw	a5,a5,-1
  2c:	fef42623          	sw	a5,-20(s0)
  30:	0a80006f          	jal	zero,d8 <.L306>

0000000000000034 <.L307>:
  34:	fd042783          	lw	a5,-48(s0)
  38:	00078713          	addi	a4,a5,0
  3c:	06400793          	addi	a5,zero,100
  40:	02f777bb          	remuw	a5,a4,a5
  44:	0007879b          	addiw	a5,a5,0
  48:	0017979b          	slliw	a5,a5,0x1
  4c:	fef42223          	sw	a5,-28(s0)
  50:	fd042783          	lw	a5,-48(s0)
  54:	00078713          	addi	a4,a5,0
  58:	06400793          	addi	a5,zero,100
  5c:	02f757bb          	divuw	a5,a4,a5
  60:	fcf42823          	sw	a5,-48(s0)
  64:	fe442783          	lw	a5,-28(s0)
  68:	0017879b          	addiw	a5,a5,1
  6c:	0007861b          	addiw	a2,a5,0
  70:	fec46783          	lwu	a5,-20(s0)
  74:	fd843703          	ld	a4,-40(s0)
  78:	00f707b3          	add	a5,a4,a5
  7c:	00000697          	auipc	a3,0x0
  80:	0006b683          	ld	a3,0(a3) # 7c <.L307+0x48>
  84:	02061713          	slli	a4,a2,0x20
  88:	02075713          	srli	a4,a4,0x20
  8c:	00e68733          	add	a4,a3,a4
  90:	00074703          	lbu	a4,0(a4)
  94:	00e78023          	sb	a4,0(a5)
  98:	fec42783          	lw	a5,-20(s0)
  9c:	fff7879b          	addiw	a5,a5,-1
  a0:	0007879b          	addiw	a5,a5,0
  a4:	02079793          	slli	a5,a5,0x20
  a8:	0207d793          	srli	a5,a5,0x20
  ac:	fd843703          	ld	a4,-40(s0)
  b0:	00f707b3          	add	a5,a4,a5
  b4:	00000697          	auipc	a3,0x0
  b8:	0006b683          	ld	a3,0(a3) # b4 <.L307+0x80>
  bc:	fe446703          	lwu	a4,-28(s0)
  c0:	00e68733          	add	a4,a3,a4
  c4:	00074703          	lbu	a4,0(a4)
  c8:	00e78023          	sb	a4,0(a5)
  cc:	fec42783          	lw	a5,-20(s0)
  d0:	ffe7879b          	addiw	a5,a5,-2
  d4:	fef42623          	sw	a5,-20(s0)

00000000000000d8 <.L306>:
  d8:	fd042783          	lw	a5,-48(s0)
  dc:	0007871b          	addiw	a4,a5,0
  e0:	06300793          	addi	a5,zero,99
  e4:	f4e7e8e3          	bltu	a5,a4,34 <.L307>
  e8:	fd042783          	lw	a5,-48(s0)
  ec:	0007871b          	addiw	a4,a5,0
  f0:	00900793          	addi	a5,zero,9
  f4:	06e7f063          	bgeu	a5,a4,154 <.L308>
  f8:	fd042783          	lw	a5,-48(s0)
  fc:	0017979b          	slliw	a5,a5,0x1
 100:	fef42423          	sw	a5,-24(s0)
 104:	fe842783          	lw	a5,-24(s0)
 108:	0017879b          	addiw	a5,a5,1
 10c:	0007871b          	addiw	a4,a5,0
 110:	fd843783          	ld	a5,-40(s0)
 114:	00178793          	addi	a5,a5,1
 118:	00000697          	auipc	a3,0x0
 11c:	0006b683          	ld	a3,0(a3) # 118 <.L306+0x40>
 120:	02071713          	slli	a4,a4,0x20
 124:	02075713          	srli	a4,a4,0x20
 128:	00e68733          	add	a4,a3,a4
 12c:	00074703          	lbu	a4,0(a4)
 130:	00e78023          	sb	a4,0(a5)
 134:	00000717          	auipc	a4,0x0
 138:	00073703          	ld	a4,0(a4) # 134 <.L306+0x5c>
 13c:	fe846783          	lwu	a5,-24(s0)
 140:	00f707b3          	add	a5,a4,a5
 144:	0007c703          	lbu	a4,0(a5)
 148:	fd843783          	ld	a5,-40(s0)
 14c:	00e78023          	sb	a4,0(a5)
 150:	01c0006f          	jal	zero,16c <.L310>

0000000000000154 <.L308>:
 154:	fd042783          	lw	a5,-48(s0)
 158:	0ff7f793          	andi	a5,a5,255
 15c:	0307879b          	addiw	a5,a5,48
 160:	0ff7f713          	andi	a4,a5,255
 164:	fd843783          	ld	a5,-40(s0)
 168:	00e78023          	sb	a4,0(a5)

000000000000016c <.L310>:
 16c:	00000013          	addi	zero,zero,0
 170:	02813403          	ld	s0,40(sp)
 174:	03010113          	addi	sp,sp,48
 178:	00008067          	jalr	zero,0(ra)

Disassembly of section .text._ZNSt16_Sp_counted_baseILN9__gnu_cxx12_Lock_policyE1EE19_M_release_last_useEv:

0000000000000000 <std::_Sp_counted_base<(__gnu_cxx::_Lock_policy)1>::_M_release_last_use()>:
   0:	fc010113          	addi	sp,sp,-64
   4:	02113c23          	sd	ra,56(sp)
   8:	02813823          	sd	s0,48(sp)
   c:	04010413          	addi	s0,sp,64
  10:	fca43423          	sd	a0,-56(s0)
  14:	fc843783          	ld	a5,-56(s0)
  18:	0007b783          	ld	a5,0(a5)
  1c:	01078793          	addi	a5,a5,16
  20:	0007b783          	ld	a5,0(a5)
  24:	fc843503          	ld	a0,-56(s0)
  28:	000780e7          	jalr	ra,0(a5)
  2c:	0ff0000f          	fence	iorw,iorw
  30:	fc843783          	ld	a5,-56(s0)
  34:	03478793          	addi	a5,a5,52
  38:	fef43423          	sd	a5,-24(s0)
  3c:	fff00793          	addi	a5,zero,-1
  40:	fef42223          	sw	a5,-28(s0)
  44:	00000797          	auipc	a5,0x0
  48:	0007b783          	ld	a5,0(a5) # 44 <std::_Sp_counted_base<(__gnu_cxx::_Lock_policy)1>::_M_release_last_use()+0x44>
  4c:	0007c783          	lbu	a5,0(a5)
  50:	0007879b          	addiw	a5,a5,0
  54:	00f037b3          	sltu	a5,zero,a5
  58:	0ff7f793          	andi	a5,a5,255
  5c:	04078263          	beq	a5,zero,a0 <.L313>
  60:	fe843783          	ld	a5,-24(s0)
  64:	fcf43c23          	sd	a5,-40(s0)
  68:	fe442783          	lw	a5,-28(s0)
  6c:	fcf42a23          	sw	a5,-44(s0)
  70:	fd843783          	ld	a5,-40(s0)
  74:	0007a783          	lw	a5,0(a5)
  78:	fcf42823          	sw	a5,-48(s0)
  7c:	fd843783          	ld	a5,-40(s0)
  80:	0007a783          	lw	a5,0(a5)
  84:	fd442703          	lw	a4,-44(s0)
  88:	00f707bb          	addw	a5,a4,a5
  8c:	0007871b          	addiw	a4,a5,0
  90:	fd843783          	ld	a5,-40(s0)
  94:	00e7a023          	sw	a4,0(a5)
  98:	fd042783          	lw	a5,-48(s0)
  9c:	0200006f          	jal	zero,bc <.L315>

00000000000000a0 <.L313>:
  a0:	fe442783          	lw	a5,-28(s0)
  a4:	00078593          	addi	a1,a5,0
  a8:	fe843503          	ld	a0,-24(s0)
  ac:	00000097          	auipc	ra,0x0
  b0:	000080e7          	jalr	ra,0(ra) # ac <.L313+0xc>
  b4:	00050793          	addi	a5,a0,0
  b8:	00000013          	addi	zero,zero,0

00000000000000bc <.L315>:
  bc:	00078713          	addi	a4,a5,0
  c0:	00100793          	addi	a5,zero,1
  c4:	40f707b3          	sub	a5,a4,a5
  c8:	0017b793          	sltiu	a5,a5,1
  cc:	0ff7f793          	andi	a5,a5,255
  d0:	00078e63          	beq	a5,zero,ec <.L317>
  d4:	fc843783          	ld	a5,-56(s0)
  d8:	0007b783          	ld	a5,0(a5)
  dc:	01878793          	addi	a5,a5,24
  e0:	0007b783          	ld	a5,0(a5)
  e4:	fc843503          	ld	a0,-56(s0)
  e8:	000780e7          	jalr	ra,0(a5)

00000000000000ec <.L317>:
  ec:	00000013          	addi	zero,zero,0
  f0:	03813083          	ld	ra,56(sp)
  f4:	03013403          	ld	s0,48(sp)
  f8:	04010113          	addi	sp,sp,64
  fc:	00008067          	jalr	zero,0(ra)

Disassembly of section .text._ZNKSt12__shared_ptrIN5dwarf5dwarf4implELN9__gnu_cxx12_Lock_policyE1EEcvbEv:

0000000000000000 <std::__shared_ptr<dwarf::dwarf::impl, (__gnu_cxx::_Lock_policy)1>::operator bool() const>:
   0:	fe010113          	addi	sp,sp,-32
   4:	00813c23          	sd	s0,24(sp)
   8:	02010413          	addi	s0,sp,32
   c:	fea43423          	sd	a0,-24(s0)
  10:	fe843783          	ld	a5,-24(s0)
  14:	0007b783          	ld	a5,0(a5)
  18:	00f037b3          	sltu	a5,zero,a5
  1c:	0ff7f793          	andi	a5,a5,255
  20:	00078513          	addi	a0,a5,0
  24:	01813403          	ld	s0,24(sp)
  28:	02010113          	addi	sp,sp,32
  2c:	00008067          	jalr	zero,0(ra)

Disassembly of section .text._ZN5dwarf12small_vectorImLj6EEC2Ev:

0000000000000000 <dwarf::small_vector<unsigned long, 6u>::small_vector()>:
   0:	fe010113          	addi	sp,sp,-32
   4:	00813c23          	sd	s0,24(sp)
   8:	02010413          	addi	s0,sp,32
   c:	fea43423          	sd	a0,-24(s0)
  10:	fe843703          	ld	a4,-24(s0)
  14:	fe843783          	ld	a5,-24(s0)
  18:	02e7b823          	sd	a4,48(a5)
  1c:	fe843783          	ld	a5,-24(s0)
  20:	0307b703          	ld	a4,48(a5)
  24:	fe843783          	ld	a5,-24(s0)
  28:	02e7bc23          	sd	a4,56(a5)
  2c:	fe843783          	ld	a5,-24(s0)
  30:	03078713          	addi	a4,a5,48
  34:	fe843783          	ld	a5,-24(s0)
  38:	04e7b023          	sd	a4,64(a5)
  3c:	00000013          	addi	zero,zero,0
  40:	01813403          	ld	s0,24(sp)
  44:	02010113          	addi	sp,sp,32
  48:	00008067          	jalr	zero,0(ra)

Disassembly of section .text._ZN5dwarf12small_vectorImLj6EED2Ev:

0000000000000000 <dwarf::small_vector<unsigned long, 6u>::~small_vector()>:
   0:	fe010113          	addi	sp,sp,-32
   4:	00113c23          	sd	ra,24(sp)
   8:	00813823          	sd	s0,16(sp)
   c:	02010413          	addi	s0,sp,32
  10:	fea43423          	sd	a0,-24(s0)
  14:	fe843503          	ld	a0,-24(s0)
  18:	00000317          	auipc	t1,0x0
  1c:	00033303          	ld	t1,0(t1) # 18 <dwarf::small_vector<unsigned long, 6u>::~small_vector()+0x18>
  20:	000300e7          	jalr	ra,0(t1)
  24:	fe843783          	ld	a5,-24(s0)
  28:	0307b703          	ld	a4,48(a5)
  2c:	fe843783          	ld	a5,-24(s0)
  30:	02f70263          	beq	a4,a5,54 <.L323>
  34:	fe843783          	ld	a5,-24(s0)
  38:	0307b783          	ld	a5,48(a5)
  3c:	00078c63          	beq	a5,zero,54 <.L323>
  40:	fe843783          	ld	a5,-24(s0)
  44:	0307b783          	ld	a5,48(a5)
  48:	00078513          	addi	a0,a5,0
  4c:	00000097          	auipc	ra,0x0
  50:	000080e7          	jalr	ra,0(ra) # 4c <dwarf::small_vector<unsigned long, 6u>::~small_vector()+0x4c>

0000000000000054 <.L323>:
  54:	00000013          	addi	zero,zero,0
  58:	01813083          	ld	ra,24(sp)
  5c:	01013403          	ld	s0,16(sp)
  60:	02010113          	addi	sp,sp,32
  64:	00008067          	jalr	zero,0(ra)

Disassembly of section .text._ZNSt14__shared_countILN9__gnu_cxx12_Lock_policyE1EED2Ev:

0000000000000000 <std::__shared_count<(__gnu_cxx::_Lock_policy)1>::~__shared_count()>:
   0:	fe010113          	addi	sp,sp,-32
   4:	00113c23          	sd	ra,24(sp)
   8:	00813823          	sd	s0,16(sp)
   c:	02010413          	addi	s0,sp,32
  10:	fea43423          	sd	a0,-24(s0)
  14:	fe843783          	ld	a5,-24(s0)
  18:	0007b783          	ld	a5,0(a5)
  1c:	00078e63          	beq	a5,zero,38 <.L326>
  20:	fe843783          	ld	a5,-24(s0)
  24:	0007b783          	ld	a5,0(a5)
  28:	00078513          	addi	a0,a5,0
  2c:	00000317          	auipc	t1,0x0
  30:	00033303          	ld	t1,0(t1) # 2c <std::__shared_count<(__gnu_cxx::_Lock_policy)1>::~__shared_count()+0x2c>
  34:	000300e7          	jalr	ra,0(t1)

0000000000000038 <.L326>:
  38:	00000013          	addi	zero,zero,0
  3c:	01813083          	ld	ra,24(sp)
  40:	01013403          	ld	s0,16(sp)
  44:	02010113          	addi	sp,sp,32
  48:	00008067          	jalr	zero,0(ra)

Disassembly of section .text._ZNKSt12__shared_ptrIN5dwarf10line_table4implELN9__gnu_cxx12_Lock_policyE1EEcvbEv:

0000000000000000 <std::__shared_ptr<dwarf::line_table::impl, (__gnu_cxx::_Lock_policy)1>::operator bool() const>:
   0:	fe010113          	addi	sp,sp,-32
   4:	00813c23          	sd	s0,24(sp)
   8:	02010413          	addi	s0,sp,32
   c:	fea43423          	sd	a0,-24(s0)
  10:	fe843783          	ld	a5,-24(s0)
  14:	0007b783          	ld	a5,0(a5)
  18:	00f037b3          	sltu	a5,zero,a5
  1c:	0ff7f793          	andi	a5,a5,255
  20:	00078513          	addi	a0,a5,0
  24:	01813403          	ld	s0,24(sp)
  28:	02010113          	addi	sp,sp,32
  2c:	00008067          	jalr	zero,0(ra)

Disassembly of section .text._ZSt3minImERKT_S2_S2_:

0000000000000000 <unsigned long const& std::min<unsigned long>(unsigned long const&, unsigned long const&)>:
   0:	fe010113          	addi	sp,sp,-32
   4:	00813c23          	sd	s0,24(sp)
   8:	02010413          	addi	s0,sp,32
   c:	fea43423          	sd	a0,-24(s0)
  10:	feb43023          	sd	a1,-32(s0)
  14:	fe043783          	ld	a5,-32(s0)
  18:	0007b703          	ld	a4,0(a5)
  1c:	fe843783          	ld	a5,-24(s0)
  20:	0007b783          	ld	a5,0(a5)
  24:	00f77663          	bgeu	a4,a5,30 <.L330>
  28:	fe043783          	ld	a5,-32(s0)
  2c:	0080006f          	jal	zero,34 <.L331>

0000000000000030 <.L330>:
  30:	fe843783          	ld	a5,-24(s0)

0000000000000034 <.L331>:
  34:	00078513          	addi	a0,a5,0
  38:	01813403          	ld	s0,24(sp)
  3c:	02010113          	addi	sp,sp,32
  40:	00008067          	jalr	zero,0(ra)

Disassembly of section .text._ZSt3maxImERKT_S2_S2_:

0000000000000000 <unsigned long const& std::max<unsigned long>(unsigned long const&, unsigned long const&)>:
   0:	fe010113          	addi	sp,sp,-32
   4:	00813c23          	sd	s0,24(sp)
   8:	02010413          	addi	s0,sp,32
   c:	fea43423          	sd	a0,-24(s0)
  10:	feb43023          	sd	a1,-32(s0)
  14:	fe843783          	ld	a5,-24(s0)
  18:	0007b703          	ld	a4,0(a5)
  1c:	fe043783          	ld	a5,-32(s0)
  20:	0007b783          	ld	a5,0(a5)
  24:	00f77663          	bgeu	a4,a5,30 <.L333>
  28:	fe043783          	ld	a5,-32(s0)
  2c:	0080006f          	jal	zero,34 <.L334>

0000000000000030 <.L333>:
  30:	fe843783          	ld	a5,-24(s0)

0000000000000034 <.L334>:
  34:	00078513          	addi	a0,a5,0
  38:	01813403          	ld	s0,24(sp)
  3c:	02010113          	addi	sp,sp,32
  40:	00008067          	jalr	zero,0(ra)

Disassembly of section .text._ZNKSt19__shared_ptr_accessIN5dwarf7sectionELN9__gnu_cxx12_Lock_policyE1ELb0ELb0EEptEv:

0000000000000000 <std::__shared_ptr_access<dwarf::section, (__gnu_cxx::_Lock_policy)1, false, false>::operator->() const>:
   0:	fe010113          	addi	sp,sp,-32
   4:	00113c23          	sd	ra,24(sp)
   8:	00813823          	sd	s0,16(sp)
   c:	02010413          	addi	s0,sp,32
  10:	fea43423          	sd	a0,-24(s0)
  14:	fe843503          	ld	a0,-24(s0)
  18:	00000317          	auipc	t1,0x0
  1c:	00033303          	ld	t1,0(t1) # 18 <std::__shared_ptr_access<dwarf::section, (__gnu_cxx::_Lock_policy)1, false, false>::operator->() const+0x18>
  20:	000300e7          	jalr	ra,0(t1)
  24:	00050793          	addi	a5,a0,0
  28:	00078513          	addi	a0,a5,0
  2c:	01813083          	ld	ra,24(sp)
  30:	01013403          	ld	s0,16(sp)
  34:	02010113          	addi	sp,sp,32
  38:	00008067          	jalr	zero,0(ra)

Disassembly of section .text._ZNSt14__shared_countILN9__gnu_cxx12_Lock_policyE1EEC2ERKS2_:

0000000000000000 <std::__shared_count<(__gnu_cxx::_Lock_policy)1>::__shared_count(std::__shared_count<(__gnu_cxx::_Lock_policy)1> const&)>:
   0:	fe010113          	addi	sp,sp,-32
   4:	00113c23          	sd	ra,24(sp)
   8:	00813823          	sd	s0,16(sp)
   c:	02010413          	addi	s0,sp,32
  10:	fea43423          	sd	a0,-24(s0)
  14:	feb43023          	sd	a1,-32(s0)
  18:	fe043783          	ld	a5,-32(s0)
  1c:	0007b703          	ld	a4,0(a5)
  20:	fe843783          	ld	a5,-24(s0)
  24:	00e7b023          	sd	a4,0(a5)
  28:	fe843783          	ld	a5,-24(s0)
  2c:	0007b783          	ld	a5,0(a5)
  30:	00078e63          	beq	a5,zero,4c <.L339>
  34:	fe843783          	ld	a5,-24(s0)
  38:	0007b783          	ld	a5,0(a5)
  3c:	00078513          	addi	a0,a5,0
  40:	00000317          	auipc	t1,0x0
  44:	00033303          	ld	t1,0(t1) # 40 <std::__shared_count<(__gnu_cxx::_Lock_policy)1>::__shared_count(std::__shared_count<(__gnu_cxx::_Lock_policy)1> const&)+0x40>
  48:	000300e7          	jalr	ra,0(t1)

000000000000004c <.L339>:
  4c:	00000013          	addi	zero,zero,0
  50:	01813083          	ld	ra,24(sp)
  54:	01013403          	ld	s0,16(sp)
  58:	02010113          	addi	sp,sp,32
  5c:	00008067          	jalr	zero,0(ra)

Disassembly of section .text._ZN5dwarf6cursor5fixedIhEET_v:

0000000000000000 <unsigned char dwarf::cursor::fixed<unsigned char>()>:
   0:	fc010113          	addi	sp,sp,-64
   4:	02113c23          	sd	ra,56(sp)
   8:	02813823          	sd	s0,48(sp)
   c:	04010413          	addi	s0,sp,64
  10:	fca43423          	sd	a0,-56(s0)
  14:	00100593          	addi	a1,zero,1
  18:	fc843503          	ld	a0,-56(s0)
  1c:	00000317          	auipc	t1,0x0
  20:	00033303          	ld	t1,0(t1) # 1c <unsigned char dwarf::cursor::fixed<unsigned char>()+0x1c>
  24:	000300e7          	jalr	ra,0(t1)
  28:	fe043423          	sd	zero,-24(s0)
  2c:	fc843783          	ld	a5,-56(s0)
  30:	0107b783          	ld	a5,16(a5)
  34:	fcf43c23          	sd	a5,-40(s0)
  38:	fc843783          	ld	a5,-56(s0)
  3c:	00078513          	addi	a0,a5,0
  40:	00000317          	auipc	t1,0x0
  44:	00033303          	ld	t1,0(t1) # 40 <unsigned char dwarf::cursor::fixed<unsigned char>()+0x40>
  48:	000300e7          	jalr	ra,0(t1)
  4c:	00050793          	addi	a5,a0,0
  50:	01c7a783          	lw	a5,28(a5)
  54:	0017b793          	sltiu	a5,a5,1
  58:	0ff7f793          	andi	a5,a5,255
  5c:	04078c63          	beq	a5,zero,b4 <.L341>
  60:	fe042223          	sw	zero,-28(s0)
  64:	0400006f          	jal	zero,a4 <.L342>

0000000000000068 <.L343>:
  68:	fe446783          	lwu	a5,-28(s0)
  6c:	fd843703          	ld	a4,-40(s0)
  70:	00f707b3          	add	a5,a4,a5
  74:	0007c783          	lbu	a5,0(a5)
  78:	00078713          	addi	a4,a5,0
  7c:	fe442783          	lw	a5,-28(s0)
  80:	0037979b          	slliw	a5,a5,0x3
  84:	0007879b          	addiw	a5,a5,0
  88:	00f717b3          	sll	a5,a4,a5
  8c:	fe843703          	ld	a4,-24(s0)
  90:	00f767b3          	or	a5,a4,a5
  94:	fef43423          	sd	a5,-24(s0)
