
dump-sections.o:     file format elf64-littleriscv


Disassembly of section .text:

0000000000000000 <main>:
   0:	f4010113          	addi	sp,sp,-192
   4:	0a113c23          	sd	ra,184(sp)
   8:	0a813823          	sd	s0,176(sp)
   c:	0a913423          	sd	s1,168(sp)
  10:	0b213023          	sd	s2,160(sp)
  14:	09313c23          	sd	s3,152(sp)
  18:	09413823          	sd	s4,144(sp)
  1c:	09513423          	sd	s5,136(sp)
  20:	09613023          	sd	s6,128(sp)
  24:	07713c23          	sd	s7,120(sp)
  28:	07813823          	sd	s8,112(sp)
  2c:	07913423          	sd	s9,104(sp)
  30:	07a13023          	sd	s10,96(sp)
  34:	00058413          	addi	s0,a1,0

0000000000000038 <.LM51>:
  38:	00200793          	addi	a5,zero,2
  3c:	02f51e63          	bne	a0,a5,78 <.L42>

0000000000000040 <.LM52>:
  40:	00000593          	addi	a1,zero,0

0000000000000044 <.LM54>:
  44:	00843503          	ld	a0,8(s0)

0000000000000048 <.LEHB0>:
  48:	00000097          	auipc	ra,0x0
  4c:	000080e7          	jalr	ra,0(ra) # 48 <.LEHB0>

0000000000000050 <.LVL20>:
  50:	00050593          	addi	a1,a0,0

0000000000000054 <.LM56>:
  54:	04054463          	blt	a0,zero,9c <.L43>

0000000000000058 <.LM57>:
  58:	05010513          	addi	a0,sp,80

000000000000005c <.LM59>:
  5c:	00000097          	auipc	ra,0x0
  60:	000080e7          	jalr	ra,0(ra) # 5c <.LM59>

0000000000000064 <.LEHE0>:
  64:	05010593          	addi	a1,sp,80
  68:	04010513          	addi	a0,sp,64

000000000000006c <.LEHB1>:
  6c:	00000097          	auipc	ra,0x0
  70:	000080e7          	jalr	ra,0(ra) # 6c <.LEHB1>

0000000000000074 <.LEHE1>:
  74:	06c0006f          	jal	zero,e0 <.L44>

0000000000000078 <.L42>:
  78:	0005b603          	ld	a2,0(a1)
  7c:	000005b7          	lui	a1,0x0
  80:	00058593          	addi	a1,a1,0 # 0 <main>
  84:	000007b7          	lui	a5,0x0
  88:	0007b503          	ld	a0,0(a5) # 0 <main>

000000000000008c <.LEHB2>:
  8c:	00000097          	auipc	ra,0x0
  90:	000080e7          	jalr	ra,0(ra) # 8c <.LEHB2>

0000000000000094 <.LM64>:
  94:	00200513          	addi	a0,zero,2
  98:	2140006f          	jal	zero,2ac <.L40>

000000000000009c <.L43>:
  9c:	000007b7          	lui	a5,0x0
  a0:	0007b483          	ld	s1,0(a5) # 0 <main>
  a4:	00843403          	ld	s0,8(s0)

00000000000000a8 <.LM68>:
  a8:	00000097          	auipc	ra,0x0
  ac:	000080e7          	jalr	ra,0(ra) # a8 <.LM68>

00000000000000b0 <.LM69>:
  b0:	00052503          	lw	a0,0(a0)
  b4:	00000097          	auipc	ra,0x0
  b8:	000080e7          	jalr	ra,0(ra) # b4 <.LM69+0x4>

00000000000000bc <.LVL31>:
  bc:	00050693          	addi	a3,a0,0
  c0:	00040613          	addi	a2,s0,0
  c4:	000005b7          	lui	a1,0x0
  c8:	00058593          	addi	a1,a1,0 # 0 <main>
  cc:	00048513          	addi	a0,s1,0
  d0:	00000097          	auipc	ra,0x0
  d4:	000080e7          	jalr	ra,0(ra) # d0 <.LVL31+0x14>

00000000000000d8 <.LEHE2>:
  d8:	00100513          	addi	a0,zero,1
  dc:	1d00006f          	jal	zero,2ac <.L40>

00000000000000e0 <.L44>:
  e0:	05813503          	ld	a0,88(sp)

00000000000000e4 <.LM76>:
  e4:	00050663          	beq	a0,zero,f0 <.L13>

00000000000000e8 <.LM77>:
  e8:	00000097          	auipc	ra,0x0
  ec:	000080e7          	jalr	ra,0(ra) # e8 <.LM77>

00000000000000f0 <.L13>:
  f0:	00000737          	lui	a4,0x0
  f4:	00070713          	addi	a4,a4,0 # 0 <main>
  f8:	000006b7          	lui	a3,0x0
  fc:	00068693          	addi	a3,a3,0 # 0 <main>
 100:	00000637          	lui	a2,0x0
 104:	00060613          	addi	a2,a2,0 # 0 <main>
 108:	000005b7          	lui	a1,0x0
 10c:	00058593          	addi	a1,a1,0 # 0 <main>
 110:	00000537          	lui	a0,0x0
 114:	00050513          	addi	a0,a0,0 # 0 <main>

0000000000000118 <.LEHB3>:
 118:	00000097          	auipc	ra,0x0
 11c:	000080e7          	jalr	ra,0(ra) # 118 <.LEHB3>

0000000000000120 <.LM82>:
 120:	00000837          	lui	a6,0x0
 124:	00080813          	addi	a6,a6,0 # 0 <main>
 128:	000007b7          	lui	a5,0x0
 12c:	00078793          	addi	a5,a5,0 # 0 <main>
 130:	00000737          	lui	a4,0x0
 134:	00070713          	addi	a4,a4,0 # 0 <main>
 138:	000006b7          	lui	a3,0x0
 13c:	00068693          	addi	a3,a3,0 # 0 <main>
 140:	00000637          	lui	a2,0x0
 144:	00060613          	addi	a2,a2,0 # 0 <main>
 148:	000005b7          	lui	a1,0x0
 14c:	00058593          	addi	a1,a1,0 # 0 <main>
 150:	00000537          	lui	a0,0x0
 154:	00050513          	addi	a0,a0,0 # 0 <main>
 158:	00000097          	auipc	ra,0x0
 15c:	000080e7          	jalr	ra,0(ra) # 158 <.LM82+0x38>

0000000000000160 <.LBB352>:
 160:	04010513          	addi	a0,sp,64
 164:	00000097          	auipc	ra,0x0
 168:	000080e7          	jalr	ra,0(ra) # 164 <.LBB352+0x4>

000000000000016c <.LBB353>:
 16c:	00053483          	ld	s1,0(a0)

0000000000000170 <.LBB356>:
 170:	00853b03          	ld	s6,8(a0)

0000000000000174 <.LBE356>:
 174:	13648263          	beq	s1,s6,298 <.L14>

0000000000000178 <.LBE352>:
 178:	00000913          	addi	s2,zero,0

000000000000017c <.LBB359>:
 17c:	00000bb7          	lui	s7,0x0

0000000000000180 <.LBB360>:
 180:	03010993          	addi	s3,sp,48

0000000000000184 <.LBB379>:
 184:	01010a13          	addi	s4,sp,16

0000000000000188 <.LBE379>:
 188:	00000c37          	lui	s8,0x0
 18c:	0f80006f          	jal	zero,284 <.L19>

0000000000000190 <.L45>:
 190:	00050413          	addi	s0,a0,0

0000000000000194 <.LM100>:
 194:	00190a9b          	addiw	s5,s2,1

0000000000000198 <.LM102>:
 198:	00048593          	addi	a1,s1,0
 19c:	00010513          	addi	a0,sp,0
 1a0:	00000097          	auipc	ra,0x0
 1a4:	000080e7          	jalr	ra,0(ra) # 1a0 <.LM102+0x8>

00000000000001a8 <.LBB398>:
 1a8:	00013d03          	ld	s10,0(sp)

00000000000001ac <.LBE398>:
 1ac:	00442583          	lw	a1,4(s0)
 1b0:	02010513          	addi	a0,sp,32

00000000000001b4 <.LEHB4>:
 1b4:	00000097          	auipc	ra,0x0
 1b8:	000080e7          	jalr	ra,0(ra) # 1b4 <.LEHB4>

00000000000001bc <.LBB401>:
 1bc:	01843783          	ld	a5,24(s0)
 1c0:	01043703          	ld	a4,16(s0)
 1c4:	02013683          	ld	a3,32(sp)
 1c8:	000d0613          	addi	a2,s10,0
 1cc:	00090593          	addi	a1,s2,0
 1d0:	000b8513          	addi	a0,s7,0 # 0 <main>

00000000000001d4 <.LEHB5>:
 1d4:	00000097          	auipc	ra,0x0
 1d8:	000080e7          	jalr	ra,0(ra) # 1d4 <.LEHB5>

00000000000001dc <.LBB364>:
 1dc:	02013503          	ld	a0,32(sp)

00000000000001e0 <.LBB367>:
 1e0:	01350663          	beq	a0,s3,1ec <.L15>

00000000000001e4 <.LBB368>:
 1e4:	00000097          	auipc	ra,0x0
 1e8:	000080e7          	jalr	ra,0(ra) # 1e4 <.LBB368>

00000000000001ec <.L15>:
 1ec:	00013503          	ld	a0,0(sp)

00000000000001f0 <.LBB386>:
 1f0:	01450663          	beq	a0,s4,1fc <.L16>

00000000000001f4 <.LBB387>:
 1f4:	00000097          	auipc	ra,0x0
 1f8:	000080e7          	jalr	ra,0(ra) # 1f4 <.LBB387>

00000000000001fc <.L16>:
 1fc:	000c8513          	addi	a0,s9,0

0000000000000200 <.LEHB6>:
 200:	00000097          	auipc	ra,0x0
 204:	000080e7          	jalr	ra,0(ra) # 200 <.LEHB6>

0000000000000208 <.LVL53>:
 208:	00050913          	addi	s2,a0,0

000000000000020c <.LM150>:
 20c:	03843c83          	ld	s9,56(s0)

0000000000000210 <.LM151>:
 210:	00843583          	ld	a1,8(s0)
 214:	00010513          	addi	a0,sp,0
 218:	00000097          	auipc	ra,0x0
 21c:	000080e7          	jalr	ra,0(ra) # 218 <.LM151+0x8>

0000000000000220 <.LBB405>:
 220:	00013d03          	ld	s10,0(sp)

0000000000000224 <.LBE405>:
 224:	02845583          	lhu	a1,40(s0)
 228:	02010513          	addi	a0,sp,32

000000000000022c <.LEHB7>:
 22c:	00000097          	auipc	ra,0x0
 230:	000080e7          	jalr	ra,0(ra) # 22c <.LEHB7>

0000000000000234 <.LBB408>:
 234:	03043803          	ld	a6,48(s0)
 238:	02c42783          	lw	a5,44(s0)
 23c:	02013703          	ld	a4,32(sp)
 240:	000d0693          	addi	a3,s10,0
 244:	000c8613          	addi	a2,s9,0
 248:	00090593          	addi	a1,s2,0
 24c:	000c0513          	addi	a0,s8,0 # 0 <main>

0000000000000250 <.LEHB8>:
 250:	00000097          	auipc	ra,0x0
 254:	000080e7          	jalr	ra,0(ra) # 250 <.LEHB8>

0000000000000258 <.LBB410>:
 258:	02013503          	ld	a0,32(sp)

000000000000025c <.LBB417>:
 25c:	01350663          	beq	a0,s3,268 <.L17>

0000000000000260 <.LBB418>:
 260:	00000097          	auipc	ra,0x0
 264:	000080e7          	jalr	ra,0(ra) # 260 <.LBB418>

0000000000000268 <.L17>:
 268:	00013503          	ld	a0,0(sp)

000000000000026c <.LBB433>:
 26c:	01450663          	beq	a0,s4,278 <.L18>

0000000000000270 <.LBB434>:
 270:	00000097          	auipc	ra,0x0
 274:	000080e7          	jalr	ra,0(ra) # 270 <.LBB434>

0000000000000278 <.L18>:
 278:	01048493          	addi	s1,s1,16

000000000000027c <.LM199>:
 27c:	009b0e63          	beq	s6,s1,298 <.L14>

0000000000000280 <.LBB532>:
 280:	000a8913          	addi	s2,s5,0

0000000000000284 <.L19>:
 284:	00048c93          	addi	s9,s1,0

0000000000000288 <.LM202>:
 288:	00048513          	addi	a0,s1,0

000000000000028c <.LEHB9>:
 28c:	00000097          	auipc	ra,0x0
 290:	000080e7          	jalr	ra,0(ra) # 28c <.LEHB9>

0000000000000294 <.LEHE9>:
 294:	efdff06f          	jal	zero,190 <.L45>

0000000000000298 <.L14>:
 298:	04813503          	ld	a0,72(sp)

000000000000029c <.LM212>:
 29c:	00050663          	beq	a0,zero,2a8 <.L20>

00000000000002a0 <.LM213>:
 2a0:	00000097          	auipc	ra,0x0
 2a4:	000080e7          	jalr	ra,0(ra) # 2a0 <.LM213>

00000000000002a8 <.L20>:
 2a8:	00000513          	addi	a0,zero,0

00000000000002ac <.L40>:
 2ac:	0b813083          	ld	ra,184(sp)
 2b0:	0b013403          	ld	s0,176(sp)
 2b4:	0a813483          	ld	s1,168(sp)
 2b8:	0a013903          	ld	s2,160(sp)
 2bc:	09813983          	ld	s3,152(sp)
 2c0:	09013a03          	ld	s4,144(sp)
 2c4:	08813a83          	ld	s5,136(sp)
 2c8:	08013b03          	ld	s6,128(sp)
 2cc:	07813b83          	ld	s7,120(sp)
 2d0:	07013c03          	ld	s8,112(sp)
 2d4:	06813c83          	ld	s9,104(sp)
 2d8:	06013d03          	ld	s10,96(sp)
 2dc:	0c010113          	addi	sp,sp,192
 2e0:	00008067          	jalr	zero,0(ra)

00000000000002e4 <.L34>:
 2e4:	00050413          	addi	s0,a0,0

00000000000002e8 <.LBB550>:
 2e8:	05813503          	ld	a0,88(sp)

00000000000002ec <.LM223>:
 2ec:	00050663          	beq	a0,zero,2f8 <.L22>

00000000000002f0 <.LM224>:
 2f0:	00000097          	auipc	ra,0x0
 2f4:	000080e7          	jalr	ra,0(ra) # 2f0 <.LM224>

00000000000002f8 <.L22>:
 2f8:	00040513          	addi	a0,s0,0

00000000000002fc <.LEHB10>:
 2fc:	00000097          	auipc	ra,0x0
 300:	000080e7          	jalr	ra,0(ra) # 2fc <.LEHB10>

0000000000000304 <.L37>:
 304:	00050413          	addi	s0,a0,0

0000000000000308 <.LBB450>:
 308:	02013503          	ld	a0,32(sp)

000000000000030c <.LBB451>:
 30c:	03010793          	addi	a5,sp,48
 310:	00f50663          	beq	a0,a5,31c <.L25>

0000000000000314 <.LBB453>:
 314:	00000097          	auipc	ra,0x0
 318:	000080e7          	jalr	ra,0(ra) # 314 <.LBB453>

000000000000031c <.L25>:
 31c:	00013503          	ld	a0,0(sp)

0000000000000320 <.LBB472>:
 320:	01010793          	addi	a5,sp,16
 324:	00f50663          	beq	a0,a5,330 <.L27>

0000000000000328 <.LBB474>:
 328:	00000097          	auipc	ra,0x0
 32c:	000080e7          	jalr	ra,0(ra) # 328 <.LBB474>

0000000000000330 <.L27>:
 330:	04813503          	ld	a0,72(sp)

0000000000000334 <.LM270>:
 334:	00050663          	beq	a0,zero,340 <.L32>

0000000000000338 <.LM271>:
 338:	00000097          	auipc	ra,0x0
 33c:	000080e7          	jalr	ra,0(ra) # 338 <.LM271>

0000000000000340 <.L32>:
 340:	00040513          	addi	a0,s0,0
 344:	00000097          	auipc	ra,0x0
 348:	000080e7          	jalr	ra,0(ra) # 344 <.L32+0x4>

000000000000034c <.L36>:
 34c:	00050413          	addi	s0,a0,0

0000000000000350 <.LM275>:
 350:	fcdff06f          	jal	zero,31c <.L25>

0000000000000354 <.L39>:
 354:	00050413          	addi	s0,a0,0

0000000000000358 <.LBB495>:
 358:	02013503          	ld	a0,32(sp)

000000000000035c <.LBB496>:
 35c:	03010793          	addi	a5,sp,48
 360:	00f50663          	beq	a0,a5,36c <.L30>

0000000000000364 <.LBB498>:
 364:	00000097          	auipc	ra,0x0
 368:	000080e7          	jalr	ra,0(ra) # 364 <.LBB498>

000000000000036c <.L30>:
 36c:	00013503          	ld	a0,0(sp)

0000000000000370 <.LBB517>:
 370:	01010793          	addi	a5,sp,16
 374:	faf50ee3          	beq	a0,a5,330 <.L27>

0000000000000378 <.LBB519>:
 378:	00000097          	auipc	ra,0x0
 37c:	000080e7          	jalr	ra,0(ra) # 378 <.LBB519>

0000000000000380 <.LBB525>:
 380:	fb1ff06f          	jal	zero,330 <.L27>

0000000000000384 <.L38>:
 384:	00050413          	addi	s0,a0,0

0000000000000388 <.LM317>:
 388:	fe5ff06f          	jal	zero,36c <.L30>

000000000000038c <.L35>:
 38c:	00050413          	addi	s0,a0,0
 390:	fa1ff06f          	jal	zero,330 <.L27>

Disassembly of section .text._ZNSt16_Sp_counted_baseILN9__gnu_cxx12_Lock_policyE1EE10_M_releaseEv:

0000000000000000 <_ZNSt16_Sp_counted_baseILN9__gnu_cxx12_Lock_policyE1EE10_M_releaseEv>:
   0:	ff010113          	addi	sp,sp,-16
   4:	00113423          	sd	ra,8(sp)
   8:	00813023          	sd	s0,0(sp)
   c:	00050413          	addi	s0,a0,0

0000000000000010 <.LBB327>:
  10:	000007b7          	lui	a5,0x0
  14:	0007c783          	lbu	a5,0(a5) # 0 <_ZNSt16_Sp_counted_baseILN9__gnu_cxx12_Lock_policyE1EE10_M_releaseEv>
  18:	02078463          	beq	a5,zero,40 <.L2>

000000000000001c <.LBB331>:
  1c:	03052503          	lw	a0,48(a0)

0000000000000020 <.LM14>:
  20:	fff5079b          	addiw	a5,a0,-1
  24:	02f42823          	sw	a5,48(s0)

0000000000000028 <.L3>:
  28:	00100793          	addi	a5,zero,1
  2c:	02f50463          	beq	a0,a5,54 <.L8>

0000000000000030 <.L1>:
  30:	00813083          	ld	ra,8(sp)
  34:	00013403          	ld	s0,0(sp)

0000000000000038 <.LM20>:
  38:	01010113          	addi	sp,sp,16
  3c:	00008067          	jalr	zero,0(ra)

0000000000000040 <.L2>:
  40:	fff00593          	addi	a1,zero,-1
  44:	03050513          	addi	a0,a0,48
  48:	00000097          	auipc	ra,0x0
  4c:	000080e7          	jalr	ra,0(ra) # 48 <.L2+0x8>

0000000000000050 <.LM23>:
  50:	fd9ff06f          	jal	zero,28 <.L3>

0000000000000054 <.L8>:
  54:	00043783          	ld	a5,0(s0)
  58:	0107b783          	ld	a5,16(a5)
  5c:	00040513          	addi	a0,s0,0
  60:	000780e7          	jalr	ra,0(a5)

0000000000000064 <.LM28>:
  64:	0ff0000f          	fence	iorw,iorw

0000000000000068 <.LBB337>:
  68:	000007b7          	lui	a5,0x0
  6c:	0007c783          	lbu	a5,0(a5) # 0 <_ZNSt16_Sp_counted_baseILN9__gnu_cxx12_Lock_policyE1EE10_M_releaseEv>
  70:	02078663          	beq	a5,zero,9c <.L5>

0000000000000074 <.LBB341>:
  74:	03442503          	lw	a0,52(s0)

0000000000000078 <.LM38>:
  78:	fff5079b          	addiw	a5,a0,-1
  7c:	02f42a23          	sw	a5,52(s0)

0000000000000080 <.L6>:
  80:	00100793          	addi	a5,zero,1
  84:	faf516e3          	bne	a0,a5,30 <.L1>

0000000000000088 <.LM43>:
  88:	00043783          	ld	a5,0(s0)
  8c:	0187b783          	ld	a5,24(a5)
  90:	00040513          	addi	a0,s0,0
  94:	000780e7          	jalr	ra,0(a5)

0000000000000098 <.LBE335>:
  98:	f99ff06f          	jal	zero,30 <.L1>

000000000000009c <.L5>:
  9c:	fff00593          	addi	a1,zero,-1
  a0:	03440513          	addi	a0,s0,52
  a4:	00000097          	auipc	ra,0x0
  a8:	000080e7          	jalr	ra,0(ra) # a4 <.L5+0x8>

00000000000000ac <.LM48>:
  ac:	fd5ff06f          	jal	zero,80 <.L6>
