
dump-syms.o:     file format elf64-littleriscv


Disassembly of section .text:

0000000000000000 <main>:
   0:	e3010113          	addi	sp,sp,-464
   4:	1c113423          	sd	ra,456(sp)
   8:	1c813023          	sd	s0,448(sp)
   c:	1a913c23          	sd	s1,440(sp)
  10:	1b213823          	sd	s2,432(sp)
  14:	1b313423          	sd	s3,424(sp)
  18:	1b413023          	sd	s4,416(sp)
  1c:	19513c23          	sd	s5,408(sp)
  20:	19613823          	sd	s6,400(sp)
  24:	19713423          	sd	s7,392(sp)
  28:	19813023          	sd	s8,384(sp)
  2c:	17913c23          	sd	s9,376(sp)
  30:	17a13823          	sd	s10,368(sp)
  34:	17b13423          	sd	s11,360(sp)
  38:	00058413          	addi	s0,a1,0

000000000000003c <.LM157>:
  3c:	00200793          	addi	a5,zero,2
  40:	02f51e63          	bne	a0,a5,7c <.L120>

0000000000000044 <.LM158>:
  44:	00000593          	addi	a1,zero,0

0000000000000048 <.LM160>:
  48:	00843503          	ld	a0,8(s0)

000000000000004c <.LEHB0>:
  4c:	00000097          	auipc	ra,0x0
  50:	000080e7          	jalr	ra,0(ra) # 4c <.LEHB0>

0000000000000054 <.LVL55>:
  54:	00050593          	addi	a1,a0,0

0000000000000058 <.LM162>:
  58:	04054463          	blt	a0,zero,a0 <.L121>

000000000000005c <.LM163>:
  5c:	12010513          	addi	a0,sp,288

0000000000000060 <.LM165>:
  60:	00000097          	auipc	ra,0x0
  64:	000080e7          	jalr	ra,0(ra) # 60 <.LM165>

0000000000000068 <.LEHE0>:
  68:	12010593          	addi	a1,sp,288
  6c:	11010513          	addi	a0,sp,272

0000000000000070 <.LEHB1>:
  70:	00000097          	auipc	ra,0x0
  74:	000080e7          	jalr	ra,0(ra) # 70 <.LEHB1>

0000000000000078 <.LEHE1>:
  78:	06c0006f          	jal	zero,e4 <.L122>

000000000000007c <.L120>:
  7c:	0005b603          	ld	a2,0(a1)
  80:	000005b7          	lui	a1,0x0
  84:	00058593          	addi	a1,a1,0 # 0 <main>
  88:	000007b7          	lui	a5,0x0
  8c:	0007b503          	ld	a0,0(a5) # 0 <main>

0000000000000090 <.LEHB2>:
  90:	00000097          	auipc	ra,0x0
  94:	000080e7          	jalr	ra,0(ra) # 90 <.LEHB2>

0000000000000098 <.LM170>:
  98:	00200513          	addi	a0,zero,2
  9c:	7880006f          	jal	zero,824 <.L117>

00000000000000a0 <.L121>:
  a0:	000007b7          	lui	a5,0x0
  a4:	0007b483          	ld	s1,0(a5) # 0 <main>
  a8:	00843403          	ld	s0,8(s0)

00000000000000ac <.LM174>:
  ac:	00000097          	auipc	ra,0x0
  b0:	000080e7          	jalr	ra,0(ra) # ac <.LM174>

00000000000000b4 <.LM175>:
  b4:	00052503          	lw	a0,0(a0)
  b8:	00000097          	auipc	ra,0x0
  bc:	000080e7          	jalr	ra,0(ra) # b8 <.LM175+0x4>

00000000000000c0 <.LVL66>:
  c0:	00050693          	addi	a3,a0,0
  c4:	00040613          	addi	a2,s0,0
  c8:	000005b7          	lui	a1,0x0
  cc:	00058593          	addi	a1,a1,0 # 0 <main>
  d0:	00048513          	addi	a0,s1,0
  d4:	00000097          	auipc	ra,0x0
  d8:	000080e7          	jalr	ra,0(ra) # d4 <.LVL66+0x14>

00000000000000dc <.LEHE2>:
  dc:	00100513          	addi	a0,zero,1
  e0:	7440006f          	jal	zero,824 <.L117>

00000000000000e4 <.L122>:
  e4:	12813503          	ld	a0,296(sp)

00000000000000e8 <.LM182>:
  e8:	00050663          	beq	a0,zero,f4 <.L27>

00000000000000ec <.LM183>:
  ec:	00000097          	auipc	ra,0x0
  f0:	000080e7          	jalr	ra,0(ra) # ec <.LM183>

00000000000000f4 <.L27>:
  f4:	11010513          	addi	a0,sp,272

00000000000000f8 <.LEHB3>:
  f8:	00000097          	auipc	ra,0x0
  fc:	000080e7          	jalr	ra,0(ra) # f8 <.LEHB3>

0000000000000100 <.LBB1169>:
 100:	00053c03          	ld	s8,0(a0)

0000000000000104 <.LBB1172>:
 104:	00853d03          	ld	s10,8(a0)

0000000000000108 <.LBE1172>:
 108:	718d0463          	beq	s10,s8,810 <.L28>

000000000000010c <.LBB1175>:
 10c:	00000db7          	lui	s11,0x0

0000000000000110 <.LBB1176>:
 110:	00000437          	lui	s0,0x0

0000000000000114 <.LBB1258>:
 114:	00000cb7          	lui	s9,0x0
 118:	0300006f          	jal	zero,148 <.L83>

000000000000011c <.L123>:
 11c:	00452703          	lw	a4,4(a0)
 120:	00200793          	addi	a5,zero,2
 124:	02f70c63          	beq	a4,a5,15c <.L29>

0000000000000128 <.LM202>:
 128:	000c0513          	addi	a0,s8,0
 12c:	00000097          	auipc	ra,0x0
 130:	000080e7          	jalr	ra,0(ra) # 12c <.LM202+0x4>

0000000000000134 <.LM203>:
 134:	00452703          	lw	a4,4(a0)
 138:	00b00793          	addi	a5,zero,11
 13c:	02f70063          	beq	a4,a5,15c <.L29>

0000000000000140 <.L30>:
 140:	010c0c13          	addi	s8,s8,16

0000000000000144 <.LM207>:
 144:	6d8d0663          	beq	s10,s8,810 <.L28>

0000000000000148 <.L83>:
 148:	000c0493          	addi	s1,s8,0

000000000000014c <.LBB1766>:
 14c:	000c0513          	addi	a0,s8,0
 150:	00000097          	auipc	ra,0x0
 154:	000080e7          	jalr	ra,0(ra) # 150 <.LBB1766+0x4>

0000000000000158 <.LM211>:
 158:	fc5ff06f          	jal	zero,11c <.L123>

000000000000015c <.L29>:
 15c:	00048593          	addi	a1,s1,0
 160:	0e010513          	addi	a0,sp,224
 164:	00000097          	auipc	ra,0x0
 168:	000080e7          	jalr	ra,0(ra) # 164 <.L29+0x8>

000000000000016c <.LBB1723>:
 16c:	0e013583          	ld	a1,224(sp)
 170:	000007b7          	lui	a5,0x0
 174:	00078513          	addi	a0,a5,0 # 0 <main>

0000000000000178 <.LEHB4>:
 178:	00000097          	auipc	ra,0x0
 17c:	000080e7          	jalr	ra,0(ra) # 178 <.LEHB4>

0000000000000180 <.LBB1725>:
 180:	0e013503          	ld	a0,224(sp)

0000000000000184 <.LBB1732>:
 184:	0f010793          	addi	a5,sp,240
 188:	00f50663          	beq	a0,a5,194 <.L31>

000000000000018c <.LBB1733>:
 18c:	00000097          	auipc	ra,0x0
 190:	000080e7          	jalr	ra,0(ra) # 18c <.LBB1733>

0000000000000194 <.L31>:
 194:	000007b7          	lui	a5,0x0
 198:	00078893          	addi	a7,a5,0 # 0 <main>
 19c:	000007b7          	lui	a5,0x0
 1a0:	00078813          	addi	a6,a5,0 # 0 <main>
 1a4:	000d8793          	addi	a5,s11,0 # 0 <main>
 1a8:	00000737          	lui	a4,0x0
 1ac:	00070713          	addi	a4,a4,0 # 0 <main>
 1b0:	000006b7          	lui	a3,0x0
 1b4:	00068693          	addi	a3,a3,0 # 0 <main>
 1b8:	00000637          	lui	a2,0x0
 1bc:	00060613          	addi	a2,a2,0 # 0 <main>
 1c0:	000005b7          	lui	a1,0x0
 1c4:	00058593          	addi	a1,a1,0 # 0 <main>
 1c8:	00000537          	lui	a0,0x0
 1cc:	00050513          	addi	a0,a0,0 # 0 <main>

00000000000001d0 <.LEHB5>:
 1d0:	00000097          	auipc	ra,0x0
 1d4:	000080e7          	jalr	ra,0(ra) # 1d0 <.LEHB5>

00000000000001d8 <.LBB1741>:
 1d8:	00048593          	addi	a1,s1,0
 1dc:	13010513          	addi	a0,sp,304
 1e0:	00000097          	auipc	ra,0x0
 1e4:	000080e7          	jalr	ra,0(ra) # 1e0 <.LBB1741+0x8>

00000000000001e8 <.LEHE5>:
 1e8:	13010593          	addi	a1,sp,304

00000000000001ec <.LM242>:
 1ec:	0b010513          	addi	a0,sp,176

00000000000001f0 <.LEHB6>:
 1f0:	00000097          	auipc	ra,0x0
 1f4:	000080e7          	jalr	ra,0(ra) # 1f0 <.LEHB6>

00000000000001f8 <.LEHE6>:
 1f8:	13010593          	addi	a1,sp,304

00000000000001fc <.LM244>:
 1fc:	0e010513          	addi	a0,sp,224

0000000000000200 <.LEHB7>:
 200:	00000097          	auipc	ra,0x0
 204:	000080e7          	jalr	ra,0(ra) # 200 <.LEHB7>

0000000000000208 <.LBB1622>:
 208:	10013703          	ld	a4,256(sp)
 20c:	0d013783          	ld	a5,208(sp)
 210:	38f70e63          	beq	a4,a5,5ac <.L32>

0000000000000214 <.LBE1741>:
 214:	00000493          	addi	s1,zero,0

0000000000000218 <.LM251>:
 218:	2b80006f          	jal	zero,4d0 <.L61>

000000000000021c <.L34>:
 21c:	00100593          	addi	a1,zero,1
 220:	03050513          	addi	a0,a0,48

0000000000000224 <.LM254>:
 224:	00000097          	auipc	ra,0x0
 228:	000080e7          	jalr	ra,0(ra) # 224 <.LM254>

000000000000022c <.LM255>:
 22c:	2cc0006f          	jal	zero,4f8 <.L33>

0000000000000230 <.L36>:
 230:	00100593          	addi	a1,zero,1
 234:	03050513          	addi	a0,a0,48

0000000000000238 <.LM259>:
 238:	00000097          	auipc	ra,0x0
 23c:	000080e7          	jalr	ra,0(ra) # 238 <.LM259>

0000000000000240 <.LM260>:
 240:	2e40006f          	jal	zero,524 <.L35>

0000000000000244 <.L128>:
 244:	14813903          	ld	s2,328(sp)

0000000000000248 <.LM267>:
 248:	02090063          	beq	s2,zero,268 <.L37>

000000000000024c <.LBB1317>:
 24c:	00044783          	lbu	a5,0(s0) # 0 <main>
 250:	06078063          	beq	a5,zero,2b0 <.L38>

0000000000000254 <.LBB1323>:
 254:	03092503          	lw	a0,48(s2)

0000000000000258 <.LM280>:
 258:	fff5079b          	addiw	a5,a0,-1
 25c:	02f92823          	sw	a5,48(s2)

0000000000000260 <.L39>:
 260:	00100793          	addi	a5,zero,1
 264:	06f50063          	beq	a0,a5,2c4 <.L124>

0000000000000268 <.L37>:
 268:	15813903          	ld	s2,344(sp)

000000000000026c <.LM291>:
 26c:	02090063          	beq	s2,zero,28c <.L42>

0000000000000270 <.LBB1350>:
 270:	00044783          	lbu	a5,0(s0)
 274:	0a078463          	beq	a5,zero,31c <.L43>

0000000000000278 <.LBB1356>:
 278:	03092503          	lw	a0,48(s2)

000000000000027c <.LM304>:
 27c:	fff5079b          	addiw	a5,a0,-1
 280:	02f92823          	sw	a5,48(s2)

0000000000000284 <.L44>:
 284:	00100793          	addi	a5,zero,1
 288:	0af50463          	beq	a0,a5,330 <.L125>

000000000000028c <.L42>:
 28c:	00148b9b          	addiw	s7,s1,1

0000000000000290 <.LM313>:
 290:	0a013903          	ld	s2,160(sp)

0000000000000294 <.LM314>:
 294:	0a813983          	ld	s3,168(sp)

0000000000000298 <.LBB1400>:
 298:	09c14583          	lbu	a1,156(sp)

000000000000029c <.LBE1400>:
 29c:	00f5f593          	andi	a1,a1,15
 2a0:	00810513          	addi	a0,sp,8

00000000000002a4 <.LEHB8>:
 2a4:	00000097          	auipc	ra,0x0
 2a8:	000080e7          	jalr	ra,0(ra) # 2a4 <.LEHB8>

00000000000002ac <.LEHE8>:
 2ac:	12c0006f          	jal	zero,3d8 <.L126>

00000000000002b0 <.L38>:
 2b0:	fff00593          	addi	a1,zero,-1
 2b4:	03090513          	addi	a0,s2,48
 2b8:	00000097          	auipc	ra,0x0
 2bc:	000080e7          	jalr	ra,0(ra) # 2b8 <.L38+0x8>

00000000000002c0 <.LM321>:
 2c0:	fa1ff06f          	jal	zero,260 <.L39>

00000000000002c4 <.L124>:
 2c4:	00093783          	ld	a5,0(s2)
 2c8:	0107b783          	ld	a5,16(a5)
 2cc:	00090513          	addi	a0,s2,0
 2d0:	000780e7          	jalr	ra,0(a5)

00000000000002d4 <.LM326>:
 2d4:	0ff0000f          	fence	iorw,iorw

00000000000002d8 <.LBB1329>:
 2d8:	00044783          	lbu	a5,0(s0)
 2dc:	02078663          	beq	a5,zero,308 <.L40>

00000000000002e0 <.LBB1333>:
 2e0:	03492503          	lw	a0,52(s2)

00000000000002e4 <.LM336>:
 2e4:	fff5079b          	addiw	a5,a0,-1
 2e8:	02f92a23          	sw	a5,52(s2)

00000000000002ec <.L41>:
 2ec:	00100793          	addi	a5,zero,1
 2f0:	f6f51ce3          	bne	a0,a5,268 <.L37>

00000000000002f4 <.LM341>:
 2f4:	00093783          	ld	a5,0(s2)
 2f8:	0187b783          	ld	a5,24(a5)
 2fc:	00090513          	addi	a0,s2,0
 300:	000780e7          	jalr	ra,0(a5)

0000000000000304 <.LVL121>:
 304:	f65ff06f          	jal	zero,268 <.L37>

0000000000000308 <.L40>:
 308:	fff00593          	addi	a1,zero,-1
 30c:	03490513          	addi	a0,s2,52
 310:	00000097          	auipc	ra,0x0
 314:	000080e7          	jalr	ra,0(ra) # 310 <.L40+0x8>

0000000000000318 <.LM344>:
 318:	fd5ff06f          	jal	zero,2ec <.L41>

000000000000031c <.L43>:
 31c:	fff00593          	addi	a1,zero,-1
 320:	03090513          	addi	a0,s2,48
 324:	00000097          	auipc	ra,0x0
 328:	000080e7          	jalr	ra,0(ra) # 324 <.L43+0x8>

000000000000032c <.LM348>:
 32c:	f59ff06f          	jal	zero,284 <.L44>

0000000000000330 <.L125>:
 330:	00093783          	ld	a5,0(s2)
 334:	0107b783          	ld	a5,16(a5)
 338:	00090513          	addi	a0,s2,0
 33c:	000780e7          	jalr	ra,0(a5)

0000000000000340 <.LM353>:
 340:	0ff0000f          	fence	iorw,iorw

0000000000000344 <.LBB1362>:
 344:	00044783          	lbu	a5,0(s0)
 348:	02078663          	beq	a5,zero,374 <.L45>

000000000000034c <.LBB1366>:
 34c:	03492503          	lw	a0,52(s2)

0000000000000350 <.LM363>:
 350:	fff5079b          	addiw	a5,a0,-1
 354:	02f92a23          	sw	a5,52(s2)

0000000000000358 <.L46>:
 358:	00100793          	addi	a5,zero,1
 35c:	f2f518e3          	bne	a0,a5,28c <.L42>

0000000000000360 <.LM368>:
 360:	00093783          	ld	a5,0(s2)
 364:	0187b783          	ld	a5,24(a5)
 368:	00090513          	addi	a0,s2,0
 36c:	000780e7          	jalr	ra,0(a5)

0000000000000370 <.LVL132>:
 370:	f1dff06f          	jal	zero,28c <.L42>

0000000000000374 <.L45>:
 374:	fff00593          	addi	a1,zero,-1
 378:	03490513          	addi	a0,s2,52
 37c:	00000097          	auipc	ra,0x0
 380:	000080e7          	jalr	ra,0(ra) # 37c <.L45+0x8>

0000000000000384 <.LM371>:
 384:	fd5ff06f          	jal	zero,358 <.L46>

0000000000000388 <.L115>:
 388:	00050413          	addi	s0,a0,0

000000000000038c <.LBB1388>:
 38c:	14813503          	ld	a0,328(sp)

0000000000000390 <.LM380>:
 390:	00050663          	beq	a0,zero,39c <.L49>

0000000000000394 <.LM381>:
 394:	00000097          	auipc	ra,0x0
 398:	000080e7          	jalr	ra,0(ra) # 394 <.LM381>

000000000000039c <.L49>:
 39c:	15813503          	ld	a0,344(sp)

00000000000003a0 <.LM388>:
 3a0:	00050663          	beq	a0,zero,3ac <.L51>

00000000000003a4 <.LM389>:
 3a4:	00000097          	auipc	ra,0x0
 3a8:	000080e7          	jalr	ra,0(ra) # 3a4 <.LM389>

00000000000003ac <.L51>:
 3ac:	0e010513          	addi	a0,sp,224
 3b0:	00000097          	auipc	ra,0x0
 3b4:	000080e7          	jalr	ra,0(ra) # 3b0 <.L51+0x4>

00000000000003b8 <.L100>:
 3b8:	0b010513          	addi	a0,sp,176
 3bc:	00000097          	auipc	ra,0x0
 3c0:	000080e7          	jalr	ra,0(ra) # 3bc <.L100+0x4>

00000000000003c4 <.L101>:
 3c4:	13813503          	ld	a0,312(sp)

00000000000003c8 <.LM397>:
 3c8:	4c050863          	beq	a0,zero,898 <.L89>

00000000000003cc <.LM398>:
 3cc:	00000097          	auipc	ra,0x0
 3d0:	000080e7          	jalr	ra,0(ra) # 3cc <.LM398>

00000000000003d4 <.LM399>:
 3d4:	4c40006f          	jal	zero,898 <.L89>

00000000000003d8 <.L126>:
 3d8:	00813a03          	ld	s4,8(sp)

00000000000003dc <.LBB1406>:
 3dc:	09c14583          	lbu	a1,156(sp)

00000000000003e0 <.LBE1406>:
 3e0:	0045d593          	srli	a1,a1,0x4
 3e4:	02810513          	addi	a0,sp,40

00000000000003e8 <.LEHB9>:
 3e8:	00000097          	auipc	ra,0x0
 3ec:	000080e7          	jalr	ra,0(ra) # 3e8 <.LEHB9>

00000000000003f0 <.LBB1408>:
 3f0:	02813a83          	ld	s5,40(sp)

00000000000003f4 <.LBE1408>:
 3f4:	09e15583          	lhu	a1,158(sp)
 3f8:	04810513          	addi	a0,sp,72

00000000000003fc <.LEHB10>:
 3fc:	00000097          	auipc	ra,0x0
 400:	000080e7          	jalr	ra,0(ra) # 3fc <.LEHB10>

0000000000000404 <.LBB1411>:
 404:	04813b03          	ld	s6,72(sp)

0000000000000408 <.LBE1411>:
 408:	08810593          	addi	a1,sp,136
 40c:	06810513          	addi	a0,sp,104

0000000000000410 <.LEHB11>:
 410:	00000097          	auipc	ra,0x0
 414:	000080e7          	jalr	ra,0(ra) # 410 <.LEHB11>

0000000000000418 <.LBB1414>:
 418:	06813883          	ld	a7,104(sp)
 41c:	000b0813          	addi	a6,s6,0
 420:	000a8793          	addi	a5,s5,0
 424:	000a0713          	addi	a4,s4,0
 428:	00098693          	addi	a3,s3,0
 42c:	00090613          	addi	a2,s2,0
 430:	00048593          	addi	a1,s1,0
 434:	000c8513          	addi	a0,s9,0 # 0 <main>

0000000000000438 <.LEHB12>:
 438:	00000097          	auipc	ra,0x0
 43c:	000080e7          	jalr	ra,0(ra) # 438 <.LEHB12>

0000000000000440 <.LBB1416>:
 440:	06813503          	ld	a0,104(sp)

0000000000000444 <.LBB1423>:
 444:	07810793          	addi	a5,sp,120
 448:	00f50663          	beq	a0,a5,454 <.L52>

000000000000044c <.LBB1424>:
 44c:	00000097          	auipc	ra,0x0
 450:	000080e7          	jalr	ra,0(ra) # 44c <.LBB1424>

0000000000000454 <.L52>:
 454:	04813503          	ld	a0,72(sp)

0000000000000458 <.LBB1439>:
 458:	05810793          	addi	a5,sp,88
 45c:	00f50663          	beq	a0,a5,468 <.L53>

0000000000000460 <.LBB1440>:
 460:	00000097          	auipc	ra,0x0
 464:	000080e7          	jalr	ra,0(ra) # 460 <.LBB1440>

0000000000000468 <.L53>:
 468:	02813503          	ld	a0,40(sp)

000000000000046c <.LBB1455>:
 46c:	03810793          	addi	a5,sp,56
 470:	00f50663          	beq	a0,a5,47c <.L54>

0000000000000474 <.LBB1456>:
 474:	00000097          	auipc	ra,0x0
 478:	000080e7          	jalr	ra,0(ra) # 474 <.LBB1456>

000000000000047c <.L54>:
 47c:	00813503          	ld	a0,8(sp)

0000000000000480 <.LBB1471>:
 480:	01810793          	addi	a5,sp,24
 484:	00f50663          	beq	a0,a5,490 <.L55>

0000000000000488 <.LBB1472>:
 488:	00000097          	auipc	ra,0x0
 48c:	000080e7          	jalr	ra,0(ra) # 488 <.LBB1472>

0000000000000490 <.L55>:
 490:	09013483          	ld	s1,144(sp)

0000000000000494 <.LM500>:
 494:	02048063          	beq	s1,zero,4b4 <.L56>

0000000000000498 <.LBB1487>:
 498:	00044783          	lbu	a5,0(s0)
 49c:	0a078263          	beq	a5,zero,540 <.L57>

00000000000004a0 <.LBB1493>:
 4a0:	0304a503          	lw	a0,48(s1)

00000000000004a4 <.LM513>:
 4a4:	fff5079b          	addiw	a5,a0,-1
 4a8:	02f4a823          	sw	a5,48(s1)

00000000000004ac <.L58>:
 4ac:	00100793          	addi	a5,zero,1
 4b0:	0af50263          	beq	a0,a5,554 <.L127>

00000000000004b4 <.L56>:
 4b4:	0d013783          	ld	a5,208(sp)
 4b8:	0d813703          	ld	a4,216(sp)
 4bc:	00e787b3          	add	a5,a5,a4
 4c0:	0cf13823          	sd	a5,208(sp)

00000000000004c4 <.LBB1641>:
 4c4:	10013703          	ld	a4,256(sp)
 4c8:	0ee78263          	beq	a5,a4,5ac <.L32>

00000000000004cc <.LBB1642>:
 4cc:	000b8493          	addi	s1,s7,0

00000000000004d0 <.L61>:
 4d0:	0b013783          	ld	a5,176(sp)
 4d4:	14f13823          	sd	a5,336(sp)

00000000000004d8 <.LBB1282>:
 4d8:	0b813503          	ld	a0,184(sp)

00000000000004dc <.LM540>:
 4dc:	14a13c23          	sd	a0,344(sp)

00000000000004e0 <.LM541>:
 4e0:	00050c63          	beq	a0,zero,4f8 <.L33>

00000000000004e4 <.LBB1272>:
 4e4:	00044783          	lbu	a5,0(s0)
 4e8:	d2078ae3          	beq	a5,zero,21c <.L34>

00000000000004ec <.LBB1274>:
 4ec:	03052783          	lw	a5,48(a0)
 4f0:	0017879b          	addiw	a5,a5,1
 4f4:	02f52823          	sw	a5,48(a0)

00000000000004f8 <.L33>:
 4f8:	0d013903          	ld	s2,208(sp)

00000000000004fc <.LBB1397>:
 4fc:	0c013783          	ld	a5,192(sp)
 500:	14f13023          	sd	a5,320(sp)

0000000000000504 <.LBB1307>:
 504:	0c813503          	ld	a0,200(sp)

0000000000000508 <.LM559>:
 508:	14a13423          	sd	a0,328(sp)

000000000000050c <.LM560>:
 50c:	00050c63          	beq	a0,zero,524 <.L35>

0000000000000510 <.LBB1297>:
 510:	00044783          	lbu	a5,0(s0)
 514:	d0078ee3          	beq	a5,zero,230 <.L36>

0000000000000518 <.LBB1299>:
 518:	03052783          	lw	a5,48(a0)
 51c:	0017879b          	addiw	a5,a5,1
 520:	02f52823          	sw	a5,48(a0)

0000000000000524 <.L35>:
 524:	14010693          	addi	a3,sp,320
 528:	00090613          	addi	a2,s2,0
 52c:	15010593          	addi	a1,sp,336
 530:	08810513          	addi	a0,sp,136

0000000000000534 <.LEHB13>:
 534:	00000097          	auipc	ra,0x0
 538:	000080e7          	jalr	ra,0(ra) # 534 <.LEHB13>

000000000000053c <.LEHE13>:
 53c:	d09ff06f          	jal	zero,244 <.L128>

0000000000000540 <.L57>:
 540:	fff00593          	addi	a1,zero,-1
 544:	03048513          	addi	a0,s1,48
 548:	00000097          	auipc	ra,0x0
 54c:	000080e7          	jalr	ra,0(ra) # 548 <.L57+0x8>

0000000000000550 <.LM576>:
 550:	f5dff06f          	jal	zero,4ac <.L58>

0000000000000554 <.L127>:
 554:	0004b783          	ld	a5,0(s1)
 558:	0107b783          	ld	a5,16(a5)
 55c:	00048513          	addi	a0,s1,0
 560:	000780e7          	jalr	ra,0(a5)

0000000000000564 <.LM581>:
 564:	0ff0000f          	fence	iorw,iorw

0000000000000568 <.LBB1499>:
 568:	00044783          	lbu	a5,0(s0)
 56c:	02078663          	beq	a5,zero,598 <.L59>

0000000000000570 <.LBB1503>:
 570:	0344a503          	lw	a0,52(s1)

0000000000000574 <.LM591>:
 574:	fff5079b          	addiw	a5,a0,-1
 578:	02f4aa23          	sw	a5,52(s1)

000000000000057c <.L60>:
 57c:	00100793          	addi	a5,zero,1
 580:	f2f51ae3          	bne	a0,a5,4b4 <.L56>

0000000000000584 <.LM596>:
 584:	0004b783          	ld	a5,0(s1)
 588:	0187b783          	ld	a5,24(a5)
 58c:	00048513          	addi	a0,s1,0
 590:	000780e7          	jalr	ra,0(a5)

0000000000000594 <.LVL188>:
 594:	f21ff06f          	jal	zero,4b4 <.L56>

0000000000000598 <.L59>:
 598:	fff00593          	addi	a1,zero,-1
 59c:	03448513          	addi	a0,s1,52
 5a0:	00000097          	auipc	ra,0x0
 5a4:	000080e7          	jalr	ra,0(ra) # 5a0 <.L59+0x8>

00000000000005a8 <.LM599>:
 5a8:	fd5ff06f          	jal	zero,57c <.L60>

00000000000005ac <.L32>:
 5ac:	0f813483          	ld	s1,248(sp)

00000000000005b0 <.LM607>:
 5b0:	02048063          	beq	s1,zero,5d0 <.L62>

00000000000005b4 <.LBB1651>:
 5b4:	00044783          	lbu	a5,0(s0)
 5b8:	08078c63          	beq	a5,zero,650 <.L63>

00000000000005bc <.LBB1657>:
 5bc:	0304a503          	lw	a0,48(s1)

00000000000005c0 <.LM620>:
 5c0:	fff5079b          	addiw	a5,a0,-1
 5c4:	02f4a823          	sw	a5,48(s1)

00000000000005c8 <.L64>:
 5c8:	00100793          	addi	a5,zero,1
 5cc:	08f50c63          	beq	a0,a5,664 <.L129>

00000000000005d0 <.L62>:
 5d0:	0e813483          	ld	s1,232(sp)

00000000000005d4 <.LM631>:
 5d4:	02048063          	beq	s1,zero,5f4 <.L67>

00000000000005d8 <.LBB1683>:
 5d8:	00044783          	lbu	a5,0(s0)
 5dc:	0e078263          	beq	a5,zero,6c0 <.L68>

00000000000005e0 <.LBB1689>:
 5e0:	0304a503          	lw	a0,48(s1)

00000000000005e4 <.LM644>:
 5e4:	fff5079b          	addiw	a5,a0,-1
 5e8:	02f4a823          	sw	a5,48(s1)

00000000000005ec <.L69>:
 5ec:	00100793          	addi	a5,zero,1
 5f0:	0ef50263          	beq	a0,a5,6d4 <.L130>

00000000000005f4 <.L67>:
 5f4:	0c813483          	ld	s1,200(sp)

00000000000005f8 <.LM656>:
 5f8:	02048063          	beq	s1,zero,618 <.L72>

00000000000005fc <.LBB1226>:
 5fc:	00044783          	lbu	a5,0(s0)
 600:	12078863          	beq	a5,zero,730 <.L73>

0000000000000604 <.LBB1232>:
 604:	0304a503          	lw	a0,48(s1)

0000000000000608 <.LM669>:
 608:	fff5079b          	addiw	a5,a0,-1
 60c:	02f4a823          	sw	a5,48(s1)

0000000000000610 <.L74>:
 610:	00100793          	addi	a5,zero,1
 614:	12f50863          	beq	a0,a5,744 <.L131>

0000000000000618 <.L72>:
 618:	0b813483          	ld	s1,184(sp)

000000000000061c <.LM680>:
 61c:	02048063          	beq	s1,zero,63c <.L77>

0000000000000620 <.LBB1191>:
 620:	00044783          	lbu	a5,0(s0)
 624:	16078e63          	beq	a5,zero,7a0 <.L78>

0000000000000628 <.LBB1192>:
 628:	0304a503          	lw	a0,48(s1)

000000000000062c <.LM693>:
 62c:	fff5079b          	addiw	a5,a0,-1
 630:	02f4a823          	sw	a5,48(s1)

0000000000000634 <.L79>:
 634:	00100793          	addi	a5,zero,1
 638:	16f50e63          	beq	a0,a5,7b4 <.L132>

000000000000063c <.L77>:
 63c:	13813503          	ld	a0,312(sp)

0000000000000640 <.LM704>:
 640:	b00500e3          	beq	a0,zero,140 <.L30>

0000000000000644 <.LM705>:
 644:	00000097          	auipc	ra,0x0
 648:	000080e7          	jalr	ra,0(ra) # 644 <.LM705>

000000000000064c <.LM706>:
 64c:	af5ff06f          	jal	zero,140 <.L30>

0000000000000650 <.L63>:
 650:	fff00593          	addi	a1,zero,-1
 654:	03048513          	addi	a0,s1,48
 658:	00000097          	auipc	ra,0x0
 65c:	000080e7          	jalr	ra,0(ra) # 658 <.L63+0x8>

0000000000000660 <.LM710>:
 660:	f69ff06f          	jal	zero,5c8 <.L64>

0000000000000664 <.L129>:
 664:	0004b783          	ld	a5,0(s1)
 668:	0107b783          	ld	a5,16(a5)
 66c:	00048513          	addi	a0,s1,0
 670:	000780e7          	jalr	ra,0(a5)

0000000000000674 <.LM715>:
 674:	0ff0000f          	fence	iorw,iorw

0000000000000678 <.LBB1663>:
 678:	000007b7          	lui	a5,0x0
 67c:	0007c783          	lbu	a5,0(a5) # 0 <main>
 680:	02078663          	beq	a5,zero,6ac <.L65>

0000000000000684 <.LBB1667>:
 684:	0344a503          	lw	a0,52(s1)

0000000000000688 <.LM725>:
 688:	fff5079b          	addiw	a5,a0,-1
 68c:	02f4aa23          	sw	a5,52(s1)

0000000000000690 <.L66>:
 690:	00100793          	addi	a5,zero,1
 694:	f2f51ee3          	bne	a0,a5,5d0 <.L62>

0000000000000698 <.LM730>:
 698:	0004b783          	ld	a5,0(s1)
 69c:	0187b783          	ld	a5,24(a5)
 6a0:	00048513          	addi	a0,s1,0
 6a4:	000780e7          	jalr	ra,0(a5)

00000000000006a8 <.LVL221>:
 6a8:	f29ff06f          	jal	zero,5d0 <.L62>

00000000000006ac <.L65>:
 6ac:	fff00593          	addi	a1,zero,-1
 6b0:	03448513          	addi	a0,s1,52
 6b4:	00000097          	auipc	ra,0x0
 6b8:	000080e7          	jalr	ra,0(ra) # 6b4 <.L65+0x8>

00000000000006bc <.LM733>:
 6bc:	fd5ff06f          	jal	zero,690 <.L66>

00000000000006c0 <.L68>:
 6c0:	fff00593          	addi	a1,zero,-1
 6c4:	03048513          	addi	a0,s1,48
 6c8:	00000097          	auipc	ra,0x0
 6cc:	000080e7          	jalr	ra,0(ra) # 6c8 <.L68+0x8>

00000000000006d0 <.LM737>:
 6d0:	f1dff06f          	jal	zero,5ec <.L69>

00000000000006d4 <.L130>:
 6d4:	0004b783          	ld	a5,0(s1)
 6d8:	0107b783          	ld	a5,16(a5)
 6dc:	00048513          	addi	a0,s1,0
 6e0:	000780e7          	jalr	ra,0(a5)

00000000000006e4 <.LM742>:
 6e4:	0ff0000f          	fence	iorw,iorw

00000000000006e8 <.LBB1695>:
 6e8:	000007b7          	lui	a5,0x0
 6ec:	0007c783          	lbu	a5,0(a5) # 0 <main>
 6f0:	02078663          	beq	a5,zero,71c <.L70>

00000000000006f4 <.LBB1699>:
 6f4:	0344a503          	lw	a0,52(s1)

00000000000006f8 <.LM752>:
 6f8:	fff5079b          	addiw	a5,a0,-1
 6fc:	02f4aa23          	sw	a5,52(s1)

0000000000000700 <.L71>:
 700:	00100793          	addi	a5,zero,1
 704:	eef518e3          	bne	a0,a5,5f4 <.L67>

0000000000000708 <.LM757>:
 708:	0004b783          	ld	a5,0(s1)
 70c:	0187b783          	ld	a5,24(a5)
 710:	00048513          	addi	a0,s1,0
 714:	000780e7          	jalr	ra,0(a5)

0000000000000718 <.LVL232>:
 718:	eddff06f          	jal	zero,5f4 <.L67>

000000000000071c <.L70>:
 71c:	fff00593          	addi	a1,zero,-1
 720:	03448513          	addi	a0,s1,52
 724:	00000097          	auipc	ra,0x0
 728:	000080e7          	jalr	ra,0(ra) # 724 <.L70+0x8>

000000000000072c <.LM760>:
 72c:	fd5ff06f          	jal	zero,700 <.L71>

0000000000000730 <.L73>:
 730:	fff00593          	addi	a1,zero,-1
 734:	03048513          	addi	a0,s1,48
 738:	00000097          	auipc	ra,0x0
 73c:	000080e7          	jalr	ra,0(ra) # 738 <.L73+0x8>

0000000000000740 <.LM764>:
 740:	ed1ff06f          	jal	zero,610 <.L74>

0000000000000744 <.L131>:
 744:	0004b783          	ld	a5,0(s1)
 748:	0107b783          	ld	a5,16(a5)
 74c:	00048513          	addi	a0,s1,0
 750:	000780e7          	jalr	ra,0(a5)

0000000000000754 <.LM769>:
 754:	0ff0000f          	fence	iorw,iorw

0000000000000758 <.LBB1238>:
 758:	000007b7          	lui	a5,0x0
 75c:	0007c783          	lbu	a5,0(a5) # 0 <main>
 760:	02078663          	beq	a5,zero,78c <.L75>

0000000000000764 <.LBB1242>:
 764:	0344a503          	lw	a0,52(s1)

0000000000000768 <.LM779>:
 768:	fff5079b          	addiw	a5,a0,-1
 76c:	02f4aa23          	sw	a5,52(s1)

0000000000000770 <.L76>:
 770:	00100793          	addi	a5,zero,1
 774:	eaf512e3          	bne	a0,a5,618 <.L72>

0000000000000778 <.LM784>:
 778:	0004b783          	ld	a5,0(s1)
 77c:	0187b783          	ld	a5,24(a5)
 780:	00048513          	addi	a0,s1,0
 784:	000780e7          	jalr	ra,0(a5)

0000000000000788 <.LVL243>:
 788:	e91ff06f          	jal	zero,618 <.L72>

000000000000078c <.L75>:
 78c:	fff00593          	addi	a1,zero,-1
 790:	03448513          	addi	a0,s1,52
 794:	00000097          	auipc	ra,0x0
 798:	000080e7          	jalr	ra,0(ra) # 794 <.L75+0x8>

000000000000079c <.LM787>:
 79c:	fd5ff06f          	jal	zero,770 <.L76>

00000000000007a0 <.L78>:
 7a0:	fff00593          	addi	a1,zero,-1
 7a4:	03048513          	addi	a0,s1,48
 7a8:	00000097          	auipc	ra,0x0
 7ac:	000080e7          	jalr	ra,0(ra) # 7a8 <.L78+0x8>

00000000000007b0 <.LM791>:
 7b0:	e85ff06f          	jal	zero,634 <.L79>

00000000000007b4 <.L132>:
 7b4:	0004b783          	ld	a5,0(s1)
 7b8:	0107b783          	ld	a5,16(a5)
 7bc:	00048513          	addi	a0,s1,0
 7c0:	000780e7          	jalr	ra,0(a5)

00000000000007c4 <.LM796>:
 7c4:	0ff0000f          	fence	iorw,iorw

00000000000007c8 <.LBB1200>:
 7c8:	000007b7          	lui	a5,0x0
 7cc:	0007c783          	lbu	a5,0(a5) # 0 <main>
 7d0:	02078663          	beq	a5,zero,7fc <.L80>

00000000000007d4 <.LBB1204>:
 7d4:	0344a503          	lw	a0,52(s1)

00000000000007d8 <.LM806>:
 7d8:	fff5079b          	addiw	a5,a0,-1
 7dc:	02f4aa23          	sw	a5,52(s1)

00000000000007e0 <.L81>:
 7e0:	00100793          	addi	a5,zero,1
 7e4:	e4f51ce3          	bne	a0,a5,63c <.L77>

00000000000007e8 <.LM811>:
 7e8:	0004b783          	ld	a5,0(s1)
 7ec:	0187b783          	ld	a5,24(a5)
 7f0:	00048513          	addi	a0,s1,0
 7f4:	000780e7          	jalr	ra,0(a5)

00000000000007f8 <.LVL254>:
 7f8:	e45ff06f          	jal	zero,63c <.L77>

00000000000007fc <.L80>:
 7fc:	fff00593          	addi	a1,zero,-1
 800:	03448513          	addi	a0,s1,52
 804:	00000097          	auipc	ra,0x0
 808:	000080e7          	jalr	ra,0(ra) # 804 <.L80+0x8>

000000000000080c <.LM814>:
 80c:	fd5ff06f          	jal	zero,7e0 <.L81>

0000000000000810 <.L28>:
 810:	11813503          	ld	a0,280(sp)

0000000000000814 <.LM822>:
 814:	00050663          	beq	a0,zero,820 <.L84>

0000000000000818 <.LM823>:
 818:	00000097          	auipc	ra,0x0
 81c:	000080e7          	jalr	ra,0(ra) # 818 <.LM823>

0000000000000820 <.L84>:
 820:	00000513          	addi	a0,zero,0

0000000000000824 <.L117>:
 824:	1c813083          	ld	ra,456(sp)
 828:	1c013403          	ld	s0,448(sp)
 82c:	1b813483          	ld	s1,440(sp)
 830:	1b013903          	ld	s2,432(sp)
 834:	1a813983          	ld	s3,424(sp)
 838:	1a013a03          	ld	s4,416(sp)
 83c:	19813a83          	ld	s5,408(sp)
 840:	19013b03          	ld	s6,400(sp)
 844:	18813b83          	ld	s7,392(sp)
 848:	18013c03          	ld	s8,384(sp)
 84c:	17813c83          	ld	s9,376(sp)
 850:	17013d03          	ld	s10,368(sp)
 854:	16813d83          	ld	s11,360(sp)
 858:	1d010113          	addi	sp,sp,464
 85c:	00008067          	jalr	zero,0(ra)

0000000000000860 <.L105>:
 860:	00050413          	addi	s0,a0,0

0000000000000864 <.LBB1783>:
 864:	12813503          	ld	a0,296(sp)

0000000000000868 <.LM833>:
 868:	00050663          	beq	a0,zero,874 <.L86>

000000000000086c <.LM834>:
 86c:	00000097          	auipc	ra,0x0
 870:	000080e7          	jalr	ra,0(ra) # 86c <.LM834>

0000000000000874 <.L86>:
 874:	00040513          	addi	a0,s0,0

0000000000000878 <.LEHB14>:
 878:	00000097          	auipc	ra,0x0
 87c:	000080e7          	jalr	ra,0(ra) # 878 <.LEHB14>

0000000000000880 <.L107>:
 880:	00050413          	addi	s0,a0,0

0000000000000884 <.LBB1751>:
 884:	0e013503          	ld	a0,224(sp)

0000000000000888 <.LBB1752>:
 888:	0f010793          	addi	a5,sp,240
 88c:	00f50663          	beq	a0,a5,898 <.L89>

0000000000000890 <.LBB1754>:
 890:	00000097          	auipc	ra,0x0
 894:	000080e7          	jalr	ra,0(ra) # 890 <.LBB1754>

0000000000000898 <.L89>:
 898:	11813503          	ld	a0,280(sp)

000000000000089c <.LM862>:
 89c:	00050663          	beq	a0,zero,8a8 <.L103>

00000000000008a0 <.LM863>:
 8a0:	00000097          	auipc	ra,0x0
 8a4:	000080e7          	jalr	ra,0(ra) # 8a0 <.LM863>

00000000000008a8 <.L103>:
 8a8:	00040513          	addi	a0,s0,0
 8ac:	00000097          	auipc	ra,0x0
 8b0:	000080e7          	jalr	ra,0(ra) # 8ac <.L103+0x4>

00000000000008b4 <.L114>:
 8b4:	00050413          	addi	s0,a0,0

00000000000008b8 <.LBB1525>:
 8b8:	06813503          	ld	a0,104(sp)

00000000000008bc <.LBB1526>:
 8bc:	07810793          	addi	a5,sp,120
 8c0:	00f50663          	beq	a0,a5,8cc <.L92>

00000000000008c4 <.LBB1528>:
 8c4:	00000097          	auipc	ra,0x0
 8c8:	000080e7          	jalr	ra,0(ra) # 8c4 <.LBB1528>

00000000000008cc <.L92>:
 8cc:	04813503          	ld	a0,72(sp)

00000000000008d0 <.LBB1547>:
 8d0:	05810793          	addi	a5,sp,88
 8d4:	00f50663          	beq	a0,a5,8e0 <.L94>

00000000000008d8 <.LBB1549>:
 8d8:	00000097          	auipc	ra,0x0
 8dc:	000080e7          	jalr	ra,0(ra) # 8d8 <.LBB1549>

00000000000008e0 <.L94>:
 8e0:	02813503          	ld	a0,40(sp)

00000000000008e4 <.LBB1569>:
 8e4:	03810793          	addi	a5,sp,56
 8e8:	00f50663          	beq	a0,a5,8f4 <.L96>

00000000000008ec <.LBB1571>:
 8ec:	00000097          	auipc	ra,0x0
 8f0:	000080e7          	jalr	ra,0(ra) # 8ec <.LBB1571>

00000000000008f4 <.L96>:
 8f4:	00813503          	ld	a0,8(sp)

00000000000008f8 <.LBB1591>:
 8f8:	01810793          	addi	a5,sp,24
 8fc:	00f50663          	beq	a0,a5,908 <.L98>

0000000000000900 <.LBB1593>:
 900:	00000097          	auipc	ra,0x0
 904:	000080e7          	jalr	ra,0(ra) # 900 <.LBB1593>

0000000000000908 <.L98>:
 908:	09013503          	ld	a0,144(sp)

000000000000090c <.LM946>:
 90c:	aa0500e3          	beq	a0,zero,3ac <.L51>

0000000000000910 <.LM947>:
 910:	00000097          	auipc	ra,0x0
 914:	000080e7          	jalr	ra,0(ra) # 910 <.LM947>

0000000000000918 <.LM948>:
 918:	a95ff06f          	jal	zero,3ac <.L51>

000000000000091c <.L113>:
 91c:	00050413          	addi	s0,a0,0
 920:	fadff06f          	jal	zero,8cc <.L92>

0000000000000924 <.L112>:
 924:	00050413          	addi	s0,a0,0
 928:	fb9ff06f          	jal	zero,8e0 <.L94>

000000000000092c <.L111>:
 92c:	00050413          	addi	s0,a0,0
 930:	fc5ff06f          	jal	zero,8f4 <.L96>

0000000000000934 <.L110>:
 934:	00050413          	addi	s0,a0,0
 938:	fd1ff06f          	jal	zero,908 <.L98>

000000000000093c <.L109>:
 93c:	00050413          	addi	s0,a0,0
 940:	a79ff06f          	jal	zero,3b8 <.L100>

0000000000000944 <.L108>:
 944:	00050413          	addi	s0,a0,0
 948:	a7dff06f          	jal	zero,3c4 <.L101>

000000000000094c <.L106>:
 94c:	00050413          	addi	s0,a0,0
 950:	f49ff06f          	jal	zero,898 <.L89>

Disassembly of section .text._ZNSt16_Sp_counted_baseILN9__gnu_cxx12_Lock_policyE1EE10_M_releaseEv:

0000000000000000 <_ZNSt16_Sp_counted_baseILN9__gnu_cxx12_Lock_policyE1EE10_M_releaseEv>:
   0:	ff010113          	addi	sp,sp,-16
   4:	00113423          	sd	ra,8(sp)
   8:	00813023          	sd	s0,0(sp)
   c:	00050413          	addi	s0,a0,0

0000000000000010 <.LBB572>:
  10:	000007b7          	lui	a5,0x0
  14:	0007c783          	lbu	a5,0(a5) # 0 <_ZNSt16_Sp_counted_baseILN9__gnu_cxx12_Lock_policyE1EE10_M_releaseEv>
  18:	02078463          	beq	a5,zero,40 <.L2>

000000000000001c <.LBB576>:
  1c:	03052503          	lw	a0,48(a0)

0000000000000020 <.LM14>:
  20:	fff5079b          	addiw	a5,a0,-1
  24:	02f42823          	sw	a5,48(s0)

0000000000000028 <.L3>:
  28:	00100793          	addi	a5,zero,1
  2c:	02f50463          	beq	a0,a5,54 <.L8>

0000000000000030 <.L1>:
  30:	00813083          	ld	ra,8(sp)
  34:	00013403          	ld	s0,0(sp)

0000000000000038 <.LM20>:
  38:	01010113          	addi	sp,sp,16
  3c:	00008067          	jalr	zero,0(ra)

0000000000000040 <.L2>:
  40:	fff00593          	addi	a1,zero,-1
  44:	03050513          	addi	a0,a0,48
  48:	00000097          	auipc	ra,0x0
  4c:	000080e7          	jalr	ra,0(ra) # 48 <.L2+0x8>

0000000000000050 <.LM23>:
  50:	fd9ff06f          	jal	zero,28 <.L3>

0000000000000054 <.L8>:
  54:	00043783          	ld	a5,0(s0)
  58:	0107b783          	ld	a5,16(a5)
  5c:	00040513          	addi	a0,s0,0
  60:	000780e7          	jalr	ra,0(a5)

0000000000000064 <.LM28>:
  64:	0ff0000f          	fence	iorw,iorw

0000000000000068 <.LBB582>:
  68:	000007b7          	lui	a5,0x0
  6c:	0007c783          	lbu	a5,0(a5) # 0 <_ZNSt16_Sp_counted_baseILN9__gnu_cxx12_Lock_policyE1EE10_M_releaseEv>
  70:	02078663          	beq	a5,zero,9c <.L5>

0000000000000074 <.LBB586>:
  74:	03442503          	lw	a0,52(s0)

0000000000000078 <.LM38>:
  78:	fff5079b          	addiw	a5,a0,-1
  7c:	02f42a23          	sw	a5,52(s0)

0000000000000080 <.L6>:
  80:	00100793          	addi	a5,zero,1
  84:	faf516e3          	bne	a0,a5,30 <.L1>

0000000000000088 <.LM43>:
  88:	00043783          	ld	a5,0(s0)
  8c:	0187b783          	ld	a5,24(a5)
  90:	00040513          	addi	a0,s0,0
  94:	000780e7          	jalr	ra,0(a5)

0000000000000098 <.LBE580>:
  98:	f99ff06f          	jal	zero,30 <.L1>

000000000000009c <.L5>:
  9c:	fff00593          	addi	a1,zero,-1
  a0:	03440513          	addi	a0,s0,52
  a4:	00000097          	auipc	ra,0x0
  a8:	000080e7          	jalr	ra,0(ra) # a4 <.L5+0x8>

00000000000000ac <.LM48>:
  ac:	fd5ff06f          	jal	zero,80 <.L6>

Disassembly of section .text._ZN3elf6symtab8iteratorD2Ev:

0000000000000000 <_ZN3elf6symtab8iteratorD1Ev>:
   0:	fe010113          	addi	sp,sp,-32
   4:	00113c23          	sd	ra,24(sp)
   8:	00813823          	sd	s0,16(sp)
   c:	00913423          	sd	s1,8(sp)
  10:	00050413          	addi	s0,a0,0

0000000000000014 <.LBB648>:
  14:	01853483          	ld	s1,24(a0)

0000000000000018 <.LM56>:
  18:	02048263          	beq	s1,zero,3c <.L10>

000000000000001c <.LBB653>:
  1c:	000007b7          	lui	a5,0x0
  20:	0007c783          	lbu	a5,0(a5) # 0 <_ZN3elf6symtab8iteratorD1Ev>
  24:	04078a63          	beq	a5,zero,78 <.L11>

0000000000000028 <.LBB659>:
  28:	0304a503          	lw	a0,48(s1)

000000000000002c <.LM69>:
  2c:	fff5079b          	addiw	a5,a0,-1
  30:	02f4a823          	sw	a5,48(s1)

0000000000000034 <.L12>:
  34:	00100793          	addi	a5,zero,1
  38:	04f50a63          	beq	a0,a5,8c <.L21>

000000000000003c <.L10>:
  3c:	00843403          	ld	s0,8(s0)

0000000000000040 <.LM80>:
  40:	02040263          	beq	s0,zero,64 <.L9>

0000000000000044 <.LBB684>:
  44:	000007b7          	lui	a5,0x0
  48:	0007c783          	lbu	a5,0(a5) # 0 <_ZN3elf6symtab8iteratorD1Ev>
  4c:	08078e63          	beq	a5,zero,e8 <.L16>

0000000000000050 <.LBB690>:
  50:	03042503          	lw	a0,48(s0)

0000000000000054 <.LM93>:
  54:	fff5079b          	addiw	a5,a0,-1
  58:	02f42823          	sw	a5,48(s0)

000000000000005c <.L17>:
  5c:	00100793          	addi	a5,zero,1
  60:	08f50e63          	beq	a0,a5,fc <.L22>

0000000000000064 <.L9>:
  64:	01813083          	ld	ra,24(sp)
  68:	01013403          	ld	s0,16(sp)
  6c:	00813483          	ld	s1,8(sp)
  70:	02010113          	addi	sp,sp,32
  74:	00008067          	jalr	zero,0(ra)

0000000000000078 <.L11>:
  78:	fff00593          	addi	a1,zero,-1
  7c:	03048513          	addi	a0,s1,48
  80:	00000097          	auipc	ra,0x0
  84:	000080e7          	jalr	ra,0(ra) # 80 <.L11+0x8>

0000000000000088 <.LM102>:
  88:	fadff06f          	jal	zero,34 <.L12>

000000000000008c <.L21>:
  8c:	0004b783          	ld	a5,0(s1)
  90:	0107b783          	ld	a5,16(a5)
  94:	00048513          	addi	a0,s1,0
  98:	000780e7          	jalr	ra,0(a5)

000000000000009c <.LM107>:
  9c:	0ff0000f          	fence	iorw,iorw

00000000000000a0 <.LBB665>:
  a0:	000007b7          	lui	a5,0x0
  a4:	0007c783          	lbu	a5,0(a5) # 0 <_ZN3elf6symtab8iteratorD1Ev>
  a8:	02078663          	beq	a5,zero,d4 <.L13>

00000000000000ac <.LBB669>:
  ac:	0344a503          	lw	a0,52(s1)

00000000000000b0 <.LM117>:
  b0:	fff5079b          	addiw	a5,a0,-1
  b4:	02f4aa23          	sw	a5,52(s1)

00000000000000b8 <.L14>:
  b8:	00100793          	addi	a5,zero,1
  bc:	f8f510e3          	bne	a0,a5,3c <.L10>

00000000000000c0 <.LM122>:
  c0:	0004b783          	ld	a5,0(s1)
  c4:	0187b783          	ld	a5,24(a5)
  c8:	00048513          	addi	a0,s1,0
  cc:	000780e7          	jalr	ra,0(a5)

00000000000000d0 <.LVL38>:
  d0:	f6dff06f          	jal	zero,3c <.L10>

00000000000000d4 <.L13>:
  d4:	fff00593          	addi	a1,zero,-1
  d8:	03448513          	addi	a0,s1,52
  dc:	00000097          	auipc	ra,0x0
  e0:	000080e7          	jalr	ra,0(ra) # dc <.L13+0x8>

00000000000000e4 <.LM125>:
  e4:	fd5ff06f          	jal	zero,b8 <.L14>

00000000000000e8 <.L16>:
  e8:	fff00593          	addi	a1,zero,-1
  ec:	03040513          	addi	a0,s0,48
  f0:	00000097          	auipc	ra,0x0
  f4:	000080e7          	jalr	ra,0(ra) # f0 <.L16+0x8>

00000000000000f8 <.LM129>:
  f8:	f65ff06f          	jal	zero,5c <.L17>

00000000000000fc <.L22>:
  fc:	00043783          	ld	a5,0(s0)
 100:	0107b783          	ld	a5,16(a5)
 104:	00040513          	addi	a0,s0,0
 108:	000780e7          	jalr	ra,0(a5)

000000000000010c <.LM134>:
 10c:	0ff0000f          	fence	iorw,iorw

0000000000000110 <.LBB696>:
 110:	000007b7          	lui	a5,0x0
 114:	0007c783          	lbu	a5,0(a5) # 0 <_ZN3elf6symtab8iteratorD1Ev>
 118:	02078663          	beq	a5,zero,144 <.L18>

000000000000011c <.LBB700>:
 11c:	03442503          	lw	a0,52(s0)

0000000000000120 <.LM144>:
 120:	fff5079b          	addiw	a5,a0,-1
 124:	02f42a23          	sw	a5,52(s0)

0000000000000128 <.L19>:
 128:	00100793          	addi	a5,zero,1
 12c:	f2f51ce3          	bne	a0,a5,64 <.L9>

0000000000000130 <.LM149>:
 130:	00043783          	ld	a5,0(s0)
 134:	0187b783          	ld	a5,24(a5)
 138:	00040513          	addi	a0,s0,0
 13c:	000780e7          	jalr	ra,0(a5)

0000000000000140 <.LBE694>:
 140:	f25ff06f          	jal	zero,64 <.L9>

0000000000000144 <.L18>:
 144:	fff00593          	addi	a1,zero,-1
 148:	03440513          	addi	a0,s0,52
 14c:	00000097          	auipc	ra,0x0
 150:	000080e7          	jalr	ra,0(ra) # 14c <.L18+0x8>

0000000000000154 <.LM154>:
 154:	fd5ff06f          	jal	zero,128 <.L19>
