
dump-lines:     file format elf64-littleriscv


Disassembly of section .plt:

0000000000016310 <_PROCEDURE_LINKAGE_TABLE_>:
   16310:	97 c3 02 00 33 03 c3 41 03 be 83 d0 13 03 43 fd     ....3..A......C.
   16320:	93 82 83 d0 13 53 13 00 83 b2 82 00 67 00 0e 00     .....S......g...

0000000000016330 <operator new[](unsigned long)@plt>:
   16330:	0002ce17          	auipc	t3,0x2c
   16334:	cf8e3e03          	ld	t3,-776(t3) # 42028 <operator new[](unsigned long)@GLIBCXX_3.4>
   16338:	000e0367          	jalr	t1,0(t3)
   1633c:	00000013          	addi	zero,zero,0

0000000000016340 <std::_Rb_tree_insert_and_rebalance(bool, std::_Rb_tree_node_base*, std::_Rb_tree_node_base*, std::_Rb_tree_node_base&)@plt>:
   16340:	0002ce17          	auipc	t3,0x2c
   16344:	cf0e3e03          	ld	t3,-784(t3) # 42030 <std::_Rb_tree_insert_and_rebalance(bool, std::_Rb_tree_node_base*, std::_Rb_tree_node_base*, std::_Rb_tree_node_base&)@GLIBCXX_3.4>
   16348:	000e0367          	jalr	t1,0(t3)
   1634c:	00000013          	addi	zero,zero,0

0000000000016350 <__gnu_cxx::__atomic_add(int volatile*, int)@plt>:
   16350:	0002ce17          	auipc	t3,0x2c
   16354:	ce8e3e03          	ld	t3,-792(t3) # 42038 <__gnu_cxx::__atomic_add(int volatile*, int)@GLIBCXX_3.4>
   16358:	000e0367          	jalr	t1,0(t3)
   1635c:	00000013          	addi	zero,zero,0

0000000000016360 <strcmp@plt>:
   16360:	0002ce17          	auipc	t3,0x2c
   16364:	ce0e3e03          	ld	t3,-800(t3) # 42040 <strcmp@GLIBC_2.27>
   16368:	000e0367          	jalr	t1,0(t3)
   1636c:	00000013          	addi	zero,zero,0

0000000000016370 <__bswapsi2@plt>:
   16370:	0002ce17          	auipc	t3,0x2c
   16374:	cd8e3e03          	ld	t3,-808(t3) # 42048 <__bswapsi2@GCC_4.3.0>
   16378:	000e0367          	jalr	t1,0(t3)
   1637c:	00000013          	addi	zero,zero,0

0000000000016380 <__gnu_cxx::__exchange_and_add(int volatile*, int)@plt>:
   16380:	0002ce17          	auipc	t3,0x2c
   16384:	cd0e3e03          	ld	t3,-816(t3) # 42050 <__gnu_cxx::__exchange_and_add(int volatile*, int)@GLIBCXX_3.4>
   16388:	000e0367          	jalr	t1,0(t3)
   1638c:	00000013          	addi	zero,zero,0

0000000000016390 <std::__cxx11::basic_string<char, std::char_traits<char>, std::allocator<char> >::insert(unsigned long, char const*)@plt>:
   16390:	0002ce17          	auipc	t3,0x2c
   16394:	cc8e3e03          	ld	t3,-824(t3) # 42058 <std::__cxx11::basic_string<char, std::char_traits<char>, std::allocator<char> >::insert(unsigned long, char const*)@GLIBCXX_3.4.21>
   16398:	000e0367          	jalr	t1,0(t3)
   1639c:	00000013          	addi	zero,zero,0

00000000000163a0 <std::__cxx11::basic_string<char, std::char_traits<char>, std::allocator<char> >::compare(char const*) const@plt>:
   163a0:	0002ce17          	auipc	t3,0x2c
   163a4:	cc0e3e03          	ld	t3,-832(t3) # 42060 <std::__cxx11::basic_string<char, std::char_traits<char>, std::allocator<char> >::compare(char const*) const@GLIBCXX_3.4.21>
   163a8:	000e0367          	jalr	t1,0(t3)
   163ac:	00000013          	addi	zero,zero,0

00000000000163b0 <std::__cxx11::basic_string<char, std::char_traits<char>, std::allocator<char> >::resize(unsigned long, char)@plt>:
   163b0:	0002ce17          	auipc	t3,0x2c
   163b4:	cb8e3e03          	ld	t3,-840(t3) # 42068 <std::__cxx11::basic_string<char, std::char_traits<char>, std::allocator<char> >::resize(unsigned long, char)@GLIBCXX_3.4.21>
   163b8:	000e0367          	jalr	t1,0(t3)
   163bc:	00000013          	addi	zero,zero,0

00000000000163c0 <std::__cxx11::basic_string<char, std::char_traits<char>, std::allocator<char> >::_M_append(char const*, unsigned long)@plt>:
   163c0:	0002ce17          	auipc	t3,0x2c
   163c4:	cb0e3e03          	ld	t3,-848(t3) # 42070 <std::__cxx11::basic_string<char, std::char_traits<char>, std::allocator<char> >::_M_append(char const*, unsigned long)@GLIBCXX_3.4.21>
   163c8:	000e0367          	jalr	t1,0(t3)
   163cc:	00000013          	addi	zero,zero,0

00000000000163d0 <__libc_start_main@plt>:
   163d0:	0002ce17          	auipc	t3,0x2c
   163d4:	ca8e3e03          	ld	t3,-856(t3) # 42078 <__libc_start_main@GLIBC_2.27>
   163d8:	000e0367          	jalr	t1,0(t3)
   163dc:	00000013          	addi	zero,zero,0

00000000000163e0 <std::__throw_bad_alloc()@plt>:
   163e0:	0002ce17          	auipc	t3,0x2c
   163e4:	ca0e3e03          	ld	t3,-864(t3) # 42080 <std::__throw_bad_alloc()@GLIBCXX_3.4>
   163e8:	000e0367          	jalr	t1,0(t3)
   163ec:	00000013          	addi	zero,zero,0

00000000000163f0 <std::runtime_error::runtime_error(char const*)@plt>:
   163f0:	0002ce17          	auipc	t3,0x2c
   163f4:	c98e3e03          	ld	t3,-872(t3) # 42088 <std::runtime_error::runtime_error(char const*)@GLIBCXX_3.4.21>
   163f8:	000e0367          	jalr	t1,0(t3)
   163fc:	00000013          	addi	zero,zero,0

0000000000016400 <__cxa_begin_catch@plt>:
   16400:	0002ce17          	auipc	t3,0x2c
   16404:	c90e3e03          	ld	t3,-880(t3) # 42090 <__cxa_begin_catch@CXXABI_1.3>
   16408:	000e0367          	jalr	t1,0(t3)
   1640c:	00000013          	addi	zero,zero,0

0000000000016410 <strlen@plt>:
   16410:	0002ce17          	auipc	t3,0x2c
   16414:	c88e3e03          	ld	t3,-888(t3) # 42098 <strlen@GLIBC_2.27>
   16418:	000e0367          	jalr	t1,0(t3)
   1641c:	00000013          	addi	zero,zero,0

0000000000016420 <__cxa_allocate_exception@plt>:
   16420:	0002ce17          	auipc	t3,0x2c
   16424:	c80e3e03          	ld	t3,-896(t3) # 420a0 <__cxa_allocate_exception@CXXABI_1.3>
   16428:	000e0367          	jalr	t1,0(t3)
   1642c:	00000013          	addi	zero,zero,0

0000000000016430 <putchar@plt>:
   16430:	0002ce17          	auipc	t3,0x2c
   16434:	c78e3e03          	ld	t3,-904(t3) # 420a8 <putchar@GLIBC_2.27>
   16438:	000e0367          	jalr	t1,0(t3)
   1643c:	00000013          	addi	zero,zero,0

0000000000016440 <std::__throw_length_error(char const*)@plt>:
   16440:	0002ce17          	auipc	t3,0x2c
   16444:	c70e3e03          	ld	t3,-912(t3) # 420b0 <std::__throw_length_error(char const*)@GLIBCXX_3.4>
   16448:	000e0367          	jalr	t1,0(t3)
   1644c:	00000013          	addi	zero,zero,0

0000000000016450 <std::__cxx11::basic_string<char, std::char_traits<char>, std::allocator<char> >::_M_assign(std::__cxx11::basic_string<char, std::char_traits<char>, std::allocator<char> > const&)@plt>:
   16450:	0002ce17          	auipc	t3,0x2c
   16454:	c68e3e03          	ld	t3,-920(t3) # 420b8 <std::__cxx11::basic_string<char, std::char_traits<char>, std::allocator<char> >::_M_assign(std::__cxx11::basic_string<char, std::char_traits<char>, std::allocator<char> > const&)@GLIBCXX_3.4.21>
   16458:	000e0367          	jalr	t1,0(t3)
   1645c:	00000013          	addi	zero,zero,0

0000000000016460 <std::_V2::system_category()@plt>:
   16460:	0002ce17          	auipc	t3,0x2c
   16464:	c60e3e03          	ld	t3,-928(t3) # 420c0 <std::_V2::system_category()@GLIBCXX_3.4.21>
   16468:	000e0367          	jalr	t1,0(t3)
   1646c:	00000013          	addi	zero,zero,0

0000000000016470 <std::__cxx11::basic_string<char, std::char_traits<char>, std::allocator<char> >::basic_string(std::__cxx11::basic_string<char, std::char_traits<char>, std::allocator<char> >&&)@plt>:
   16470:	0002ce17          	auipc	t3,0x2c
   16474:	c58e3e03          	ld	t3,-936(t3) # 420c8 <std::__cxx11::basic_string<char, std::char_traits<char>, std::allocator<char> >::basic_string(std::__cxx11::basic_string<char, std::char_traits<char>, std::allocator<char> >&&)@GLIBCXX_3.4.21>
   16478:	000e0367          	jalr	t1,0(t3)
   1647c:	00000013          	addi	zero,zero,0

0000000000016480 <open@plt>:
   16480:	0002ce17          	auipc	t3,0x2c
   16484:	c50e3e03          	ld	t3,-944(t3) # 420d0 <open@GLIBC_2.27>
   16488:	000e0367          	jalr	t1,0(t3)
   1648c:	00000013          	addi	zero,zero,0

0000000000016490 <__cxa_guard_release@plt>:
   16490:	0002ce17          	auipc	t3,0x2c
   16494:	c48e3e03          	ld	t3,-952(t3) # 420d8 <__cxa_guard_release@CXXABI_1.3>
   16498:	000e0367          	jalr	t1,0(t3)
   1649c:	00000013          	addi	zero,zero,0

00000000000164a0 <mmap@plt>:
   164a0:	0002ce17          	auipc	t3,0x2c
   164a4:	c40e3e03          	ld	t3,-960(t3) # 420e0 <mmap@GLIBC_2.27>
   164a8:	000e0367          	jalr	t1,0(t3)
   164ac:	00000013          	addi	zero,zero,0

00000000000164b0 <std::_Rb_tree_increment(std::_Rb_tree_node_base*)@plt>:
   164b0:	0002ce17          	auipc	t3,0x2c
   164b4:	c38e3e03          	ld	t3,-968(t3) # 420e8 <std::_Rb_tree_increment(std::_Rb_tree_node_base*)@GLIBCXX_3.4>
   164b8:	000e0367          	jalr	t1,0(t3)
   164bc:	00000013          	addi	zero,zero,0

00000000000164c0 <std::__throw_logic_error(char const*)@plt>:
   164c0:	0002ce17          	auipc	t3,0x2c
   164c4:	c30e3e03          	ld	t3,-976(t3) # 420f0 <std::__throw_logic_error(char const*)@GLIBCXX_3.4>
   164c8:	000e0367          	jalr	t1,0(t3)
   164cc:	00000013          	addi	zero,zero,0

00000000000164d0 <__cxa_free_exception@plt>:
   164d0:	0002ce17          	auipc	t3,0x2c
   164d4:	c28e3e03          	ld	t3,-984(t3) # 420f8 <__cxa_free_exception@CXXABI_1.3>
   164d8:	000e0367          	jalr	t1,0(t3)
   164dc:	00000013          	addi	zero,zero,0

00000000000164e0 <munmap@plt>:
   164e0:	0002ce17          	auipc	t3,0x2c
   164e4:	c20e3e03          	ld	t3,-992(t3) # 42100 <munmap@GLIBC_2.27>
   164e8:	000e0367          	jalr	t1,0(t3)
   164ec:	00000013          	addi	zero,zero,0

00000000000164f0 <std::__throw_bad_array_new_length()@plt>:
   164f0:	0002ce17          	auipc	t3,0x2c
   164f4:	c18e3e03          	ld	t3,-1000(t3) # 42108 <std::__throw_bad_array_new_length()@GLIBCXX_3.4.29>
   164f8:	000e0367          	jalr	t1,0(t3)
   164fc:	00000013          	addi	zero,zero,0

0000000000016500 <__assert_fail@plt>:
   16500:	0002ce17          	auipc	t3,0x2c
   16504:	c10e3e03          	ld	t3,-1008(t3) # 42110 <__assert_fail@GLIBC_2.27>
   16508:	000e0367          	jalr	t1,0(t3)
   1650c:	00000013          	addi	zero,zero,0

0000000000016510 <operator delete(void*)@plt>:
   16510:	0002ce17          	auipc	t3,0x2c
   16514:	c08e3e03          	ld	t3,-1016(t3) # 42118 <operator delete(void*)@GLIBCXX_3.4>
   16518:	000e0367          	jalr	t1,0(t3)
   1651c:	00000013          	addi	zero,zero,0

0000000000016520 <operator new(unsigned long)@plt>:
   16520:	0002ce17          	auipc	t3,0x2c
   16524:	c00e3e03          	ld	t3,-1024(t3) # 42120 <operator new(unsigned long)@GLIBCXX_3.4>
   16528:	000e0367          	jalr	t1,0(t3)
   1652c:	00000013          	addi	zero,zero,0

0000000000016530 <std::_Rb_tree_decrement(std::_Rb_tree_node_base*)@plt>:
   16530:	0002ce17          	auipc	t3,0x2c
   16534:	bf8e3e03          	ld	t3,-1032(t3) # 42128 <std::_Rb_tree_decrement(std::_Rb_tree_node_base*)@GLIBCXX_3.4>
   16538:	000e0367          	jalr	t1,0(t3)
   1653c:	00000013          	addi	zero,zero,0

0000000000016540 <std::runtime_error::~runtime_error()@plt>:
   16540:	0002ce17          	auipc	t3,0x2c
   16544:	bf0e3e03          	ld	t3,-1040(t3) # 42130 <std::runtime_error::~runtime_error()@GLIBCXX_3.4>
   16548:	000e0367          	jalr	t1,0(t3)
   1654c:	00000013          	addi	zero,zero,0

0000000000016550 <__bswapdi2@plt>:
   16550:	0002ce17          	auipc	t3,0x2c
   16554:	be8e3e03          	ld	t3,-1048(t3) # 42138 <__bswapdi2@GCC_4.3.0>
   16558:	000e0367          	jalr	t1,0(t3)
   1655c:	00000013          	addi	zero,zero,0

0000000000016560 <__dynamic_cast@plt>:
   16560:	0002ce17          	auipc	t3,0x2c
   16564:	be0e3e03          	ld	t3,-1056(t3) # 42140 <__dynamic_cast@CXXABI_1.3>
   16568:	000e0367          	jalr	t1,0(t3)
   1656c:	00000013          	addi	zero,zero,0

0000000000016570 <std::__cxx11::basic_string<char, std::char_traits<char>, std::allocator<char> >::_M_construct(unsigned long, char)@plt>:
   16570:	0002ce17          	auipc	t3,0x2c
   16574:	bd8e3e03          	ld	t3,-1064(t3) # 42148 <std::__cxx11::basic_string<char, std::char_traits<char>, std::allocator<char> >::_M_construct(unsigned long, char)@GLIBCXX_3.4.21>
   16578:	000e0367          	jalr	t1,0(t3)
   1657c:	00000013          	addi	zero,zero,0

0000000000016580 <std::logic_error::logic_error(char const*)@plt>:
   16580:	0002ce17          	auipc	t3,0x2c
   16584:	bd0e3e03          	ld	t3,-1072(t3) # 42150 <std::logic_error::logic_error(char const*)@GLIBCXX_3.4.21>
   16588:	000e0367          	jalr	t1,0(t3)
   1658c:	00000013          	addi	zero,zero,0

0000000000016590 <strerror@plt>:
   16590:	0002ce17          	auipc	t3,0x2c
   16594:	bc8e3e03          	ld	t3,-1080(t3) # 42158 <strerror@GLIBC_2.27>
   16598:	000e0367          	jalr	t1,0(t3)
   1659c:	00000013          	addi	zero,zero,0

00000000000165a0 <std::runtime_error::runtime_error(std::__cxx11::basic_string<char, std::char_traits<char>, std::allocator<char> > const&)@plt>:
   165a0:	0002ce17          	auipc	t3,0x2c
   165a4:	bc0e3e03          	ld	t3,-1088(t3) # 42160 <std::runtime_error::runtime_error(std::__cxx11::basic_string<char, std::char_traits<char>, std::allocator<char> > const&)@GLIBCXX_3.4.21>
   165a8:	000e0367          	jalr	t1,0(t3)
   165ac:	00000013          	addi	zero,zero,0

00000000000165b0 <memcpy@plt>:
   165b0:	0002ce17          	auipc	t3,0x2c
   165b4:	bb8e3e03          	ld	t3,-1096(t3) # 42168 <memcpy@GLIBC_2.27>
   165b8:	000e0367          	jalr	t1,0(t3)
   165bc:	00000013          	addi	zero,zero,0

00000000000165c0 <operator delete[](void*)@plt>:
   165c0:	0002ce17          	auipc	t3,0x2c
   165c4:	bb0e3e03          	ld	t3,-1104(t3) # 42170 <operator delete[](void*)@GLIBCXX_3.4>
   165c8:	000e0367          	jalr	t1,0(t3)
   165cc:	00000013          	addi	zero,zero,0

00000000000165d0 <std::__detail::_Prime_rehash_policy::_M_need_rehash(unsigned long, unsigned long, unsigned long) const@plt>:
   165d0:	0002ce17          	auipc	t3,0x2c
   165d4:	ba8e3e03          	ld	t3,-1112(t3) # 42178 <std::__detail::_Prime_rehash_policy::_M_need_rehash(unsigned long, unsigned long, unsigned long) const@GLIBCXX_3.4.18>
   165d8:	000e0367          	jalr	t1,0(t3)
   165dc:	00000013          	addi	zero,zero,0

00000000000165e0 <memset@plt>:
   165e0:	0002ce17          	auipc	t3,0x2c
   165e4:	ba0e3e03          	ld	t3,-1120(t3) # 42180 <memset@GLIBC_2.27>
   165e8:	000e0367          	jalr	t1,0(t3)
   165ec:	00000013          	addi	zero,zero,0

00000000000165f0 <std::__cxx11::basic_string<char, std::char_traits<char>, std::allocator<char> >::basic_string(char const*, std::allocator<char> const&)@plt>:
   165f0:	0002ce17          	auipc	t3,0x2c
   165f4:	b98e3e03          	ld	t3,-1128(t3) # 42188 <std::__cxx11::basic_string<char, std::char_traits<char>, std::allocator<char> >::basic_string(char const*, std::allocator<char> const&)@GLIBCXX_3.4.21>
   165f8:	000e0367          	jalr	t1,0(t3)
   165fc:	00000013          	addi	zero,zero,0

0000000000016600 <std::runtime_error::what() const@plt>:
   16600:	0002ce17          	auipc	t3,0x2c
   16604:	b90e3e03          	ld	t3,-1136(t3) # 42190 <std::runtime_error::what() const@GLIBCXX_3.4>
   16608:	000e0367          	jalr	t1,0(t3)
   1660c:	00000013          	addi	zero,zero,0

0000000000016610 <std::logic_error::logic_error(char const*)@plt>:
   16610:	0002ce17          	auipc	t3,0x2c
   16614:	b88e3e03          	ld	t3,-1144(t3) # 42198 <std::logic_error::logic_error(char const*)@GLIBCXX_3.4.21>
   16618:	000e0367          	jalr	t1,0(t3)
   1661c:	00000013          	addi	zero,zero,0

0000000000016620 <__cxa_rethrow@plt>:
   16620:	0002ce17          	auipc	t3,0x2c
   16624:	b80e3e03          	ld	t3,-1152(t3) # 421a0 <__cxa_rethrow@CXXABI_1.3>
   16628:	000e0367          	jalr	t1,0(t3)
   1662c:	00000013          	addi	zero,zero,0

0000000000016630 <std::logic_error::what() const@plt>:
   16630:	0002ce17          	auipc	t3,0x2c
   16634:	b78e3e03          	ld	t3,-1160(t3) # 421a8 <std::logic_error::what() const@GLIBCXX_3.4>
   16638:	000e0367          	jalr	t1,0(t3)
   1663c:	00000013          	addi	zero,zero,0

0000000000016640 <std::__throw_out_of_range_fmt(char const*, ...)@plt>:
   16640:	0002ce17          	auipc	t3,0x2c
   16644:	b70e3e03          	ld	t3,-1168(t3) # 421b0 <std::__throw_out_of_range_fmt(char const*, ...)@GLIBCXX_3.4.20>
   16648:	000e0367          	jalr	t1,0(t3)
   1664c:	00000013          	addi	zero,zero,0

0000000000016650 <std::out_of_range::out_of_range(std::__cxx11::basic_string<char, std::char_traits<char>, std::allocator<char> > const&)@plt>:
   16650:	0002ce17          	auipc	t3,0x2c
   16654:	b68e3e03          	ld	t3,-1176(t3) # 421b8 <std::out_of_range::out_of_range(std::__cxx11::basic_string<char, std::char_traits<char>, std::allocator<char> > const&)@GLIBCXX_3.4.21>
   16658:	000e0367          	jalr	t1,0(t3)
   1665c:	00000013          	addi	zero,zero,0

0000000000016660 <std::__cxx11::basic_string<char, std::char_traits<char>, std::allocator<char> >::_M_replace(unsigned long, unsigned long, char const*, unsigned long)@plt>:
   16660:	0002ce17          	auipc	t3,0x2c
   16664:	b60e3e03          	ld	t3,-1184(t3) # 421c0 <std::__cxx11::basic_string<char, std::char_traits<char>, std::allocator<char> >::_M_replace(unsigned long, unsigned long, char const*, unsigned long)@GLIBCXX_3.4.21>
   16668:	000e0367          	jalr	t1,0(t3)
   1666c:	00000013          	addi	zero,zero,0

0000000000016670 <lseek@plt>:
   16670:	0002ce17          	auipc	t3,0x2c
   16674:	b58e3e03          	ld	t3,-1192(t3) # 421c8 <lseek@GLIBC_2.27>
   16678:	000e0367          	jalr	t1,0(t3)
   1667c:	00000013          	addi	zero,zero,0

0000000000016680 <std::runtime_error::runtime_error(std::__cxx11::basic_string<char, std::char_traits<char>, std::allocator<char> > const&)@plt>:
   16680:	0002ce17          	auipc	t3,0x2c
   16684:	b50e3e03          	ld	t3,-1200(t3) # 421d0 <std::runtime_error::runtime_error(std::__cxx11::basic_string<char, std::char_traits<char>, std::allocator<char> > const&)@GLIBCXX_3.4.21>
   16688:	000e0367          	jalr	t1,0(t3)
   1668c:	00000013          	addi	zero,zero,0

0000000000016690 <__cxa_end_catch@plt>:
   16690:	0002ce17          	auipc	t3,0x2c
   16694:	b48e3e03          	ld	t3,-1208(t3) # 421d8 <__cxa_end_catch@CXXABI_1.3>
   16698:	000e0367          	jalr	t1,0(t3)
   1669c:	00000013          	addi	zero,zero,0

00000000000166a0 <__gxx_personality_v0@plt>:
   166a0:	0002ce17          	auipc	t3,0x2c
   166a4:	b40e3e03          	ld	t3,-1216(t3) # 421e0 <__gxx_personality_v0@CXXABI_1.3>
   166a8:	000e0367          	jalr	t1,0(t3)
   166ac:	00000013          	addi	zero,zero,0

00000000000166b0 <strncmp@plt>:
   166b0:	0002ce17          	auipc	t3,0x2c
   166b4:	b38e3e03          	ld	t3,-1224(t3) # 421e8 <strncmp@GLIBC_2.27>
   166b8:	000e0367          	jalr	t1,0(t3)
   166bc:	00000013          	addi	zero,zero,0

00000000000166c0 <__cxa_throw@plt>:
   166c0:	0002ce17          	auipc	t3,0x2c
   166c4:	b30e3e03          	ld	t3,-1232(t3) # 421f0 <__cxa_throw@CXXABI_1.3>
   166c8:	000e0367          	jalr	t1,0(t3)
   166cc:	00000013          	addi	zero,zero,0

00000000000166d0 <std::range_error::range_error(char const*)@plt>:
   166d0:	0002ce17          	auipc	t3,0x2c
   166d4:	b28e3e03          	ld	t3,-1240(t3) # 421f8 <std::range_error::range_error(char const*)@GLIBCXX_3.4.21>
   166d8:	000e0367          	jalr	t1,0(t3)
   166dc:	00000013          	addi	zero,zero,0

00000000000166e0 <fprintf@plt>:
   166e0:	0002ce17          	auipc	t3,0x2c
   166e4:	b20e3e03          	ld	t3,-1248(t3) # 42200 <fprintf@GLIBC_2.27>
   166e8:	000e0367          	jalr	t1,0(t3)
   166ec:	00000013          	addi	zero,zero,0

00000000000166f0 <_Unwind_Resume@plt>:
   166f0:	0002ce17          	auipc	t3,0x2c
   166f4:	b18e3e03          	ld	t3,-1256(t3) # 42208 <_Unwind_Resume@GCC_3.0>
   166f8:	000e0367          	jalr	t1,0(t3)
   166fc:	00000013          	addi	zero,zero,0

0000000000016700 <std::logic_error::~logic_error()@plt>:
   16700:	0002ce17          	auipc	t3,0x2c
   16704:	b10e3e03          	ld	t3,-1264(t3) # 42210 <std::logic_error::~logic_error()@GLIBCXX_3.4>
   16708:	000e0367          	jalr	t1,0(t3)
   1670c:	00000013          	addi	zero,zero,0

0000000000016710 <std::__cxx11::basic_string<char, std::char_traits<char>, std::allocator<char> >::_M_create(unsigned long&, unsigned long)@plt>:
   16710:	0002ce17          	auipc	t3,0x2c
   16714:	b08e3e03          	ld	t3,-1272(t3) # 42218 <std::__cxx11::basic_string<char, std::char_traits<char>, std::allocator<char> >::_M_create(unsigned long&, unsigned long)@GLIBCXX_3.4.21>
   16718:	000e0367          	jalr	t1,0(t3)
   1671c:	00000013          	addi	zero,zero,0

0000000000016720 <__cxa_atexit@plt>:
   16720:	0002ce17          	auipc	t3,0x2c
   16724:	b00e3e03          	ld	t3,-1280(t3) # 42220 <__cxa_atexit@GLIBC_2.27>
   16728:	000e0367          	jalr	t1,0(t3)
   1672c:	00000013          	addi	zero,zero,0

0000000000016730 <std::__cxx11::basic_string<char, std::char_traits<char>, std::allocator<char> >::_M_mutate(unsigned long, unsigned long, char const*, unsigned long)@plt>:
   16730:	0002ce17          	auipc	t3,0x2c
   16734:	af8e3e03          	ld	t3,-1288(t3) # 42228 <std::__cxx11::basic_string<char, std::char_traits<char>, std::allocator<char> >::_M_mutate(unsigned long, unsigned long, char const*, unsigned long)@GLIBCXX_3.4.21>
   16738:	000e0367          	jalr	t1,0(t3)
   1673c:	00000013          	addi	zero,zero,0

0000000000016740 <__cxa_guard_acquire@plt>:
   16740:	0002ce17          	auipc	t3,0x2c
   16744:	af0e3e03          	ld	t3,-1296(t3) # 42230 <__cxa_guard_acquire@CXXABI_1.3>
   16748:	000e0367          	jalr	t1,0(t3)
   1674c:	00000013          	addi	zero,zero,0

0000000000016750 <std::__cxx11::basic_string<char, std::char_traits<char>, std::allocator<char> >::_M_replace_aux(unsigned long, unsigned long, unsigned long, char)@plt>:
   16750:	0002ce17          	auipc	t3,0x2c
   16754:	ae8e3e03          	ld	t3,-1304(t3) # 42238 <std::__cxx11::basic_string<char, std::char_traits<char>, std::allocator<char> >::_M_replace_aux(unsigned long, unsigned long, unsigned long, char)@GLIBCXX_3.4.21>
   16758:	000e0367          	jalr	t1,0(t3)
   1675c:	00000013          	addi	zero,zero,0

0000000000016760 <printf@plt>:
   16760:	0002ce17          	auipc	t3,0x2c
   16764:	ae0e3e03          	ld	t3,-1312(t3) # 42240 <printf@GLIBC_2.27>
   16768:	000e0367          	jalr	t1,0(t3)
   1676c:	00000013          	addi	zero,zero,0

0000000000016770 <std::runtime_error::runtime_error(char const*)@plt>:
   16770:	0002ce17          	auipc	t3,0x2c
   16774:	ad8e3e03          	ld	t3,-1320(t3) # 42248 <std::runtime_error::runtime_error(char const*)@GLIBCXX_3.4.21>
   16778:	000e0367          	jalr	t1,0(t3)
   1677c:	00000013          	addi	zero,zero,0

0000000000016780 <memmove@plt>:
   16780:	0002ce17          	auipc	t3,0x2c
   16784:	ad0e3e03          	ld	t3,-1328(t3) # 42250 <memmove@GLIBC_2.27>
   16788:	000e0367          	jalr	t1,0(t3)
   1678c:	00000013          	addi	zero,zero,0

0000000000016790 <__cxa_pure_virtual@plt>:
   16790:	0002ce17          	auipc	t3,0x2c
   16794:	ac8e3e03          	ld	t3,-1336(t3) # 42258 <__cxa_pure_virtual@CXXABI_1.3>
   16798:	000e0367          	jalr	t1,0(t3)
   1679c:	00000013          	addi	zero,zero,0

00000000000167a0 <std::__cxx11::basic_string<char, std::char_traits<char>, std::allocator<char> >::append(char const*)@plt>:
   167a0:	0002ce17          	auipc	t3,0x2c
   167a4:	ac0e3e03          	ld	t3,-1344(t3) # 42260 <std::__cxx11::basic_string<char, std::char_traits<char>, std::allocator<char> >::append(char const*)@GLIBCXX_3.4.21>
   167a8:	000e0367          	jalr	t1,0(t3)
   167ac:	00000013          	addi	zero,zero,0

00000000000167b0 <std::range_error::range_error(std::__cxx11::basic_string<char, std::char_traits<char>, std::allocator<char> > const&)@plt>:
   167b0:	0002ce17          	auipc	t3,0x2c
   167b4:	ab8e3e03          	ld	t3,-1352(t3) # 42268 <std::range_error::range_error(std::__cxx11::basic_string<char, std::char_traits<char>, std::allocator<char> > const&)@GLIBCXX_3.4.21>
   167b8:	000e0367          	jalr	t1,0(t3)
   167bc:	00000013          	addi	zero,zero,0

00000000000167c0 <__errno_location@plt>:
   167c0:	0002ce17          	auipc	t3,0x2c
   167c4:	ab0e3e03          	ld	t3,-1360(t3) # 42270 <__errno_location@GLIBC_2.27>
   167c8:	000e0367          	jalr	t1,0(t3)
   167cc:	00000013          	addi	zero,zero,0

00000000000167d0 <close@plt>:
   167d0:	0002ce17          	auipc	t3,0x2c
   167d4:	aa8e3e03          	ld	t3,-1368(t3) # 42278 <close@GLIBC_2.27>
   167d8:	000e0367          	jalr	t1,0(t3)
   167dc:	00000013          	addi	zero,zero,0

00000000000167e0 <std::underflow_error::underflow_error(char const*)@plt>:
   167e0:	0002ce17          	auipc	t3,0x2c
   167e4:	aa0e3e03          	ld	t3,-1376(t3) # 42280 <std::underflow_error::underflow_error(char const*)@GLIBCXX_3.4.21>
   167e8:	000e0367          	jalr	t1,0(t3)
   167ec:	00000013          	addi	zero,zero,0

00000000000167f0 <std::logic_error::logic_error(std::__cxx11::basic_string<char, std::char_traits<char>, std::allocator<char> > const&)@plt>:
   167f0:	0002ce17          	auipc	t3,0x2c
   167f4:	a98e3e03          	ld	t3,-1384(t3) # 42288 <std::logic_error::logic_error(std::__cxx11::basic_string<char, std::char_traits<char>, std::allocator<char> > const&)@GLIBCXX_3.4.21>
   167f8:	000e0367          	jalr	t1,0(t3)
   167fc:	00000013          	addi	zero,zero,0

Disassembly of section .text:

0000000000016800 <_start>:
ENTRY (ENTRY_POINT)
	/* Terminate call stack by noting ra is undefined.  Use a dummy
	   .cfi_label to force starting the FDE.  */
	.cfi_label .Ldummy
	cfi_undefined (ra)
	call  load_gp
   16800:	02e000ef          	jal	ra,1682e <load_gp>
	mv    a5, a0  /* rtld_fini.  */
   16804:	87aa                	c.mv	a5,a0
	/* main may be in a shared library.  */
	la   a0, main
   16806:	00000517          	auipc	a0,0x0
   1680a:	11e50513          	addi	a0,a0,286 # 16924 <main>
	REG_L a1, 0(sp)      /* argc.  */
   1680e:	6582                	c.ldsp	a1,0(sp)
	addi  a2, sp, SZREG  /* argv.  */
   16810:	0030                	c.addi4spn	a2,sp,8
	andi  sp, sp, ALMASK /* Align stack. */
   16812:	ff017113          	andi	sp,sp,-16
	lla   a3, __libc_csu_init
   16816:	00020697          	auipc	a3,0x20
   1681a:	bfa68693          	addi	a3,a3,-1030 # 36410 <__libc_csu_init>
	lla   a4, __libc_csu_fini
   1681e:	00020717          	auipc	a4,0x20
   16822:	c4a70713          	addi	a4,a4,-950 # 36468 <__libc_csu_fini>
	mv    a6, sp  /* stack_end.  */
   16826:	880a                	c.mv	a6,sp

	call  __libc_start_main@plt
   16828:	ba9ff0ef          	jal	ra,163d0 <__libc_start_main@plt>
	ebreak
   1682c:	9002                	c.ebreak

000000000001682e <load_gp>:
   So we redundantly initialize it at the beginning of _start.  */

load_gp:
.option push
.option norelax
	lla   gp, __global_pointer$
   1682e:	0002c197          	auipc	gp,0x2c
   16832:	fd218193          	addi	gp,gp,-46 # 42800 <__global_pointer$>
.option pop
	ret
   16836:	8082                	c.jr	ra
	...

000000000001683a <deregister_tm_clones>:
   1683a:	81818793          	addi	a5,gp,-2024 # 42018 <__TMC_END__>
   1683e:	81818713          	addi	a4,gp,-2024 # 42018 <__TMC_END__>
   16842:	00f70863          	beq	a4,a5,16852 <deregister_tm_clones+0x18>
   16846:	00000793          	addi	a5,zero,0
   1684a:	c781                	c.beqz	a5,16852 <deregister_tm_clones+0x18>
   1684c:	81818513          	addi	a0,gp,-2024 # 42018 <__TMC_END__>
   16850:	8782                	c.jr	a5
   16852:	8082                	c.jr	ra

0000000000016854 <register_tm_clones>:
   16854:	81818793          	addi	a5,gp,-2024 # 42018 <__TMC_END__>
   16858:	81818593          	addi	a1,gp,-2024 # 42018 <__TMC_END__>
   1685c:	8d9d                	c.sub	a1,a5
   1685e:	4035d793          	srai	a5,a1,0x3
   16862:	91fd                	c.srli	a1,0x3f
   16864:	95be                	c.add	a1,a5
   16866:	8585                	c.srai	a1,0x1
   16868:	c599                	c.beqz	a1,16876 <register_tm_clones+0x22>
   1686a:	00000793          	addi	a5,zero,0
   1686e:	c781                	c.beqz	a5,16876 <register_tm_clones+0x22>
   16870:	81818513          	addi	a0,gp,-2024 # 42018 <__TMC_END__>
   16874:	8782                	c.jr	a5
   16876:	8082                	c.jr	ra

0000000000016878 <__do_global_dtors_aux>:
   16878:	1141                	c.addi	sp,-16
   1687a:	e022                	c.sdsp	s0,0(sp)
   1687c:	e211c783          	lbu	a5,-479(gp) # 42621 <completed.0>
   16880:	e406                	c.sdsp	ra,8(sp)
   16882:	e791                	c.bnez	a5,1688e <__do_global_dtors_aux+0x16>
   16884:	fb7ff0ef          	jal	ra,1683a <deregister_tm_clones>
   16888:	4785                	c.li	a5,1
   1688a:	e2f180a3          	sb	a5,-479(gp) # 42621 <completed.0>
   1688e:	60a2                	c.ldsp	ra,8(sp)
   16890:	6402                	c.ldsp	s0,0(sp)
   16892:	0141                	c.addi	sp,16
   16894:	8082                	c.jr	ra

0000000000016896 <frame_dummy>:
   16896:	bf7d                	c.j	16854 <register_tm_clones>

0000000000016898 <dump_line_table(dwarf::line_table const&)>:
#include <fcntl.h>
#include <inttypes.h>

using namespace std;

void dump_line_table(const dwarf::line_table &lt) {
   16898:	ef010113          	addi	sp,sp,-272
   1689c:	10113423          	sd	ra,264(sp)
   168a0:	10813023          	sd	s0,256(sp)
   168a4:	00050413          	addi	s0,a0,0
  for (auto &line : lt) {
   168a8:	00050593          	addi	a1,a0,0
   168ac:	00010513          	addi	a0,sp,0
   168b0:	23c130ef          	jal	ra,29aec <dwarf::line_table::begin() const>
   168b4:	00040593          	addi	a1,s0,0
   168b8:	08010513          	addi	a0,sp,128
   168bc:	274130ef          	jal	ra,29b30 <dwarf::line_table::end() const>
    if (line.end_sequence)
      printf("\n");
    else
      printf("%-40s%8d%#20" PRIx64 "\n", line.file->path.c_str(), line.line,
   168c0:	00036437          	lui	s0,0x36
   168c4:	0140006f          	jal	zero,168d8 <dump_line_table(dwarf::line_table const&)+0x40>
      printf("\n");
   168c8:	00a00513          	addi	a0,zero,10
   168cc:	b65ff0ef          	jal	ra,16430 <putchar@plt>
  for (auto &line : lt) {
   168d0:	00010513          	addi	a0,sp,0
   168d4:	599120ef          	jal	ra,2966c <dwarf::line_table::iterator::operator++()>
  /** Dereference operator */
  const line_table::entry *operator->() const { return &entry; }

  /** Equality operator */
  bool operator==(const iterator &o) const {
    return o.pos == pos && o.table == table;
   168d8:	0f813703          	ld	a4,248(sp)
   168dc:	07813783          	ld	a5,120(sp)
   168e0:	02f70463          	beq	a4,a5,16908 <dump_line_table(dwarf::line_table const&)+0x70>
    if (line.end_sequence)
   168e4:	02e14783          	lbu	a5,46(sp)
   168e8:	fe0790e3          	bne	a5,zero,168c8 <dump_line_table(dwarf::line_table const&)+0x30>
      printf("%-40s%8d%#20" PRIx64 "\n", line.file->path.c_str(), line.line,
   168ec:	00813683          	ld	a3,8(sp)
   168f0:	02412603          	lw	a2,36(sp)
   168f4:	01813783          	ld	a5,24(sp)
   168f8:	0007b583          	ld	a1,0(a5)
   168fc:	4a840513          	addi	a0,s0,1192 # 364a8 <__libc_csu_fini+0x40>
   16900:	e61ff0ef          	jal	ra,16760 <printf@plt>
   16904:	fcdff06f          	jal	zero,168d0 <dump_line_table(dwarf::line_table const&)+0x38>
   16908:	08013703          	ld	a4,128(sp)
   1690c:	00013783          	ld	a5,0(sp)
   16910:	fcf71ae3          	bne	a4,a5,168e4 <dump_line_table(dwarf::line_table const&)+0x4c>
             line.address);
  }
}
   16914:	10813083          	ld	ra,264(sp)
   16918:	10013403          	ld	s0,256(sp)
   1691c:	11010113          	addi	sp,sp,272
   16920:	00008067          	jalr	zero,0(ra)

0000000000016924 <main>:

int main(int argc, char **argv) {
   16924:	f6010113          	addi	sp,sp,-160
   16928:	08113c23          	sd	ra,152(sp)
   1692c:	08813823          	sd	s0,144(sp)
   16930:	08913423          	sd	s1,136(sp)
   16934:	09213023          	sd	s2,128(sp)
   16938:	07313c23          	sd	s3,120(sp)
   1693c:	07413823          	sd	s4,112(sp)
   16940:	07513423          	sd	s5,104(sp)
   16944:	00058413          	addi	s0,a1,0
  if (argc != 2) {
   16948:	00200793          	addi	a5,zero,2
   1694c:	02f51863          	bne	a0,a5,1697c <main+0x58>
    fprintf(stderr, "usage: %s elf-file\n", argv[0]);
    return 2;
  }

  int fd = open(argv[1], O_RDONLY);
   16950:	00000593          	addi	a1,zero,0
   16954:	00843503          	ld	a0,8(s0)
   16958:	b29ff0ef          	jal	ra,16480 <open@plt>
   1695c:	00050593          	addi	a1,a0,0
  if (fd < 0) {
   16960:	02054c63          	blt	a0,zero,16998 <main+0x74>
    fprintf(stderr, "%s: %s\n", argv[1], strerror(errno));
    return 1;
  }

  elf::elf ef(elf::create_mmap_loader(fd));
   16964:	04010513          	addi	a0,sp,64
   16968:	53c1f0ef          	jal	ra,35ea4 <elf::create_mmap_loader(int)>
   1696c:	04010593          	addi	a1,sp,64
   16970:	03010513          	addi	a0,sp,48
   16974:	5d41d0ef          	jal	ra,33f48 <elf::elf::elf(std::shared_ptr<elf::loader> const&)>
   16978:	0540006f          	jal	zero,169cc <main+0xa8>
    fprintf(stderr, "usage: %s elf-file\n", argv[0]);
   1697c:	0005b603          	ld	a2,0(a1)
   16980:	000365b7          	lui	a1,0x36
   16984:	4b858593          	addi	a1,a1,1208 # 364b8 <__libc_csu_fini+0x50>
   16988:	e181b503          	ld	a0,-488(gp) # 42618 <stderr@GLIBC_2.27>
   1698c:	d55ff0ef          	jal	ra,166e0 <fprintf@plt>
    return 2;
   16990:	00200513          	addi	a0,zero,2
   16994:	1b80006f          	jal	zero,16b4c <main+0x228>
    fprintf(stderr, "%s: %s\n", argv[1], strerror(errno));
   16998:	e181b483          	ld	s1,-488(gp) # 42618 <stderr@GLIBC_2.27>
   1699c:	00843403          	ld	s0,8(s0)
   169a0:	e21ff0ef          	jal	ra,167c0 <__errno_location@plt>
   169a4:	00052503          	lw	a0,0(a0)
   169a8:	be9ff0ef          	jal	ra,16590 <strerror@plt>
   169ac:	00050693          	addi	a3,a0,0
   169b0:	00040613          	addi	a2,s0,0
   169b4:	000365b7          	lui	a1,0x36
   169b8:	4d058593          	addi	a1,a1,1232 # 364d0 <__libc_csu_fini+0x68>
   169bc:	00048513          	addi	a0,s1,0
   169c0:	d21ff0ef          	jal	ra,166e0 <fprintf@plt>
    return 1;
   169c4:	00100513          	addi	a0,zero,1
   169c8:	1840006f          	jal	zero,16b4c <main+0x228>
      explicit
      __shared_count(const __weak_count<_Lp>& __r, std::nothrow_t) noexcept;

      ~__shared_count() noexcept
      {
	if (_M_pi != nullptr)
   169cc:	04813503          	ld	a0,72(sp)
   169d0:	00050463          	beq	a0,zero,169d8 <main+0xb4>
	  _M_pi->_M_release();
   169d4:	4a0000ef          	jal	ra,16e74 <std::_Sp_counted_base<(__gnu_cxx::_Lock_policy)1>::_M_release()>
	    std::align_val_t __al = std::align_val_t(alignof(_Tp));
	    return static_cast<_Tp*>(_GLIBCXX_OPERATOR_NEW(__n * sizeof(_Tp),
							   __al));
	  }
#endif
	return static_cast<_Tp*>(_GLIBCXX_OPERATOR_NEW(__n * sizeof(_Tp)));
   169d8:	05000513          	addi	a0,zero,80
   169dc:	b45ff0ef          	jal	ra,16520 <operator new(unsigned long)@plt>
   169e0:	00050413          	addi	s0,a0,0
    __mutex(const __mutex&);
    __mutex& operator=(const __mutex&);

  public:
    __mutex() 
    { 
   169e4:	00052423          	sw	zero,8(a0)
   169e8:	00052623          	sw	zero,12(a0)
   169ec:	00052823          	sw	zero,16(a0)
   169f0:	00052a23          	sw	zero,20(a0)
   169f4:	00052c23          	sw	zero,24(a0)
   169f8:	00052e23          	sw	zero,28(a0)
   169fc:	02053023          	sd	zero,32(a0)
   16a00:	02053423          	sd	zero,40(a0)
      : _M_use_count(1), _M_weak_count(1) { }
   16a04:	00100793          	addi	a5,zero,1
   16a08:	02f52823          	sw	a5,48(a0)
   16a0c:	02f52a23          	sw	a5,52(a0)
	: _M_impl(__a)
   16a10:	000367b7          	lui	a5,0x36
   16a14:	78078793          	addi	a5,a5,1920 # 36780 <vtable for std::_Sp_counted_ptr_inplace<dwarf::elf::elf_loader<elf::elf>, std::allocator<void>, (__gnu_cxx::_Lock_policy)1>+0x10>
   16a18:	00f53023          	sd	a5,0(a0)
      __aligned_buffer(std::nullptr_t) { }

      void*
      _M_addr() noexcept
      {
        return static_cast<void*>(&_M_storage);
   16a1c:	03850493          	addi	s1,a0,56

template <typename Elf> class elf_loader : public loader {
  Elf f;

public:
  elf_loader(const Elf &file) : f(file) {}
   16a20:	000367b7          	lui	a5,0x36
   16a24:	75878793          	addi	a5,a5,1880 # 36758 <vtable for dwarf::elf::elf_loader<elf::elf>+0x10>
   16a28:	02f53c23          	sd	a5,56(a0)
	{
	  _M_refcount._M_swap(__r._M_refcount);
	  __r._M_ptr = nullptr;
	}

      __shared_ptr(const __shared_ptr&) noexcept = default;
   16a2c:	03013783          	ld	a5,48(sp)
   16a30:	04f53023          	sd	a5,64(a0)
      : _M_pi(__r._M_pi)
   16a34:	03813503          	ld	a0,56(sp)
   16a38:	04a43423          	sd	a0,72(s0)
	if (_M_pi != nullptr)
   16a3c:	00050c63          	beq	a0,zero,16a54 <main+0x130>

  inline void
  __attribute__ ((__always_inline__))
  __atomic_add_dispatch(_Atomic_word* __mem, int __val)
  {
    if (__is_single_threaded())
   16a40:	e201c783          	lbu	a5,-480(gp) # 42620 <__libc_single_threaded@GLIBC_2.32>
   16a44:	02078463          	beq	a5,zero,16a6c <main+0x148>
  { *__mem += __val; }
   16a48:	03052783          	lw	a5,48(a0)
   16a4c:	0017879b          	addiw	a5,a5,1
   16a50:	02f52823          	sw	a5,48(a0)
	__r._M_ptr = nullptr;
      }

      template<typename _Yp, typename = _Compatible<_Yp>>
	__shared_ptr(__shared_ptr<_Yp, _Lp>&& __r) noexcept
	: _M_ptr(__r._M_ptr), _M_refcount()
   16a54:	04913823          	sd	s1,80(sp)
	_M_pi = __tmp;
   16a58:	04813c23          	sd	s0,88(sp)
  dwarf::dwarf dw(dwarf::elf::create_loader(ef));
   16a5c:	05010593          	addi	a1,sp,80
   16a60:	02010513          	addi	a0,sp,32
   16a64:	62c010ef          	jal	ra,18090 <dwarf::dwarf::dwarf(std::shared_ptr<dwarf::loader> const&)>
   16a68:	0140006f          	jal	zero,16a7c <main+0x158>
      __atomic_add_single(__mem, __val);
    else
      __atomic_add(__mem, __val);
   16a6c:	00100593          	addi	a1,zero,1
   16a70:	03050513          	addi	a0,a0,48
   16a74:	8ddff0ef          	jal	ra,16350 <__gnu_cxx::__atomic_add(int volatile*, int)@plt>
   16a78:	fddff06f          	jal	zero,16a54 <main+0x130>
	if (_M_pi != nullptr)
   16a7c:	05813503          	ld	a0,88(sp)
   16a80:	00050463          	beq	a0,zero,16a88 <main+0x164>
	  _M_pi->_M_release();
   16a84:	3f0000ef          	jal	ra,16e74 <std::_Sp_counted_base<(__gnu_cxx::_Lock_policy)1>::_M_release()>

  for (auto cu : dw.compilation_units()) {
   16a88:	02010513          	addi	a0,sp,32
   16a8c:	748000ef          	jal	ra,171d4 <dwarf::dwarf::compilation_units() const>
      _GLIBCXX_CONSTEXPR __normal_iterator() _GLIBCXX_NOEXCEPT
      : _M_current(_Iterator()) { }

      explicit _GLIBCXX20_CONSTEXPR
      __normal_iterator(const _Iterator& __i) _GLIBCXX_NOEXCEPT
      : _M_current(__i) { }
   16a90:	00053403          	ld	s0,0(a0)
   16a94:	00853983          	ld	s3,8(a0)
   16a98:	08898e63          	beq	s3,s0,16b34 <main+0x210>
class unit {
   16a9c:	00036937          	lui	s2,0x36
   16aa0:	71890913          	addi	s2,s2,1816 # 36718 <vtable for dwarf::unit+0x10>
  compilation_unit(const compilation_unit &o) = default;
   16aa4:	000364b7          	lui	s1,0x36
   16aa8:	73848493          	addi	s1,s1,1848 # 36738 <vtable for dwarf::compilation_unit+0x10>
    printf("--- <%x>\n", (unsigned int)cu.get_section_offset());
   16aac:	00036a37          	lui	s4,0x36
   16ab0:	0480006f          	jal	zero,16af8 <main+0x1d4>
   16ab4:	00100593          	addi	a1,zero,1
   16ab8:	03050513          	addi	a0,a0,48
   16abc:	895ff0ef          	jal	ra,16350 <__gnu_cxx::__atomic_add(int volatile*, int)@plt>
   16ac0:	0640006f          	jal	zero,16b24 <main+0x200>
   16ac4:	0005059b          	addiw	a1,a0,0
   16ac8:	4d8a0513          	addi	a0,s4,1240 # 364d8 <__libc_csu_fini+0x70>
   16acc:	c95ff0ef          	jal	ra,16760 <printf@plt>
    dump_line_table(cu.get_line_table());
   16ad0:	00810513          	addi	a0,sp,8
   16ad4:	5d4030ef          	jal	ra,1a0a8 <dwarf::compilation_unit::get_line_table() const>
   16ad8:	dc1ff0ef          	jal	ra,16898 <dump_line_table(dwarf::line_table const&)>
    printf("\n");
   16adc:	00a00513          	addi	a0,zero,10
   16ae0:	951ff0ef          	jal	ra,16430 <putchar@plt>
class compilation_unit : public unit {
   16ae4:	00913423          	sd	s1,8(sp)
   16ae8:	00810513          	addi	a0,sp,8
   16aec:	754000ef          	jal	ra,17240 <dwarf::unit::~unit()>

      _GLIBCXX20_CONSTEXPR
      __normal_iterator&
      operator++() _GLIBCXX_NOEXCEPT
      {
	++_M_current;
   16af0:	01840413          	addi	s0,s0,24
  for (auto cu : dw.compilation_units()) {
   16af4:	04898063          	beq	s3,s0,16b34 <main+0x210>
class unit {
   16af8:	01213423          	sd	s2,8(sp)
      __shared_ptr(const __shared_ptr&) noexcept = default;
   16afc:	00843783          	ld	a5,8(s0)
   16b00:	00f13823          	sd	a5,16(sp)
      : _M_pi(__r._M_pi)
   16b04:	01043503          	ld	a0,16(s0)
   16b08:	00a13c23          	sd	a0,24(sp)
	if (_M_pi != nullptr)
   16b0c:	00050c63          	beq	a0,zero,16b24 <main+0x200>
    if (__is_single_threaded())
   16b10:	e201c783          	lbu	a5,-480(gp) # 42620 <__libc_single_threaded@GLIBC_2.32>
   16b14:	fa0780e3          	beq	a5,zero,16ab4 <main+0x190>
  { *__mem += __val; }
   16b18:	03052783          	lw	a5,48(a0)
   16b1c:	0017879b          	addiw	a5,a5,1
   16b20:	02f52823          	sw	a5,48(a0)
  compilation_unit(const compilation_unit &o) = default;
   16b24:	00913423          	sd	s1,8(sp)
    printf("--- <%x>\n", (unsigned int)cu.get_section_offset());
   16b28:	00810513          	addi	a0,sp,8
   16b2c:	00d000ef          	jal	ra,17338 <dwarf::unit::get_section_offset() const>
   16b30:	f95ff06f          	jal	zero,16ac4 <main+0x1a0>
  }

  return 0;
}
   16b34:	02010513          	addi	a0,sp,32
   16b38:	5e8000ef          	jal	ra,17120 <dwarf::dwarf::~dwarf()>
	if (_M_pi != nullptr)
   16b3c:	03813503          	ld	a0,56(sp)
   16b40:	00050463          	beq	a0,zero,16b48 <main+0x224>
	  _M_pi->_M_release();
   16b44:	330000ef          	jal	ra,16e74 <std::_Sp_counted_base<(__gnu_cxx::_Lock_policy)1>::_M_release()>
  return 0;
   16b48:	00000513          	addi	a0,zero,0
}
   16b4c:	09813083          	ld	ra,152(sp)
   16b50:	09013403          	ld	s0,144(sp)
   16b54:	08813483          	ld	s1,136(sp)
   16b58:	08013903          	ld	s2,128(sp)
   16b5c:	07813983          	ld	s3,120(sp)
   16b60:	07013a03          	ld	s4,112(sp)
   16b64:	06813a83          	ld	s5,104(sp)
   16b68:	0a010113          	addi	sp,sp,160
   16b6c:	00008067          	jalr	zero,0(ra)
	if (_M_pi != nullptr)
   16b70:	00050413          	addi	s0,a0,0
   16b74:	04813503          	ld	a0,72(sp)
   16b78:	00050463          	beq	a0,zero,16b80 <main+0x25c>
	  _M_pi->_M_release();
   16b7c:	2f8000ef          	jal	ra,16e74 <std::_Sp_counted_base<(__gnu_cxx::_Lock_policy)1>::_M_release()>
   16b80:	00040513          	addi	a0,s0,0
   16b84:	b6dff0ef          	jal	ra,166f0 <_Unwind_Resume@plt>
	if (_M_pi != nullptr)
   16b88:	00050413          	addi	s0,a0,0
   16b8c:	05813503          	ld	a0,88(sp)
   16b90:	00050463          	beq	a0,zero,16b98 <main+0x274>
	  _M_pi->_M_release();
   16b94:	2e0000ef          	jal	ra,16e74 <std::_Sp_counted_base<(__gnu_cxx::_Lock_policy)1>::_M_release()>
	if (_M_pi != nullptr)
   16b98:	03813503          	ld	a0,56(sp)
   16b9c:	00050463          	beq	a0,zero,16ba4 <main+0x280>
	  _M_pi->_M_release();
   16ba0:	2d4000ef          	jal	ra,16e74 <std::_Sp_counted_base<(__gnu_cxx::_Lock_policy)1>::_M_release()>
   16ba4:	00040513          	addi	a0,s0,0
   16ba8:	b49ff0ef          	jal	ra,166f0 <_Unwind_Resume@plt>
class compilation_unit : public unit {
   16bac:	00050413          	addi	s0,a0,0
   16bb0:	000367b7          	lui	a5,0x36
   16bb4:	73878793          	addi	a5,a5,1848 # 36738 <vtable for dwarf::compilation_unit+0x10>
   16bb8:	00f13423          	sd	a5,8(sp)
   16bbc:	00810513          	addi	a0,sp,8
   16bc0:	680000ef          	jal	ra,17240 <dwarf::unit::~unit()>
   16bc4:	02010513          	addi	a0,sp,32
   16bc8:	558000ef          	jal	ra,17120 <dwarf::dwarf::~dwarf()>
   16bcc:	fcdff06f          	jal	zero,16b98 <main+0x274>
   16bd0:	00050413          	addi	s0,a0,0
   16bd4:	ff1ff06f          	jal	zero,16bc4 <main+0x2a0>
	if (_M_pi != nullptr)
   16bd8:	00050413          	addi	s0,a0,0
   16bdc:	fbdff06f          	jal	zero,16b98 <main+0x274>

0000000000016be0 <std::_Sp_counted_ptr_inplace<dwarf::elf::elf_loader<elf::elf>, std::allocator<void>, (__gnu_cxx::_Lock_policy)1>::~_Sp_counted_ptr_inplace()>:
      ~_Sp_counted_ptr_inplace() noexcept { }
   16be0:	00008067          	jalr	zero,0(ra)

0000000000016be4 <std::_Sp_counted_ptr_inplace<dwarf::elf::elf_loader<elf::elf>, std::allocator<void>, (__gnu_cxx::_Lock_policy)1>::_M_dispose()>:
      _M_dispose() noexcept
   16be4:	ff010113          	addi	sp,sp,-16
   16be8:	00113423          	sd	ra,8(sp)
    _Destroy(_Tp* __pointer)
    {
#if __cplusplus > 201703L
      std::destroy_at(__pointer);
#else
      __pointer->~_Tp();
   16bec:	03853783          	ld	a5,56(a0)
   16bf0:	0007b783          	ld	a5,0(a5)
   16bf4:	03850513          	addi	a0,a0,56
   16bf8:	000780e7          	jalr	ra,0(a5)
      }
   16bfc:	00813083          	ld	ra,8(sp)
   16c00:	01010113          	addi	sp,sp,16
   16c04:	00008067          	jalr	zero,0(ra)

0000000000016c08 <std::_Sp_counted_ptr_inplace<dwarf::elf::elf_loader<elf::elf>, std::allocator<void>, (__gnu_cxx::_Lock_policy)1>::_M_get_deleter(std::type_info const&)>:
      _M_get_deleter(const std::type_info& __ti) noexcept override
   16c08:	ff010113          	addi	sp,sp,-16
   16c0c:	00113423          	sd	ra,8(sp)
   16c10:	00813023          	sd	s0,0(sp)
   16c14:	03850413          	addi	s0,a0,56
	    ||
   16c18:	000367b7          	lui	a5,0x36
   16c1c:	7a878793          	addi	a5,a5,1960 # 367a8 <std::_Sp_make_shared_tag::_S_ti()::__tag>
   16c20:	02f58c63          	beq	a1,a5,16c58 <std::_Sp_counted_ptr_inplace<dwarf::elf::elf_loader<elf::elf>, std::allocator<void>, (__gnu_cxx::_Lock_policy)1>::_M_get_deleter(std::type_info const&)+0x50>
  type_info::operator==(const type_info& __arg) const _GLIBCXX_NOEXCEPT
  {
    if (std::__is_constant_evaluated())
      return this == &__arg;

    if (__name == __arg.__name)
   16c24:	0085b503          	ld	a0,8(a1)
   16c28:	000367b7          	lui	a5,0x36
   16c2c:	55878793          	addi	a5,a5,1368 # 36558 <typeinfo name for std::_Sp_make_shared_tag>
   16c30:	02f50463          	beq	a0,a5,16c58 <std::_Sp_counted_ptr_inplace<dwarf::elf::elf_loader<elf::elf>, std::allocator<void>, (__gnu_cxx::_Lock_policy)1>::_M_get_deleter(std::type_info const&)+0x50>
#if !__GXX_TYPEINFO_EQUALITY_INLINE
    // ABI requires comparisons to be non-inline.
    return __equal(__arg);
#elif !__GXX_MERGED_TYPEINFO_NAMES
    // Need to do string comparison.
    return __name[0] != '*' && __builtin_strcmp (__name, __arg.name()) == 0;
   16c34:	00054703          	lbu	a4,0(a0)
   16c38:	02a00793          	addi	a5,zero,42
   16c3c:	02f70863          	beq	a4,a5,16c6c <std::_Sp_counted_ptr_inplace<dwarf::elf::elf_loader<elf::elf>, std::allocator<void>, (__gnu_cxx::_Lock_policy)1>::_M_get_deleter(std::type_info const&)+0x64>
   16c40:	000365b7          	lui	a1,0x36
   16c44:	55858593          	addi	a1,a1,1368 # 36558 <typeinfo name for std::_Sp_make_shared_tag>
   16c48:	f18ff0ef          	jal	ra,16360 <strcmp@plt>
	return nullptr;
   16c4c:	00153513          	sltiu	a0,a0,1
   16c50:	40a00533          	sub	a0,zero,a0
   16c54:	00a47433          	and	s0,s0,a0
      }
   16c58:	00040513          	addi	a0,s0,0
   16c5c:	00813083          	ld	ra,8(sp)
   16c60:	00013403          	ld	s0,0(sp)
   16c64:	01010113          	addi	sp,sp,16
   16c68:	00008067          	jalr	zero,0(ra)
	return nullptr;
   16c6c:	00000413          	addi	s0,zero,0
   16c70:	fe9ff06f          	jal	zero,16c58 <std::_Sp_counted_ptr_inplace<dwarf::elf::elf_loader<elf::elf>, std::allocator<void>, (__gnu_cxx::_Lock_policy)1>::_M_get_deleter(std::type_info const&)+0x50>

0000000000016c74 <std::_Sp_counted_ptr_inplace<dwarf::elf::elf_loader<elf::elf>, std::allocator<void>, (__gnu_cxx::_Lock_policy)1>::~_Sp_counted_ptr_inplace()>:
      ~_Sp_counted_ptr_inplace() noexcept { }
   16c74:	ff010113          	addi	sp,sp,-16
   16c78:	00113423          	sd	ra,8(sp)
   16c7c:	895ff0ef          	jal	ra,16510 <operator delete(void*)@plt>
   16c80:	00813083          	ld	ra,8(sp)
   16c84:	01010113          	addi	sp,sp,16
   16c88:	00008067          	jalr	zero,0(ra)

0000000000016c8c <std::_Sp_counted_ptr_inplace<dwarf::elf::elf_loader<elf::elf>, std::allocator<void>, (__gnu_cxx::_Lock_policy)1>::_M_destroy()>:
      _M_destroy() noexcept
   16c8c:	ff010113          	addi	sp,sp,-16
   16c90:	00113423          	sd	ra,8(sp)
	    _GLIBCXX_OPERATOR_DELETE(_GLIBCXX_SIZED_DEALLOC(__p, __n),
				     std::align_val_t(alignof(_Tp)));
	    return;
	  }
#endif
	_GLIBCXX_OPERATOR_DELETE(_GLIBCXX_SIZED_DEALLOC(__p, __n));
   16c94:	87dff0ef          	jal	ra,16510 <operator delete(void*)@plt>
      }
   16c98:	00813083          	ld	ra,8(sp)
   16c9c:	01010113          	addi	sp,sp,16
   16ca0:	00008067          	jalr	zero,0(ra)

0000000000016ca4 <dwarf::compilation_unit::~compilation_unit()>:
   16ca4:	ff010113          	addi	sp,sp,-16
   16ca8:	00113423          	sd	ra,8(sp)
   16cac:	000367b7          	lui	a5,0x36
   16cb0:	73878793          	addi	a5,a5,1848 # 36738 <vtable for dwarf::compilation_unit+0x10>
   16cb4:	00f53023          	sd	a5,0(a0)
   16cb8:	588000ef          	jal	ra,17240 <dwarf::unit::~unit()>
   16cbc:	00813083          	ld	ra,8(sp)
   16cc0:	01010113          	addi	sp,sp,16
   16cc4:	00008067          	jalr	zero,0(ra)

0000000000016cc8 <dwarf::compilation_unit::~compilation_unit()>:
   16cc8:	ff010113          	addi	sp,sp,-16
   16ccc:	00113423          	sd	ra,8(sp)
   16cd0:	00813023          	sd	s0,0(sp)
   16cd4:	00050413          	addi	s0,a0,0
   16cd8:	000367b7          	lui	a5,0x36
   16cdc:	73878793          	addi	a5,a5,1848 # 36738 <vtable for dwarf::compilation_unit+0x10>
   16ce0:	00f53023          	sd	a5,0(a0)
   16ce4:	55c000ef          	jal	ra,17240 <dwarf::unit::~unit()>
   16ce8:	00040513          	addi	a0,s0,0
   16cec:	825ff0ef          	jal	ra,16510 <operator delete(void*)@plt>
   16cf0:	00813083          	ld	ra,8(sp)
   16cf4:	00013403          	ld	s0,0(sp)
   16cf8:	01010113          	addi	sp,sp,16
   16cfc:	00008067          	jalr	zero,0(ra)

0000000000016d00 <dwarf::elf::elf_loader<elf::elf>::~elf_loader()>:
template <typename Elf> class elf_loader : public loader {
   16d00:	ff010113          	addi	sp,sp,-16
   16d04:	00113423          	sd	ra,8(sp)
   16d08:	00813023          	sd	s0,0(sp)
   16d0c:	000367b7          	lui	a5,0x36
   16d10:	75878793          	addi	a5,a5,1880 # 36758 <vtable for dwarf::elf::elf_loader<elf::elf>+0x10>
   16d14:	00f53023          	sd	a5,0(a0)
	if (_M_pi != nullptr)
   16d18:	01053403          	ld	s0,16(a0)
   16d1c:	02040063          	beq	s0,zero,16d3c <dwarf::elf::elf_loader<elf::elf>::~elf_loader()+0x3c>
    if (__is_single_threaded())
   16d20:	e201c783          	lbu	a5,-480(gp) # 42620 <__libc_single_threaded@GLIBC_2.32>
   16d24:	02078463          	beq	a5,zero,16d4c <dwarf::elf::elf_loader<elf::elf>::~elf_loader()+0x4c>
    _Atomic_word __result = *__mem;
   16d28:	03042503          	lw	a0,48(s0)
    *__mem += __val;
   16d2c:	fff5079b          	addiw	a5,a0,-1
   16d30:	02f42823          	sw	a5,48(s0)
      if (__gnu_cxx::__exchange_and_add_dispatch(&_M_use_count, -1) == 1)
   16d34:	00100793          	addi	a5,zero,1
   16d38:	02f50263          	beq	a0,a5,16d5c <dwarf::elf::elf_loader<elf::elf>::~elf_loader()+0x5c>
   16d3c:	00813083          	ld	ra,8(sp)
   16d40:	00013403          	ld	s0,0(sp)
   16d44:	01010113          	addi	sp,sp,16
   16d48:	00008067          	jalr	zero,0(ra)
      return __exchange_and_add(__mem, __val);
   16d4c:	fff00593          	addi	a1,zero,-1
   16d50:	03040513          	addi	a0,s0,48
   16d54:	e2cff0ef          	jal	ra,16380 <__gnu_cxx::__exchange_and_add(int volatile*, int)@plt>
   16d58:	fddff06f          	jal	zero,16d34 <dwarf::elf::elf_loader<elf::elf>::~elf_loader()+0x34>
	_M_dispose();
   16d5c:	00043783          	ld	a5,0(s0)
   16d60:	0107b783          	ld	a5,16(a5)
   16d64:	00040513          	addi	a0,s0,0
   16d68:	000780e7          	jalr	ra,0(a5)
	    __atomic_thread_fence (__ATOMIC_ACQ_REL);
   16d6c:	0ff0000f          	fence	iorw,iorw
    if (__is_single_threaded())
   16d70:	e201c783          	lbu	a5,-480(gp) # 42620 <__libc_single_threaded@GLIBC_2.32>
   16d74:	02078663          	beq	a5,zero,16da0 <dwarf::elf::elf_loader<elf::elf>::~elf_loader()+0xa0>
    _Atomic_word __result = *__mem;
   16d78:	03442503          	lw	a0,52(s0)
    *__mem += __val;
   16d7c:	fff5079b          	addiw	a5,a0,-1
   16d80:	02f42a23          	sw	a5,52(s0)
	if (__gnu_cxx::__exchange_and_add_dispatch(&_M_weak_count,
   16d84:	00100793          	addi	a5,zero,1
   16d88:	faf51ae3          	bne	a0,a5,16d3c <dwarf::elf::elf_loader<elf::elf>::~elf_loader()+0x3c>
	    _M_destroy();
   16d8c:	00043783          	ld	a5,0(s0)
   16d90:	0187b783          	ld	a5,24(a5)
   16d94:	00040513          	addi	a0,s0,0
   16d98:	000780e7          	jalr	ra,0(a5)
   16d9c:	fa1ff06f          	jal	zero,16d3c <dwarf::elf::elf_loader<elf::elf>::~elf_loader()+0x3c>
      return __exchange_and_add(__mem, __val);
   16da0:	fff00593          	addi	a1,zero,-1
   16da4:	03440513          	addi	a0,s0,52
   16da8:	dd8ff0ef          	jal	ra,16380 <__gnu_cxx::__exchange_and_add(int volatile*, int)@plt>
   16dac:	fd9ff06f          	jal	zero,16d84 <dwarf::elf::elf_loader<elf::elf>::~elf_loader()+0x84>

0000000000016db0 <dwarf::elf::elf_loader<elf::elf>::~elf_loader()>:
   16db0:	fe010113          	addi	sp,sp,-32
   16db4:	00113c23          	sd	ra,24(sp)
   16db8:	00813823          	sd	s0,16(sp)
   16dbc:	00913423          	sd	s1,8(sp)
   16dc0:	00050413          	addi	s0,a0,0
   16dc4:	000367b7          	lui	a5,0x36
   16dc8:	75878793          	addi	a5,a5,1880 # 36758 <vtable for dwarf::elf::elf_loader<elf::elf>+0x10>
   16dcc:	00f53023          	sd	a5,0(a0)
	if (_M_pi != nullptr)
   16dd0:	01053483          	ld	s1,16(a0)
   16dd4:	02048063          	beq	s1,zero,16df4 <dwarf::elf::elf_loader<elf::elf>::~elf_loader()+0x44>
    if (__is_single_threaded())
   16dd8:	e201c783          	lbu	a5,-480(gp) # 42620 <__libc_single_threaded@GLIBC_2.32>
   16ddc:	02078a63          	beq	a5,zero,16e10 <dwarf::elf::elf_loader<elf::elf>::~elf_loader()+0x60>
    _Atomic_word __result = *__mem;
   16de0:	0304a503          	lw	a0,48(s1)
    *__mem += __val;
   16de4:	fff5079b          	addiw	a5,a0,-1
   16de8:	02f4a823          	sw	a5,48(s1)
      if (__gnu_cxx::__exchange_and_add_dispatch(&_M_use_count, -1) == 1)
   16dec:	00100793          	addi	a5,zero,1
   16df0:	02f50863          	beq	a0,a5,16e20 <dwarf::elf::elf_loader<elf::elf>::~elf_loader()+0x70>
   16df4:	00040513          	addi	a0,s0,0
   16df8:	f18ff0ef          	jal	ra,16510 <operator delete(void*)@plt>
   16dfc:	01813083          	ld	ra,24(sp)
   16e00:	01013403          	ld	s0,16(sp)
   16e04:	00813483          	ld	s1,8(sp)
   16e08:	02010113          	addi	sp,sp,32
   16e0c:	00008067          	jalr	zero,0(ra)
      return __exchange_and_add(__mem, __val);
   16e10:	fff00593          	addi	a1,zero,-1
   16e14:	03048513          	addi	a0,s1,48
   16e18:	d68ff0ef          	jal	ra,16380 <__gnu_cxx::__exchange_and_add(int volatile*, int)@plt>
   16e1c:	fd1ff06f          	jal	zero,16dec <dwarf::elf::elf_loader<elf::elf>::~elf_loader()+0x3c>
	_M_dispose();
   16e20:	0004b783          	ld	a5,0(s1)
   16e24:	0107b783          	ld	a5,16(a5)
   16e28:	00048513          	addi	a0,s1,0
   16e2c:	000780e7          	jalr	ra,0(a5)
	    __atomic_thread_fence (__ATOMIC_ACQ_REL);
   16e30:	0ff0000f          	fence	iorw,iorw
    if (__is_single_threaded())
   16e34:	e201c783          	lbu	a5,-480(gp) # 42620 <__libc_single_threaded@GLIBC_2.32>
   16e38:	02078663          	beq	a5,zero,16e64 <dwarf::elf::elf_loader<elf::elf>::~elf_loader()+0xb4>
    _Atomic_word __result = *__mem;
   16e3c:	0344a503          	lw	a0,52(s1)
    *__mem += __val;
   16e40:	fff5079b          	addiw	a5,a0,-1
   16e44:	02f4aa23          	sw	a5,52(s1)
	if (__gnu_cxx::__exchange_and_add_dispatch(&_M_weak_count,
   16e48:	00100793          	addi	a5,zero,1
   16e4c:	faf514e3          	bne	a0,a5,16df4 <dwarf::elf::elf_loader<elf::elf>::~elf_loader()+0x44>
	    _M_destroy();
   16e50:	0004b783          	ld	a5,0(s1)
   16e54:	0187b783          	ld	a5,24(a5)
   16e58:	00048513          	addi	a0,s1,0
   16e5c:	000780e7          	jalr	ra,0(a5)
   16e60:	f95ff06f          	jal	zero,16df4 <dwarf::elf::elf_loader<elf::elf>::~elf_loader()+0x44>
      return __exchange_and_add(__mem, __val);
   16e64:	fff00593          	addi	a1,zero,-1
   16e68:	03448513          	addi	a0,s1,52
   16e6c:	d14ff0ef          	jal	ra,16380 <__gnu_cxx::__exchange_and_add(int volatile*, int)@plt>
   16e70:	fd9ff06f          	jal	zero,16e48 <dwarf::elf::elf_loader<elf::elf>::~elf_loader()+0x98>

0000000000016e74 <std::_Sp_counted_base<(__gnu_cxx::_Lock_policy)1>::_M_release()>:
    {
   16e74:	ff010113          	addi	sp,sp,-16
   16e78:	00113423          	sd	ra,8(sp)
   16e7c:	00813023          	sd	s0,0(sp)
   16e80:	00050413          	addi	s0,a0,0
    if (__is_single_threaded())
   16e84:	e201c783          	lbu	a5,-480(gp) # 42620 <__libc_single_threaded@GLIBC_2.32>
   16e88:	02078463          	beq	a5,zero,16eb0 <std::_Sp_counted_base<(__gnu_cxx::_Lock_policy)1>::_M_release()+0x3c>
    _Atomic_word __result = *__mem;
   16e8c:	03052503          	lw	a0,48(a0)
    *__mem += __val;
   16e90:	fff5079b          	addiw	a5,a0,-1
   16e94:	02f42823          	sw	a5,48(s0)
      if (__gnu_cxx::__exchange_and_add_dispatch(&_M_use_count, -1) == 1)
   16e98:	00100793          	addi	a5,zero,1
   16e9c:	02f50263          	beq	a0,a5,16ec0 <std::_Sp_counted_base<(__gnu_cxx::_Lock_policy)1>::_M_release()+0x4c>
    }
   16ea0:	00813083          	ld	ra,8(sp)
   16ea4:	00013403          	ld	s0,0(sp)
   16ea8:	01010113          	addi	sp,sp,16
   16eac:	00008067          	jalr	zero,0(ra)
      return __exchange_and_add(__mem, __val);
   16eb0:	fff00593          	addi	a1,zero,-1
   16eb4:	03050513          	addi	a0,a0,48
   16eb8:	cc8ff0ef          	jal	ra,16380 <__gnu_cxx::__exchange_and_add(int volatile*, int)@plt>
   16ebc:	fddff06f          	jal	zero,16e98 <std::_Sp_counted_base<(__gnu_cxx::_Lock_policy)1>::_M_release()+0x24>
	_M_dispose();
   16ec0:	00043783          	ld	a5,0(s0)
   16ec4:	0107b783          	ld	a5,16(a5)
   16ec8:	00040513          	addi	a0,s0,0
   16ecc:	000780e7          	jalr	ra,0(a5)
	    __atomic_thread_fence (__ATOMIC_ACQ_REL);
   16ed0:	0ff0000f          	fence	iorw,iorw
    if (__is_single_threaded())
   16ed4:	e201c783          	lbu	a5,-480(gp) # 42620 <__libc_single_threaded@GLIBC_2.32>
   16ed8:	02078663          	beq	a5,zero,16f04 <std::_Sp_counted_base<(__gnu_cxx::_Lock_policy)1>::_M_release()+0x90>
    _Atomic_word __result = *__mem;
   16edc:	03442503          	lw	a0,52(s0)
    *__mem += __val;
   16ee0:	fff5079b          	addiw	a5,a0,-1
   16ee4:	02f42a23          	sw	a5,52(s0)
	if (__gnu_cxx::__exchange_and_add_dispatch(&_M_weak_count,
   16ee8:	00100793          	addi	a5,zero,1
   16eec:	faf51ae3          	bne	a0,a5,16ea0 <std::_Sp_counted_base<(__gnu_cxx::_Lock_policy)1>::_M_release()+0x2c>
	    _M_destroy();
   16ef0:	00043783          	ld	a5,0(s0)
   16ef4:	0187b783          	ld	a5,24(a5)
   16ef8:	00040513          	addi	a0,s0,0
   16efc:	000780e7          	jalr	ra,0(a5)
    }
   16f00:	fa1ff06f          	jal	zero,16ea0 <std::_Sp_counted_base<(__gnu_cxx::_Lock_policy)1>::_M_release()+0x2c>
      return __exchange_and_add(__mem, __val);
   16f04:	fff00593          	addi	a1,zero,-1
   16f08:	03440513          	addi	a0,s0,52
   16f0c:	c74ff0ef          	jal	ra,16380 <__gnu_cxx::__exchange_and_add(int volatile*, int)@plt>
   16f10:	fd9ff06f          	jal	zero,16ee8 <std::_Sp_counted_base<(__gnu_cxx::_Lock_policy)1>::_M_release()+0x74>

0000000000016f14 <dwarf::elf::elf_loader<elf::elf>::load(dwarf::section_type, unsigned long*)>:

  const void *load(section_type section, size_t *size_out) {
   16f14:	f9010113          	addi	sp,sp,-112
   16f18:	06113423          	sd	ra,104(sp)
   16f1c:	06813023          	sd	s0,96(sp)
   16f20:	04913c23          	sd	s1,88(sp)
   16f24:	05213823          	sd	s2,80(sp)
   16f28:	05313423          	sd	s3,72(sp)
   16f2c:	00060913          	addi	s2,a2,0
    auto sec = f.get_section(section_type_to_name(section));
   16f30:	00850993          	addi	s3,a0,8
   16f34:	00058513          	addi	a0,a1,0
   16f38:	1ec160ef          	jal	ra,2d124 <dwarf::elf::section_type_to_name(dwarf::section_type)>
	_Alloc_hider(pointer __dat, const _Alloc& __a = _Alloc())
	: allocator_type(__a), _M_p(__dat) { }
#else
	_GLIBCXX20_CONSTEXPR
	_Alloc_hider(pointer __dat, const _Alloc& __a)
	: allocator_type(__a), _M_p(__dat) { }
   16f3c:	02010793          	addi	a5,sp,32
   16f40:	00f13823          	sd	a5,16(sp)
      _GLIBCXX20_CONSTEXPR
      basic_string(const _CharT* __s, const _Alloc& __a = _Alloc())
      : _M_dataplus(_M_local_data(), __a)
      {
	// NB: Not required, but considered best practice.
	if (__s == 0)
   16f44:	04050863          	beq	a0,zero,16f94 <dwarf::elf::elf_loader<elf::elf>::load(dwarf::section_type, unsigned long*)+0x80>
   16f48:	00050493          	addi	s1,a0,0
      {
#if __cplusplus >= 201703L
	if (std::__is_constant_evaluated())
	  return __gnu_cxx::char_traits<char_type>::length(__s);
#endif
	return __builtin_strlen(__s);
   16f4c:	cc4ff0ef          	jal	ra,16410 <strlen@plt>
   16f50:	00050413          	addi	s0,a0,0
      void
      basic_string<_CharT, _Traits, _Alloc>::
      _M_construct(_InIterator __beg, _InIterator __end,
		   std::forward_iterator_tag)
      {
	size_type __dnew = static_cast<size_type>(std::distance(__beg, __end));
   16f54:	00a13423          	sd	a0,8(sp)

	if (__dnew > size_type(_S_local_capacity))
   16f58:	00f00793          	addi	a5,zero,15
   16f5c:	04a7e263          	bltu	a5,a0,16fa0 <dwarf::elf::elf_loader<elf::elf>::load(dwarf::section_type, unsigned long*)+0x8c>
	if (__n == 1)
   16f60:	00100793          	addi	a5,zero,1
   16f64:	06f51463          	bne	a0,a5,16fcc <dwarf::elf::elf_loader<elf::elf>::load(dwarf::section_type, unsigned long*)+0xb8>
	__c1 = __c2;
   16f68:	0004c783          	lbu	a5,0(s1)
   16f6c:	02f10023          	sb	a5,32(sp)

	this->_S_copy_chars(_M_data(), __beg, __end);

	__guard._M_guarded = 0;

	_M_set_length(__dnew);
   16f70:	00813703          	ld	a4,8(sp)
      { _M_string_length = __length; }
   16f74:	00e13c23          	sd	a4,24(sp)
   16f78:	01013783          	ld	a5,16(sp)
   16f7c:	00e787b3          	add	a5,a5,a4
   16f80:	00078023          	sb	zero,0(a5)
   16f84:	01010593          	addi	a1,sp,16
   16f88:	00098513          	addi	a0,s3,0
   16f8c:	2301c0ef          	jal	ra,331bc <elf::elf::get_section(std::__cxx11::basic_string<char, std::char_traits<char>, std::allocator<char> > const&) const>
   16f90:	0480006f          	jal	zero,16fd8 <dwarf::elf::elf_loader<elf::elf>::load(dwarf::section_type, unsigned long*)+0xc4>
	  std::__throw_logic_error(__N("basic_string: "
   16f94:	00036537          	lui	a0,0x36
   16f98:	47050513          	addi	a0,a0,1136 # 36470 <__libc_csu_fini+0x8>
   16f9c:	d24ff0ef          	jal	ra,164c0 <std::__throw_logic_error(char const*)@plt>
	    _M_data(_M_create(__dnew, size_type(0)));
   16fa0:	00000613          	addi	a2,zero,0
   16fa4:	00810593          	addi	a1,sp,8
   16fa8:	01010513          	addi	a0,sp,16
   16fac:	f64ff0ef          	jal	ra,16710 <std::__cxx11::basic_string<char, std::char_traits<char>, std::allocator<char> >::_M_create(unsigned long&, unsigned long)@plt>
      { _M_dataplus._M_p = __p; }
   16fb0:	00a13823          	sd	a0,16(sp)
      { _M_allocated_capacity = __capacity; }
   16fb4:	00813783          	ld	a5,8(sp)
   16fb8:	02f13023          	sd	a5,32(sp)
	  return __s1;
#if __cplusplus >= 202002L
	if (std::__is_constant_evaluated())
	  return __gnu_cxx::char_traits<char_type>::copy(__s1, __s2, __n);
#endif
	return static_cast<char_type*>(__builtin_memcpy(__s1, __s2, __n));
   16fbc:	00040613          	addi	a2,s0,0
   16fc0:	00048593          	addi	a1,s1,0
   16fc4:	decff0ef          	jal	ra,165b0 <memcpy@plt>
   16fc8:	fa9ff06f          	jal	zero,16f70 <dwarf::elf::elf_loader<elf::elf>::load(dwarf::section_type, unsigned long*)+0x5c>
	if (__n == 0)
   16fcc:	fa0502e3          	beq	a0,zero,16f70 <dwarf::elf::elf_loader<elf::elf>::load(dwarf::section_type, unsigned long*)+0x5c>
      { return _M_dataplus._M_p; }
   16fd0:	02010513          	addi	a0,sp,32
   16fd4:	fe9ff06f          	jal	zero,16fbc <dwarf::elf::elf_loader<elf::elf>::load(dwarf::section_type, unsigned long*)+0xa8>
      __shared_ptr(const __shared_ptr&) noexcept = default;
   16fd8:	00053783          	ld	a5,0(a0)
   16fdc:	02f13823          	sd	a5,48(sp)
      : _M_pi(__r._M_pi)
   16fe0:	00853503          	ld	a0,8(a0)
   16fe4:	02a13c23          	sd	a0,56(sp)
	if (_M_pi != nullptr)
   16fe8:	00050c63          	beq	a0,zero,17000 <dwarf::elf::elf_loader<elf::elf>::load(dwarf::section_type, unsigned long*)+0xec>
    if (__is_single_threaded())
   16fec:	e201c783          	lbu	a5,-480(gp) # 42620 <__libc_single_threaded@GLIBC_2.32>
   16ff0:	02078a63          	beq	a5,zero,17024 <dwarf::elf::elf_loader<elf::elf>::load(dwarf::section_type, unsigned long*)+0x110>
  { *__mem += __val; }
   16ff4:	03052783          	lw	a5,48(a0)
   16ff8:	0017879b          	addiw	a5,a5,1
   16ffc:	02f52823          	sw	a5,48(a0)
   17000:	01013503          	ld	a0,16(sp)
	if (!_M_is_local())
   17004:	02010793          	addi	a5,sp,32
   17008:	00f50463          	beq	a0,a5,17010 <dwarf::elf::elf_loader<elf::elf>::load(dwarf::section_type, unsigned long*)+0xfc>
   1700c:	d04ff0ef          	jal	ra,16510 <operator delete(void*)@plt>
      get() const noexcept
      { return _M_ptr; }

      /// Return true if the stored pointer is not null.
      explicit operator bool() const noexcept
      { return _M_ptr != nullptr; }
   17010:	03013403          	ld	s0,48(sp)
    if (!sec.valid())
   17014:	02040863          	beq	s0,zero,17044 <dwarf::elf::elf_loader<elf::elf>::load(dwarf::section_type, unsigned long*)+0x130>
      return nullptr;
    *size_out = sec.size();
   17018:	03010513          	addi	a0,sp,48
   1701c:	2d11b0ef          	jal	ra,32aec <elf::section::size() const>
   17020:	0140006f          	jal	zero,17034 <dwarf::elf::elf_loader<elf::elf>::load(dwarf::section_type, unsigned long*)+0x120>
      __atomic_add(__mem, __val);
   17024:	00100593          	addi	a1,zero,1
   17028:	03050513          	addi	a0,a0,48
   1702c:	b24ff0ef          	jal	ra,16350 <__gnu_cxx::__atomic_add(int volatile*, int)@plt>
   17030:	fd1ff06f          	jal	zero,17000 <dwarf::elf::elf_loader<elf::elf>::load(dwarf::section_type, unsigned long*)+0xec>
   17034:	00a93023          	sd	a0,0(s2)
    return sec.data();
   17038:	03010513          	addi	a0,sp,48
   1703c:	1811b0ef          	jal	ra,329bc <elf::section::data() const>
   17040:	00050413          	addi	s0,a0,0
	if (_M_pi != nullptr)
   17044:	03813483          	ld	s1,56(sp)
   17048:	02048063          	beq	s1,zero,17068 <dwarf::elf::elf_loader<elf::elf>::load(dwarf::section_type, unsigned long*)+0x154>
    if (__is_single_threaded())
   1704c:	e201c783          	lbu	a5,-480(gp) # 42620 <__libc_single_threaded@GLIBC_2.32>
   17050:	02078c63          	beq	a5,zero,17088 <dwarf::elf::elf_loader<elf::elf>::load(dwarf::section_type, unsigned long*)+0x174>
    _Atomic_word __result = *__mem;
   17054:	0304a503          	lw	a0,48(s1)
    *__mem += __val;
   17058:	fff5079b          	addiw	a5,a0,-1
   1705c:	02f4a823          	sw	a5,48(s1)
      if (__gnu_cxx::__exchange_and_add_dispatch(&_M_use_count, -1) == 1)
   17060:	00100793          	addi	a5,zero,1
   17064:	02f50a63          	beq	a0,a5,17098 <dwarf::elf::elf_loader<elf::elf>::load(dwarf::section_type, unsigned long*)+0x184>
  }
   17068:	00040513          	addi	a0,s0,0
   1706c:	06813083          	ld	ra,104(sp)
   17070:	06013403          	ld	s0,96(sp)
   17074:	05813483          	ld	s1,88(sp)
   17078:	05013903          	ld	s2,80(sp)
   1707c:	04813983          	ld	s3,72(sp)
   17080:	07010113          	addi	sp,sp,112
   17084:	00008067          	jalr	zero,0(ra)
      return __exchange_and_add(__mem, __val);
   17088:	fff00593          	addi	a1,zero,-1
   1708c:	03048513          	addi	a0,s1,48
   17090:	af0ff0ef          	jal	ra,16380 <__gnu_cxx::__exchange_and_add(int volatile*, int)@plt>
   17094:	fcdff06f          	jal	zero,17060 <dwarf::elf::elf_loader<elf::elf>::load(dwarf::section_type, unsigned long*)+0x14c>
	_M_dispose();
   17098:	0004b783          	ld	a5,0(s1)
   1709c:	0107b783          	ld	a5,16(a5)
   170a0:	00048513          	addi	a0,s1,0
   170a4:	000780e7          	jalr	ra,0(a5)
	    __atomic_thread_fence (__ATOMIC_ACQ_REL);
   170a8:	0ff0000f          	fence	iorw,iorw
    if (__is_single_threaded())
   170ac:	e201c783          	lbu	a5,-480(gp) # 42620 <__libc_single_threaded@GLIBC_2.32>
   170b0:	02078663          	beq	a5,zero,170dc <dwarf::elf::elf_loader<elf::elf>::load(dwarf::section_type, unsigned long*)+0x1c8>
    _Atomic_word __result = *__mem;
   170b4:	0344a503          	lw	a0,52(s1)
    *__mem += __val;
   170b8:	fff5079b          	addiw	a5,a0,-1
   170bc:	02f4aa23          	sw	a5,52(s1)
	if (__gnu_cxx::__exchange_and_add_dispatch(&_M_weak_count,
   170c0:	00100793          	addi	a5,zero,1
   170c4:	faf512e3          	bne	a0,a5,17068 <dwarf::elf::elf_loader<elf::elf>::load(dwarf::section_type, unsigned long*)+0x154>
	    _M_destroy();
   170c8:	0004b783          	ld	a5,0(s1)
   170cc:	0187b783          	ld	a5,24(a5)
   170d0:	00048513          	addi	a0,s1,0
   170d4:	000780e7          	jalr	ra,0(a5)
   170d8:	f91ff06f          	jal	zero,17068 <dwarf::elf::elf_loader<elf::elf>::load(dwarf::section_type, unsigned long*)+0x154>
      return __exchange_and_add(__mem, __val);
   170dc:	fff00593          	addi	a1,zero,-1
   170e0:	03448513          	addi	a0,s1,52
   170e4:	a9cff0ef          	jal	ra,16380 <__gnu_cxx::__exchange_and_add(int volatile*, int)@plt>
   170e8:	fd9ff06f          	jal	zero,170c0 <dwarf::elf::elf_loader<elf::elf>::load(dwarf::section_type, unsigned long*)+0x1ac>
      { return _M_dataplus._M_p; }
   170ec:	00050413          	addi	s0,a0,0
   170f0:	01013503          	ld	a0,16(sp)
	if (!_M_is_local())
   170f4:	02010793          	addi	a5,sp,32
   170f8:	00f50463          	beq	a0,a5,17100 <dwarf::elf::elf_loader<elf::elf>::load(dwarf::section_type, unsigned long*)+0x1ec>
   170fc:	c14ff0ef          	jal	ra,16510 <operator delete(void*)@plt>
      ~__new_allocator() _GLIBCXX_USE_NOEXCEPT { }
   17100:	00040513          	addi	a0,s0,0
   17104:	decff0ef          	jal	ra,166f0 <_Unwind_Resume@plt>
	if (_M_pi != nullptr)
   17108:	00050413          	addi	s0,a0,0
   1710c:	03813503          	ld	a0,56(sp)
   17110:	00050463          	beq	a0,zero,17118 <dwarf::elf::elf_loader<elf::elf>::load(dwarf::section_type, unsigned long*)+0x204>
	  _M_pi->_M_release();
   17114:	d61ff0ef          	jal	ra,16e74 <std::_Sp_counted_base<(__gnu_cxx::_Lock_policy)1>::_M_release()>
   17118:	00040513          	addi	a0,s0,0
   1711c:	dd4ff0ef          	jal	ra,166f0 <_Unwind_Resume@plt>

0000000000017120 <dwarf::dwarf::~dwarf()>:
    m->compilation_units.emplace_back(*this, infocur.get_section_offset());
    infocur.subsection();
  }
}

dwarf::~dwarf() {}
   17120:	ff010113          	addi	sp,sp,-16
   17124:	00113423          	sd	ra,8(sp)
   17128:	00813023          	sd	s0,0(sp)
	if (_M_pi != nullptr)
   1712c:	00853403          	ld	s0,8(a0)
   17130:	02040463          	beq	s0,zero,17158 <dwarf::dwarf::~dwarf()+0x38>
    if (__is_single_threaded())
   17134:	0002b797          	auipc	a5,0x2b
   17138:	34c7b783          	ld	a5,844(a5) # 42480 <__libc_single_threaded@GLIBC_2.32-0x1a0>
   1713c:	0007c783          	lbu	a5,0(a5)
   17140:	02078463          	beq	a5,zero,17168 <dwarf::dwarf::~dwarf()+0x48>
    _Atomic_word __result = *__mem;
   17144:	03042503          	lw	a0,48(s0)
    *__mem += __val;
   17148:	fff5079b          	addiw	a5,a0,-1
   1714c:	02f42823          	sw	a5,48(s0)
      if (__gnu_cxx::__exchange_and_add_dispatch(&_M_use_count, -1) == 1)
   17150:	00100793          	addi	a5,zero,1
   17154:	02f50263          	beq	a0,a5,17178 <dwarf::dwarf::~dwarf()+0x58>
   17158:	00813083          	ld	ra,8(sp)
   1715c:	00013403          	ld	s0,0(sp)
   17160:	01010113          	addi	sp,sp,16
   17164:	00008067          	jalr	zero,0(ra)
      return __exchange_and_add(__mem, __val);
   17168:	fff00593          	addi	a1,zero,-1
   1716c:	03040513          	addi	a0,s0,48
   17170:	a10ff0ef          	jal	ra,16380 <__gnu_cxx::__exchange_and_add(int volatile*, int)@plt>
   17174:	fddff06f          	jal	zero,17150 <dwarf::dwarf::~dwarf()+0x30>
	_M_dispose();
   17178:	00043783          	ld	a5,0(s0)
   1717c:	0107b783          	ld	a5,16(a5)
   17180:	00040513          	addi	a0,s0,0
   17184:	000780e7          	jalr	ra,0(a5)
	    __atomic_thread_fence (__ATOMIC_ACQ_REL);
   17188:	0ff0000f          	fence	iorw,iorw
    if (__is_single_threaded())
   1718c:	0002b797          	auipc	a5,0x2b
   17190:	2f47b783          	ld	a5,756(a5) # 42480 <__libc_single_threaded@GLIBC_2.32-0x1a0>
   17194:	0007c783          	lbu	a5,0(a5)
   17198:	02078663          	beq	a5,zero,171c4 <dwarf::dwarf::~dwarf()+0xa4>
    _Atomic_word __result = *__mem;
   1719c:	03442503          	lw	a0,52(s0)
    *__mem += __val;
   171a0:	fff5079b          	addiw	a5,a0,-1
   171a4:	02f42a23          	sw	a5,52(s0)
	if (__gnu_cxx::__exchange_and_add_dispatch(&_M_weak_count,
   171a8:	00100793          	addi	a5,zero,1
   171ac:	faf516e3          	bne	a0,a5,17158 <dwarf::dwarf::~dwarf()+0x38>
	    _M_destroy();
   171b0:	00043783          	ld	a5,0(s0)
   171b4:	0187b783          	ld	a5,24(a5)
   171b8:	00040513          	addi	a0,s0,0
   171bc:	000780e7          	jalr	ra,0(a5)
   171c0:	f99ff06f          	jal	zero,17158 <dwarf::dwarf::~dwarf()+0x38>
      return __exchange_and_add(__mem, __val);
   171c4:	fff00593          	addi	a1,zero,-1
   171c8:	03440513          	addi	a0,s0,52
   171cc:	9b4ff0ef          	jal	ra,16380 <__gnu_cxx::__exchange_and_add(int volatile*, int)@plt>
   171d0:	fd9ff06f          	jal	zero,171a8 <dwarf::dwarf::~dwarf()+0x88>

00000000000171d4 <dwarf::dwarf::compilation_units() const>:

const std::vector<compilation_unit> &dwarf::compilation_units() const {
   171d4:	ff010113          	addi	sp,sp,-16
   171d8:	00113423          	sd	ra,8(sp)
   171dc:	00813023          	sd	s0,0(sp)
   171e0:	00050413          	addi	s0,a0,0
  static std::vector<compilation_unit> empty;
   171e4:	e4018513          	addi	a0,gp,-448 # 42640 <guard variable for dwarf::dwarf::compilation_units() const::empty>
   171e8:	d58ff0ef          	jal	ra,16740 <__cxa_guard_acquire@plt>
   171ec:	02051063          	bne	a0,zero,1720c <dwarf::dwarf::compilation_units() const+0x38>
      { return _M_ptr != nullptr; }
   171f0:	00043503          	ld	a0,0(s0)
  if (!m)
   171f4:	04050263          	beq	a0,zero,17238 <dwarf::dwarf::compilation_units() const+0x64>
    return empty;
  return m->compilation_units;
   171f8:	03050513          	addi	a0,a0,48
}
   171fc:	00813083          	ld	ra,8(sp)
   17200:	00013403          	ld	s0,0(sp)
   17204:	01010113          	addi	sp,sp,16
   17208:	00008067          	jalr	zero,0(ra)
	pointer _M_finish;
	pointer _M_end_of_storage;

	_GLIBCXX20_CONSTEXPR
	_Vector_impl_data() _GLIBCXX_NOEXCEPT
	: _M_start(), _M_finish(), _M_end_of_storage()
   1720c:	e2818593          	addi	a1,gp,-472 # 42628 <dwarf::dwarf::compilation_units() const::empty>
   17210:	0005b023          	sd	zero,0(a1)
   17214:	0005b423          	sd	zero,8(a1)
   17218:	0005b823          	sd	zero,16(a1)
  static std::vector<compilation_unit> empty;
   1721c:	e0818613          	addi	a2,gp,-504 # 42608 <__dso_handle>
   17220:	0002b517          	auipc	a0,0x2b
   17224:	15053503          	ld	a0,336(a0) # 42370 <std::vector<dwarf::compilation_unit, std::allocator<dwarf::compilation_unit> >::~vector()@@Base+0x27950>
   17228:	cf8ff0ef          	jal	ra,16720 <__cxa_atexit@plt>
   1722c:	e4018513          	addi	a0,gp,-448 # 42640 <guard variable for dwarf::dwarf::compilation_units() const::empty>
   17230:	a60ff0ef          	jal	ra,16490 <__cxa_guard_release@plt>
   17234:	fbdff06f          	jal	zero,171f0 <dwarf::dwarf::compilation_units() const+0x1c>
    return empty;
   17238:	e2818513          	addi	a0,gp,-472 # 42628 <dwarf::dwarf::compilation_units() const::empty>
   1723c:	fc1ff06f          	jal	zero,171fc <dwarf::dwarf::compilation_units() const+0x28>

0000000000017240 <dwarf::unit::~unit()>:
        have_abbrevs(false) {}

  void force_abbrevs();
};

unit::~unit() {}
   17240:	ff010113          	addi	sp,sp,-16
   17244:	00113423          	sd	ra,8(sp)
   17248:	00813023          	sd	s0,0(sp)
   1724c:	0002b797          	auipc	a5,0x2b
   17250:	3647b783          	ld	a5,868(a5) # 425b0 <vtable for dwarf::unit@@Base+0xbea8>
   17254:	01078793          	addi	a5,a5,16
   17258:	00f53023          	sd	a5,0(a0)
	if (_M_pi != nullptr)
   1725c:	01053403          	ld	s0,16(a0)
   17260:	02040463          	beq	s0,zero,17288 <dwarf::unit::~unit()+0x48>
    if (__is_single_threaded())
   17264:	0002b797          	auipc	a5,0x2b
   17268:	21c7b783          	ld	a5,540(a5) # 42480 <__libc_single_threaded@GLIBC_2.32-0x1a0>
   1726c:	0007c783          	lbu	a5,0(a5)
   17270:	02078463          	beq	a5,zero,17298 <dwarf::unit::~unit()+0x58>
    _Atomic_word __result = *__mem;
   17274:	03042503          	lw	a0,48(s0)
    *__mem += __val;
   17278:	fff5079b          	addiw	a5,a0,-1
   1727c:	02f42823          	sw	a5,48(s0)
      if (__gnu_cxx::__exchange_and_add_dispatch(&_M_use_count, -1) == 1)
   17280:	00100793          	addi	a5,zero,1
   17284:	02f50263          	beq	a0,a5,172a8 <dwarf::unit::~unit()+0x68>
   17288:	00813083          	ld	ra,8(sp)
   1728c:	00013403          	ld	s0,0(sp)
   17290:	01010113          	addi	sp,sp,16
   17294:	00008067          	jalr	zero,0(ra)
      return __exchange_and_add(__mem, __val);
   17298:	fff00593          	addi	a1,zero,-1
   1729c:	03040513          	addi	a0,s0,48
   172a0:	8e0ff0ef          	jal	ra,16380 <__gnu_cxx::__exchange_and_add(int volatile*, int)@plt>
   172a4:	fddff06f          	jal	zero,17280 <dwarf::unit::~unit()+0x40>
	_M_dispose();
   172a8:	00043783          	ld	a5,0(s0)
   172ac:	0107b783          	ld	a5,16(a5)
   172b0:	00040513          	addi	a0,s0,0
   172b4:	000780e7          	jalr	ra,0(a5)
	    __atomic_thread_fence (__ATOMIC_ACQ_REL);
   172b8:	0ff0000f          	fence	iorw,iorw
    if (__is_single_threaded())
   172bc:	0002b797          	auipc	a5,0x2b
   172c0:	1c47b783          	ld	a5,452(a5) # 42480 <__libc_single_threaded@GLIBC_2.32-0x1a0>
   172c4:	0007c783          	lbu	a5,0(a5)
   172c8:	02078663          	beq	a5,zero,172f4 <dwarf::unit::~unit()+0xb4>
    _Atomic_word __result = *__mem;
   172cc:	03442503          	lw	a0,52(s0)
    *__mem += __val;
   172d0:	fff5079b          	addiw	a5,a0,-1
   172d4:	02f42a23          	sw	a5,52(s0)
	if (__gnu_cxx::__exchange_and_add_dispatch(&_M_weak_count,
   172d8:	00100793          	addi	a5,zero,1
   172dc:	faf516e3          	bne	a0,a5,17288 <dwarf::unit::~unit()+0x48>
	    _M_destroy();
   172e0:	00043783          	ld	a5,0(s0)
   172e4:	0187b783          	ld	a5,24(a5)
   172e8:	00040513          	addi	a0,s0,0
   172ec:	000780e7          	jalr	ra,0(a5)
   172f0:	f99ff06f          	jal	zero,17288 <dwarf::unit::~unit()+0x48>
      return __exchange_and_add(__mem, __val);
   172f4:	fff00593          	addi	a1,zero,-1
   172f8:	03440513          	addi	a0,s0,52
   172fc:	884ff0ef          	jal	ra,16380 <__gnu_cxx::__exchange_and_add(int volatile*, int)@plt>
   17300:	fd9ff06f          	jal	zero,172d8 <dwarf::unit::~unit()+0x98>

0000000000017304 <dwarf::unit::~unit()>:
   17304:	ff010113          	addi	sp,sp,-16
   17308:	00113423          	sd	ra,8(sp)
   1730c:	00813023          	sd	s0,0(sp)
   17310:	00050413          	addi	s0,a0,0
   17314:	f2dff0ef          	jal	ra,17240 <dwarf::unit::~unit()>
   17318:	00040513          	addi	a0,s0,0
   1731c:	9f4ff0ef          	jal	ra,16510 <operator delete(void*)@plt>
   17320:	00813083          	ld	ra,8(sp)
   17324:	00013403          	ld	s0,0(sp)
   17328:	01010113          	addi	sp,sp,16
   1732c:	00008067          	jalr	zero,0(ra)

0000000000017330 <dwarf::unit::get_dwarf() const>:

const dwarf &unit::get_dwarf() const { return m->file; }
   17330:	00853503          	ld	a0,8(a0)
   17334:	00008067          	jalr	zero,0(ra)

0000000000017338 <dwarf::unit::get_section_offset() const>:

section_offset unit::get_section_offset() const { return m->offset; }
   17338:	00853783          	ld	a5,8(a0)
   1733c:	0107b503          	ld	a0,16(a5)
   17340:	00008067          	jalr	zero,0(ra)

0000000000017344 <dwarf::unit::data() const>:
    m->root.read(m->root_offset);
  }
  return m->root;
}

const std::shared_ptr<section> &unit::data() const { return m->subsec; }
   17344:	00853503          	ld	a0,8(a0)
   17348:	01850513          	addi	a0,a0,24
   1734c:	00008067          	jalr	zero,0(ra)

0000000000017350 <dwarf::type_unit::get_type_signature() const>:

  m = make_shared<impl>(file, offset, subsec, debug_abbrev_offset,
                        sub.get_section_offset(), type_signature, type_offset);
}

uint64_t type_unit::get_type_signature() const { return m->type_signature; }
   17350:	00853783          	ld	a5,8(a0)
   17354:	0387b503          	ld	a0,56(a5)
   17358:	00008067          	jalr	zero,0(ra)

000000000001735c <dwarf::dwarf::get_section(dwarf::section_type) const>:
std::shared_ptr<section> dwarf::get_section(section_type type) const {
   1735c:	f5010113          	addi	sp,sp,-176
   17360:	0a113423          	sd	ra,168(sp)
   17364:	0a813023          	sd	s0,160(sp)
   17368:	08913c23          	sd	s1,152(sp)
   1736c:	09213823          	sd	s2,144(sp)
   17370:	09313423          	sd	s3,136(sp)
   17374:	09413023          	sd	s4,128(sp)
   17378:	00050413          	addi	s0,a0,0
   1737c:	00058493          	addi	s1,a1,0
   17380:	00c12623          	sw	a2,12(sp)
  if (type == section_type::info)
   17384:	00300713          	addi	a4,zero,3
   17388:	06e60263          	beq	a2,a4,173ec <dwarf::dwarf::get_section(dwarf::section_type) const+0x90>
   1738c:	00060793          	addi	a5,a2,0
  if (type == section_type::abbrev)
   17390:	0a061a63          	bne	a2,zero,17444 <dwarf::dwarf::get_section(dwarf::section_type) const+0xe8>
      { return _M_ptr; }
   17394:	0005b783          	ld	a5,0(a1)
      __shared_ptr(const __shared_ptr&) noexcept = default;
   17398:	0207b703          	ld	a4,32(a5)
   1739c:	00e53023          	sd	a4,0(a0)
      : _M_pi(__r._M_pi)
   173a0:	0287b503          	ld	a0,40(a5)
   173a4:	00a43423          	sd	a0,8(s0)
	if (_M_pi != nullptr)
   173a8:	02050063          	beq	a0,zero,173c8 <dwarf::dwarf::get_section(dwarf::section_type) const+0x6c>
    if (__is_single_threaded())
   173ac:	0002b797          	auipc	a5,0x2b
   173b0:	0d47b783          	ld	a5,212(a5) # 42480 <__libc_single_threaded@GLIBC_2.32-0x1a0>
   173b4:	0007c783          	lbu	a5,0(a5)
   173b8:	06078e63          	beq	a5,zero,17434 <dwarf::dwarf::get_section(dwarf::section_type) const+0xd8>
  { *__mem += __val; }
   173bc:	03052783          	lw	a5,48(a0)
   173c0:	0017879b          	addiw	a5,a5,1
   173c4:	02f52823          	sw	a5,48(a0)
}
   173c8:	00040513          	addi	a0,s0,0
   173cc:	0a813083          	ld	ra,168(sp)
   173d0:	0a013403          	ld	s0,160(sp)
   173d4:	09813483          	ld	s1,152(sp)
   173d8:	09013903          	ld	s2,144(sp)
   173dc:	08813983          	ld	s3,136(sp)
   173e0:	08013a03          	ld	s4,128(sp)
   173e4:	0b010113          	addi	sp,sp,176
   173e8:	00008067          	jalr	zero,0(ra)
      { return _M_ptr; }
   173ec:	0005b783          	ld	a5,0(a1)
      __shared_ptr(const __shared_ptr&) noexcept = default;
   173f0:	0107b703          	ld	a4,16(a5)
   173f4:	00e53023          	sd	a4,0(a0)
      : _M_pi(__r._M_pi)
   173f8:	0187b503          	ld	a0,24(a5)
   173fc:	00a43423          	sd	a0,8(s0)
	if (_M_pi != nullptr)
   17400:	fc0504e3          	beq	a0,zero,173c8 <dwarf::dwarf::get_section(dwarf::section_type) const+0x6c>
    if (__is_single_threaded())
   17404:	0002b797          	auipc	a5,0x2b
   17408:	07c7b783          	ld	a5,124(a5) # 42480 <__libc_single_threaded@GLIBC_2.32-0x1a0>
   1740c:	0007c783          	lbu	a5,0(a5)
   17410:	00078a63          	beq	a5,zero,17424 <dwarf::dwarf::get_section(dwarf::section_type) const+0xc8>
  { *__mem += __val; }
   17414:	03052783          	lw	a5,48(a0)
   17418:	0017879b          	addiw	a5,a5,1
   1741c:	02f52823          	sw	a5,48(a0)
   17420:	fa9ff06f          	jal	zero,173c8 <dwarf::dwarf::get_section(dwarf::section_type) const+0x6c>
      __atomic_add(__mem, __val);
   17424:	00100593          	addi	a1,zero,1
   17428:	03050513          	addi	a0,a0,48
   1742c:	f25fe0ef          	jal	ra,16350 <__gnu_cxx::__atomic_add(int volatile*, int)@plt>
   17430:	f99ff06f          	jal	zero,173c8 <dwarf::dwarf::get_section(dwarf::section_type) const+0x6c>
   17434:	00100593          	addi	a1,zero,1
   17438:	03050513          	addi	a0,a0,48
   1743c:	f15fe0ef          	jal	ra,16350 <__gnu_cxx::__atomic_add(int volatile*, int)@plt>
   17440:	f89ff06f          	jal	zero,173c8 <dwarf::dwarf::get_section(dwarf::section_type) const+0x6c>
      { return _M_ptr; }
   17444:	0005b583          	ld	a1,0(a1)
      _M_rightmost() const _GLIBCXX_NOEXCEPT
      { return this->_M_impl._M_header._M_right; }

      _Link_type
      _M_mbegin() const _GLIBCXX_NOEXCEPT
      { return static_cast<_Link_type>(this->_M_impl._M_header._M_parent); }
   17448:	0985b703          	ld	a4,152(a1)
	  (this->_M_impl._M_header._M_parent);
      }

      _Base_ptr
      _M_end() _GLIBCXX_NOEXCEPT
      { return &this->_M_impl._M_header; }
   1744c:	09058513          	addi	a0,a1,144
		      _Compare, _Alloc>::iterator
    _Rb_tree<_Key, _Val, _KeyOfValue, _Compare, _Alloc>::
    _M_lower_bound(_Link_type __x, _Base_ptr __y,
		   const _Key& __k)
    {
      while (__x != 0)
   17450:	38070e63          	beq	a4,zero,177ec <dwarf::dwarf::get_section(dwarf::section_type) const+0x490>
   17454:	00050613          	addi	a2,a0,0
   17458:	00c0006f          	jal	zero,17464 <dwarf::dwarf::get_section(dwarf::section_type) const+0x108>
      { return static_cast<_Link_type>(__x->_M_right); }
   1745c:	01873703          	ld	a4,24(a4)
      while (__x != 0)
   17460:	00070c63          	beq	a4,zero,17478 <dwarf::dwarf::get_section(dwarf::section_type) const+0x11c>
	if (!_M_impl._M_key_compare(_S_key(__x), __k))
   17464:	02072683          	lw	a3,32(a4)
   17468:	fef6cae3          	blt	a3,a5,1745c <dwarf::dwarf::get_section(dwarf::section_type) const+0x100>
      _S_left(_Base_ptr __x) _GLIBCXX_NOEXCEPT
   1746c:	00070613          	addi	a2,a4,0
	  __y = __x, __x = _S_left(__x);
   17470:	01073703          	ld	a4,16(a4)
   17474:	fedff06f          	jal	zero,17460 <dwarf::dwarf::get_section(dwarf::section_type) const+0x104>
    find(const _Key& __k)
    {
      iterator __j = _M_lower_bound(_M_begin(), _M_end(), __k);
      return (__j == end()
	      || _M_impl._M_key_compare(__k,
					_S_key(__j._M_node))) ? end() : __j;
   17478:	36c50a63          	beq	a0,a2,177ec <dwarf::dwarf::get_section(dwarf::section_type) const+0x490>
	      || _M_impl._M_key_compare(__k,
   1747c:	02062703          	lw	a4,32(a2)
   17480:	36e7c663          	blt	a5,a4,177ec <dwarf::dwarf::get_section(dwarf::section_type) const+0x490>
      __shared_ptr(const __shared_ptr&) noexcept = default;
   17484:	02863783          	ld	a5,40(a2)
   17488:	00f43023          	sd	a5,0(s0)
      : _M_pi(__r._M_pi)
   1748c:	03063503          	ld	a0,48(a2)
   17490:	00a43423          	sd	a0,8(s0)
	if (_M_pi != nullptr)
   17494:	f2050ae3          	beq	a0,zero,173c8 <dwarf::dwarf::get_section(dwarf::section_type) const+0x6c>
    if (__is_single_threaded())
   17498:	0002b797          	auipc	a5,0x2b
   1749c:	fe87b783          	ld	a5,-24(a5) # 42480 <__libc_single_threaded@GLIBC_2.32-0x1a0>
   174a0:	0007c783          	lbu	a5,0(a5)
   174a4:	00078a63          	beq	a5,zero,174b8 <dwarf::dwarf::get_section(dwarf::section_type) const+0x15c>
  { *__mem += __val; }
   174a8:	03052783          	lw	a5,48(a0)
   174ac:	0017879b          	addiw	a5,a5,1
   174b0:	02f52823          	sw	a5,48(a0)
   174b4:	f15ff06f          	jal	zero,173c8 <dwarf::dwarf::get_section(dwarf::section_type) const+0x6c>
      __atomic_add(__mem, __val);
   174b8:	00100593          	addi	a1,zero,1
   174bc:	03050513          	addi	a0,a0,48
   174c0:	e91fe0ef          	jal	ra,16350 <__gnu_cxx::__atomic_add(int volatile*, int)@plt>
   174c4:	f05ff06f          	jal	zero,173c8 <dwarf::dwarf::get_section(dwarf::section_type) const+0x6c>
                       " section missing");
   174c8:	01000513          	addi	a0,zero,16
   174cc:	f55fe0ef          	jal	ra,16420 <__cxa_allocate_exception@plt>
   174d0:	00050493          	addi	s1,a0,0
    throw format_error(std::string(elf::section_type_to_name(type)) +
   174d4:	00c12503          	lw	a0,12(sp)
   174d8:	44d150ef          	jal	ra,2d124 <dwarf::elf::section_type_to_name(dwarf::section_type)>
   174dc:	00050593          	addi	a1,a0,0
   174e0:	05810613          	addi	a2,sp,88
   174e4:	01010513          	addi	a0,sp,16
   174e8:	908ff0ef          	jal	ra,165f0 <std::__cxx11::basic_string<char, std::char_traits<char>, std::allocator<char> >::basic_string(char const*, std::allocator<char> const&)@plt>
  template<typename _CharT, typename _Traits, typename _Alloc>
    _GLIBCXX20_CONSTEXPR
    inline basic_string<_CharT, _Traits, _Alloc>
    operator+(basic_string<_CharT, _Traits, _Alloc>&& __lhs,
	      const _CharT* __rhs)
    { return std::move(__lhs.append(__rhs)); }
   174ec:	0001f597          	auipc	a1,0x1f
   174f0:	2ec58593          	addi	a1,a1,748 # 367d8 <std::_Sp_make_shared_tag::_S_ti()::__tag+0x30>
   174f4:	01010513          	addi	a0,sp,16
   174f8:	aa8ff0ef          	jal	ra,167a0 <std::__cxx11::basic_string<char, std::char_traits<char>, std::allocator<char> >::append(char const*)@plt>
   174fc:	00050593          	addi	a1,a0,0
   17500:	03010413          	addi	s0,sp,48
   17504:	00040513          	addi	a0,s0,0
   17508:	f69fe0ef          	jal	ra,16470 <std::__cxx11::basic_string<char, std::char_traits<char>, std::allocator<char> >::basic_string(std::__cxx11::basic_string<char, std::char_traits<char>, std::allocator<char> >&&)@plt>
      : std::runtime_error(what_arg) {}
   1750c:	00040593          	addi	a1,s0,0
   17510:	00048513          	addi	a0,s1,0
   17514:	88cff0ef          	jal	ra,165a0 <std::runtime_error::runtime_error(std::__cxx11::basic_string<char, std::char_traits<char>, std::allocator<char> > const&)@plt>
   17518:	0002b797          	auipc	a5,0x2b
   1751c:	0407b783          	ld	a5,64(a5) # 42558 <vtable for dwarf::format_error@@Base+0xc28>
   17520:	01078793          	addi	a5,a5,16
   17524:	00f4b023          	sd	a5,0(s1)
      { return _M_dataplus._M_p; }
   17528:	03013503          	ld	a0,48(sp)
	if (!_M_is_local())
   1752c:	04010793          	addi	a5,sp,64
   17530:	00f50463          	beq	a0,a5,17538 <dwarf::dwarf::get_section(dwarf::section_type) const+0x1dc>
	_GLIBCXX_OPERATOR_DELETE(_GLIBCXX_SIZED_DEALLOC(__p, __n));
   17534:	fddfe0ef          	jal	ra,16510 <operator delete(void*)@plt>
      { return _M_dataplus._M_p; }
   17538:	01013503          	ld	a0,16(sp)
	if (!_M_is_local())
   1753c:	02010793          	addi	a5,sp,32
   17540:	00f50463          	beq	a0,a5,17548 <dwarf::dwarf::get_section(dwarf::section_type) const+0x1ec>
   17544:	fcdfe0ef          	jal	ra,16510 <operator delete(void*)@plt>
                       " section missing");
   17548:	0002b617          	auipc	a2,0x2b
   1754c:	e3863603          	ld	a2,-456(a2) # 42380 <dwarf::format_error::~format_error()@@Base+0x27a0c>
   17550:	0002b597          	auipc	a1,0x2b
   17554:	d605b583          	ld	a1,-672(a1) # 422b0 <typeinfo for dwarf::format_error@@Base+0x9f8>
   17558:	00048513          	addi	a0,s1,0
   1755c:	964ff0ef          	jal	ra,166c0 <__cxa_throw@plt>
      { return static_cast<_Link_type>(__x->_M_right); }
   17560:	0187b783          	ld	a5,24(a5)
      while (__x != 0)
   17564:	00078c63          	beq	a5,zero,1757c <dwarf::dwarf::get_section(dwarf::section_type) const+0x220>
	if (!_M_impl._M_key_compare(_S_key(__x), __k))
   17568:	0207a703          	lw	a4,32(a5)
   1756c:	fed74ae3          	blt	a4,a3,17560 <dwarf::dwarf::get_section(dwarf::section_type) const+0x204>
      _S_left(_Base_ptr __x) _GLIBCXX_NOEXCEPT
   17570:	00078913          	addi	s2,a5,0
	  __y = __x, __x = _S_left(__x);
   17574:	0107b783          	ld	a5,16(a5)
   17578:	fedff06f          	jal	zero,17564 <dwarf::dwarf::get_section(dwarf::section_type) const+0x208>
	// concept requirements
	__glibcxx_function_requires(_DefaultConstructibleConcept<mapped_type>)

	iterator __i = lower_bound(__k);
	// __i->first is greater than or equivalent to __k.
	if (__i == end() || key_comp()(__k, (*__i).first))
   1757c:	10c90663          	beq	s2,a2,17688 <dwarf::dwarf::get_section(dwarf::section_type) const+0x32c>
   17580:	02092783          	lw	a5,32(s2)
   17584:	02f6da63          	bge	a3,a5,175b8 <dwarf::dwarf::get_section(dwarf::section_type) const+0x25c>
    {
      constexpr _Head_base()
      : _M_head_impl() { }

      constexpr _Head_base(const _Head& __h)
      : _M_head_impl(__h) { }
   17588:	00c10793          	addi	a5,sp,12
   1758c:	06f13423          	sd	a5,104(sp)
#if __cplusplus >= 201103L
	  __i = _M_t._M_emplace_hint_unique(__i, std::piecewise_construct,
   17590:	06010713          	addi	a4,sp,96
   17594:	06810693          	addi	a3,sp,104
   17598:	0001f617          	auipc	a2,0x1f
   1759c:	55060613          	addi	a2,a2,1360 # 36ae8 <std::piecewise_construct>
   175a0:	00090593          	addi	a1,s2,0
   175a4:	08850513          	addi	a0,a0,136
   175a8:	0002b317          	auipc	t1,0x2b
   175ac:	df833303          	ld	t1,-520(t1) # 423a0 <std::_Rb_tree_iterator<std::pair<dwarf::section_type const, std::shared_ptr<dwarf::section> > > std::_Rb_tree<dwarf::section_type, std::pair<dwarf::section_type const, std::shared_ptr<dwarf::section> >, std::_Select1st<std::pair<dwarf::section_type const, std::shared_ptr<dwarf::section> > >, std::less<dwarf::section_type>, std::allocator<std::pair<dwarf::section_type const, std::shared_ptr<dwarf::section> > > >::_M_emplace_hint_unique<std::piecewise_construct_t const&, std::tuple<dwarf::section_type const&>, std::tuple<> >(std::_Rb_tree_const_iterator<std::pair<dwarf::section_type const, std::shared_ptr<dwarf::section> > >, std::piecewise_construct_t const&, std::tuple<dwarf::section_type const&>&&, std::tuple<>&&)@@Base+0x26724>
   175b0:	000300e7          	jalr	ra,0(t1)
   175b4:	00050913          	addi	s2,a0,0
      { return _M_ptr; }
   175b8:	0004b783          	ld	a5,0(s1)
   175bc:	0107ba03          	ld	s4,16(a5)
	return static_cast<_Tp*>(_GLIBCXX_OPERATOR_NEW(__n * sizeof(_Tp)));
   175c0:	06000513          	addi	a0,zero,96
   175c4:	f5dfe0ef          	jal	ra,16520 <operator new(unsigned long)@plt>
   175c8:	00052423          	sw	zero,8(a0)
   175cc:	00052623          	sw	zero,12(a0)
   175d0:	00052823          	sw	zero,16(a0)
   175d4:	00052a23          	sw	zero,20(a0)
   175d8:	00052c23          	sw	zero,24(a0)
   175dc:	00052e23          	sw	zero,28(a0)
   175e0:	02053023          	sd	zero,32(a0)
   175e4:	02053423          	sd	zero,40(a0)
      : _M_use_count(1), _M_weak_count(1) { }
   175e8:	00100793          	addi	a5,zero,1
   175ec:	02f52823          	sw	a5,48(a0)
   175f0:	02f52a23          	sw	a5,52(a0)
	: _M_impl(__a)
   175f4:	0002b797          	auipc	a5,0x2b
   175f8:	fcc7b783          	ld	a5,-52(a5) # 425c0 <vtable for std::_Sp_counted_ptr_inplace<dwarf::section, std::allocator<void>, (__gnu_cxx::_Lock_policy)1>@@Base+0xc48>
   175fc:	01078793          	addi	a5,a5,16
   17600:	00f53023          	sd	a5,0(a0)
      ::new((void*)__p) _Tp(std::forward<_Args>(__args)...);
   17604:	01ca2703          	lw	a4,28(s4)
  const byte_order ord;
  unsigned addr_size;

  section(section_type type, const void *begin, section_length length,
          byte_order ord, format fmt = format::unknown, unsigned addr_size = 0)
      : type(type), begin((char *)begin), end((char *)begin + length), fmt(fmt),
   17608:	00a00793          	addi	a5,zero,10
   1760c:	02f52c23          	sw	a5,56(a0)
   17610:	05353023          	sd	s3,64(a0)
   17614:	05013783          	ld	a5,80(sp)
   17618:	00f987b3          	add	a5,s3,a5
   1761c:	04f53423          	sd	a5,72(a0)
   17620:	04052823          	sw	zero,80(a0)
        ord(ord), addr_size(addr_size) {}
   17624:	04e52a23          	sw	a4,84(a0)
   17628:	04052c23          	sw	zero,88(a0)
   1762c:	03850793          	addi	a5,a0,56
      // concept requirements
      __glibcxx_function_requires(_SGIAssignableConcept<_Tp>)
#endif
      _Tp __tmp = _GLIBCXX_MOVE(__a);
      __a = _GLIBCXX_MOVE(__b);
      __b = _GLIBCXX_MOVE(__tmp);
   17630:	02f93423          	sd	a5,40(s2)
	_Sp_counted_base<_Lp>* __tmp = __r._M_pi;
   17634:	03093983          	ld	s3,48(s2)
	__r._M_pi = _M_pi;
   17638:	02a93823          	sd	a0,48(s2)
	if (_M_pi != nullptr)
   1763c:	02098463          	beq	s3,zero,17664 <dwarf::dwarf::get_section(dwarf::section_type) const+0x308>
    if (__is_single_threaded())
   17640:	0002b797          	auipc	a5,0x2b
   17644:	e407b783          	ld	a5,-448(a5) # 42480 <__libc_single_threaded@GLIBC_2.32-0x1a0>
   17648:	0007c783          	lbu	a5,0(a5)
   1764c:	04078263          	beq	a5,zero,17690 <dwarf::dwarf::get_section(dwarf::section_type) const+0x334>
    _Atomic_word __result = *__mem;
   17650:	0309a503          	lw	a0,48(s3)
    *__mem += __val;
   17654:	fff5079b          	addiw	a5,a0,-1
   17658:	02f9a823          	sw	a5,48(s3)
      if (__gnu_cxx::__exchange_and_add_dispatch(&_M_use_count, -1) == 1)
   1765c:	00100793          	addi	a5,zero,1
   17660:	04f50063          	beq	a0,a5,176a0 <dwarf::dwarf::get_section(dwarf::section_type) const+0x344>
      { return _M_ptr; }
   17664:	0004b503          	ld	a0,0(s1)
      { return static_cast<_Link_type>(this->_M_impl._M_header._M_parent); }
   17668:	09853783          	ld	a5,152(a0)
      { return &this->_M_impl._M_header; }
   1766c:	09050613          	addi	a2,a0,144
      while (__x != 0)
   17670:	10078c63          	beq	a5,zero,17788 <dwarf::dwarf::get_section(dwarf::section_type) const+0x42c>
    struct less : public binary_function<_Tp, _Tp, bool>
    {
      _GLIBCXX14_CONSTEXPR
      bool
      operator()(const _Tp& __x, const _Tp& __y) const
      { return __x < __y; }
   17674:	00c12683          	lw	a3,12(sp)
   17678:	00060593          	addi	a1,a2,0
   1767c:	08c0006f          	jal	zero,17708 <dwarf::dwarf::get_section(dwarf::section_type) const+0x3ac>
   17680:	00060913          	addi	s2,a2,0
   17684:	f05ff06f          	jal	zero,17588 <dwarf::dwarf::get_section(dwarf::section_type) const+0x22c>
   17688:	00060913          	addi	s2,a2,0
   1768c:	efdff06f          	jal	zero,17588 <dwarf::dwarf::get_section(dwarf::section_type) const+0x22c>
      return __exchange_and_add(__mem, __val);
   17690:	fff00593          	addi	a1,zero,-1
   17694:	03098513          	addi	a0,s3,48
   17698:	ce9fe0ef          	jal	ra,16380 <__gnu_cxx::__exchange_and_add(int volatile*, int)@plt>
   1769c:	fc1ff06f          	jal	zero,1765c <dwarf::dwarf::get_section(dwarf::section_type) const+0x300>
	_M_dispose();
   176a0:	0009b783          	ld	a5,0(s3)
   176a4:	0107b783          	ld	a5,16(a5)
   176a8:	00098513          	addi	a0,s3,0
   176ac:	000780e7          	jalr	ra,0(a5)
	    __atomic_thread_fence (__ATOMIC_ACQ_REL);
   176b0:	0ff0000f          	fence	iorw,iorw
    if (__is_single_threaded())
   176b4:	0002b797          	auipc	a5,0x2b
   176b8:	dcc7b783          	ld	a5,-564(a5) # 42480 <__libc_single_threaded@GLIBC_2.32-0x1a0>
   176bc:	0007c783          	lbu	a5,0(a5)
   176c0:	02078663          	beq	a5,zero,176ec <dwarf::dwarf::get_section(dwarf::section_type) const+0x390>
    _Atomic_word __result = *__mem;
   176c4:	0349a783          	lw	a5,52(s3)
    *__mem += __val;
   176c8:	fff7871b          	addiw	a4,a5,-1
   176cc:	02e9aa23          	sw	a4,52(s3)
	if (__gnu_cxx::__exchange_and_add_dispatch(&_M_weak_count,
   176d0:	00100713          	addi	a4,zero,1
   176d4:	f8e798e3          	bne	a5,a4,17664 <dwarf::dwarf::get_section(dwarf::section_type) const+0x308>
	    _M_destroy();
   176d8:	0009b783          	ld	a5,0(s3)
   176dc:	0187b783          	ld	a5,24(a5)
   176e0:	00098513          	addi	a0,s3,0
   176e4:	000780e7          	jalr	ra,0(a5)
   176e8:	f7dff06f          	jal	zero,17664 <dwarf::dwarf::get_section(dwarf::section_type) const+0x308>
      return __exchange_and_add(__mem, __val);
   176ec:	fff00593          	addi	a1,zero,-1
   176f0:	03498513          	addi	a0,s3,52
   176f4:	c8dfe0ef          	jal	ra,16380 <__gnu_cxx::__exchange_and_add(int volatile*, int)@plt>
   176f8:	00050793          	addi	a5,a0,0
   176fc:	fd5ff06f          	jal	zero,176d0 <dwarf::dwarf::get_section(dwarf::section_type) const+0x374>
      { return static_cast<_Link_type>(__x->_M_right); }
   17700:	0187b783          	ld	a5,24(a5)
      while (__x != 0)
   17704:	00078c63          	beq	a5,zero,1771c <dwarf::dwarf::get_section(dwarf::section_type) const+0x3c0>
	if (!_M_impl._M_key_compare(_S_key(__x), __k))
   17708:	0207a703          	lw	a4,32(a5)
   1770c:	fed74ae3          	blt	a4,a3,17700 <dwarf::dwarf::get_section(dwarf::section_type) const+0x3a4>
      _S_left(_Base_ptr __x) _GLIBCXX_NOEXCEPT
   17710:	00078593          	addi	a1,a5,0
	  __y = __x, __x = _S_left(__x);
   17714:	0107b783          	ld	a5,16(a5)
   17718:	fedff06f          	jal	zero,17704 <dwarf::dwarf::get_section(dwarf::section_type) const+0x3a8>
	if (__i == end() || key_comp()(__k, (*__i).first))
   1771c:	06c58a63          	beq	a1,a2,17790 <dwarf::dwarf::get_section(dwarf::section_type) const+0x434>
   17720:	0205a783          	lw	a5,32(a1)
   17724:	02f6d863          	bge	a3,a5,17754 <dwarf::dwarf::get_section(dwarf::section_type) const+0x3f8>
   17728:	00c10793          	addi	a5,sp,12
   1772c:	06f13c23          	sd	a5,120(sp)
	  __i = _M_t._M_emplace_hint_unique(__i, std::piecewise_construct,
   17730:	07010713          	addi	a4,sp,112
   17734:	07810693          	addi	a3,sp,120
   17738:	0001f617          	auipc	a2,0x1f
   1773c:	3b060613          	addi	a2,a2,944 # 36ae8 <std::piecewise_construct>
   17740:	08850513          	addi	a0,a0,136
   17744:	0002b317          	auipc	t1,0x2b
   17748:	c5c33303          	ld	t1,-932(t1) # 423a0 <std::_Rb_tree_iterator<std::pair<dwarf::section_type const, std::shared_ptr<dwarf::section> > > std::_Rb_tree<dwarf::section_type, std::pair<dwarf::section_type const, std::shared_ptr<dwarf::section> >, std::_Select1st<std::pair<dwarf::section_type const, std::shared_ptr<dwarf::section> > >, std::less<dwarf::section_type>, std::allocator<std::pair<dwarf::section_type const, std::shared_ptr<dwarf::section> > > >::_M_emplace_hint_unique<std::piecewise_construct_t const&, std::tuple<dwarf::section_type const&>, std::tuple<> >(std::_Rb_tree_const_iterator<std::pair<dwarf::section_type const, std::shared_ptr<dwarf::section> > >, std::piecewise_construct_t const&, std::tuple<dwarf::section_type const&>&&, std::tuple<>&&)@@Base+0x26724>
   1774c:	000300e7          	jalr	ra,0(t1)
   17750:	00050593          	addi	a1,a0,0
      __shared_ptr(const __shared_ptr&) noexcept = default;
   17754:	0285b783          	ld	a5,40(a1)
   17758:	00f43023          	sd	a5,0(s0)
      : _M_pi(__r._M_pi)
   1775c:	0305b503          	ld	a0,48(a1)
   17760:	00a43423          	sd	a0,8(s0)
	if (_M_pi != nullptr)
   17764:	c60502e3          	beq	a0,zero,173c8 <dwarf::dwarf::get_section(dwarf::section_type) const+0x6c>
    if (__is_single_threaded())
   17768:	0002b797          	auipc	a5,0x2b
   1776c:	d187b783          	ld	a5,-744(a5) # 42480 <__libc_single_threaded@GLIBC_2.32-0x1a0>
   17770:	0007c783          	lbu	a5,0(a5)
   17774:	02078263          	beq	a5,zero,17798 <dwarf::dwarf::get_section(dwarf::section_type) const+0x43c>
  { *__mem += __val; }
   17778:	03052783          	lw	a5,48(a0)
   1777c:	0017879b          	addiw	a5,a5,1
   17780:	02f52823          	sw	a5,48(a0)
   17784:	c45ff06f          	jal	zero,173c8 <dwarf::dwarf::get_section(dwarf::section_type) const+0x6c>
      while (__x != 0)
   17788:	00060593          	addi	a1,a2,0
   1778c:	f9dff06f          	jal	zero,17728 <dwarf::dwarf::get_section(dwarf::section_type) const+0x3cc>
   17790:	00060593          	addi	a1,a2,0
   17794:	f95ff06f          	jal	zero,17728 <dwarf::dwarf::get_section(dwarf::section_type) const+0x3cc>
      __atomic_add(__mem, __val);
   17798:	00100593          	addi	a1,zero,1
   1779c:	03050513          	addi	a0,a0,48
   177a0:	bb1fe0ef          	jal	ra,16350 <__gnu_cxx::__atomic_add(int volatile*, int)@plt>
   177a4:	c25ff06f          	jal	zero,173c8 <dwarf::dwarf::get_section(dwarf::section_type) const+0x6c>
      { return _M_dataplus._M_p; }
   177a8:	00050413          	addi	s0,a0,0
   177ac:	03013503          	ld	a0,48(sp)
	if (!_M_is_local())
   177b0:	04010793          	addi	a5,sp,64
   177b4:	00f50463          	beq	a0,a5,177bc <dwarf::dwarf::get_section(dwarf::section_type) const+0x460>
	_GLIBCXX_OPERATOR_DELETE(_GLIBCXX_SIZED_DEALLOC(__p, __n));
   177b8:	d59fe0ef          	jal	ra,16510 <operator delete(void*)@plt>
      { return _M_dataplus._M_p; }
   177bc:	01013503          	ld	a0,16(sp)
	if (!_M_is_local())
   177c0:	02010793          	addi	a5,sp,32
   177c4:	00f50463          	beq	a0,a5,177cc <dwarf::dwarf::get_section(dwarf::section_type) const+0x470>
   177c8:	d49fe0ef          	jal	ra,16510 <operator delete(void*)@plt>
   177cc:	00048513          	addi	a0,s1,0
   177d0:	d01fe0ef          	jal	ra,164d0 <__cxa_free_exception@plt>
   177d4:	00040513          	addi	a0,s0,0
   177d8:	f19fe0ef          	jal	ra,166f0 <_Unwind_Resume@plt>
      { return _M_dataplus._M_p; }
   177dc:	00050413          	addi	s0,a0,0
   177e0:	fddff06f          	jal	zero,177bc <dwarf::dwarf::get_section(dwarf::section_type) const+0x460>
   177e4:	00050413          	addi	s0,a0,0
   177e8:	fe5ff06f          	jal	zero,177cc <dwarf::dwarf::get_section(dwarf::section_type) const+0x470>
      { return _M_ptr; }
   177ec:	0005b503          	ld	a0,0(a1)
  const void *data = m->l->load(type, &size);
   177f0:	00053703          	ld	a4,0(a0)
   177f4:	01073703          	ld	a4,16(a4)
   177f8:	05010613          	addi	a2,sp,80
   177fc:	00078593          	addi	a1,a5,0
   17800:	000700e7          	jalr	ra,0(a4)
   17804:	00050993          	addi	s3,a0,0
  if (!data)
   17808:	cc0500e3          	beq	a0,zero,174c8 <dwarf::dwarf::get_section(dwarf::section_type) const+0x16c>
   1780c:	0004b503          	ld	a0,0(s1)
      { return static_cast<_Link_type>(this->_M_impl._M_header._M_parent); }
   17810:	09853783          	ld	a5,152(a0)
      { return &this->_M_impl._M_header; }
   17814:	09050613          	addi	a2,a0,144
      while (__x != 0)
   17818:	e60784e3          	beq	a5,zero,17680 <dwarf::dwarf::get_section(dwarf::section_type) const+0x324>
   1781c:	00c12683          	lw	a3,12(sp)
   17820:	00060913          	addi	s2,a2,0
   17824:	d45ff06f          	jal	zero,17568 <dwarf::dwarf::get_section(dwarf::section_type) const+0x20c>

0000000000017828 <dwarf::compilation_unit::compilation_unit(dwarf::dwarf const&, unsigned long)>:
compilation_unit::compilation_unit(const dwarf &file, section_offset offset) {
   17828:	f3010113          	addi	sp,sp,-208
   1782c:	0c113423          	sd	ra,200(sp)
   17830:	0c813023          	sd	s0,192(sp)
   17834:	0a913c23          	sd	s1,184(sp)
   17838:	0b213823          	sd	s2,176(sp)
   1783c:	0b313423          	sd	s3,168(sp)
   17840:	0b413023          	sd	s4,160(sp)
   17844:	09513c23          	sd	s5,152(sp)
   17848:	09613823          	sd	s6,144(sp)
   1784c:	00050493          	addi	s1,a0,0
   17850:	00058913          	addi	s2,a1,0
   17854:	00060993          	addi	s3,a2,0
      : _M_ptr(0), _M_refcount()
   17858:	00053423          	sd	zero,8(a0)
      constexpr __shared_count() noexcept : _M_pi(0)
   1785c:	00053823          	sd	zero,16(a0)
   17860:	0002b797          	auipc	a5,0x2b
   17864:	a587b783          	ld	a5,-1448(a5) # 422b8 <vtable for dwarf::compilation_unit@@Base+0xbb90>
   17868:	01078793          	addi	a5,a5,16
   1786c:	00f53023          	sd	a5,0(a0)
  cursor cur(file.get_section(section_type::info), offset);
   17870:	00300613          	addi	a2,zero,3
   17874:	08010513          	addi	a0,sp,128
   17878:	ae5ff0ef          	jal	ra,1735c <dwarf::dwarf::get_section(dwarf::section_type) const>
      __shared_ptr(const __shared_ptr&) noexcept = default;
   1787c:	08013783          	ld	a5,128(sp)
   17880:	00f13823          	sd	a5,16(sp)
      : _M_pi(__r._M_pi)
   17884:	08813503          	ld	a0,136(sp)
   17888:	00a13c23          	sd	a0,24(sp)
	if (_M_pi != nullptr)
   1788c:	02050063          	beq	a0,zero,178ac <dwarf::compilation_unit::compilation_unit(dwarf::dwarf const&, unsigned long)+0x84>
    if (__is_single_threaded())
   17890:	0002b797          	auipc	a5,0x2b
   17894:	bf07b783          	ld	a5,-1040(a5) # 42480 <__libc_single_threaded@GLIBC_2.32-0x1a0>
   17898:	0007c783          	lbu	a5,0(a5)
   1789c:	04078e63          	beq	a5,zero,178f8 <dwarf::compilation_unit::compilation_unit(dwarf::dwarf const&, unsigned long)+0xd0>
  { *__mem += __val; }
   178a0:	03052783          	lw	a5,48(a0)
   178a4:	0017879b          	addiw	a5,a5,1
   178a8:	02f52823          	sw	a5,48(a0)
  std::shared_ptr<section> sec;
  const char *pos;

  cursor() : pos(nullptr) {}
  cursor(const std::shared_ptr<section> sec, section_offset offset = 0)
      : sec(sec), pos(sec->begin + offset) {}
   178ac:	08013783          	ld	a5,128(sp)
   178b0:	0087b783          	ld	a5,8(a5)
   178b4:	013787b3          	add	a5,a5,s3
   178b8:	02f13023          	sd	a5,32(sp)
	if (_M_pi != nullptr)
   178bc:	08813403          	ld	s0,136(sp)
   178c0:	02040463          	beq	s0,zero,178e8 <dwarf::compilation_unit::compilation_unit(dwarf::dwarf const&, unsigned long)+0xc0>
    if (__is_single_threaded())
   178c4:	0002b797          	auipc	a5,0x2b
   178c8:	bbc7b783          	ld	a5,-1092(a5) # 42480 <__libc_single_threaded@GLIBC_2.32-0x1a0>
   178cc:	0007c783          	lbu	a5,0(a5)
   178d0:	02078c63          	beq	a5,zero,17908 <dwarf::compilation_unit::compilation_unit(dwarf::dwarf const&, unsigned long)+0xe0>
    _Atomic_word __result = *__mem;
   178d4:	03042503          	lw	a0,48(s0)
    *__mem += __val;
   178d8:	fff5079b          	addiw	a5,a0,-1
   178dc:	02f42823          	sw	a5,48(s0)
      if (__gnu_cxx::__exchange_and_add_dispatch(&_M_use_count, -1) == 1)
   178e0:	00100793          	addi	a5,zero,1
   178e4:	02f50a63          	beq	a0,a5,17918 <dwarf::compilation_unit::compilation_unit(dwarf::dwarf const&, unsigned long)+0xf0>
  std::shared_ptr<section> subsec = cur.subsection();
   178e8:	01010593          	addi	a1,sp,16
   178ec:	00010513          	addi	a0,sp,0
   178f0:	5a0050ef          	jal	ra,1ce90 <dwarf::cursor::subsection()>
   178f4:	0800006f          	jal	zero,17974 <dwarf::compilation_unit::compilation_unit(dwarf::dwarf const&, unsigned long)+0x14c>
      __atomic_add(__mem, __val);
   178f8:	00100593          	addi	a1,zero,1
   178fc:	03050513          	addi	a0,a0,48
   17900:	a51fe0ef          	jal	ra,16350 <__gnu_cxx::__atomic_add(int volatile*, int)@plt>
   17904:	fa9ff06f          	jal	zero,178ac <dwarf::compilation_unit::compilation_unit(dwarf::dwarf const&, unsigned long)+0x84>
      return __exchange_and_add(__mem, __val);
   17908:	fff00593          	addi	a1,zero,-1
   1790c:	03040513          	addi	a0,s0,48
   17910:	a71fe0ef          	jal	ra,16380 <__gnu_cxx::__exchange_and_add(int volatile*, int)@plt>
   17914:	fcdff06f          	jal	zero,178e0 <dwarf::compilation_unit::compilation_unit(dwarf::dwarf const&, unsigned long)+0xb8>
	_M_dispose();
   17918:	00043783          	ld	a5,0(s0)
   1791c:	0107b783          	ld	a5,16(a5)
   17920:	00040513          	addi	a0,s0,0
   17924:	000780e7          	jalr	ra,0(a5)
	    __atomic_thread_fence (__ATOMIC_ACQ_REL);
   17928:	0ff0000f          	fence	iorw,iorw
    if (__is_single_threaded())
   1792c:	0002b797          	auipc	a5,0x2b
   17930:	b547b783          	ld	a5,-1196(a5) # 42480 <__libc_single_threaded@GLIBC_2.32-0x1a0>
   17934:	0007c783          	lbu	a5,0(a5)
   17938:	02078663          	beq	a5,zero,17964 <dwarf::compilation_unit::compilation_unit(dwarf::dwarf const&, unsigned long)+0x13c>
    _Atomic_word __result = *__mem;
   1793c:	03442503          	lw	a0,52(s0)
    *__mem += __val;
   17940:	fff5079b          	addiw	a5,a0,-1
   17944:	02f42a23          	sw	a5,52(s0)
	if (__gnu_cxx::__exchange_and_add_dispatch(&_M_weak_count,
   17948:	00100793          	addi	a5,zero,1
   1794c:	f8f51ee3          	bne	a0,a5,178e8 <dwarf::compilation_unit::compilation_unit(dwarf::dwarf const&, unsigned long)+0xc0>
	    _M_destroy();
   17950:	00043783          	ld	a5,0(s0)
   17954:	0187b783          	ld	a5,24(a5)
   17958:	00040513          	addi	a0,s0,0
   1795c:	000780e7          	jalr	ra,0(a5)
   17960:	f89ff06f          	jal	zero,178e8 <dwarf::compilation_unit::compilation_unit(dwarf::dwarf const&, unsigned long)+0xc0>
      return __exchange_and_add(__mem, __val);
   17964:	fff00593          	addi	a1,zero,-1
   17968:	03440513          	addi	a0,s0,52
   1796c:	a15fe0ef          	jal	ra,16380 <__gnu_cxx::__exchange_and_add(int volatile*, int)@plt>
   17970:	fd9ff06f          	jal	zero,17948 <dwarf::compilation_unit::compilation_unit(dwarf::dwarf const&, unsigned long)+0x120>
      __shared_ptr(const __shared_ptr&) noexcept = default;
   17974:	00013a03          	ld	s4,0(sp)
      : _M_pi(__r._M_pi)
   17978:	00813403          	ld	s0,8(sp)
	if (_M_pi != nullptr)
   1797c:	6e040c63          	beq	s0,zero,18074 <dwarf::compilation_unit::compilation_unit(dwarf::dwarf const&, unsigned long)+0x84c>
    if (__is_single_threaded())
   17980:	0002b797          	auipc	a5,0x2b
   17984:	b007b783          	ld	a5,-1280(a5) # 42480 <__libc_single_threaded@GLIBC_2.32-0x1a0>
   17988:	0007c783          	lbu	a5,0(a5)
   1798c:	0a078663          	beq	a5,zero,17a38 <dwarf::compilation_unit::compilation_unit(dwarf::dwarf const&, unsigned long)+0x210>
  { *__mem += __val; }
   17990:	03042783          	lw	a5,48(s0)
   17994:	0017879b          	addiw	a5,a5,1
   17998:	02f42823          	sw	a5,48(s0)
      __shared_ptr(const __shared_ptr&) noexcept = default;
   1799c:	03413423          	sd	s4,40(sp)
      : _M_pi(__r._M_pi)
   179a0:	02813823          	sd	s0,48(sp)
    if (__is_single_threaded())
   179a4:	0002b797          	auipc	a5,0x2b
   179a8:	adc7b783          	ld	a5,-1316(a5) # 42480 <__libc_single_threaded@GLIBC_2.32-0x1a0>
   179ac:	0007c783          	lbu	a5,0(a5)
   179b0:	08078c63          	beq	a5,zero,17a48 <dwarf::compilation_unit::compilation_unit(dwarf::dwarf const&, unsigned long)+0x220>
  { *__mem += __val; }
   179b4:	03042783          	lw	a5,48(s0)
   179b8:	0017879b          	addiw	a5,a5,1
   179bc:	02f42823          	sw	a5,48(s0)
   179c0:	008a3783          	ld	a5,8(s4)
   179c4:	02f13c23          	sd	a5,56(sp)
    if (__is_single_threaded())
   179c8:	0002b797          	auipc	a5,0x2b
   179cc:	ab87b783          	ld	a5,-1352(a5) # 42480 <__libc_single_threaded@GLIBC_2.32-0x1a0>
   179d0:	0007c783          	lbu	a5,0(a5)
   179d4:	08078263          	beq	a5,zero,17a58 <dwarf::compilation_unit::compilation_unit(dwarf::dwarf const&, unsigned long)+0x230>
    _Atomic_word __result = *__mem;
   179d8:	03042503          	lw	a0,48(s0)
    *__mem += __val;
   179dc:	fff5079b          	addiw	a5,a0,-1
   179e0:	02f42823          	sw	a5,48(s0)
      if (__gnu_cxx::__exchange_and_add_dispatch(&_M_use_count, -1) == 1)
   179e4:	00100793          	addi	a5,zero,1
   179e8:	68f51e63          	bne	a0,a5,18084 <dwarf::compilation_unit::compilation_unit(dwarf::dwarf const&, unsigned long)+0x85c>
	_M_dispose();
   179ec:	00043783          	ld	a5,0(s0)
   179f0:	0107b783          	ld	a5,16(a5)
   179f4:	00040513          	addi	a0,s0,0
   179f8:	000780e7          	jalr	ra,0(a5)
	    __atomic_thread_fence (__ATOMIC_ACQ_REL);
   179fc:	0ff0000f          	fence	iorw,iorw
    if (__is_single_threaded())
   17a00:	0002b797          	auipc	a5,0x2b
   17a04:	a807b783          	ld	a5,-1408(a5) # 42480 <__libc_single_threaded@GLIBC_2.32-0x1a0>
   17a08:	0007c783          	lbu	a5,0(a5)
   17a0c:	04078e63          	beq	a5,zero,17a68 <dwarf::compilation_unit::compilation_unit(dwarf::dwarf const&, unsigned long)+0x240>
    _Atomic_word __result = *__mem;
   17a10:	03442503          	lw	a0,52(s0)
    *__mem += __val;
   17a14:	fff5079b          	addiw	a5,a0,-1
   17a18:	02f42a23          	sw	a5,52(s0)
	if (__gnu_cxx::__exchange_and_add_dispatch(&_M_weak_count,
   17a1c:	00100793          	addi	a5,zero,1
   17a20:	66f51263          	bne	a0,a5,18084 <dwarf::compilation_unit::compilation_unit(dwarf::dwarf const&, unsigned long)+0x85c>
	    _M_destroy();
   17a24:	00043783          	ld	a5,0(s0)
   17a28:	0187b783          	ld	a5,24(a5)
   17a2c:	00040513          	addi	a0,s0,0
   17a30:	000780e7          	jalr	ra,0(a5)
   17a34:	6500006f          	jal	zero,18084 <dwarf::compilation_unit::compilation_unit(dwarf::dwarf const&, unsigned long)+0x85c>
      __atomic_add(__mem, __val);
   17a38:	00100593          	addi	a1,zero,1
   17a3c:	03040513          	addi	a0,s0,48
   17a40:	911fe0ef          	jal	ra,16350 <__gnu_cxx::__atomic_add(int volatile*, int)@plt>
   17a44:	f59ff06f          	jal	zero,1799c <dwarf::compilation_unit::compilation_unit(dwarf::dwarf const&, unsigned long)+0x174>
   17a48:	00100593          	addi	a1,zero,1
   17a4c:	03040513          	addi	a0,s0,48
   17a50:	901fe0ef          	jal	ra,16350 <__gnu_cxx::__atomic_add(int volatile*, int)@plt>
   17a54:	f6dff06f          	jal	zero,179c0 <dwarf::compilation_unit::compilation_unit(dwarf::dwarf const&, unsigned long)+0x198>
      return __exchange_and_add(__mem, __val);
   17a58:	fff00593          	addi	a1,zero,-1
   17a5c:	03040513          	addi	a0,s0,48
   17a60:	921fe0ef          	jal	ra,16380 <__gnu_cxx::__exchange_and_add(int volatile*, int)@plt>
   17a64:	f81ff06f          	jal	zero,179e4 <dwarf::compilation_unit::compilation_unit(dwarf::dwarf const&, unsigned long)+0x1bc>
   17a68:	fff00593          	addi	a1,zero,-1
   17a6c:	03440513          	addi	a0,s0,52
   17a70:	911fe0ef          	jal	ra,16380 <__gnu_cxx::__exchange_and_add(int volatile*, int)@plt>
   17a74:	fa9ff06f          	jal	zero,17a1c <dwarf::compilation_unit::compilation_unit(dwarf::dwarf const&, unsigned long)+0x1f4>
  section_offset offset();
  void string(std::string &out);
  const char *cstr(size_t *size_out = nullptr);

  void ensure(section_offset bytes) {
    if ((section_offset)(sec->end - pos) < bytes || pos >= sec->end)
   17a78:	02813783          	ld	a5,40(sp)
   17a7c:	0107b703          	ld	a4,16(a5)
   17a80:	03813783          	ld	a5,56(sp)
   17a84:	40f70633          	sub	a2,a4,a5
   17a88:	00100693          	addi	a3,zero,1
   17a8c:	00c6f463          	bgeu	a3,a2,17a94 <dwarf::compilation_unit::compilation_unit(dwarf::dwarf const&, unsigned long)+0x26c>
   17a90:	00e7e663          	bltu	a5,a4,17a9c <dwarf::compilation_unit::compilation_unit(dwarf::dwarf const&, unsigned long)+0x274>
      underflow();
   17a94:	02810513          	addi	a0,sp,40
   17a98:	6b5040ef          	jal	ra,1c94c <dwarf::cursor::underflow()>

  template <typename T> T fixed() {
    ensure(sizeof(T));
    static_assert(sizeof(T) <= 8, "T too big");
    uint64_t val = 0;
    const unsigned char *p = (const unsigned char *)pos;
   17a9c:	03813703          	ld	a4,56(sp)
    if (sec->ord == byte_order::lsb) {
   17aa0:	02813783          	ld	a5,40(sp)
   17aa4:	01c7a783          	lw	a5,28(a5)
   17aa8:	04079263          	bne	a5,zero,17aec <dwarf::compilation_unit::compilation_unit(dwarf::dwarf const&, unsigned long)+0x2c4>
      for (unsigned i = 0; i < sizeof(T); i++)
        val |= ((uint64_t)p[i]) << (i * 8);
   17aac:	00174783          	lbu	a5,1(a4)
   17ab0:	00879793          	slli	a5,a5,0x8
   17ab4:	00074683          	lbu	a3,0(a4)
   17ab8:	00d7e7b3          	or	a5,a5,a3
    } else {
      for (unsigned i = 0; i < sizeof(T); i++)
        val = (val << 8) | (uint64_t)p[i];
    }
    pos += sizeof(T);
   17abc:	00270713          	addi	a4,a4,2
   17ac0:	02e13c23          	sd	a4,56(sp)
    return (T)val;
   17ac4:	03079413          	slli	s0,a5,0x30
   17ac8:	03045413          	srli	s0,s0,0x30
  if (version < 2 || version > 4)
   17acc:	ffe7879b          	addiw	a5,a5,-2
   17ad0:	03079793          	slli	a5,a5,0x30
   17ad4:	0307d793          	srli	a5,a5,0x30
   17ad8:	00200713          	addi	a4,zero,2
   17adc:	02f76263          	bltu	a4,a5,17b00 <dwarf::compilation_unit::compilation_unit(dwarf::dwarf const&, unsigned long)+0x2d8>
  section_offset debug_abbrev_offset = sub.offset();
   17ae0:	02810513          	addi	a0,sp,40
   17ae4:	5f4050ef          	jal	ra,1d0d8 <dwarf::cursor::offset()>
   17ae8:	0bc0006f          	jal	zero,17ba4 <dwarf::compilation_unit::compilation_unit(dwarf::dwarf const&, unsigned long)+0x37c>
        val = (val << 8) | (uint64_t)p[i];
   17aec:	00074783          	lbu	a5,0(a4)
   17af0:	00879793          	slli	a5,a5,0x8
   17af4:	00174683          	lbu	a3,1(a4)
   17af8:	00d7e7b3          	or	a5,a5,a3
      for (unsigned i = 0; i < sizeof(T); i++)
   17afc:	fc1ff06f          	jal	zero,17abc <dwarf::compilation_unit::compilation_unit(dwarf::dwarf const&, unsigned long)+0x294>
                       std::to_string(version));
   17b00:	01000513          	addi	a0,zero,16
   17b04:	91dfe0ef          	jal	ra,16420 <__cxa_allocate_exception@plt>
   17b08:	00050913          	addi	s2,a0,0
   17b0c:	00040593          	addi	a1,s0,0
   17b10:	06010413          	addi	s0,sp,96
   17b14:	00040513          	addi	a0,s0,0
   17b18:	0002b317          	auipc	t1,0x2b
   17b1c:	97833303          	ld	t1,-1672(t1) # 42490 <std::__cxx11::to_string(int)@@Base+0x27884>
   17b20:	000300e7          	jalr	ra,0(t1)
    { return std::move(__rhs.insert(0, __lhs)); }
   17b24:	0001f617          	auipc	a2,0x1f
   17b28:	ccc60613          	addi	a2,a2,-820 # 367f0 <std::_Sp_make_shared_tag::_S_ti()::__tag+0x48>
   17b2c:	00000593          	addi	a1,zero,0
   17b30:	00040513          	addi	a0,s0,0
   17b34:	85dfe0ef          	jal	ra,16390 <std::__cxx11::basic_string<char, std::char_traits<char>, std::allocator<char> >::insert(unsigned long, char const*)@plt>
   17b38:	00050593          	addi	a1,a0,0
   17b3c:	04010413          	addi	s0,sp,64
   17b40:	00040513          	addi	a0,s0,0
   17b44:	92dfe0ef          	jal	ra,16470 <std::__cxx11::basic_string<char, std::char_traits<char>, std::allocator<char> >::basic_string(std::__cxx11::basic_string<char, std::char_traits<char>, std::allocator<char> >&&)@plt>
   17b48:	00040593          	addi	a1,s0,0
   17b4c:	00090513          	addi	a0,s2,0
   17b50:	a51fe0ef          	jal	ra,165a0 <std::runtime_error::runtime_error(std::__cxx11::basic_string<char, std::char_traits<char>, std::allocator<char> > const&)@plt>
   17b54:	0002b797          	auipc	a5,0x2b
   17b58:	a047b783          	ld	a5,-1532(a5) # 42558 <vtable for dwarf::format_error@@Base+0xc28>
   17b5c:	01078793          	addi	a5,a5,16
   17b60:	00f93023          	sd	a5,0(s2)
      { return _M_dataplus._M_p; }
   17b64:	04013503          	ld	a0,64(sp)
	if (!_M_is_local())
   17b68:	05010793          	addi	a5,sp,80
   17b6c:	00f50463          	beq	a0,a5,17b74 <dwarf::compilation_unit::compilation_unit(dwarf::dwarf const&, unsigned long)+0x34c>
   17b70:	9a1fe0ef          	jal	ra,16510 <operator delete(void*)@plt>
      { return _M_dataplus._M_p; }
   17b74:	06013503          	ld	a0,96(sp)
	if (!_M_is_local())
   17b78:	07010793          	addi	a5,sp,112
   17b7c:	00f50463          	beq	a0,a5,17b84 <dwarf::compilation_unit::compilation_unit(dwarf::dwarf const&, unsigned long)+0x35c>
   17b80:	991fe0ef          	jal	ra,16510 <operator delete(void*)@plt>
   17b84:	0002a617          	auipc	a2,0x2a
   17b88:	7fc63603          	ld	a2,2044(a2) # 42380 <dwarf::format_error::~format_error()@@Base+0x27a0c>
   17b8c:	0002a597          	auipc	a1,0x2a
   17b90:	7245b583          	ld	a1,1828(a1) # 422b0 <typeinfo for dwarf::format_error@@Base+0x9f8>
   17b94:	00090513          	addi	a0,s2,0
   17b98:	b29fe0ef          	jal	ra,166c0 <__cxa_throw@plt>
	if (_M_pi != nullptr)
   17b9c:	00050413          	addi	s0,a0,0
   17ba0:	4480006f          	jal	zero,17fe8 <dwarf::compilation_unit::compilation_unit(dwarf::dwarf const&, unsigned long)+0x7c0>
  section_offset debug_abbrev_offset = sub.offset();
   17ba4:	00050a93          	addi	s5,a0,0
    if ((section_offset)(sec->end - pos) < bytes || pos >= sec->end)
   17ba8:	02813783          	ld	a5,40(sp)
   17bac:	0107b703          	ld	a4,16(a5)
   17bb0:	03813783          	ld	a5,56(sp)
   17bb4:	00e7e663          	bltu	a5,a4,17bc0 <dwarf::compilation_unit::compilation_unit(dwarf::dwarf const&, unsigned long)+0x398>
      underflow();
   17bb8:	02810513          	addi	a0,sp,40
   17bbc:	591040ef          	jal	ra,1c94c <dwarf::cursor::underflow()>
    const unsigned char *p = (const unsigned char *)pos;
   17bc0:	03813783          	ld	a5,56(sp)
      { return _M_ptr; }
   17bc4:	02813703          	ld	a4,40(sp)
    if (sec->ord == byte_order::lsb) {
   17bc8:	01c72683          	lw	a3,28(a4)
   17bcc:	48068063          	beq	a3,zero,1804c <dwarf::compilation_unit::compilation_unit(dwarf::dwarf const&, unsigned long)+0x824>
        val = (val << 8) | (uint64_t)p[i];
   17bd0:	0007c603          	lbu	a2,0(a5)
      for (unsigned i = 0; i < sizeof(T); i++)
   17bd4:	47c0006f          	jal	zero,18050 <dwarf::compilation_unit::compilation_unit(dwarf::dwarf const&, unsigned long)+0x828>
	return static_cast<_Tp*>(_GLIBCXX_OPERATOR_NEW(__n * sizeof(_Tp)));
   17bd8:	00050413          	addi	s0,a0,0
   17bdc:	00052423          	sw	zero,8(a0)
   17be0:	00052623          	sw	zero,12(a0)
   17be4:	00052823          	sw	zero,16(a0)
   17be8:	00052a23          	sw	zero,20(a0)
   17bec:	00052c23          	sw	zero,24(a0)
   17bf0:	00052e23          	sw	zero,28(a0)
   17bf4:	02053023          	sd	zero,32(a0)
   17bf8:	02053423          	sd	zero,40(a0)
      : _M_use_count(1), _M_weak_count(1) { }
   17bfc:	00100793          	addi	a5,zero,1
   17c00:	02f52823          	sw	a5,48(a0)
   17c04:	02f52a23          	sw	a5,52(a0)
	: _M_impl(__a)
   17c08:	0002b797          	auipc	a5,0x2b
   17c0c:	8307b783          	ld	a5,-2000(a5) # 42438 <vtable for std::_Sp_counted_ptr_inplace<dwarf::unit::impl, std::allocator<void>, (__gnu_cxx::_Lock_policy)1>@@Base+0xa50>
   17c10:	01078793          	addi	a5,a5,16
   17c14:	00f53023          	sd	a5,0(a0)
   17c18:	03850b13          	addi	s6,a0,56
      __shared_ptr(const __shared_ptr&) noexcept = default;
   17c1c:	00093783          	ld	a5,0(s2)
   17c20:	02f53c23          	sd	a5,56(a0)
      : _M_pi(__r._M_pi)
   17c24:	00893503          	ld	a0,8(s2)
   17c28:	04a43023          	sd	a0,64(s0)
	if (_M_pi != nullptr)
   17c2c:	02050063          	beq	a0,zero,17c4c <dwarf::compilation_unit::compilation_unit(dwarf::dwarf const&, unsigned long)+0x424>
    if (__is_single_threaded())
   17c30:	0002b797          	auipc	a5,0x2b
   17c34:	8507b783          	ld	a5,-1968(a5) # 42480 <__libc_single_threaded@GLIBC_2.32-0x1a0>
   17c38:	0007c783          	lbu	a5,0(a5)
   17c3c:	1a078863          	beq	a5,zero,17dec <dwarf::compilation_unit::compilation_unit(dwarf::dwarf const&, unsigned long)+0x5c4>
  { *__mem += __val; }
   17c40:	03052783          	lw	a5,48(a0)
   17c44:	0017879b          	addiw	a5,a5,1
   17c48:	02f52823          	sw	a5,48(a0)
      : file(file), offset(offset), subsec(subsec),
   17c4c:	05343423          	sd	s3,72(s0)
      __shared_ptr(const __shared_ptr&) noexcept = default;
   17c50:	00013783          	ld	a5,0(sp)
   17c54:	04f43823          	sd	a5,80(s0)
      : _M_pi(__r._M_pi)
   17c58:	00813503          	ld	a0,8(sp)
   17c5c:	04a43c23          	sd	a0,88(s0)
	if (_M_pi != nullptr)
   17c60:	02050063          	beq	a0,zero,17c80 <dwarf::compilation_unit::compilation_unit(dwarf::dwarf const&, unsigned long)+0x458>
    if (__is_single_threaded())
   17c64:	0002b797          	auipc	a5,0x2b
   17c68:	81c7b783          	ld	a5,-2020(a5) # 42480 <__libc_single_threaded@GLIBC_2.32-0x1a0>
   17c6c:	0007c783          	lbu	a5,0(a5)
   17c70:	18078663          	beq	a5,zero,17dfc <dwarf::compilation_unit::compilation_unit(dwarf::dwarf const&, unsigned long)+0x5d4>
  { *__mem += __val; }
   17c74:	03052783          	lw	a5,48(a0)
   17c78:	0017879b          	addiw	a5,a5,1
   17c7c:	02f52823          	sw	a5,48(a0)
        debug_abbrev_offset(debug_abbrev_offset), root_offset(root_offset),
   17c80:	07543023          	sd	s5,96(s0)
   17c84:	07443423          	sd	s4,104(s0)
        type_signature(type_signature), type_offset(type_offset),
   17c88:	06043823          	sd	zero,112(s0)
   17c8c:	06043c23          	sd	zero,120(s0)
  die() : cu(nullptr), abbrev(nullptr) {}
   17c90:	08043423          	sd	zero,136(s0)
   17c94:	08043823          	sd	zero,144(s0)
  typedef T value_type;
  typedef value_type &reference;
  typedef const value_type &const_reference;
  typedef size_t size_type;

  small_vector() : base((T *)buf), end(base), cap((T *)&buf[sizeof(T[Min])]) {}
   17c98:	0a040793          	addi	a5,s0,160
   17c9c:	0cf43823          	sd	a5,208(s0)
   17ca0:	0cf43c23          	sd	a5,216(s0)
   17ca4:	0d040793          	addi	a5,s0,208
   17ca8:	0ef43023          	sd	a5,224(s0)
   17cac:	0e043c23          	sd	zero,248(s0)
   17cb0:	10043023          	sd	zero,256(s0)
   17cb4:	11040793          	addi	a5,s0,272
   17cb8:	14f43023          	sd	a5,320(s0)
   17cbc:	14f43423          	sd	a5,328(s0)
   17cc0:	14040793          	addi	a5,s0,320
   17cc4:	14f43823          	sd	a5,336(s0)
      : _M_ptr(0), _M_refcount()
   17cc8:	16043023          	sd	zero,352(s0)
      constexpr __shared_count() noexcept : _M_pi(0)
   17ccc:	16043423          	sd	zero,360(s0)
        have_abbrevs(false) {}
   17cd0:	16040823          	sb	zero,368(s0)
   17cd4:	16043c23          	sd	zero,376(s0)
   17cd8:	18043023          	sd	zero,384(s0)
   17cdc:	18043423          	sd	zero,392(s0)
		   const _Hash&, const _Equal&, const allocator_type&,
		   false_type __uks);

    public:
      // Constructor, destructor, assignment, swap
      _Hashtable() = default;
   17ce0:	1c040793          	addi	a5,s0,448
   17ce4:	18f43823          	sd	a5,400(s0)
   17ce8:	00100793          	addi	a5,zero,1
   17cec:	18f43c23          	sd	a5,408(s0)
   */
  struct _Hash_node_base
  {
    _Hash_node_base* _M_nxt;

    _Hash_node_base() noexcept : _M_nxt() { }
   17cf0:	1a043023          	sd	zero,416(s0)
   17cf4:	1a043423          	sd	zero,424(s0)
  struct _Prime_rehash_policy
  {
    using __has_load_factor = true_type;

    _Prime_rehash_policy(float __z = 1.0) noexcept
    : _M_max_load_factor(__z), _M_next_resize(0) { }
   17cf8:	0001f797          	auipc	a5,0x1f
   17cfc:	de87a787          	flw	fa5,-536(a5) # 36ae0 <std::__detail::__to_chars_10_impl<unsigned int>(char*, unsigned int, unsigned int)::__digits+0xf0>
   17d00:	1af42827          	fsw	fa5,432(s0)
   17d04:	1a043c23          	sd	zero,440(s0)
   17d08:	1c043023          	sd	zero,448(s0)
   17d0c:	0164b423          	sd	s6,8(s1)
	_Sp_counted_base<_Lp>* __tmp = __r._M_pi;
   17d10:	0104b903          	ld	s2,16(s1)
	__r._M_pi = _M_pi;
   17d14:	0084b823          	sd	s0,16(s1)
	if (_M_pi != nullptr)
   17d18:	02090463          	beq	s2,zero,17d40 <dwarf::compilation_unit::compilation_unit(dwarf::dwarf const&, unsigned long)+0x518>
    if (__is_single_threaded())
   17d1c:	0002a797          	auipc	a5,0x2a
   17d20:	7647b783          	ld	a5,1892(a5) # 42480 <__libc_single_threaded@GLIBC_2.32-0x1a0>
   17d24:	0007c783          	lbu	a5,0(a5)
   17d28:	0e078263          	beq	a5,zero,17e0c <dwarf::compilation_unit::compilation_unit(dwarf::dwarf const&, unsigned long)+0x5e4>
    _Atomic_word __result = *__mem;
   17d2c:	03092503          	lw	a0,48(s2)
    *__mem += __val;
   17d30:	fff5079b          	addiw	a5,a0,-1
   17d34:	02f92823          	sw	a5,48(s2)
      if (__gnu_cxx::__exchange_and_add_dispatch(&_M_use_count, -1) == 1)
   17d38:	00100793          	addi	a5,zero,1
   17d3c:	0ef50063          	beq	a0,a5,17e1c <dwarf::compilation_unit::compilation_unit(dwarf::dwarf const&, unsigned long)+0x5f4>
	if (_M_pi != nullptr)
   17d40:	03013403          	ld	s0,48(sp)
   17d44:	02040463          	beq	s0,zero,17d6c <dwarf::compilation_unit::compilation_unit(dwarf::dwarf const&, unsigned long)+0x544>
    if (__is_single_threaded())
   17d48:	0002a797          	auipc	a5,0x2a
   17d4c:	7387b783          	ld	a5,1848(a5) # 42480 <__libc_single_threaded@GLIBC_2.32-0x1a0>
   17d50:	0007c783          	lbu	a5,0(a5)
   17d54:	12078263          	beq	a5,zero,17e78 <dwarf::compilation_unit::compilation_unit(dwarf::dwarf const&, unsigned long)+0x650>
    _Atomic_word __result = *__mem;
   17d58:	03042503          	lw	a0,48(s0)
    *__mem += __val;
   17d5c:	fff5079b          	addiw	a5,a0,-1
   17d60:	02f42823          	sw	a5,48(s0)
      if (__gnu_cxx::__exchange_and_add_dispatch(&_M_use_count, -1) == 1)
   17d64:	00100793          	addi	a5,zero,1
   17d68:	12f50063          	beq	a0,a5,17e88 <dwarf::compilation_unit::compilation_unit(dwarf::dwarf const&, unsigned long)+0x660>
	if (_M_pi != nullptr)
   17d6c:	00813403          	ld	s0,8(sp)
   17d70:	02040463          	beq	s0,zero,17d98 <dwarf::compilation_unit::compilation_unit(dwarf::dwarf const&, unsigned long)+0x570>
    if (__is_single_threaded())
   17d74:	0002a797          	auipc	a5,0x2a
   17d78:	70c7b783          	ld	a5,1804(a5) # 42480 <__libc_single_threaded@GLIBC_2.32-0x1a0>
   17d7c:	0007c783          	lbu	a5,0(a5)
   17d80:	16078263          	beq	a5,zero,17ee4 <dwarf::compilation_unit::compilation_unit(dwarf::dwarf const&, unsigned long)+0x6bc>
    _Atomic_word __result = *__mem;
   17d84:	03042503          	lw	a0,48(s0)
    *__mem += __val;
   17d88:	fff5079b          	addiw	a5,a0,-1
   17d8c:	02f42823          	sw	a5,48(s0)
      if (__gnu_cxx::__exchange_and_add_dispatch(&_M_use_count, -1) == 1)
   17d90:	00100793          	addi	a5,zero,1
   17d94:	16f50063          	beq	a0,a5,17ef4 <dwarf::compilation_unit::compilation_unit(dwarf::dwarf const&, unsigned long)+0x6cc>
	if (_M_pi != nullptr)
   17d98:	01813403          	ld	s0,24(sp)
   17d9c:	02040463          	beq	s0,zero,17dc4 <dwarf::compilation_unit::compilation_unit(dwarf::dwarf const&, unsigned long)+0x59c>
    if (__is_single_threaded())
   17da0:	0002a797          	auipc	a5,0x2a
   17da4:	6e07b783          	ld	a5,1760(a5) # 42480 <__libc_single_threaded@GLIBC_2.32-0x1a0>
   17da8:	0007c783          	lbu	a5,0(a5)
   17dac:	1a078263          	beq	a5,zero,17f50 <dwarf::compilation_unit::compilation_unit(dwarf::dwarf const&, unsigned long)+0x728>
    _Atomic_word __result = *__mem;
   17db0:	03042503          	lw	a0,48(s0)
    *__mem += __val;
   17db4:	fff5079b          	addiw	a5,a0,-1
   17db8:	02f42823          	sw	a5,48(s0)
      if (__gnu_cxx::__exchange_and_add_dispatch(&_M_use_count, -1) == 1)
   17dbc:	00100793          	addi	a5,zero,1
   17dc0:	1af50063          	beq	a0,a5,17f60 <dwarf::compilation_unit::compilation_unit(dwarf::dwarf const&, unsigned long)+0x738>
}
   17dc4:	0c813083          	ld	ra,200(sp)
   17dc8:	0c013403          	ld	s0,192(sp)
   17dcc:	0b813483          	ld	s1,184(sp)
   17dd0:	0b013903          	ld	s2,176(sp)
   17dd4:	0a813983          	ld	s3,168(sp)
   17dd8:	0a013a03          	ld	s4,160(sp)
   17ddc:	09813a83          	ld	s5,152(sp)
   17de0:	09013b03          	ld	s6,144(sp)
   17de4:	0d010113          	addi	sp,sp,208
   17de8:	00008067          	jalr	zero,0(ra)
      __atomic_add(__mem, __val);
   17dec:	00100593          	addi	a1,zero,1
   17df0:	03050513          	addi	a0,a0,48
   17df4:	d5cfe0ef          	jal	ra,16350 <__gnu_cxx::__atomic_add(int volatile*, int)@plt>
   17df8:	e55ff06f          	jal	zero,17c4c <dwarf::compilation_unit::compilation_unit(dwarf::dwarf const&, unsigned long)+0x424>
   17dfc:	00100593          	addi	a1,zero,1
   17e00:	03050513          	addi	a0,a0,48
   17e04:	d4cfe0ef          	jal	ra,16350 <__gnu_cxx::__atomic_add(int volatile*, int)@plt>
   17e08:	e79ff06f          	jal	zero,17c80 <dwarf::compilation_unit::compilation_unit(dwarf::dwarf const&, unsigned long)+0x458>
      return __exchange_and_add(__mem, __val);
   17e0c:	fff00593          	addi	a1,zero,-1
   17e10:	03090513          	addi	a0,s2,48
   17e14:	d6cfe0ef          	jal	ra,16380 <__gnu_cxx::__exchange_and_add(int volatile*, int)@plt>
   17e18:	f21ff06f          	jal	zero,17d38 <dwarf::compilation_unit::compilation_unit(dwarf::dwarf const&, unsigned long)+0x510>
	_M_dispose();
   17e1c:	00093783          	ld	a5,0(s2)
   17e20:	0107b783          	ld	a5,16(a5)
   17e24:	00090513          	addi	a0,s2,0
   17e28:	000780e7          	jalr	ra,0(a5)
	    __atomic_thread_fence (__ATOMIC_ACQ_REL);
   17e2c:	0ff0000f          	fence	iorw,iorw
    if (__is_single_threaded())
   17e30:	0002a797          	auipc	a5,0x2a
   17e34:	6507b783          	ld	a5,1616(a5) # 42480 <__libc_single_threaded@GLIBC_2.32-0x1a0>
   17e38:	0007c783          	lbu	a5,0(a5)
   17e3c:	02078663          	beq	a5,zero,17e68 <dwarf::compilation_unit::compilation_unit(dwarf::dwarf const&, unsigned long)+0x640>
    _Atomic_word __result = *__mem;
   17e40:	03492503          	lw	a0,52(s2)
    *__mem += __val;
   17e44:	fff5079b          	addiw	a5,a0,-1
   17e48:	02f92a23          	sw	a5,52(s2)
	if (__gnu_cxx::__exchange_and_add_dispatch(&_M_weak_count,
   17e4c:	00100793          	addi	a5,zero,1
   17e50:	eef518e3          	bne	a0,a5,17d40 <dwarf::compilation_unit::compilation_unit(dwarf::dwarf const&, unsigned long)+0x518>
	    _M_destroy();
   17e54:	00093783          	ld	a5,0(s2)
   17e58:	0187b783          	ld	a5,24(a5)
   17e5c:	00090513          	addi	a0,s2,0
   17e60:	000780e7          	jalr	ra,0(a5)
   17e64:	eddff06f          	jal	zero,17d40 <dwarf::compilation_unit::compilation_unit(dwarf::dwarf const&, unsigned long)+0x518>
      return __exchange_and_add(__mem, __val);
   17e68:	fff00593          	addi	a1,zero,-1
   17e6c:	03490513          	addi	a0,s2,52
   17e70:	d10fe0ef          	jal	ra,16380 <__gnu_cxx::__exchange_and_add(int volatile*, int)@plt>
   17e74:	fd9ff06f          	jal	zero,17e4c <dwarf::compilation_unit::compilation_unit(dwarf::dwarf const&, unsigned long)+0x624>
   17e78:	fff00593          	addi	a1,zero,-1
   17e7c:	03040513          	addi	a0,s0,48
   17e80:	d00fe0ef          	jal	ra,16380 <__gnu_cxx::__exchange_and_add(int volatile*, int)@plt>
   17e84:	ee1ff06f          	jal	zero,17d64 <dwarf::compilation_unit::compilation_unit(dwarf::dwarf const&, unsigned long)+0x53c>
	_M_dispose();
   17e88:	00043783          	ld	a5,0(s0)
   17e8c:	0107b783          	ld	a5,16(a5)
   17e90:	00040513          	addi	a0,s0,0
   17e94:	000780e7          	jalr	ra,0(a5)
	    __atomic_thread_fence (__ATOMIC_ACQ_REL);
   17e98:	0ff0000f          	fence	iorw,iorw
    if (__is_single_threaded())
   17e9c:	0002a797          	auipc	a5,0x2a
   17ea0:	5e47b783          	ld	a5,1508(a5) # 42480 <__libc_single_threaded@GLIBC_2.32-0x1a0>
   17ea4:	0007c783          	lbu	a5,0(a5)
   17ea8:	02078663          	beq	a5,zero,17ed4 <dwarf::compilation_unit::compilation_unit(dwarf::dwarf const&, unsigned long)+0x6ac>
    _Atomic_word __result = *__mem;
   17eac:	03442503          	lw	a0,52(s0)
    *__mem += __val;
   17eb0:	fff5079b          	addiw	a5,a0,-1
   17eb4:	02f42a23          	sw	a5,52(s0)
	if (__gnu_cxx::__exchange_and_add_dispatch(&_M_weak_count,
   17eb8:	00100793          	addi	a5,zero,1
   17ebc:	eaf518e3          	bne	a0,a5,17d6c <dwarf::compilation_unit::compilation_unit(dwarf::dwarf const&, unsigned long)+0x544>
	    _M_destroy();
   17ec0:	00043783          	ld	a5,0(s0)
   17ec4:	0187b783          	ld	a5,24(a5)
   17ec8:	00040513          	addi	a0,s0,0
   17ecc:	000780e7          	jalr	ra,0(a5)
   17ed0:	e9dff06f          	jal	zero,17d6c <dwarf::compilation_unit::compilation_unit(dwarf::dwarf const&, unsigned long)+0x544>
      return __exchange_and_add(__mem, __val);
   17ed4:	fff00593          	addi	a1,zero,-1
   17ed8:	03440513          	addi	a0,s0,52
   17edc:	ca4fe0ef          	jal	ra,16380 <__gnu_cxx::__exchange_and_add(int volatile*, int)@plt>
   17ee0:	fd9ff06f          	jal	zero,17eb8 <dwarf::compilation_unit::compilation_unit(dwarf::dwarf const&, unsigned long)+0x690>
   17ee4:	fff00593          	addi	a1,zero,-1
   17ee8:	03040513          	addi	a0,s0,48
   17eec:	c94fe0ef          	jal	ra,16380 <__gnu_cxx::__exchange_and_add(int volatile*, int)@plt>
   17ef0:	ea1ff06f          	jal	zero,17d90 <dwarf::compilation_unit::compilation_unit(dwarf::dwarf const&, unsigned long)+0x568>
	_M_dispose();
   17ef4:	00043783          	ld	a5,0(s0)
   17ef8:	0107b783          	ld	a5,16(a5)
   17efc:	00040513          	addi	a0,s0,0
   17f00:	000780e7          	jalr	ra,0(a5)
	    __atomic_thread_fence (__ATOMIC_ACQ_REL);
   17f04:	0ff0000f          	fence	iorw,iorw
    if (__is_single_threaded())
   17f08:	0002a797          	auipc	a5,0x2a
   17f0c:	5787b783          	ld	a5,1400(a5) # 42480 <__libc_single_threaded@GLIBC_2.32-0x1a0>
   17f10:	0007c783          	lbu	a5,0(a5)
   17f14:	02078663          	beq	a5,zero,17f40 <dwarf::compilation_unit::compilation_unit(dwarf::dwarf const&, unsigned long)+0x718>
    _Atomic_word __result = *__mem;
   17f18:	03442503          	lw	a0,52(s0)
    *__mem += __val;
   17f1c:	fff5079b          	addiw	a5,a0,-1
   17f20:	02f42a23          	sw	a5,52(s0)
	if (__gnu_cxx::__exchange_and_add_dispatch(&_M_weak_count,
   17f24:	00100793          	addi	a5,zero,1
   17f28:	e6f518e3          	bne	a0,a5,17d98 <dwarf::compilation_unit::compilation_unit(dwarf::dwarf const&, unsigned long)+0x570>
	    _M_destroy();
   17f2c:	00043783          	ld	a5,0(s0)
   17f30:	0187b783          	ld	a5,24(a5)
   17f34:	00040513          	addi	a0,s0,0
   17f38:	000780e7          	jalr	ra,0(a5)
   17f3c:	e5dff06f          	jal	zero,17d98 <dwarf::compilation_unit::compilation_unit(dwarf::dwarf const&, unsigned long)+0x570>
      return __exchange_and_add(__mem, __val);
   17f40:	fff00593          	addi	a1,zero,-1
   17f44:	03440513          	addi	a0,s0,52
   17f48:	c38fe0ef          	jal	ra,16380 <__gnu_cxx::__exchange_and_add(int volatile*, int)@plt>
   17f4c:	fd9ff06f          	jal	zero,17f24 <dwarf::compilation_unit::compilation_unit(dwarf::dwarf const&, unsigned long)+0x6fc>
   17f50:	fff00593          	addi	a1,zero,-1
   17f54:	03040513          	addi	a0,s0,48
   17f58:	c28fe0ef          	jal	ra,16380 <__gnu_cxx::__exchange_and_add(int volatile*, int)@plt>
   17f5c:	e61ff06f          	jal	zero,17dbc <dwarf::compilation_unit::compilation_unit(dwarf::dwarf const&, unsigned long)+0x594>
	_M_dispose();
   17f60:	00043783          	ld	a5,0(s0)
   17f64:	0107b783          	ld	a5,16(a5)
   17f68:	00040513          	addi	a0,s0,0
   17f6c:	000780e7          	jalr	ra,0(a5)
	    __atomic_thread_fence (__ATOMIC_ACQ_REL);
   17f70:	0ff0000f          	fence	iorw,iorw
    if (__is_single_threaded())
   17f74:	0002a797          	auipc	a5,0x2a
   17f78:	50c7b783          	ld	a5,1292(a5) # 42480 <__libc_single_threaded@GLIBC_2.32-0x1a0>
   17f7c:	0007c783          	lbu	a5,0(a5)
   17f80:	02078663          	beq	a5,zero,17fac <dwarf::compilation_unit::compilation_unit(dwarf::dwarf const&, unsigned long)+0x784>
    _Atomic_word __result = *__mem;
   17f84:	03442503          	lw	a0,52(s0)
    *__mem += __val;
   17f88:	fff5079b          	addiw	a5,a0,-1
   17f8c:	02f42a23          	sw	a5,52(s0)
	if (__gnu_cxx::__exchange_and_add_dispatch(&_M_weak_count,
   17f90:	00100793          	addi	a5,zero,1
   17f94:	e2f518e3          	bne	a0,a5,17dc4 <dwarf::compilation_unit::compilation_unit(dwarf::dwarf const&, unsigned long)+0x59c>
	    _M_destroy();
   17f98:	00043783          	ld	a5,0(s0)
   17f9c:	0187b783          	ld	a5,24(a5)
   17fa0:	00040513          	addi	a0,s0,0
   17fa4:	000780e7          	jalr	ra,0(a5)
   17fa8:	e1dff06f          	jal	zero,17dc4 <dwarf::compilation_unit::compilation_unit(dwarf::dwarf const&, unsigned long)+0x59c>
      return __exchange_and_add(__mem, __val);
   17fac:	fff00593          	addi	a1,zero,-1
   17fb0:	03440513          	addi	a0,s0,52
   17fb4:	bccfe0ef          	jal	ra,16380 <__gnu_cxx::__exchange_and_add(int volatile*, int)@plt>
   17fb8:	fd9ff06f          	jal	zero,17f90 <dwarf::compilation_unit::compilation_unit(dwarf::dwarf const&, unsigned long)+0x768>
      { return _M_dataplus._M_p; }
   17fbc:	00050413          	addi	s0,a0,0
   17fc0:	04013503          	ld	a0,64(sp)
	if (!_M_is_local())
   17fc4:	05010793          	addi	a5,sp,80
   17fc8:	00f50463          	beq	a0,a5,17fd0 <dwarf::compilation_unit::compilation_unit(dwarf::dwarf const&, unsigned long)+0x7a8>
	_GLIBCXX_OPERATOR_DELETE(_GLIBCXX_SIZED_DEALLOC(__p, __n));
   17fcc:	d44fe0ef          	jal	ra,16510 <operator delete(void*)@plt>
      { return _M_dataplus._M_p; }
   17fd0:	06013503          	ld	a0,96(sp)
	if (!_M_is_local())
   17fd4:	07010793          	addi	a5,sp,112
   17fd8:	00f50463          	beq	a0,a5,17fe0 <dwarf::compilation_unit::compilation_unit(dwarf::dwarf const&, unsigned long)+0x7b8>
   17fdc:	d34fe0ef          	jal	ra,16510 <operator delete(void*)@plt>
                       std::to_string(version));
   17fe0:	00090513          	addi	a0,s2,0
   17fe4:	cecfe0ef          	jal	ra,164d0 <__cxa_free_exception@plt>
	if (_M_pi != nullptr)
   17fe8:	03013503          	ld	a0,48(sp)
   17fec:	00050863          	beq	a0,zero,17ffc <dwarf::compilation_unit::compilation_unit(dwarf::dwarf const&, unsigned long)+0x7d4>
	  _M_pi->_M_release();
   17ff0:	0002a317          	auipc	t1,0x2a
   17ff4:	3d833303          	ld	t1,984(t1) # 423c8 <std::_Sp_counted_base<(__gnu_cxx::_Lock_policy)1>::_M_release()@@Base+0x2b554>
   17ff8:	000300e7          	jalr	ra,0(t1)
	if (_M_pi != nullptr)
   17ffc:	00813503          	ld	a0,8(sp)
   18000:	00050863          	beq	a0,zero,18010 <dwarf::compilation_unit::compilation_unit(dwarf::dwarf const&, unsigned long)+0x7e8>
	  _M_pi->_M_release();
   18004:	0002a317          	auipc	t1,0x2a
   18008:	3c433303          	ld	t1,964(t1) # 423c8 <std::_Sp_counted_base<(__gnu_cxx::_Lock_policy)1>::_M_release()@@Base+0x2b554>
   1800c:	000300e7          	jalr	ra,0(t1)
	if (_M_pi != nullptr)
   18010:	01813503          	ld	a0,24(sp)
   18014:	00050863          	beq	a0,zero,18024 <dwarf::compilation_unit::compilation_unit(dwarf::dwarf const&, unsigned long)+0x7fc>
	  _M_pi->_M_release();
   18018:	0002a317          	auipc	t1,0x2a
   1801c:	3b033303          	ld	t1,944(t1) # 423c8 <std::_Sp_counted_base<(__gnu_cxx::_Lock_policy)1>::_M_release()@@Base+0x2b554>
   18020:	000300e7          	jalr	ra,0(t1)
}
   18024:	00048513          	addi	a0,s1,0
   18028:	a18ff0ef          	jal	ra,17240 <dwarf::unit::~unit()>
   1802c:	00040513          	addi	a0,s0,0
   18030:	ec0fe0ef          	jal	ra,166f0 <_Unwind_Resume@plt>
      { return _M_dataplus._M_p; }
   18034:	00050413          	addi	s0,a0,0
   18038:	f99ff06f          	jal	zero,17fd0 <dwarf::compilation_unit::compilation_unit(dwarf::dwarf const&, unsigned long)+0x7a8>
	if (_M_pi != nullptr)
   1803c:	00050413          	addi	s0,a0,0
   18040:	fd1ff06f          	jal	zero,18010 <dwarf::compilation_unit::compilation_unit(dwarf::dwarf const&, unsigned long)+0x7e8>
   18044:	00050413          	addi	s0,a0,0
   18048:	fddff06f          	jal	zero,18024 <dwarf::compilation_unit::compilation_unit(dwarf::dwarf const&, unsigned long)+0x7fc>
        val |= ((uint64_t)p[i]) << (i * 8);
   1804c:	0007c603          	lbu	a2,0(a5)
    pos += sizeof(T);
   18050:	00178793          	addi	a5,a5,1
   18054:	02f13c23          	sd	a5,56(sp)
  subsec->addr_size = address_size;
   18058:	00013683          	ld	a3,0(sp)
   1805c:	02c6a023          	sw	a2,32(a3)

  bool end() const { return pos >= sec->end; }

  bool valid() const { return !!pos; }

  section_offset get_section_offset() const { return pos - sec->begin; }
   18060:	00873703          	ld	a4,8(a4)
   18064:	40e78a33          	sub	s4,a5,a4
	return static_cast<_Tp*>(_GLIBCXX_OPERATOR_NEW(__n * sizeof(_Tp)));
   18068:	1c800513          	addi	a0,zero,456
   1806c:	cb4fe0ef          	jal	ra,16520 <operator new(unsigned long)@plt>
   18070:	b69ff06f          	jal	zero,17bd8 <dwarf::compilation_unit::compilation_unit(dwarf::dwarf const&, unsigned long)+0x3b0>
      __shared_ptr(const __shared_ptr&) noexcept = default;
   18074:	03413423          	sd	s4,40(sp)
      : _M_pi(__r._M_pi)
   18078:	02013823          	sd	zero,48(sp)
      : sec(sec), pos(sec->begin + offset) {}
   1807c:	008a3783          	ld	a5,8(s4)
   18080:	02f13c23          	sd	a5,56(sp)
  sub.skip_initial_length();
   18084:	02810513          	addi	a0,sp,40
   18088:	72c040ef          	jal	ra,1c7b4 <dwarf::cursor::skip_initial_length()>
   1808c:	9edff06f          	jal	zero,17a78 <dwarf::compilation_unit::compilation_unit(dwarf::dwarf const&, unsigned long)+0x250>

0000000000018090 <dwarf::dwarf::dwarf(std::shared_ptr<dwarf::loader> const&)>:
dwarf::dwarf(const std::shared_ptr<loader> &l) : m(make_shared<impl>(l)) {
   18090:	f6010113          	addi	sp,sp,-160
   18094:	08113c23          	sd	ra,152(sp)
   18098:	08813823          	sd	s0,144(sp)
   1809c:	08913423          	sd	s1,136(sp)
   180a0:	09213023          	sd	s2,128(sp)
   180a4:	07313c23          	sd	s3,120(sp)
   180a8:	07413823          	sd	s4,112(sp)
   180ac:	07513423          	sd	s5,104(sp)
   180b0:	07613023          	sd	s6,96(sp)
   180b4:	05713c23          	sd	s7,88(sp)
   180b8:	00050493          	addi	s1,a0,0
   180bc:	00058913          	addi	s2,a1,0

    protected:
      // This constructor is non-standard, it is used by allocate_shared.
      template<typename _Alloc, typename... _Args>
	__shared_ptr(_Sp_alloc_shared_tag<_Alloc> __tag, _Args&&... __args)
	: _M_ptr(), _M_refcount(_M_ptr, __tag, std::forward<_Args>(__args)...)
   180c0:	00053023          	sd	zero,0(a0)
   180c4:	0f000513          	addi	a0,zero,240
   180c8:	c58fe0ef          	jal	ra,16520 <operator new(unsigned long)@plt>
   180cc:	00050413          	addi	s0,a0,0
   180d0:	00052423          	sw	zero,8(a0)
   180d4:	00052623          	sw	zero,12(a0)
   180d8:	00052823          	sw	zero,16(a0)
   180dc:	00052a23          	sw	zero,20(a0)
   180e0:	00052c23          	sw	zero,24(a0)
   180e4:	00052e23          	sw	zero,28(a0)
   180e8:	02053023          	sd	zero,32(a0)
   180ec:	02053423          	sd	zero,40(a0)
      : _M_use_count(1), _M_weak_count(1) { }
   180f0:	00100793          	addi	a5,zero,1
   180f4:	02f52823          	sw	a5,48(a0)
   180f8:	02f52a23          	sw	a5,52(a0)
	: _M_impl(__a)
   180fc:	0002a797          	auipc	a5,0x2a
   18100:	4347b783          	ld	a5,1076(a5) # 42530 <vtable for std::_Sp_counted_ptr_inplace<dwarf::dwarf::impl, std::allocator<void>, (__gnu_cxx::_Lock_policy)1>@@Base+0xb80>
   18104:	01078793          	addi	a5,a5,16
   18108:	00f53023          	sd	a5,0(a0)
   1810c:	03850993          	addi	s3,a0,56
      __shared_ptr(const __shared_ptr&) noexcept = default;
   18110:	00093783          	ld	a5,0(s2)
   18114:	02f53c23          	sd	a5,56(a0)
      : _M_pi(__r._M_pi)
   18118:	00893503          	ld	a0,8(s2)
   1811c:	04a43023          	sd	a0,64(s0)
	if (_M_pi != nullptr)
   18120:	02050063          	beq	a0,zero,18140 <dwarf::dwarf::dwarf(std::shared_ptr<dwarf::loader> const&)+0xb0>
    if (__is_single_threaded())
   18124:	0002a797          	auipc	a5,0x2a
   18128:	35c7b783          	ld	a5,860(a5) # 42480 <__libc_single_threaded@GLIBC_2.32-0x1a0>
   1812c:	0007c783          	lbu	a5,0(a5)
   18130:	08078c63          	beq	a5,zero,181c8 <dwarf::dwarf::dwarf(std::shared_ptr<dwarf::loader> const&)+0x138>
  { *__mem += __val; }
   18134:	03052783          	lw	a5,48(a0)
   18138:	0017879b          	addiw	a5,a5,1
   1813c:	02f52823          	sw	a5,48(a0)
      : _M_ptr(0), _M_refcount()
   18140:	04043423          	sd	zero,72(s0)
      constexpr __shared_count() noexcept : _M_pi(0)
   18144:	04043823          	sd	zero,80(s0)
      : _M_ptr(0), _M_refcount()
   18148:	04043c23          	sd	zero,88(s0)
      constexpr __shared_count() noexcept : _M_pi(0)
   1814c:	06043023          	sd	zero,96(s0)
   18150:	06043423          	sd	zero,104(s0)
   18154:	06043823          	sd	zero,112(s0)
   18158:	06043c23          	sd	zero,120(s0)
   1815c:	0b040793          	addi	a5,s0,176
   18160:	08f43023          	sd	a5,128(s0)
   18164:	00100793          	addi	a5,zero,1
   18168:	08f43423          	sd	a5,136(s0)
    _Hash_node_base() noexcept : _M_nxt() { }
   1816c:	08043823          	sd	zero,144(s0)
   18170:	08043c23          	sd	zero,152(s0)
    : _M_max_load_factor(__z), _M_next_resize(0) { }
   18174:	0001f797          	auipc	a5,0x1f
   18178:	96c7a787          	flw	fa5,-1684(a5) # 36ae0 <std::__detail::__to_chars_10_impl<unsigned int>(char*, unsigned int, unsigned int)::__digits+0xf0>
   1817c:	0af42027          	fsw	fa5,160(s0)
   18180:	0a043423          	sd	zero,168(s0)
   18184:	0a043823          	sd	zero,176(s0)
  impl(const std::shared_ptr<loader> &l) : l(l), have_type_units(false) {}
   18188:	0a040c23          	sb	zero,184(s0)
      _M_header._M_color = _S_red;
   1818c:	0c042423          	sw	zero,200(s0)
      _M_header._M_parent = 0;
   18190:	0c043823          	sd	zero,208(s0)
      _M_header._M_left = &_M_header;
   18194:	0c840793          	addi	a5,s0,200
   18198:	0cf43c23          	sd	a5,216(s0)
      _M_header._M_right = &_M_header;
   1819c:	0ef43023          	sd	a5,224(s0)
      _M_node_count = 0;
   181a0:	0e043423          	sd	zero,232(s0)
	  _M_pi = __pi;
   181a4:	0084b423          	sd	s0,8(s1)
	  __p = __pi->_M_ptr();
   181a8:	0134b023          	sd	s3,0(s1)
      { return _M_ptr; }
   181ac:	00093503          	ld	a0,0(s2)
  data = l->load(section_type::info, &size);
   181b0:	00053783          	ld	a5,0(a0)
   181b4:	0107b783          	ld	a5,16(a5)
   181b8:	00010613          	addi	a2,sp,0
   181bc:	00300593          	addi	a1,zero,3
   181c0:	000780e7          	jalr	ra,0(a5)
   181c4:	0140006f          	jal	zero,181d8 <dwarf::dwarf::dwarf(std::shared_ptr<dwarf::loader> const&)+0x148>
      __atomic_add(__mem, __val);
   181c8:	00100593          	addi	a1,zero,1
   181cc:	03050513          	addi	a0,a0,48
   181d0:	980fe0ef          	jal	ra,16350 <__gnu_cxx::__atomic_add(int volatile*, int)@plt>
   181d4:	f6dff06f          	jal	zero,18140 <dwarf::dwarf::dwarf(std::shared_ptr<dwarf::loader> const&)+0xb0>
   181d8:	00050413          	addi	s0,a0,0
  if (!data)
   181dc:	00050a63          	beq	a0,zero,181f0 <dwarf::dwarf::dwarf(std::shared_ptr<dwarf::loader> const&)+0x160>
   181e0:	0004ba03          	ld	s4,0(s1)
   181e4:	06000513          	addi	a0,zero,96
   181e8:	b38fe0ef          	jal	ra,16520 <operator new(unsigned long)@plt>
   181ec:	04c0006f          	jal	zero,18238 <dwarf::dwarf::dwarf(std::shared_ptr<dwarf::loader> const&)+0x1a8>
    throw format_error("required .debug_info section missing");
   181f0:	01000513          	addi	a0,zero,16
   181f4:	a2cfe0ef          	jal	ra,16420 <__cxa_allocate_exception@plt>
   181f8:	00050913          	addi	s2,a0,0
  explicit format_error(const char *what_arg) : std::runtime_error(what_arg) {}
   181fc:	0001e597          	auipc	a1,0x1e
   18200:	61c58593          	addi	a1,a1,1564 # 36818 <std::_Sp_make_shared_tag::_S_ti()::__tag+0x70>
   18204:	d6cfe0ef          	jal	ra,16770 <std::runtime_error::runtime_error(char const*)@plt>
   18208:	0002a797          	auipc	a5,0x2a
   1820c:	3507b783          	ld	a5,848(a5) # 42558 <vtable for dwarf::format_error@@Base+0xc28>
   18210:	01078793          	addi	a5,a5,16
   18214:	00f93023          	sd	a5,0(s2)
   18218:	0002a617          	auipc	a2,0x2a
   1821c:	16863603          	ld	a2,360(a2) # 42380 <dwarf::format_error::~format_error()@@Base+0x27a0c>
   18220:	0002a597          	auipc	a1,0x2a
   18224:	0905b583          	ld	a1,144(a1) # 422b0 <typeinfo for dwarf::format_error@@Base+0x9f8>
   18228:	00090513          	addi	a0,s2,0
   1822c:	c94fe0ef          	jal	ra,166c0 <__cxa_throw@plt>
	if (_M_pi != nullptr)
   18230:	00050413          	addi	s0,a0,0
   18234:	1610006f          	jal	zero,18b94 <dwarf::dwarf::dwarf(std::shared_ptr<dwarf::loader> const&)+0xb04>
   18238:	00052423          	sw	zero,8(a0)
   1823c:	00052623          	sw	zero,12(a0)
   18240:	00052823          	sw	zero,16(a0)
   18244:	00052a23          	sw	zero,20(a0)
   18248:	00052c23          	sw	zero,24(a0)
   1824c:	00052e23          	sw	zero,28(a0)
   18250:	02053023          	sd	zero,32(a0)
   18254:	02053423          	sd	zero,40(a0)
      : _M_use_count(1), _M_weak_count(1) { }
   18258:	00100793          	addi	a5,zero,1
   1825c:	02f52823          	sw	a5,48(a0)
   18260:	02f52a23          	sw	a5,52(a0)
	: _M_impl(__a)
   18264:	0002a797          	auipc	a5,0x2a
   18268:	35c7b783          	ld	a5,860(a5) # 425c0 <vtable for std::_Sp_counted_ptr_inplace<dwarf::section, std::allocator<void>, (__gnu_cxx::_Lock_policy)1>@@Base+0xc48>
   1826c:	01078793          	addi	a5,a5,16
   18270:	00f53023          	sd	a5,0(a0)
      : type(type), begin((char *)begin), end((char *)begin + length), fmt(fmt),
   18274:	00300793          	addi	a5,zero,3
   18278:	02f52c23          	sw	a5,56(a0)
   1827c:	04853023          	sd	s0,64(a0)
   18280:	00013783          	ld	a5,0(sp)
   18284:	00f407b3          	add	a5,s0,a5
   18288:	04f53423          	sd	a5,72(a0)
   1828c:	04052823          	sw	zero,80(a0)
        ord(ord), addr_size(addr_size) {}
   18290:	04052a23          	sw	zero,84(a0)
   18294:	04052c23          	sw	zero,88(a0)
   18298:	03850793          	addi	a5,a0,56
   1829c:	00fa3823          	sd	a5,16(s4)
	_Sp_counted_base<_Lp>* __tmp = __r._M_pi;
   182a0:	018a3983          	ld	s3,24(s4)
	__r._M_pi = _M_pi;
   182a4:	00aa3c23          	sd	a0,24(s4)
	if (_M_pi != nullptr)
   182a8:	02098463          	beq	s3,zero,182d0 <dwarf::dwarf::dwarf(std::shared_ptr<dwarf::loader> const&)+0x240>
    if (__is_single_threaded())
   182ac:	0002a797          	auipc	a5,0x2a
   182b0:	1d47b783          	ld	a5,468(a5) # 42480 <__libc_single_threaded@GLIBC_2.32-0x1a0>
   182b4:	0007c783          	lbu	a5,0(a5)
   182b8:	0e078063          	beq	a5,zero,18398 <dwarf::dwarf::dwarf(std::shared_ptr<dwarf::loader> const&)+0x308>
    _Atomic_word __result = *__mem;
   182bc:	0309a503          	lw	a0,48(s3)
    *__mem += __val;
   182c0:	fff5079b          	addiw	a5,a0,-1
   182c4:	02f9a823          	sw	a5,48(s3)
      if (__gnu_cxx::__exchange_and_add_dispatch(&_M_use_count, -1) == 1)
   182c8:	00100793          	addi	a5,zero,1
   182cc:	0cf50e63          	beq	a0,a5,183a8 <dwarf::dwarf::dwarf(std::shared_ptr<dwarf::loader> const&)+0x318>
      { return _M_ptr; }
   182d0:	0004b783          	ld	a5,0(s1)
      __shared_ptr(const __shared_ptr&) noexcept = default;
   182d4:	0107ba03          	ld	s4,16(a5)
      : _M_pi(__r._M_pi)
   182d8:	0187b983          	ld	s3,24(a5)
	if (_M_pi != nullptr)
   182dc:	12098ae3          	beq	s3,zero,18c10 <dwarf::dwarf::dwarf(std::shared_ptr<dwarf::loader> const&)+0xb80>
    if (__is_single_threaded())
   182e0:	0002a797          	auipc	a5,0x2a
   182e4:	1a07b783          	ld	a5,416(a5) # 42480 <__libc_single_threaded@GLIBC_2.32-0x1a0>
   182e8:	0007c783          	lbu	a5,0(a5)
   182ec:	10078c63          	beq	a5,zero,18404 <dwarf::dwarf::dwarf(std::shared_ptr<dwarf::loader> const&)+0x374>
  { *__mem += __val; }
   182f0:	0309a783          	lw	a5,48(s3)
   182f4:	0017879b          	addiw	a5,a5,1
   182f8:	02f9a823          	sw	a5,48(s3)
      __shared_ptr(const __shared_ptr&) noexcept = default;
   182fc:	01413423          	sd	s4,8(sp)
      : _M_pi(__r._M_pi)
   18300:	01313823          	sd	s3,16(sp)
    if (__is_single_threaded())
   18304:	0002a797          	auipc	a5,0x2a
   18308:	17c7b783          	ld	a5,380(a5) # 42480 <__libc_single_threaded@GLIBC_2.32-0x1a0>
   1830c:	0007c783          	lbu	a5,0(a5)
   18310:	10078263          	beq	a5,zero,18414 <dwarf::dwarf::dwarf(std::shared_ptr<dwarf::loader> const&)+0x384>
  { *__mem += __val; }
   18314:	0309a783          	lw	a5,48(s3)
   18318:	0017879b          	addiw	a5,a5,1
   1831c:	02f9a823          	sw	a5,48(s3)
      : sec(sec), pos(sec->begin + offset) {}
   18320:	008a3783          	ld	a5,8(s4)
   18324:	00f13c23          	sd	a5,24(sp)
    if (__is_single_threaded())
   18328:	0002a797          	auipc	a5,0x2a
   1832c:	1587b783          	ld	a5,344(a5) # 42480 <__libc_single_threaded@GLIBC_2.32-0x1a0>
   18330:	0007c783          	lbu	a5,0(a5)
   18334:	0e078863          	beq	a5,zero,18424 <dwarf::dwarf::dwarf(std::shared_ptr<dwarf::loader> const&)+0x394>
    _Atomic_word __result = *__mem;
   18338:	0309a503          	lw	a0,48(s3)
    *__mem += __val;
   1833c:	fff5079b          	addiw	a5,a0,-1
   18340:	02f9a823          	sw	a5,48(s3)
      if (__gnu_cxx::__exchange_and_add_dispatch(&_M_use_count, -1) == 1)
   18344:	00100793          	addi	a5,zero,1
   18348:	0cf51ce3          	bne	a0,a5,18c20 <dwarf::dwarf::dwarf(std::shared_ptr<dwarf::loader> const&)+0xb90>
	_M_dispose();
   1834c:	0009b783          	ld	a5,0(s3)
   18350:	0107b783          	ld	a5,16(a5)
   18354:	00098513          	addi	a0,s3,0
   18358:	000780e7          	jalr	ra,0(a5)
	    __atomic_thread_fence (__ATOMIC_ACQ_REL);
   1835c:	0ff0000f          	fence	iorw,iorw
    if (__is_single_threaded())
   18360:	0002a797          	auipc	a5,0x2a
   18364:	1207b783          	ld	a5,288(a5) # 42480 <__libc_single_threaded@GLIBC_2.32-0x1a0>
   18368:	0007c783          	lbu	a5,0(a5)
   1836c:	0c078463          	beq	a5,zero,18434 <dwarf::dwarf::dwarf(std::shared_ptr<dwarf::loader> const&)+0x3a4>
    _Atomic_word __result = *__mem;
   18370:	0349a503          	lw	a0,52(s3)
    *__mem += __val;
   18374:	fff5079b          	addiw	a5,a0,-1
   18378:	02f9aa23          	sw	a5,52(s3)
	if (__gnu_cxx::__exchange_and_add_dispatch(&_M_weak_count,
   1837c:	00100793          	addi	a5,zero,1
   18380:	0af510e3          	bne	a0,a5,18c20 <dwarf::dwarf::dwarf(std::shared_ptr<dwarf::loader> const&)+0xb90>
	    _M_destroy();
   18384:	0009b783          	ld	a5,0(s3)
   18388:	0187b783          	ld	a5,24(a5)
   1838c:	00098513          	addi	a0,s3,0
   18390:	000780e7          	jalr	ra,0(a5)
   18394:	08d0006f          	jal	zero,18c20 <dwarf::dwarf::dwarf(std::shared_ptr<dwarf::loader> const&)+0xb90>
      return __exchange_and_add(__mem, __val);
   18398:	fff00593          	addi	a1,zero,-1
   1839c:	03098513          	addi	a0,s3,48
   183a0:	fe1fd0ef          	jal	ra,16380 <__gnu_cxx::__exchange_and_add(int volatile*, int)@plt>
   183a4:	f25ff06f          	jal	zero,182c8 <dwarf::dwarf::dwarf(std::shared_ptr<dwarf::loader> const&)+0x238>
	_M_dispose();
   183a8:	0009b783          	ld	a5,0(s3)
   183ac:	0107b783          	ld	a5,16(a5)
   183b0:	00098513          	addi	a0,s3,0
   183b4:	000780e7          	jalr	ra,0(a5)
	    __atomic_thread_fence (__ATOMIC_ACQ_REL);
   183b8:	0ff0000f          	fence	iorw,iorw
    if (__is_single_threaded())
   183bc:	0002a797          	auipc	a5,0x2a
   183c0:	0c47b783          	ld	a5,196(a5) # 42480 <__libc_single_threaded@GLIBC_2.32-0x1a0>
   183c4:	0007c783          	lbu	a5,0(a5)
   183c8:	02078663          	beq	a5,zero,183f4 <dwarf::dwarf::dwarf(std::shared_ptr<dwarf::loader> const&)+0x364>
    _Atomic_word __result = *__mem;
   183cc:	0349a503          	lw	a0,52(s3)
    *__mem += __val;
   183d0:	fff5079b          	addiw	a5,a0,-1
   183d4:	02f9aa23          	sw	a5,52(s3)
	if (__gnu_cxx::__exchange_and_add_dispatch(&_M_weak_count,
   183d8:	00100793          	addi	a5,zero,1
   183dc:	eef51ae3          	bne	a0,a5,182d0 <dwarf::dwarf::dwarf(std::shared_ptr<dwarf::loader> const&)+0x240>
	    _M_destroy();
   183e0:	0009b783          	ld	a5,0(s3)
   183e4:	0187b783          	ld	a5,24(a5)
   183e8:	00098513          	addi	a0,s3,0
   183ec:	000780e7          	jalr	ra,0(a5)
   183f0:	ee1ff06f          	jal	zero,182d0 <dwarf::dwarf::dwarf(std::shared_ptr<dwarf::loader> const&)+0x240>
      return __exchange_and_add(__mem, __val);
   183f4:	fff00593          	addi	a1,zero,-1
   183f8:	03498513          	addi	a0,s3,52
   183fc:	f85fd0ef          	jal	ra,16380 <__gnu_cxx::__exchange_and_add(int volatile*, int)@plt>
   18400:	fd9ff06f          	jal	zero,183d8 <dwarf::dwarf::dwarf(std::shared_ptr<dwarf::loader> const&)+0x348>
      __atomic_add(__mem, __val);
   18404:	00100593          	addi	a1,zero,1
   18408:	03098513          	addi	a0,s3,48
   1840c:	f45fd0ef          	jal	ra,16350 <__gnu_cxx::__atomic_add(int volatile*, int)@plt>
   18410:	eedff06f          	jal	zero,182fc <dwarf::dwarf::dwarf(std::shared_ptr<dwarf::loader> const&)+0x26c>
   18414:	00100593          	addi	a1,zero,1
   18418:	03098513          	addi	a0,s3,48
   1841c:	f35fd0ef          	jal	ra,16350 <__gnu_cxx::__atomic_add(int volatile*, int)@plt>
   18420:	f01ff06f          	jal	zero,18320 <dwarf::dwarf::dwarf(std::shared_ptr<dwarf::loader> const&)+0x290>
      return __exchange_and_add(__mem, __val);
   18424:	fff00593          	addi	a1,zero,-1
   18428:	03098513          	addi	a0,s3,48
   1842c:	f55fd0ef          	jal	ra,16380 <__gnu_cxx::__exchange_and_add(int volatile*, int)@plt>
   18430:	f15ff06f          	jal	zero,18344 <dwarf::dwarf::dwarf(std::shared_ptr<dwarf::loader> const&)+0x2b4>
   18434:	fff00593          	addi	a1,zero,-1
   18438:	03498513          	addi	a0,s3,52
   1843c:	f45fd0ef          	jal	ra,16380 <__gnu_cxx::__exchange_and_add(int volatile*, int)@plt>
   18440:	f3dff06f          	jal	zero,1837c <dwarf::dwarf::dwarf(std::shared_ptr<dwarf::loader> const&)+0x2ec>
    const unsigned char *p = (const unsigned char *)pos;
   18444:	01813583          	ld	a1,24(sp)
      { return _M_ptr; }
   18448:	00813803          	ld	a6,8(sp)
    if (sec->ord == byte_order::lsb) {
   1844c:	01c82783          	lw	a5,28(a6)
   18450:	06079263          	bne	a5,zero,184b4 <dwarf::dwarf::dwarf(std::shared_ptr<dwarf::loader> const&)+0x424>
   18454:	00058613          	addi	a2,a1,0
   18458:	00000713          	addi	a4,zero,0
      for (unsigned i = 0; i < sizeof(T); i++)
   1845c:	02000513          	addi	a0,zero,32
        val |= ((uint64_t)p[i]) << (i * 8);
   18460:	00064683          	lbu	a3,0(a2)
   18464:	00e696b3          	sll	a3,a3,a4
   18468:	00d7e7b3          	or	a5,a5,a3
      for (unsigned i = 0; i < sizeof(T); i++)
   1846c:	00160613          	addi	a2,a2,1
   18470:	0087071b          	addiw	a4,a4,8
   18474:	fea716e3          	bne	a4,a0,18460 <dwarf::dwarf::dwarf(std::shared_ptr<dwarf::loader> const&)+0x3d0>
    pos += sizeof(T);
   18478:	00458593          	addi	a1,a1,4
   1847c:	00b13c23          	sd	a1,24(sp)
  if (length == 0xffffffff)
   18480:	0007879b          	addiw	a5,a5,0
   18484:	fff00713          	addi	a4,zero,-1
   18488:	04e78863          	beq	a5,a4,184d8 <dwarf::dwarf::dwarf(std::shared_ptr<dwarf::loader> const&)+0x448>
    if ((section_offset)(sec->end - pos) < bytes || pos >= sec->end)
   1848c:	00813783          	ld	a5,8(sp)
   18490:	0107b703          	ld	a4,16(a5)
   18494:	01813783          	ld	a5,24(sp)
   18498:	40f70633          	sub	a2,a4,a5
   1849c:	00100693          	addi	a3,zero,1
   184a0:	00c6f463          	bgeu	a3,a2,184a8 <dwarf::dwarf::dwarf(std::shared_ptr<dwarf::loader> const&)+0x418>
   184a4:	06e7e063          	bltu	a5,a4,18504 <dwarf::dwarf::dwarf(std::shared_ptr<dwarf::loader> const&)+0x474>
      underflow();
   184a8:	00810513          	addi	a0,sp,8
   184ac:	4a0040ef          	jal	ra,1c94c <dwarf::cursor::underflow()>
   184b0:	0540006f          	jal	zero,18504 <dwarf::dwarf::dwarf(std::shared_ptr<dwarf::loader> const&)+0x474>
   184b4:	00058713          	addi	a4,a1,0
   184b8:	00458613          	addi	a2,a1,4
    uint64_t val = 0;
   184bc:	00000793          	addi	a5,zero,0
        val = (val << 8) | (uint64_t)p[i];
   184c0:	00879793          	slli	a5,a5,0x8
   184c4:	00074683          	lbu	a3,0(a4)
   184c8:	00f6e7b3          	or	a5,a3,a5
      for (unsigned i = 0; i < sizeof(T); i++)
   184cc:	00170713          	addi	a4,a4,1
   184d0:	fec718e3          	bne	a4,a2,184c0 <dwarf::dwarf::dwarf(std::shared_ptr<dwarf::loader> const&)+0x430>
   184d4:	fa5ff06f          	jal	zero,18478 <dwarf::dwarf::dwarf(std::shared_ptr<dwarf::loader> const&)+0x3e8>
    if ((section_offset)(sec->end - pos) < bytes || pos >= sec->end)
   184d8:	01083783          	ld	a5,16(a6)
   184dc:	40b786b3          	sub	a3,a5,a1
   184e0:	00700713          	addi	a4,zero,7
   184e4:	00d77463          	bgeu	a4,a3,184ec <dwarf::dwarf::dwarf(std::shared_ptr<dwarf::loader> const&)+0x45c>
   184e8:	00f5e663          	bltu	a1,a5,184f4 <dwarf::dwarf::dwarf(std::shared_ptr<dwarf::loader> const&)+0x464>
      underflow();
   184ec:	00810513          	addi	a0,sp,8
   184f0:	45c040ef          	jal	ra,1c94c <dwarf::cursor::underflow()>
    pos += sizeof(T);
   184f4:	01813783          	ld	a5,24(sp)
   184f8:	00878793          	addi	a5,a5,8
   184fc:	00f13c23          	sd	a5,24(sp)
    return (T)val;
   18500:	f8dff06f          	jal	zero,1848c <dwarf::dwarf::dwarf(std::shared_ptr<dwarf::loader> const&)+0x3fc>
    const unsigned char *p = (const unsigned char *)pos;
   18504:	01813703          	ld	a4,24(sp)
    if (sec->ord == byte_order::lsb) {
   18508:	00813783          	ld	a5,8(sp)
   1850c:	01c7a783          	lw	a5,28(a5)
   18510:	04079c63          	bne	a5,zero,18568 <dwarf::dwarf::dwarf(std::shared_ptr<dwarf::loader> const&)+0x4d8>
        val |= ((uint64_t)p[i]) << (i * 8);
   18514:	00174783          	lbu	a5,1(a4)
   18518:	00879793          	slli	a5,a5,0x8
   1851c:	00074683          	lbu	a3,0(a4)
   18520:	00d7e7b3          	or	a5,a5,a3
    pos += sizeof(T);
   18524:	00270713          	addi	a4,a4,2
   18528:	00e13c23          	sd	a4,24(sp)
    return (T)val;
   1852c:	03079793          	slli	a5,a5,0x30
   18530:	0307d793          	srli	a5,a5,0x30
  uhalf versionbe = (version >> 8) | ((version & 0xFF) << 8);
   18534:	0087d71b          	srliw	a4,a5,0x8
   18538:	0087969b          	slliw	a3,a5,0x8
   1853c:	00d76733          	or	a4,a4,a3
  if (versionbe < version) {
   18540:	03071713          	slli	a4,a4,0x30
   18544:	03075713          	srli	a4,a4,0x30
   18548:	02f76a63          	bltu	a4,a5,1857c <dwarf::dwarf::dwarf(std::shared_ptr<dwarf::loader> const&)+0x4ec>
   1854c:	00093503          	ld	a0,0(s2)
  data = l->load(section_type::abbrev, &size);
   18550:	00053783          	ld	a5,0(a0)
   18554:	0107b783          	ld	a5,16(a5)
   18558:	00010613          	addi	a2,sp,0
   1855c:	00000593          	addi	a1,zero,0
   18560:	000780e7          	jalr	ra,0(a5)
   18564:	12c0006f          	jal	zero,18690 <dwarf::dwarf::dwarf(std::shared_ptr<dwarf::loader> const&)+0x600>
        val = (val << 8) | (uint64_t)p[i];
   18568:	00074783          	lbu	a5,0(a4)
   1856c:	00879793          	slli	a5,a5,0x8
   18570:	00174683          	lbu	a3,1(a4)
   18574:	00d7e7b3          	or	a5,a5,a3
      for (unsigned i = 0; i < sizeof(T); i++)
   18578:	fadff06f          	jal	zero,18524 <dwarf::dwarf::dwarf(std::shared_ptr<dwarf::loader> const&)+0x494>
   1857c:	0004b983          	ld	s3,0(s1)
   18580:	06000513          	addi	a0,zero,96
   18584:	f9dfd0ef          	jal	ra,16520 <operator new(unsigned long)@plt>
   18588:	00052423          	sw	zero,8(a0)
   1858c:	00052623          	sw	zero,12(a0)
   18590:	00052823          	sw	zero,16(a0)
   18594:	00052a23          	sw	zero,20(a0)
   18598:	00052c23          	sw	zero,24(a0)
   1859c:	00052e23          	sw	zero,28(a0)
   185a0:	02053023          	sd	zero,32(a0)
   185a4:	02053423          	sd	zero,40(a0)
      : _M_use_count(1), _M_weak_count(1) { }
   185a8:	00100793          	addi	a5,zero,1
   185ac:	02f52823          	sw	a5,48(a0)
   185b0:	02f52a23          	sw	a5,52(a0)
	: _M_impl(__a)
   185b4:	0002a717          	auipc	a4,0x2a
   185b8:	00c73703          	ld	a4,12(a4) # 425c0 <vtable for std::_Sp_counted_ptr_inplace<dwarf::section, std::allocator<void>, (__gnu_cxx::_Lock_policy)1>@@Base+0xc48>
   185bc:	01070713          	addi	a4,a4,16
   185c0:	00e53023          	sd	a4,0(a0)
      : type(type), begin((char *)begin), end((char *)begin + length), fmt(fmt),
   185c4:	00300713          	addi	a4,zero,3
   185c8:	02e52c23          	sw	a4,56(a0)
   185cc:	04853023          	sd	s0,64(a0)
   185d0:	00013703          	ld	a4,0(sp)
   185d4:	00e40733          	add	a4,s0,a4
   185d8:	04e53423          	sd	a4,72(a0)
   185dc:	04052823          	sw	zero,80(a0)
        ord(ord), addr_size(addr_size) {}
   185e0:	04f52a23          	sw	a5,84(a0)
   185e4:	04052c23          	sw	zero,88(a0)
   185e8:	03850793          	addi	a5,a0,56
   185ec:	00f9b823          	sd	a5,16(s3)
	_Sp_counted_base<_Lp>* __tmp = __r._M_pi;
   185f0:	0189b403          	ld	s0,24(s3)
	__r._M_pi = _M_pi;
   185f4:	00a9bc23          	sd	a0,24(s3)
	if (_M_pi != nullptr)
   185f8:	f4040ae3          	beq	s0,zero,1854c <dwarf::dwarf::dwarf(std::shared_ptr<dwarf::loader> const&)+0x4bc>
    if (__is_single_threaded())
   185fc:	0002a797          	auipc	a5,0x2a
   18600:	e847b783          	ld	a5,-380(a5) # 42480 <__libc_single_threaded@GLIBC_2.32-0x1a0>
   18604:	0007c783          	lbu	a5,0(a5)
   18608:	06078263          	beq	a5,zero,1866c <dwarf::dwarf::dwarf(std::shared_ptr<dwarf::loader> const&)+0x5dc>
    _Atomic_word __result = *__mem;
   1860c:	03042503          	lw	a0,48(s0)
    *__mem += __val;
   18610:	fff5079b          	addiw	a5,a0,-1
   18614:	02f42823          	sw	a5,48(s0)
      if (__gnu_cxx::__exchange_and_add_dispatch(&_M_use_count, -1) == 1)
   18618:	00100793          	addi	a5,zero,1
   1861c:	f2f518e3          	bne	a0,a5,1854c <dwarf::dwarf::dwarf(std::shared_ptr<dwarf::loader> const&)+0x4bc>
	_M_dispose();
   18620:	00043783          	ld	a5,0(s0)
   18624:	0107b783          	ld	a5,16(a5)
   18628:	00040513          	addi	a0,s0,0
   1862c:	000780e7          	jalr	ra,0(a5)
	    __atomic_thread_fence (__ATOMIC_ACQ_REL);
   18630:	0ff0000f          	fence	iorw,iorw
    if (__is_single_threaded())
   18634:	0002a797          	auipc	a5,0x2a
   18638:	e4c7b783          	ld	a5,-436(a5) # 42480 <__libc_single_threaded@GLIBC_2.32-0x1a0>
   1863c:	0007c783          	lbu	a5,0(a5)
   18640:	02078e63          	beq	a5,zero,1867c <dwarf::dwarf::dwarf(std::shared_ptr<dwarf::loader> const&)+0x5ec>
    _Atomic_word __result = *__mem;
   18644:	03442783          	lw	a5,52(s0)
    *__mem += __val;
   18648:	fff7871b          	addiw	a4,a5,-1
   1864c:	02e42a23          	sw	a4,52(s0)
	if (__gnu_cxx::__exchange_and_add_dispatch(&_M_weak_count,
   18650:	00100713          	addi	a4,zero,1
   18654:	eee79ce3          	bne	a5,a4,1854c <dwarf::dwarf::dwarf(std::shared_ptr<dwarf::loader> const&)+0x4bc>
	    _M_destroy();
   18658:	00043783          	ld	a5,0(s0)
   1865c:	0187b783          	ld	a5,24(a5)
   18660:	00040513          	addi	a0,s0,0
   18664:	000780e7          	jalr	ra,0(a5)
   18668:	ee5ff06f          	jal	zero,1854c <dwarf::dwarf::dwarf(std::shared_ptr<dwarf::loader> const&)+0x4bc>
      return __exchange_and_add(__mem, __val);
   1866c:	fff00593          	addi	a1,zero,-1
   18670:	03040513          	addi	a0,s0,48
   18674:	d0dfd0ef          	jal	ra,16380 <__gnu_cxx::__exchange_and_add(int volatile*, int)@plt>
   18678:	fa1ff06f          	jal	zero,18618 <dwarf::dwarf::dwarf(std::shared_ptr<dwarf::loader> const&)+0x588>
   1867c:	fff00593          	addi	a1,zero,-1
   18680:	03440513          	addi	a0,s0,52
   18684:	cfdfd0ef          	jal	ra,16380 <__gnu_cxx::__exchange_and_add(int volatile*, int)@plt>
   18688:	00050793          	addi	a5,a0,0
   1868c:	fc5ff06f          	jal	zero,18650 <dwarf::dwarf::dwarf(std::shared_ptr<dwarf::loader> const&)+0x5c0>
   18690:	00050413          	addi	s0,a0,0
  if (!data)
   18694:	00050c63          	beq	a0,zero,186ac <dwarf::dwarf::dwarf(std::shared_ptr<dwarf::loader> const&)+0x61c>
      { return _M_ptr; }
   18698:	0004b903          	ld	s2,0(s1)
   1869c:	01093983          	ld	s3,16(s2)
   186a0:	06000513          	addi	a0,zero,96
   186a4:	e7dfd0ef          	jal	ra,16520 <operator new(unsigned long)@plt>
   186a8:	04c0006f          	jal	zero,186f4 <dwarf::dwarf::dwarf(std::shared_ptr<dwarf::loader> const&)+0x664>
    throw format_error("required .debug_abbrev section missing");
   186ac:	01000513          	addi	a0,zero,16
   186b0:	d71fd0ef          	jal	ra,16420 <__cxa_allocate_exception@plt>
   186b4:	00050913          	addi	s2,a0,0
   186b8:	0001e597          	auipc	a1,0x1e
   186bc:	18858593          	addi	a1,a1,392 # 36840 <std::_Sp_make_shared_tag::_S_ti()::__tag+0x98>
   186c0:	8b0fe0ef          	jal	ra,16770 <std::runtime_error::runtime_error(char const*)@plt>
   186c4:	0002a797          	auipc	a5,0x2a
   186c8:	e947b783          	ld	a5,-364(a5) # 42558 <vtable for dwarf::format_error@@Base+0xc28>
   186cc:	01078793          	addi	a5,a5,16
   186d0:	00f93023          	sd	a5,0(s2)
   186d4:	0002a617          	auipc	a2,0x2a
   186d8:	cac63603          	ld	a2,-852(a2) # 42380 <dwarf::format_error::~format_error()@@Base+0x27a0c>
   186dc:	0002a597          	auipc	a1,0x2a
   186e0:	bd45b583          	ld	a1,-1068(a1) # 422b0 <typeinfo for dwarf::format_error@@Base+0x9f8>
   186e4:	00090513          	addi	a0,s2,0
   186e8:	fd9fd0ef          	jal	ra,166c0 <__cxa_throw@plt>
	if (_M_pi != nullptr)
   186ec:	00050413          	addi	s0,a0,0
   186f0:	4cc0006f          	jal	zero,18bbc <dwarf::dwarf::dwarf(std::shared_ptr<dwarf::loader> const&)+0xb2c>
   186f4:	00052423          	sw	zero,8(a0)
   186f8:	00052623          	sw	zero,12(a0)
   186fc:	00052823          	sw	zero,16(a0)
   18700:	00052a23          	sw	zero,20(a0)
   18704:	00052c23          	sw	zero,24(a0)
   18708:	00052e23          	sw	zero,28(a0)
   1870c:	02053023          	sd	zero,32(a0)
   18710:	02053423          	sd	zero,40(a0)
      : _M_use_count(1), _M_weak_count(1) { }
   18714:	00100793          	addi	a5,zero,1
   18718:	02f52823          	sw	a5,48(a0)
   1871c:	02f52a23          	sw	a5,52(a0)
	: _M_impl(__a)
   18720:	0002a797          	auipc	a5,0x2a
   18724:	ea07b783          	ld	a5,-352(a5) # 425c0 <vtable for std::_Sp_counted_ptr_inplace<dwarf::section, std::allocator<void>, (__gnu_cxx::_Lock_policy)1>@@Base+0xc48>
   18728:	01078793          	addi	a5,a5,16
   1872c:	00f53023          	sd	a5,0(a0)
   18730:	01c9a783          	lw	a5,28(s3)
      : type(type), begin((char *)begin), end((char *)begin + length), fmt(fmt),
   18734:	02052c23          	sw	zero,56(a0)
   18738:	04853023          	sd	s0,64(a0)
   1873c:	00013703          	ld	a4,0(sp)
   18740:	00e40433          	add	s0,s0,a4
   18744:	04853423          	sd	s0,72(a0)
   18748:	04052823          	sw	zero,80(a0)
        ord(ord), addr_size(addr_size) {}
   1874c:	04f52a23          	sw	a5,84(a0)
   18750:	04052c23          	sw	zero,88(a0)
   18754:	03850793          	addi	a5,a0,56
   18758:	02f93023          	sd	a5,32(s2)
	_Sp_counted_base<_Lp>* __tmp = __r._M_pi;
   1875c:	02893403          	ld	s0,40(s2)
	__r._M_pi = _M_pi;
   18760:	02a93423          	sd	a0,40(s2)
	if (_M_pi != nullptr)
   18764:	02040463          	beq	s0,zero,1878c <dwarf::dwarf::dwarf(std::shared_ptr<dwarf::loader> const&)+0x6fc>
    if (__is_single_threaded())
   18768:	0002a797          	auipc	a5,0x2a
   1876c:	d187b783          	ld	a5,-744(a5) # 42480 <__libc_single_threaded@GLIBC_2.32-0x1a0>
   18770:	0007c783          	lbu	a5,0(a5)
   18774:	0c078463          	beq	a5,zero,1883c <dwarf::dwarf::dwarf(std::shared_ptr<dwarf::loader> const&)+0x7ac>
    _Atomic_word __result = *__mem;
   18778:	03042503          	lw	a0,48(s0)
    *__mem += __val;
   1877c:	fff5079b          	addiw	a5,a0,-1
   18780:	02f42823          	sw	a5,48(s0)
      if (__gnu_cxx::__exchange_and_add_dispatch(&_M_use_count, -1) == 1)
   18784:	00100793          	addi	a5,zero,1
   18788:	0cf50263          	beq	a0,a5,1884c <dwarf::dwarf::dwarf(std::shared_ptr<dwarf::loader> const&)+0x7bc>
      { return _M_ptr; }
   1878c:	0004b783          	ld	a5,0(s1)
      __shared_ptr(const __shared_ptr&) noexcept = default;
   18790:	0107b903          	ld	s2,16(a5)
      : _M_pi(__r._M_pi)
   18794:	0187b403          	ld	s0,24(a5)
	if (_M_pi != nullptr)
   18798:	44040c63          	beq	s0,zero,18bf0 <dwarf::dwarf::dwarf(std::shared_ptr<dwarf::loader> const&)+0xb60>
    if (__is_single_threaded())
   1879c:	0002a797          	auipc	a5,0x2a
   187a0:	ce47b783          	ld	a5,-796(a5) # 42480 <__libc_single_threaded@GLIBC_2.32-0x1a0>
   187a4:	0007c783          	lbu	a5,0(a5)
   187a8:	10078063          	beq	a5,zero,188a8 <dwarf::dwarf::dwarf(std::shared_ptr<dwarf::loader> const&)+0x818>
  { *__mem += __val; }
   187ac:	03042783          	lw	a5,48(s0)
   187b0:	0017879b          	addiw	a5,a5,1
   187b4:	02f42823          	sw	a5,48(s0)
      __shared_ptr(const __shared_ptr&) noexcept = default;
   187b8:	03213023          	sd	s2,32(sp)
      : _M_pi(__r._M_pi)
   187bc:	02813423          	sd	s0,40(sp)
    if (__is_single_threaded())
   187c0:	0002a797          	auipc	a5,0x2a
   187c4:	cc07b783          	ld	a5,-832(a5) # 42480 <__libc_single_threaded@GLIBC_2.32-0x1a0>
   187c8:	0007c783          	lbu	a5,0(a5)
   187cc:	0e078663          	beq	a5,zero,188b8 <dwarf::dwarf::dwarf(std::shared_ptr<dwarf::loader> const&)+0x828>
  { *__mem += __val; }
   187d0:	03042783          	lw	a5,48(s0)
   187d4:	0017879b          	addiw	a5,a5,1
   187d8:	02f42823          	sw	a5,48(s0)
      : sec(sec), pos(sec->begin + offset) {}
   187dc:	00893783          	ld	a5,8(s2)
   187e0:	02f13823          	sd	a5,48(sp)
    if (__is_single_threaded())
   187e4:	0002a797          	auipc	a5,0x2a
   187e8:	c9c7b783          	ld	a5,-868(a5) # 42480 <__libc_single_threaded@GLIBC_2.32-0x1a0>
   187ec:	0007c783          	lbu	a5,0(a5)
   187f0:	0c078c63          	beq	a5,zero,188c8 <dwarf::dwarf::dwarf(std::shared_ptr<dwarf::loader> const&)+0x838>
    _Atomic_word __result = *__mem;
   187f4:	03042503          	lw	a0,48(s0)
    *__mem += __val;
   187f8:	fff5079b          	addiw	a5,a0,-1
   187fc:	02f42823          	sw	a5,48(s0)
      if (__gnu_cxx::__exchange_and_add_dispatch(&_M_use_count, -1) == 1)
   18800:	00100793          	addi	a5,zero,1
   18804:	0cf50a63          	beq	a0,a5,188d8 <dwarf::dwarf::dwarf(std::shared_ptr<dwarf::loader> const&)+0x848>
  bool end() const { return pos >= sec->end; }
   18808:	03013603          	ld	a2,48(sp)
      { return _M_ptr; }
   1880c:	02013783          	ld	a5,32(sp)
  while (!infocur.end()) {
   18810:	0107b703          	ld	a4,16(a5)
   18814:	20e67c63          	bgeu	a2,a4,18a2c <dwarf::dwarf::dwarf(std::shared_ptr<dwarf::loader> const&)+0x99c>
				     std::forward<_Args>(__args)...);
	    ++this->_M_impl._M_finish;
	    _GLIBCXX_ASAN_ANNOTATE_GREW(1);
	  }
	else
	  _M_realloc_insert(end(), std::forward<_Args>(__args)...);
   18818:	03810b13          	addi	s6,sp,56
   1881c:	0002ab97          	auipc	s7,0x2a
   18820:	accbbb83          	ld	s7,-1332(s7) # 422e8 <void std::vector<dwarf::compilation_unit, std::allocator<dwarf::compilation_unit> >::_M_realloc_insert<dwarf::dwarf&, unsigned long>(__gnu_cxx::__normal_iterator<dwarf::compilation_unit*, std::vector<dwarf::compilation_unit, std::allocator<dwarf::compilation_unit> > >, dwarf::dwarf&, unsigned long&&)@@Base+0x26594>
    infocur.subsection();
   18824:	04010913          	addi	s2,sp,64
   18828:	02010993          	addi	s3,sp,32
    return ::__libc_single_threaded;
   1882c:	0002aa17          	auipc	s4,0x2a
   18830:	c54a3a03          	ld	s4,-940(s4) # 42480 <__libc_single_threaded@GLIBC_2.32-0x1a0>
      if (__gnu_cxx::__exchange_and_add_dispatch(&_M_use_count, -1) == 1)
   18834:	00100a93          	addi	s5,zero,1
   18838:	1600006f          	jal	zero,18998 <dwarf::dwarf::dwarf(std::shared_ptr<dwarf::loader> const&)+0x908>
      return __exchange_and_add(__mem, __val);
   1883c:	fff00593          	addi	a1,zero,-1
   18840:	03040513          	addi	a0,s0,48
   18844:	b3dfd0ef          	jal	ra,16380 <__gnu_cxx::__exchange_and_add(int volatile*, int)@plt>
   18848:	f3dff06f          	jal	zero,18784 <dwarf::dwarf::dwarf(std::shared_ptr<dwarf::loader> const&)+0x6f4>
	_M_dispose();
   1884c:	00043783          	ld	a5,0(s0)
   18850:	0107b783          	ld	a5,16(a5)
   18854:	00040513          	addi	a0,s0,0
   18858:	000780e7          	jalr	ra,0(a5)
	    __atomic_thread_fence (__ATOMIC_ACQ_REL);
   1885c:	0ff0000f          	fence	iorw,iorw
    if (__is_single_threaded())
   18860:	0002a797          	auipc	a5,0x2a
   18864:	c207b783          	ld	a5,-992(a5) # 42480 <__libc_single_threaded@GLIBC_2.32-0x1a0>
   18868:	0007c783          	lbu	a5,0(a5)
   1886c:	02078663          	beq	a5,zero,18898 <dwarf::dwarf::dwarf(std::shared_ptr<dwarf::loader> const&)+0x808>
    _Atomic_word __result = *__mem;
   18870:	03442503          	lw	a0,52(s0)
    *__mem += __val;
   18874:	fff5079b          	addiw	a5,a0,-1
   18878:	02f42a23          	sw	a5,52(s0)
	if (__gnu_cxx::__exchange_and_add_dispatch(&_M_weak_count,
   1887c:	00100793          	addi	a5,zero,1
   18880:	f0f516e3          	bne	a0,a5,1878c <dwarf::dwarf::dwarf(std::shared_ptr<dwarf::loader> const&)+0x6fc>
	    _M_destroy();
   18884:	00043783          	ld	a5,0(s0)
   18888:	0187b783          	ld	a5,24(a5)
   1888c:	00040513          	addi	a0,s0,0
   18890:	000780e7          	jalr	ra,0(a5)
   18894:	ef9ff06f          	jal	zero,1878c <dwarf::dwarf::dwarf(std::shared_ptr<dwarf::loader> const&)+0x6fc>
      return __exchange_and_add(__mem, __val);
   18898:	fff00593          	addi	a1,zero,-1
   1889c:	03440513          	addi	a0,s0,52
   188a0:	ae1fd0ef          	jal	ra,16380 <__gnu_cxx::__exchange_and_add(int volatile*, int)@plt>
   188a4:	fd9ff06f          	jal	zero,1887c <dwarf::dwarf::dwarf(std::shared_ptr<dwarf::loader> const&)+0x7ec>
      __atomic_add(__mem, __val);
   188a8:	00100593          	addi	a1,zero,1
   188ac:	03040513          	addi	a0,s0,48
   188b0:	aa1fd0ef          	jal	ra,16350 <__gnu_cxx::__atomic_add(int volatile*, int)@plt>
   188b4:	f05ff06f          	jal	zero,187b8 <dwarf::dwarf::dwarf(std::shared_ptr<dwarf::loader> const&)+0x728>
   188b8:	00100593          	addi	a1,zero,1
   188bc:	03040513          	addi	a0,s0,48
   188c0:	a91fd0ef          	jal	ra,16350 <__gnu_cxx::__atomic_add(int volatile*, int)@plt>
   188c4:	f19ff06f          	jal	zero,187dc <dwarf::dwarf::dwarf(std::shared_ptr<dwarf::loader> const&)+0x74c>
      return __exchange_and_add(__mem, __val);
   188c8:	fff00593          	addi	a1,zero,-1
   188cc:	03040513          	addi	a0,s0,48
   188d0:	ab1fd0ef          	jal	ra,16380 <__gnu_cxx::__exchange_and_add(int volatile*, int)@plt>
   188d4:	f2dff06f          	jal	zero,18800 <dwarf::dwarf::dwarf(std::shared_ptr<dwarf::loader> const&)+0x770>
	_M_dispose();
   188d8:	00043783          	ld	a5,0(s0)
   188dc:	0107b783          	ld	a5,16(a5)
   188e0:	00040513          	addi	a0,s0,0
   188e4:	000780e7          	jalr	ra,0(a5)
	    __atomic_thread_fence (__ATOMIC_ACQ_REL);
   188e8:	0ff0000f          	fence	iorw,iorw
    if (__is_single_threaded())
   188ec:	0002a797          	auipc	a5,0x2a
   188f0:	b947b783          	ld	a5,-1132(a5) # 42480 <__libc_single_threaded@GLIBC_2.32-0x1a0>
   188f4:	0007c783          	lbu	a5,0(a5)
   188f8:	02078663          	beq	a5,zero,18924 <dwarf::dwarf::dwarf(std::shared_ptr<dwarf::loader> const&)+0x894>
    _Atomic_word __result = *__mem;
   188fc:	03442503          	lw	a0,52(s0)
    *__mem += __val;
   18900:	fff5079b          	addiw	a5,a0,-1
   18904:	02f42a23          	sw	a5,52(s0)
	if (__gnu_cxx::__exchange_and_add_dispatch(&_M_weak_count,
   18908:	00100793          	addi	a5,zero,1
   1890c:	eef51ee3          	bne	a0,a5,18808 <dwarf::dwarf::dwarf(std::shared_ptr<dwarf::loader> const&)+0x778>
	    _M_destroy();
   18910:	00043783          	ld	a5,0(s0)
   18914:	0187b783          	ld	a5,24(a5)
   18918:	00040513          	addi	a0,s0,0
   1891c:	000780e7          	jalr	ra,0(a5)
   18920:	ee9ff06f          	jal	zero,18808 <dwarf::dwarf::dwarf(std::shared_ptr<dwarf::loader> const&)+0x778>
      return __exchange_and_add(__mem, __val);
   18924:	fff00593          	addi	a1,zero,-1
   18928:	03440513          	addi	a0,s0,52
   1892c:	a55fd0ef          	jal	ra,16380 <__gnu_cxx::__exchange_and_add(int volatile*, int)@plt>
   18930:	fd9ff06f          	jal	zero,18908 <dwarf::dwarf::dwarf(std::shared_ptr<dwarf::loader> const&)+0x878>
	    ++this->_M_impl._M_finish;
   18934:	03843783          	ld	a5,56(s0)
   18938:	01878793          	addi	a5,a5,24
   1893c:	02f43c23          	sd	a5,56(s0)
   18940:	00098593          	addi	a1,s3,0
   18944:	00090513          	addi	a0,s2,0
   18948:	548040ef          	jal	ra,1ce90 <dwarf::cursor::subsection()>
   1894c:	01c0006f          	jal	zero,18968 <dwarf::dwarf::dwarf(std::shared_ptr<dwarf::loader> const&)+0x8d8>
	  _M_realloc_insert(end(), std::forward<_Args>(__args)...);
   18950:	000b0693          	addi	a3,s6,0
   18954:	00048613          	addi	a2,s1,0
   18958:	00050593          	addi	a1,a0,0
   1895c:	03040513          	addi	a0,s0,48
   18960:	000b80e7          	jalr	ra,0(s7)
   18964:	fddff06f          	jal	zero,18940 <dwarf::dwarf::dwarf(std::shared_ptr<dwarf::loader> const&)+0x8b0>
	if (_M_pi != nullptr)
   18968:	04813403          	ld	s0,72(sp)
   1896c:	00040e63          	beq	s0,zero,18988 <dwarf::dwarf::dwarf(std::shared_ptr<dwarf::loader> const&)+0x8f8>
    if (__is_single_threaded())
   18970:	000a4783          	lbu	a5,0(s4)
   18974:	04078663          	beq	a5,zero,189c0 <dwarf::dwarf::dwarf(std::shared_ptr<dwarf::loader> const&)+0x930>
    _Atomic_word __result = *__mem;
   18978:	03042503          	lw	a0,48(s0)
    *__mem += __val;
   1897c:	fff5079b          	addiw	a5,a0,-1
   18980:	02f42823          	sw	a5,48(s0)
      if (__gnu_cxx::__exchange_and_add_dispatch(&_M_use_count, -1) == 1)
   18984:	05550663          	beq	a0,s5,189d0 <dwarf::dwarf::dwarf(std::shared_ptr<dwarf::loader> const&)+0x940>
   18988:	03013603          	ld	a2,48(sp)
      { return _M_ptr; }
   1898c:	02013783          	ld	a5,32(sp)
  while (!infocur.end()) {
   18990:	0107b703          	ld	a4,16(a5)
   18994:	08e67c63          	bgeu	a2,a4,18a2c <dwarf::dwarf::dwarf(std::shared_ptr<dwarf::loader> const&)+0x99c>
   18998:	0004b403          	ld	s0,0(s1)
  section_offset get_section_offset() const { return pos - sec->begin; }
   1899c:	0087b783          	ld	a5,8(a5)
   189a0:	40f60633          	sub	a2,a2,a5
    m->compilation_units.emplace_back(*this, infocur.get_section_offset());
   189a4:	02c13c23          	sd	a2,56(sp)
	if (this->_M_impl._M_finish != this->_M_impl._M_end_of_storage)
   189a8:	03843503          	ld	a0,56(s0)
   189ac:	04043783          	ld	a5,64(s0)
   189b0:	faf500e3          	beq	a0,a5,18950 <dwarf::dwarf::dwarf(std::shared_ptr<dwarf::loader> const&)+0x8c0>
#if __cplusplus >= 201103L
      template<typename _Up, typename... _Args>
	void
	construct(_Up* __p, _Args&&... __args)
	noexcept(std::is_nothrow_constructible<_Up, _Args...>::value)
	{ ::new((void *)__p) _Up(std::forward<_Args>(__args)...); }
   189b4:	00048593          	addi	a1,s1,0
   189b8:	e71fe0ef          	jal	ra,17828 <dwarf::compilation_unit::compilation_unit(dwarf::dwarf const&, unsigned long)>
   189bc:	f79ff06f          	jal	zero,18934 <dwarf::dwarf::dwarf(std::shared_ptr<dwarf::loader> const&)+0x8a4>
      return __exchange_and_add(__mem, __val);
   189c0:	fff00593          	addi	a1,zero,-1
   189c4:	03040513          	addi	a0,s0,48
   189c8:	9b9fd0ef          	jal	ra,16380 <__gnu_cxx::__exchange_and_add(int volatile*, int)@plt>
   189cc:	fb9ff06f          	jal	zero,18984 <dwarf::dwarf::dwarf(std::shared_ptr<dwarf::loader> const&)+0x8f4>
	_M_dispose();
   189d0:	00043783          	ld	a5,0(s0)
   189d4:	0107b783          	ld	a5,16(a5)
   189d8:	00040513          	addi	a0,s0,0
   189dc:	000780e7          	jalr	ra,0(a5)
	    __atomic_thread_fence (__ATOMIC_ACQ_REL);
   189e0:	0ff0000f          	fence	iorw,iorw
    if (__is_single_threaded())
   189e4:	0002a797          	auipc	a5,0x2a
   189e8:	a9c7b783          	ld	a5,-1380(a5) # 42480 <__libc_single_threaded@GLIBC_2.32-0x1a0>
   189ec:	0007c783          	lbu	a5,0(a5)
   189f0:	02078663          	beq	a5,zero,18a1c <dwarf::dwarf::dwarf(std::shared_ptr<dwarf::loader> const&)+0x98c>
    _Atomic_word __result = *__mem;
   189f4:	03442503          	lw	a0,52(s0)
    *__mem += __val;
   189f8:	fff5079b          	addiw	a5,a0,-1
   189fc:	02f42a23          	sw	a5,52(s0)
	if (__gnu_cxx::__exchange_and_add_dispatch(&_M_weak_count,
   18a00:	00100793          	addi	a5,zero,1
   18a04:	f8f512e3          	bne	a0,a5,18988 <dwarf::dwarf::dwarf(std::shared_ptr<dwarf::loader> const&)+0x8f8>
	    _M_destroy();
   18a08:	00043783          	ld	a5,0(s0)
   18a0c:	0187b783          	ld	a5,24(a5)
   18a10:	00040513          	addi	a0,s0,0
   18a14:	000780e7          	jalr	ra,0(a5)
   18a18:	f71ff06f          	jal	zero,18988 <dwarf::dwarf::dwarf(std::shared_ptr<dwarf::loader> const&)+0x8f8>
      return __exchange_and_add(__mem, __val);
   18a1c:	fff00593          	addi	a1,zero,-1
   18a20:	03440513          	addi	a0,s0,52
   18a24:	95dfd0ef          	jal	ra,16380 <__gnu_cxx::__exchange_and_add(int volatile*, int)@plt>
   18a28:	fd9ff06f          	jal	zero,18a00 <dwarf::dwarf::dwarf(std::shared_ptr<dwarf::loader> const&)+0x970>
	if (_M_pi != nullptr)
   18a2c:	02813403          	ld	s0,40(sp)
   18a30:	02040463          	beq	s0,zero,18a58 <dwarf::dwarf::dwarf(std::shared_ptr<dwarf::loader> const&)+0x9c8>
    if (__is_single_threaded())
   18a34:	0002a797          	auipc	a5,0x2a
   18a38:	a4c7b783          	ld	a5,-1460(a5) # 42480 <__libc_single_threaded@GLIBC_2.32-0x1a0>
   18a3c:	0007c783          	lbu	a5,0(a5)
   18a40:	06078863          	beq	a5,zero,18ab0 <dwarf::dwarf::dwarf(std::shared_ptr<dwarf::loader> const&)+0xa20>
    _Atomic_word __result = *__mem;
   18a44:	03042503          	lw	a0,48(s0)
    *__mem += __val;
   18a48:	fff5079b          	addiw	a5,a0,-1
   18a4c:	02f42823          	sw	a5,48(s0)
      if (__gnu_cxx::__exchange_and_add_dispatch(&_M_use_count, -1) == 1)
   18a50:	00100793          	addi	a5,zero,1
   18a54:	06f50663          	beq	a0,a5,18ac0 <dwarf::dwarf::dwarf(std::shared_ptr<dwarf::loader> const&)+0xa30>
	if (_M_pi != nullptr)
   18a58:	01013403          	ld	s0,16(sp)
   18a5c:	02040463          	beq	s0,zero,18a84 <dwarf::dwarf::dwarf(std::shared_ptr<dwarf::loader> const&)+0x9f4>
    if (__is_single_threaded())
   18a60:	0002a797          	auipc	a5,0x2a
   18a64:	a207b783          	ld	a5,-1504(a5) # 42480 <__libc_single_threaded@GLIBC_2.32-0x1a0>
   18a68:	0007c783          	lbu	a5,0(a5)
   18a6c:	0a078863          	beq	a5,zero,18b1c <dwarf::dwarf::dwarf(std::shared_ptr<dwarf::loader> const&)+0xa8c>
    _Atomic_word __result = *__mem;
   18a70:	03042503          	lw	a0,48(s0)
    *__mem += __val;
   18a74:	fff5079b          	addiw	a5,a0,-1
   18a78:	02f42823          	sw	a5,48(s0)
      if (__gnu_cxx::__exchange_and_add_dispatch(&_M_use_count, -1) == 1)
   18a7c:	00100793          	addi	a5,zero,1
   18a80:	0af50663          	beq	a0,a5,18b2c <dwarf::dwarf::dwarf(std::shared_ptr<dwarf::loader> const&)+0xa9c>
}
   18a84:	09813083          	ld	ra,152(sp)
   18a88:	09013403          	ld	s0,144(sp)
   18a8c:	08813483          	ld	s1,136(sp)
   18a90:	08013903          	ld	s2,128(sp)
   18a94:	07813983          	ld	s3,120(sp)
   18a98:	07013a03          	ld	s4,112(sp)
   18a9c:	06813a83          	ld	s5,104(sp)
   18aa0:	06013b03          	ld	s6,96(sp)
   18aa4:	05813b83          	ld	s7,88(sp)
   18aa8:	0a010113          	addi	sp,sp,160
   18aac:	00008067          	jalr	zero,0(ra)
      return __exchange_and_add(__mem, __val);
   18ab0:	fff00593          	addi	a1,zero,-1
   18ab4:	03040513          	addi	a0,s0,48
   18ab8:	8c9fd0ef          	jal	ra,16380 <__gnu_cxx::__exchange_and_add(int volatile*, int)@plt>
   18abc:	f95ff06f          	jal	zero,18a50 <dwarf::dwarf::dwarf(std::shared_ptr<dwarf::loader> const&)+0x9c0>
	_M_dispose();
   18ac0:	00043783          	ld	a5,0(s0)
   18ac4:	0107b783          	ld	a5,16(a5)
   18ac8:	00040513          	addi	a0,s0,0
   18acc:	000780e7          	jalr	ra,0(a5)
	    __atomic_thread_fence (__ATOMIC_ACQ_REL);
   18ad0:	0ff0000f          	fence	iorw,iorw
    if (__is_single_threaded())
   18ad4:	0002a797          	auipc	a5,0x2a
   18ad8:	9ac7b783          	ld	a5,-1620(a5) # 42480 <__libc_single_threaded@GLIBC_2.32-0x1a0>
   18adc:	0007c783          	lbu	a5,0(a5)
   18ae0:	02078663          	beq	a5,zero,18b0c <dwarf::dwarf::dwarf(std::shared_ptr<dwarf::loader> const&)+0xa7c>
    _Atomic_word __result = *__mem;
   18ae4:	03442503          	lw	a0,52(s0)
    *__mem += __val;
   18ae8:	fff5079b          	addiw	a5,a0,-1
   18aec:	02f42a23          	sw	a5,52(s0)
	if (__gnu_cxx::__exchange_and_add_dispatch(&_M_weak_count,
   18af0:	00100793          	addi	a5,zero,1
   18af4:	f6f512e3          	bne	a0,a5,18a58 <dwarf::dwarf::dwarf(std::shared_ptr<dwarf::loader> const&)+0x9c8>
	    _M_destroy();
   18af8:	00043783          	ld	a5,0(s0)
   18afc:	0187b783          	ld	a5,24(a5)
   18b00:	00040513          	addi	a0,s0,0
   18b04:	000780e7          	jalr	ra,0(a5)
   18b08:	f51ff06f          	jal	zero,18a58 <dwarf::dwarf::dwarf(std::shared_ptr<dwarf::loader> const&)+0x9c8>
      return __exchange_and_add(__mem, __val);
   18b0c:	fff00593          	addi	a1,zero,-1
   18b10:	03440513          	addi	a0,s0,52
   18b14:	86dfd0ef          	jal	ra,16380 <__gnu_cxx::__exchange_and_add(int volatile*, int)@plt>
   18b18:	fd9ff06f          	jal	zero,18af0 <dwarf::dwarf::dwarf(std::shared_ptr<dwarf::loader> const&)+0xa60>
   18b1c:	fff00593          	addi	a1,zero,-1
   18b20:	03040513          	addi	a0,s0,48
   18b24:	85dfd0ef          	jal	ra,16380 <__gnu_cxx::__exchange_and_add(int volatile*, int)@plt>
   18b28:	f55ff06f          	jal	zero,18a7c <dwarf::dwarf::dwarf(std::shared_ptr<dwarf::loader> const&)+0x9ec>
	_M_dispose();
   18b2c:	00043783          	ld	a5,0(s0)
   18b30:	0107b783          	ld	a5,16(a5)
   18b34:	00040513          	addi	a0,s0,0
   18b38:	000780e7          	jalr	ra,0(a5)
	    __atomic_thread_fence (__ATOMIC_ACQ_REL);
   18b3c:	0ff0000f          	fence	iorw,iorw
    if (__is_single_threaded())
   18b40:	0002a797          	auipc	a5,0x2a
   18b44:	9407b783          	ld	a5,-1728(a5) # 42480 <__libc_single_threaded@GLIBC_2.32-0x1a0>
   18b48:	0007c783          	lbu	a5,0(a5)
   18b4c:	02078663          	beq	a5,zero,18b78 <dwarf::dwarf::dwarf(std::shared_ptr<dwarf::loader> const&)+0xae8>
    _Atomic_word __result = *__mem;
   18b50:	03442503          	lw	a0,52(s0)
    *__mem += __val;
   18b54:	fff5079b          	addiw	a5,a0,-1
   18b58:	02f42a23          	sw	a5,52(s0)
	if (__gnu_cxx::__exchange_and_add_dispatch(&_M_weak_count,
   18b5c:	00100793          	addi	a5,zero,1
   18b60:	f2f512e3          	bne	a0,a5,18a84 <dwarf::dwarf::dwarf(std::shared_ptr<dwarf::loader> const&)+0x9f4>
	    _M_destroy();
   18b64:	00043783          	ld	a5,0(s0)
   18b68:	0187b783          	ld	a5,24(a5)
   18b6c:	00040513          	addi	a0,s0,0
   18b70:	000780e7          	jalr	ra,0(a5)
   18b74:	f11ff06f          	jal	zero,18a84 <dwarf::dwarf::dwarf(std::shared_ptr<dwarf::loader> const&)+0x9f4>
      return __exchange_and_add(__mem, __val);
   18b78:	fff00593          	addi	a1,zero,-1
   18b7c:	03440513          	addi	a0,s0,52
   18b80:	801fd0ef          	jal	ra,16380 <__gnu_cxx::__exchange_and_add(int volatile*, int)@plt>
   18b84:	fd9ff06f          	jal	zero,18b5c <dwarf::dwarf::dwarf(std::shared_ptr<dwarf::loader> const&)+0xacc>
    throw format_error("required .debug_info section missing");
   18b88:	00050413          	addi	s0,a0,0
   18b8c:	00090513          	addi	a0,s2,0
   18b90:	941fd0ef          	jal	ra,164d0 <__cxa_free_exception@plt>
	if (_M_pi != nullptr)
   18b94:	0084b503          	ld	a0,8(s1)
   18b98:	00050863          	beq	a0,zero,18ba8 <dwarf::dwarf::dwarf(std::shared_ptr<dwarf::loader> const&)+0xb18>
	  _M_pi->_M_release();
   18b9c:	0002a317          	auipc	t1,0x2a
   18ba0:	82c33303          	ld	t1,-2004(t1) # 423c8 <std::_Sp_counted_base<(__gnu_cxx::_Lock_policy)1>::_M_release()@@Base+0x2b554>
   18ba4:	000300e7          	jalr	ra,0(t1)
   18ba8:	00040513          	addi	a0,s0,0
   18bac:	b45fd0ef          	jal	ra,166f0 <_Unwind_Resume@plt>
    throw format_error("required .debug_abbrev section missing");
   18bb0:	00050413          	addi	s0,a0,0
   18bb4:	00090513          	addi	a0,s2,0
   18bb8:	919fd0ef          	jal	ra,164d0 <__cxa_free_exception@plt>
	if (_M_pi != nullptr)
   18bbc:	01013503          	ld	a0,16(sp)
   18bc0:	fc050ae3          	beq	a0,zero,18b94 <dwarf::dwarf::dwarf(std::shared_ptr<dwarf::loader> const&)+0xb04>
	  _M_pi->_M_release();
   18bc4:	0002a317          	auipc	t1,0x2a
   18bc8:	80433303          	ld	t1,-2044(t1) # 423c8 <std::_Sp_counted_base<(__gnu_cxx::_Lock_policy)1>::_M_release()@@Base+0x2b554>
   18bcc:	000300e7          	jalr	ra,0(t1)
   18bd0:	fc5ff06f          	jal	zero,18b94 <dwarf::dwarf::dwarf(std::shared_ptr<dwarf::loader> const&)+0xb04>
	if (_M_pi != nullptr)
   18bd4:	00050413          	addi	s0,a0,0
   18bd8:	02813503          	ld	a0,40(sp)
   18bdc:	fe0500e3          	beq	a0,zero,18bbc <dwarf::dwarf::dwarf(std::shared_ptr<dwarf::loader> const&)+0xb2c>
	  _M_pi->_M_release();
   18be0:	00029317          	auipc	t1,0x29
   18be4:	7e833303          	ld	t1,2024(t1) # 423c8 <std::_Sp_counted_base<(__gnu_cxx::_Lock_policy)1>::_M_release()@@Base+0x2b554>
   18be8:	000300e7          	jalr	ra,0(t1)
   18bec:	fd1ff06f          	jal	zero,18bbc <dwarf::dwarf::dwarf(std::shared_ptr<dwarf::loader> const&)+0xb2c>
      __shared_ptr(const __shared_ptr&) noexcept = default;
   18bf0:	03213023          	sd	s2,32(sp)
      : _M_pi(__r._M_pi)
   18bf4:	02013423          	sd	zero,40(sp)
      : sec(sec), pos(sec->begin + offset) {}
   18bf8:	00893603          	ld	a2,8(s2)
   18bfc:	02c13823          	sd	a2,48(sp)
      { return _M_ptr; }
   18c00:	00090793          	addi	a5,s2,0
  while (!infocur.end()) {
   18c04:	01093703          	ld	a4,16(s2)
   18c08:	c0e668e3          	bltu	a2,a4,18818 <dwarf::dwarf::dwarf(std::shared_ptr<dwarf::loader> const&)+0x788>
   18c0c:	e4dff06f          	jal	zero,18a58 <dwarf::dwarf::dwarf(std::shared_ptr<dwarf::loader> const&)+0x9c8>
      __shared_ptr(const __shared_ptr&) noexcept = default;
   18c10:	01413423          	sd	s4,8(sp)
      : _M_pi(__r._M_pi)
   18c14:	00013823          	sd	zero,16(sp)
   18c18:	008a3783          	ld	a5,8(s4)
   18c1c:	00f13c23          	sd	a5,24(sp)
    if ((section_offset)(sec->end - pos) < bytes || pos >= sec->end)
   18c20:	00813783          	ld	a5,8(sp)
   18c24:	0107b703          	ld	a4,16(a5)
   18c28:	01813783          	ld	a5,24(sp)
   18c2c:	40f70633          	sub	a2,a4,a5
   18c30:	00300693          	addi	a3,zero,3
   18c34:	00c6f463          	bgeu	a3,a2,18c3c <dwarf::dwarf::dwarf(std::shared_ptr<dwarf::loader> const&)+0xbac>
   18c38:	80e7e6e3          	bltu	a5,a4,18444 <dwarf::dwarf::dwarf(std::shared_ptr<dwarf::loader> const&)+0x3b4>
      underflow();
   18c3c:	00810513          	addi	a0,sp,8
   18c40:	50d030ef          	jal	ra,1c94c <dwarf::cursor::underflow()>
   18c44:	801ff06f          	jal	zero,18444 <dwarf::dwarf::dwarf(std::shared_ptr<dwarf::loader> const&)+0x3b4>

0000000000018c48 <dwarf::type_unit::type_unit(dwarf::dwarf const&, unsigned long)>:
type_unit::type_unit(const dwarf &file, section_offset offset) {
   18c48:	f2010113          	addi	sp,sp,-224
   18c4c:	0c113c23          	sd	ra,216(sp)
   18c50:	0c813823          	sd	s0,208(sp)
   18c54:	0c913423          	sd	s1,200(sp)
   18c58:	0d213023          	sd	s2,192(sp)
   18c5c:	0b313c23          	sd	s3,184(sp)
   18c60:	0b413823          	sd	s4,176(sp)
   18c64:	0b513423          	sd	s5,168(sp)
   18c68:	0b613023          	sd	s6,160(sp)
   18c6c:	09713c23          	sd	s7,152(sp)
   18c70:	09813823          	sd	s8,144(sp)
   18c74:	00050913          	addi	s2,a0,0
   18c78:	00058993          	addi	s3,a1,0
   18c7c:	00060a13          	addi	s4,a2,0
      : _M_ptr(0), _M_refcount()
   18c80:	00053423          	sd	zero,8(a0)
      constexpr __shared_count() noexcept : _M_pi(0)
   18c84:	00053823          	sd	zero,16(a0)
   18c88:	00029797          	auipc	a5,0x29
   18c8c:	6d07b783          	ld	a5,1744(a5) # 42358 <vtable for dwarf::type_unit@@Base+0xa00>
   18c90:	01078793          	addi	a5,a5,16
   18c94:	00f53023          	sd	a5,0(a0)
  cursor cur(file.get_section(section_type::types), offset);
   18c98:	00b00613          	addi	a2,zero,11
   18c9c:	08010513          	addi	a0,sp,128
   18ca0:	ebcfe0ef          	jal	ra,1735c <dwarf::dwarf::get_section(dwarf::section_type) const>
      __shared_ptr(const __shared_ptr&) noexcept = default;
   18ca4:	08013783          	ld	a5,128(sp)
   18ca8:	00f13823          	sd	a5,16(sp)
      : _M_pi(__r._M_pi)
   18cac:	08813503          	ld	a0,136(sp)
   18cb0:	00a13c23          	sd	a0,24(sp)
	if (_M_pi != nullptr)
   18cb4:	02050063          	beq	a0,zero,18cd4 <dwarf::type_unit::type_unit(dwarf::dwarf const&, unsigned long)+0x8c>
    if (__is_single_threaded())
   18cb8:	00029797          	auipc	a5,0x29
   18cbc:	7c87b783          	ld	a5,1992(a5) # 42480 <__libc_single_threaded@GLIBC_2.32-0x1a0>
   18cc0:	0007c783          	lbu	a5,0(a5)
   18cc4:	04078e63          	beq	a5,zero,18d20 <dwarf::type_unit::type_unit(dwarf::dwarf const&, unsigned long)+0xd8>
  { *__mem += __val; }
   18cc8:	03052783          	lw	a5,48(a0)
   18ccc:	0017879b          	addiw	a5,a5,1
   18cd0:	02f52823          	sw	a5,48(a0)
      : sec(sec), pos(sec->begin + offset) {}
   18cd4:	08013783          	ld	a5,128(sp)
   18cd8:	0087b783          	ld	a5,8(a5)
   18cdc:	014787b3          	add	a5,a5,s4
   18ce0:	02f13023          	sd	a5,32(sp)
	if (_M_pi != nullptr)
   18ce4:	08813403          	ld	s0,136(sp)
   18ce8:	02040463          	beq	s0,zero,18d10 <dwarf::type_unit::type_unit(dwarf::dwarf const&, unsigned long)+0xc8>
    if (__is_single_threaded())
   18cec:	00029797          	auipc	a5,0x29
   18cf0:	7947b783          	ld	a5,1940(a5) # 42480 <__libc_single_threaded@GLIBC_2.32-0x1a0>
   18cf4:	0007c783          	lbu	a5,0(a5)
   18cf8:	02078c63          	beq	a5,zero,18d30 <dwarf::type_unit::type_unit(dwarf::dwarf const&, unsigned long)+0xe8>
    _Atomic_word __result = *__mem;
   18cfc:	03042503          	lw	a0,48(s0)
    *__mem += __val;
   18d00:	fff5079b          	addiw	a5,a0,-1
   18d04:	02f42823          	sw	a5,48(s0)
      if (__gnu_cxx::__exchange_and_add_dispatch(&_M_use_count, -1) == 1)
   18d08:	00100793          	addi	a5,zero,1
   18d0c:	02f50a63          	beq	a0,a5,18d40 <dwarf::type_unit::type_unit(dwarf::dwarf const&, unsigned long)+0xf8>
  std::shared_ptr<section> subsec = cur.subsection();
   18d10:	01010593          	addi	a1,sp,16
   18d14:	00010513          	addi	a0,sp,0
   18d18:	178040ef          	jal	ra,1ce90 <dwarf::cursor::subsection()>
   18d1c:	0800006f          	jal	zero,18d9c <dwarf::type_unit::type_unit(dwarf::dwarf const&, unsigned long)+0x154>
      __atomic_add(__mem, __val);
   18d20:	00100593          	addi	a1,zero,1
   18d24:	03050513          	addi	a0,a0,48
   18d28:	e28fd0ef          	jal	ra,16350 <__gnu_cxx::__atomic_add(int volatile*, int)@plt>
   18d2c:	fa9ff06f          	jal	zero,18cd4 <dwarf::type_unit::type_unit(dwarf::dwarf const&, unsigned long)+0x8c>
      return __exchange_and_add(__mem, __val);
   18d30:	fff00593          	addi	a1,zero,-1
   18d34:	03040513          	addi	a0,s0,48
   18d38:	e48fd0ef          	jal	ra,16380 <__gnu_cxx::__exchange_and_add(int volatile*, int)@plt>
   18d3c:	fcdff06f          	jal	zero,18d08 <dwarf::type_unit::type_unit(dwarf::dwarf const&, unsigned long)+0xc0>
	_M_dispose();
   18d40:	00043783          	ld	a5,0(s0)
   18d44:	0107b783          	ld	a5,16(a5)
   18d48:	00040513          	addi	a0,s0,0
   18d4c:	000780e7          	jalr	ra,0(a5)
	    __atomic_thread_fence (__ATOMIC_ACQ_REL);
   18d50:	0ff0000f          	fence	iorw,iorw
    if (__is_single_threaded())
   18d54:	00029797          	auipc	a5,0x29
   18d58:	72c7b783          	ld	a5,1836(a5) # 42480 <__libc_single_threaded@GLIBC_2.32-0x1a0>
   18d5c:	0007c783          	lbu	a5,0(a5)
   18d60:	02078663          	beq	a5,zero,18d8c <dwarf::type_unit::type_unit(dwarf::dwarf const&, unsigned long)+0x144>
    _Atomic_word __result = *__mem;
   18d64:	03442503          	lw	a0,52(s0)
    *__mem += __val;
   18d68:	fff5079b          	addiw	a5,a0,-1
   18d6c:	02f42a23          	sw	a5,52(s0)
	if (__gnu_cxx::__exchange_and_add_dispatch(&_M_weak_count,
   18d70:	00100793          	addi	a5,zero,1
   18d74:	f8f51ee3          	bne	a0,a5,18d10 <dwarf::type_unit::type_unit(dwarf::dwarf const&, unsigned long)+0xc8>
	    _M_destroy();
   18d78:	00043783          	ld	a5,0(s0)
   18d7c:	0187b783          	ld	a5,24(a5)
   18d80:	00040513          	addi	a0,s0,0
   18d84:	000780e7          	jalr	ra,0(a5)
   18d88:	f89ff06f          	jal	zero,18d10 <dwarf::type_unit::type_unit(dwarf::dwarf const&, unsigned long)+0xc8>
      return __exchange_and_add(__mem, __val);
   18d8c:	fff00593          	addi	a1,zero,-1
   18d90:	03440513          	addi	a0,s0,52
   18d94:	decfd0ef          	jal	ra,16380 <__gnu_cxx::__exchange_and_add(int volatile*, int)@plt>
   18d98:	fd9ff06f          	jal	zero,18d70 <dwarf::type_unit::type_unit(dwarf::dwarf const&, unsigned long)+0x128>
      __shared_ptr(const __shared_ptr&) noexcept = default;
   18d9c:	00013483          	ld	s1,0(sp)
      : _M_pi(__r._M_pi)
   18da0:	00813403          	ld	s0,8(sp)
	if (_M_pi != nullptr)
   18da4:	78040463          	beq	s0,zero,1952c <dwarf::type_unit::type_unit(dwarf::dwarf const&, unsigned long)+0x8e4>
    if (__is_single_threaded())
   18da8:	00029797          	auipc	a5,0x29
   18dac:	6d87b783          	ld	a5,1752(a5) # 42480 <__libc_single_threaded@GLIBC_2.32-0x1a0>
   18db0:	0007c783          	lbu	a5,0(a5)
   18db4:	0a078663          	beq	a5,zero,18e60 <dwarf::type_unit::type_unit(dwarf::dwarf const&, unsigned long)+0x218>
  { *__mem += __val; }
   18db8:	03042783          	lw	a5,48(s0)
   18dbc:	0017879b          	addiw	a5,a5,1
   18dc0:	02f42823          	sw	a5,48(s0)
      __shared_ptr(const __shared_ptr&) noexcept = default;
   18dc4:	02913423          	sd	s1,40(sp)
      : _M_pi(__r._M_pi)
   18dc8:	02813823          	sd	s0,48(sp)
    if (__is_single_threaded())
   18dcc:	00029797          	auipc	a5,0x29
   18dd0:	6b47b783          	ld	a5,1716(a5) # 42480 <__libc_single_threaded@GLIBC_2.32-0x1a0>
   18dd4:	0007c783          	lbu	a5,0(a5)
   18dd8:	08078c63          	beq	a5,zero,18e70 <dwarf::type_unit::type_unit(dwarf::dwarf const&, unsigned long)+0x228>
  { *__mem += __val; }
   18ddc:	03042783          	lw	a5,48(s0)
   18de0:	0017879b          	addiw	a5,a5,1
   18de4:	02f42823          	sw	a5,48(s0)
   18de8:	0084b783          	ld	a5,8(s1)
   18dec:	02f13c23          	sd	a5,56(sp)
    if (__is_single_threaded())
   18df0:	00029797          	auipc	a5,0x29
   18df4:	6907b783          	ld	a5,1680(a5) # 42480 <__libc_single_threaded@GLIBC_2.32-0x1a0>
   18df8:	0007c783          	lbu	a5,0(a5)
   18dfc:	08078263          	beq	a5,zero,18e80 <dwarf::type_unit::type_unit(dwarf::dwarf const&, unsigned long)+0x238>
    _Atomic_word __result = *__mem;
   18e00:	03042503          	lw	a0,48(s0)
    *__mem += __val;
   18e04:	fff5079b          	addiw	a5,a0,-1
   18e08:	02f42823          	sw	a5,48(s0)
      if (__gnu_cxx::__exchange_and_add_dispatch(&_M_use_count, -1) == 1)
   18e0c:	00100793          	addi	a5,zero,1
   18e10:	72f51663          	bne	a0,a5,1953c <dwarf::type_unit::type_unit(dwarf::dwarf const&, unsigned long)+0x8f4>
	_M_dispose();
   18e14:	00043783          	ld	a5,0(s0)
   18e18:	0107b783          	ld	a5,16(a5)
   18e1c:	00040513          	addi	a0,s0,0
   18e20:	000780e7          	jalr	ra,0(a5)
	    __atomic_thread_fence (__ATOMIC_ACQ_REL);
   18e24:	0ff0000f          	fence	iorw,iorw
    if (__is_single_threaded())
   18e28:	00029797          	auipc	a5,0x29
   18e2c:	6587b783          	ld	a5,1624(a5) # 42480 <__libc_single_threaded@GLIBC_2.32-0x1a0>
   18e30:	0007c783          	lbu	a5,0(a5)
   18e34:	04078e63          	beq	a5,zero,18e90 <dwarf::type_unit::type_unit(dwarf::dwarf const&, unsigned long)+0x248>
    _Atomic_word __result = *__mem;
   18e38:	03442503          	lw	a0,52(s0)
    *__mem += __val;
   18e3c:	fff5079b          	addiw	a5,a0,-1
   18e40:	02f42a23          	sw	a5,52(s0)
	if (__gnu_cxx::__exchange_and_add_dispatch(&_M_weak_count,
   18e44:	00100793          	addi	a5,zero,1
   18e48:	6ef51a63          	bne	a0,a5,1953c <dwarf::type_unit::type_unit(dwarf::dwarf const&, unsigned long)+0x8f4>
	    _M_destroy();
   18e4c:	00043783          	ld	a5,0(s0)
   18e50:	0187b783          	ld	a5,24(a5)
   18e54:	00040513          	addi	a0,s0,0
   18e58:	000780e7          	jalr	ra,0(a5)
   18e5c:	6e00006f          	jal	zero,1953c <dwarf::type_unit::type_unit(dwarf::dwarf const&, unsigned long)+0x8f4>
      __atomic_add(__mem, __val);
   18e60:	00100593          	addi	a1,zero,1
   18e64:	03040513          	addi	a0,s0,48
   18e68:	ce8fd0ef          	jal	ra,16350 <__gnu_cxx::__atomic_add(int volatile*, int)@plt>
   18e6c:	f59ff06f          	jal	zero,18dc4 <dwarf::type_unit::type_unit(dwarf::dwarf const&, unsigned long)+0x17c>
   18e70:	00100593          	addi	a1,zero,1
   18e74:	03040513          	addi	a0,s0,48
   18e78:	cd8fd0ef          	jal	ra,16350 <__gnu_cxx::__atomic_add(int volatile*, int)@plt>
   18e7c:	f6dff06f          	jal	zero,18de8 <dwarf::type_unit::type_unit(dwarf::dwarf const&, unsigned long)+0x1a0>
      return __exchange_and_add(__mem, __val);
   18e80:	fff00593          	addi	a1,zero,-1
   18e84:	03040513          	addi	a0,s0,48
   18e88:	cf8fd0ef          	jal	ra,16380 <__gnu_cxx::__exchange_and_add(int volatile*, int)@plt>
   18e8c:	f81ff06f          	jal	zero,18e0c <dwarf::type_unit::type_unit(dwarf::dwarf const&, unsigned long)+0x1c4>
   18e90:	fff00593          	addi	a1,zero,-1
   18e94:	03440513          	addi	a0,s0,52
   18e98:	ce8fd0ef          	jal	ra,16380 <__gnu_cxx::__exchange_and_add(int volatile*, int)@plt>
   18e9c:	fa9ff06f          	jal	zero,18e44 <dwarf::type_unit::type_unit(dwarf::dwarf const&, unsigned long)+0x1fc>
    if ((section_offset)(sec->end - pos) < bytes || pos >= sec->end)
   18ea0:	02813783          	ld	a5,40(sp)
   18ea4:	0107b703          	ld	a4,16(a5)
   18ea8:	03813783          	ld	a5,56(sp)
   18eac:	40f70633          	sub	a2,a4,a5
   18eb0:	00100693          	addi	a3,zero,1
   18eb4:	00c6f463          	bgeu	a3,a2,18ebc <dwarf::type_unit::type_unit(dwarf::dwarf const&, unsigned long)+0x274>
   18eb8:	00e7e663          	bltu	a5,a4,18ec4 <dwarf::type_unit::type_unit(dwarf::dwarf const&, unsigned long)+0x27c>
      underflow();
   18ebc:	02810513          	addi	a0,sp,40
   18ec0:	28d030ef          	jal	ra,1c94c <dwarf::cursor::underflow()>
    const unsigned char *p = (const unsigned char *)pos;
   18ec4:	03813703          	ld	a4,56(sp)
    if (sec->ord == byte_order::lsb) {
   18ec8:	02813783          	ld	a5,40(sp)
   18ecc:	01c7a783          	lw	a5,28(a5)
   18ed0:	02079c63          	bne	a5,zero,18f08 <dwarf::type_unit::type_unit(dwarf::dwarf const&, unsigned long)+0x2c0>
        val |= ((uint64_t)p[i]) << (i * 8);
   18ed4:	00174783          	lbu	a5,1(a4)
   18ed8:	00879793          	slli	a5,a5,0x8
   18edc:	00074683          	lbu	a3,0(a4)
   18ee0:	00d7e7b3          	or	a5,a5,a3
    pos += sizeof(T);
   18ee4:	00270713          	addi	a4,a4,2
   18ee8:	02e13c23          	sd	a4,56(sp)
    return (T)val;
   18eec:	03079413          	slli	s0,a5,0x30
   18ef0:	03045413          	srli	s0,s0,0x30
  if (version != 4)
   18ef4:	00400713          	addi	a4,zero,4
   18ef8:	02e79263          	bne	a5,a4,18f1c <dwarf::type_unit::type_unit(dwarf::dwarf const&, unsigned long)+0x2d4>
  section_offset debug_abbrev_offset = sub.offset();
   18efc:	02810513          	addi	a0,sp,40
   18f00:	1d8040ef          	jal	ra,1d0d8 <dwarf::cursor::offset()>
   18f04:	0bc0006f          	jal	zero,18fc0 <dwarf::type_unit::type_unit(dwarf::dwarf const&, unsigned long)+0x378>
        val = (val << 8) | (uint64_t)p[i];
   18f08:	00074783          	lbu	a5,0(a4)
   18f0c:	00879793          	slli	a5,a5,0x8
   18f10:	00174683          	lbu	a3,1(a4)
   18f14:	00d7e7b3          	or	a5,a5,a3
      for (unsigned i = 0; i < sizeof(T); i++)
   18f18:	fcdff06f          	jal	zero,18ee4 <dwarf::type_unit::type_unit(dwarf::dwarf const&, unsigned long)+0x29c>
    throw format_error("unknown type unit version " + std::to_string(version));
   18f1c:	01000513          	addi	a0,zero,16
   18f20:	d00fd0ef          	jal	ra,16420 <__cxa_allocate_exception@plt>
   18f24:	00050493          	addi	s1,a0,0
   18f28:	00040593          	addi	a1,s0,0
   18f2c:	06010413          	addi	s0,sp,96
   18f30:	00040513          	addi	a0,s0,0
   18f34:	00029317          	auipc	t1,0x29
   18f38:	55c33303          	ld	t1,1372(t1) # 42490 <std::__cxx11::to_string(int)@@Base+0x27884>
   18f3c:	000300e7          	jalr	ra,0(t1)
    { return std::move(__rhs.insert(0, __lhs)); }
   18f40:	0001e617          	auipc	a2,0x1e
   18f44:	92860613          	addi	a2,a2,-1752 # 36868 <std::_Sp_make_shared_tag::_S_ti()::__tag+0xc0>
   18f48:	00000593          	addi	a1,zero,0
   18f4c:	00040513          	addi	a0,s0,0
   18f50:	c40fd0ef          	jal	ra,16390 <std::__cxx11::basic_string<char, std::char_traits<char>, std::allocator<char> >::insert(unsigned long, char const*)@plt>
   18f54:	00050593          	addi	a1,a0,0
   18f58:	04010413          	addi	s0,sp,64
   18f5c:	00040513          	addi	a0,s0,0
   18f60:	d10fd0ef          	jal	ra,16470 <std::__cxx11::basic_string<char, std::char_traits<char>, std::allocator<char> >::basic_string(std::__cxx11::basic_string<char, std::char_traits<char>, std::allocator<char> >&&)@plt>
      : std::runtime_error(what_arg) {}
   18f64:	00040593          	addi	a1,s0,0
   18f68:	00048513          	addi	a0,s1,0
   18f6c:	e34fd0ef          	jal	ra,165a0 <std::runtime_error::runtime_error(std::__cxx11::basic_string<char, std::char_traits<char>, std::allocator<char> > const&)@plt>
   18f70:	00029797          	auipc	a5,0x29
   18f74:	5e87b783          	ld	a5,1512(a5) # 42558 <vtable for dwarf::format_error@@Base+0xc28>
   18f78:	01078793          	addi	a5,a5,16
   18f7c:	00f4b023          	sd	a5,0(s1)
      { return _M_dataplus._M_p; }
   18f80:	04013503          	ld	a0,64(sp)
	if (!_M_is_local())
   18f84:	05010793          	addi	a5,sp,80
   18f88:	00f50463          	beq	a0,a5,18f90 <dwarf::type_unit::type_unit(dwarf::dwarf const&, unsigned long)+0x348>
	_GLIBCXX_OPERATOR_DELETE(_GLIBCXX_SIZED_DEALLOC(__p, __n));
   18f8c:	d84fd0ef          	jal	ra,16510 <operator delete(void*)@plt>
      { return _M_dataplus._M_p; }
   18f90:	06013503          	ld	a0,96(sp)
	if (!_M_is_local())
   18f94:	07010793          	addi	a5,sp,112
   18f98:	00f50463          	beq	a0,a5,18fa0 <dwarf::type_unit::type_unit(dwarf::dwarf const&, unsigned long)+0x358>
   18f9c:	d74fd0ef          	jal	ra,16510 <operator delete(void*)@plt>
   18fa0:	00029617          	auipc	a2,0x29
   18fa4:	3e063603          	ld	a2,992(a2) # 42380 <dwarf::format_error::~format_error()@@Base+0x27a0c>
   18fa8:	00029597          	auipc	a1,0x29
   18fac:	3085b583          	ld	a1,776(a1) # 422b0 <typeinfo for dwarf::format_error@@Base+0x9f8>
   18fb0:	00048513          	addi	a0,s1,0
   18fb4:	f0cfd0ef          	jal	ra,166c0 <__cxa_throw@plt>
	if (_M_pi != nullptr)
   18fb8:	00050413          	addi	s0,a0,0
   18fbc:	4d80006f          	jal	zero,19494 <dwarf::type_unit::type_unit(dwarf::dwarf const&, unsigned long)+0x84c>
  section_offset debug_abbrev_offset = sub.offset();
   18fc0:	00050a93          	addi	s5,a0,0
    if ((section_offset)(sec->end - pos) < bytes || pos >= sec->end)
   18fc4:	02813783          	ld	a5,40(sp)
   18fc8:	0107b703          	ld	a4,16(a5)
   18fcc:	03813783          	ld	a5,56(sp)
   18fd0:	00e7e663          	bltu	a5,a4,18fdc <dwarf::type_unit::type_unit(dwarf::dwarf const&, unsigned long)+0x394>
      underflow();
   18fd4:	02810513          	addi	a0,sp,40
   18fd8:	175030ef          	jal	ra,1c94c <dwarf::cursor::underflow()>
    const unsigned char *p = (const unsigned char *)pos;
   18fdc:	03813783          	ld	a5,56(sp)
      { return _M_ptr; }
   18fe0:	02813703          	ld	a4,40(sp)
    if (sec->ord == byte_order::lsb) {
   18fe4:	01c72683          	lw	a3,28(a4)
   18fe8:	50068863          	beq	a3,zero,194f8 <dwarf::type_unit::type_unit(dwarf::dwarf const&, unsigned long)+0x8b0>
        val = (val << 8) | (uint64_t)p[i];
   18fec:	0007c603          	lbu	a2,0(a5)
      for (unsigned i = 0; i < sizeof(T); i++)
   18ff0:	50c0006f          	jal	zero,194fc <dwarf::type_unit::type_unit(dwarf::dwarf const&, unsigned long)+0x8b4>
    const unsigned char *p = (const unsigned char *)pos;
   18ff4:	03813603          	ld	a2,56(sp)
    if (sec->ord == byte_order::lsb) {
   18ff8:	02813783          	ld	a5,40(sp)
   18ffc:	01c7a783          	lw	a5,28(a5)
   19000:	02079e63          	bne	a5,zero,1903c <dwarf::type_unit::type_unit(dwarf::dwarf const&, unsigned long)+0x3f4>
   19004:	00060693          	addi	a3,a2,0
    uint64_t val = 0;
   19008:	00000493          	addi	s1,zero,0
      for (unsigned i = 0; i < sizeof(T); i++)
   1900c:	04000593          	addi	a1,zero,64
        val |= ((uint64_t)p[i]) << (i * 8);
   19010:	0006c703          	lbu	a4,0(a3)
   19014:	00f71733          	sll	a4,a4,a5
   19018:	00e4e4b3          	or	s1,s1,a4
      for (unsigned i = 0; i < sizeof(T); i++)
   1901c:	00168693          	addi	a3,a3,1
   19020:	0087879b          	addiw	a5,a5,8
   19024:	feb796e3          	bne	a5,a1,19010 <dwarf::type_unit::type_unit(dwarf::dwarf const&, unsigned long)+0x3c8>
    pos += sizeof(T);
   19028:	00860613          	addi	a2,a2,8
   1902c:	02c13c23          	sd	a2,56(sp)
  section_offset type_offset = sub.offset();
   19030:	02810513          	addi	a0,sp,40
   19034:	0a4040ef          	jal	ra,1d0d8 <dwarf::cursor::offset()>
   19038:	0280006f          	jal	zero,19060 <dwarf::type_unit::type_unit(dwarf::dwarf const&, unsigned long)+0x418>
   1903c:	00060793          	addi	a5,a2,0
   19040:	00860693          	addi	a3,a2,8
    uint64_t val = 0;
   19044:	00000493          	addi	s1,zero,0
        val = (val << 8) | (uint64_t)p[i];
   19048:	00849493          	slli	s1,s1,0x8
   1904c:	0007c703          	lbu	a4,0(a5)
   19050:	009764b3          	or	s1,a4,s1
      for (unsigned i = 0; i < sizeof(T); i++)
   19054:	00178793          	addi	a5,a5,1
   19058:	fef698e3          	bne	a3,a5,19048 <dwarf::type_unit::type_unit(dwarf::dwarf const&, unsigned long)+0x400>
   1905c:	fcdff06f          	jal	zero,19028 <dwarf::type_unit::type_unit(dwarf::dwarf const&, unsigned long)+0x3e0>
   19060:	00050b13          	addi	s6,a0,0
  section_offset get_section_offset() const { return pos - sec->begin; }
   19064:	02813783          	ld	a5,40(sp)
   19068:	0087b783          	ld	a5,8(a5)
   1906c:	03813b83          	ld	s7,56(sp)
   19070:	40fb8bb3          	sub	s7,s7,a5
	return static_cast<_Tp*>(_GLIBCXX_OPERATOR_NEW(__n * sizeof(_Tp)));
   19074:	1c800513          	addi	a0,zero,456
   19078:	ca8fd0ef          	jal	ra,16520 <operator new(unsigned long)@plt>
   1907c:	00050413          	addi	s0,a0,0
   19080:	00052423          	sw	zero,8(a0)
   19084:	00052623          	sw	zero,12(a0)
   19088:	00052823          	sw	zero,16(a0)
   1908c:	00052a23          	sw	zero,20(a0)
   19090:	00052c23          	sw	zero,24(a0)
   19094:	00052e23          	sw	zero,28(a0)
   19098:	02053023          	sd	zero,32(a0)
   1909c:	02053423          	sd	zero,40(a0)
      : _M_use_count(1), _M_weak_count(1) { }
   190a0:	00100793          	addi	a5,zero,1
   190a4:	02f52823          	sw	a5,48(a0)
   190a8:	02f52a23          	sw	a5,52(a0)
	: _M_impl(__a)
   190ac:	00029797          	auipc	a5,0x29
   190b0:	38c7b783          	ld	a5,908(a5) # 42438 <vtable for std::_Sp_counted_ptr_inplace<dwarf::unit::impl, std::allocator<void>, (__gnu_cxx::_Lock_policy)1>@@Base+0xa50>
   190b4:	01078793          	addi	a5,a5,16
   190b8:	00f53023          	sd	a5,0(a0)
   190bc:	03850c13          	addi	s8,a0,56
      __shared_ptr(const __shared_ptr&) noexcept = default;
   190c0:	0009b783          	ld	a5,0(s3)
   190c4:	02f53c23          	sd	a5,56(a0)
      : _M_pi(__r._M_pi)
   190c8:	0089b503          	ld	a0,8(s3)
   190cc:	04a43023          	sd	a0,64(s0)
	if (_M_pi != nullptr)
   190d0:	02050063          	beq	a0,zero,190f0 <dwarf::type_unit::type_unit(dwarf::dwarf const&, unsigned long)+0x4a8>
    if (__is_single_threaded())
   190d4:	00029797          	auipc	a5,0x29
   190d8:	3ac7b783          	ld	a5,940(a5) # 42480 <__libc_single_threaded@GLIBC_2.32-0x1a0>
   190dc:	0007c783          	lbu	a5,0(a5)
   190e0:	1a078c63          	beq	a5,zero,19298 <dwarf::type_unit::type_unit(dwarf::dwarf const&, unsigned long)+0x650>
  { *__mem += __val; }
   190e4:	03052783          	lw	a5,48(a0)
   190e8:	0017879b          	addiw	a5,a5,1
   190ec:	02f52823          	sw	a5,48(a0)
      : file(file), offset(offset), subsec(subsec),
   190f0:	05443423          	sd	s4,72(s0)
      __shared_ptr(const __shared_ptr&) noexcept = default;
   190f4:	00013783          	ld	a5,0(sp)
   190f8:	04f43823          	sd	a5,80(s0)
      : _M_pi(__r._M_pi)
   190fc:	00813503          	ld	a0,8(sp)
   19100:	04a43c23          	sd	a0,88(s0)
	if (_M_pi != nullptr)
   19104:	02050063          	beq	a0,zero,19124 <dwarf::type_unit::type_unit(dwarf::dwarf const&, unsigned long)+0x4dc>
    if (__is_single_threaded())
   19108:	00029797          	auipc	a5,0x29
   1910c:	3787b783          	ld	a5,888(a5) # 42480 <__libc_single_threaded@GLIBC_2.32-0x1a0>
   19110:	0007c783          	lbu	a5,0(a5)
   19114:	18078a63          	beq	a5,zero,192a8 <dwarf::type_unit::type_unit(dwarf::dwarf const&, unsigned long)+0x660>
  { *__mem += __val; }
   19118:	03052783          	lw	a5,48(a0)
   1911c:	0017879b          	addiw	a5,a5,1
   19120:	02f52823          	sw	a5,48(a0)
        debug_abbrev_offset(debug_abbrev_offset), root_offset(root_offset),
   19124:	07543023          	sd	s5,96(s0)
   19128:	07743423          	sd	s7,104(s0)
        type_signature(type_signature), type_offset(type_offset),
   1912c:	06943823          	sd	s1,112(s0)
   19130:	07643c23          	sd	s6,120(s0)
  die() : cu(nullptr), abbrev(nullptr) {}
   19134:	08043423          	sd	zero,136(s0)
   19138:	08043823          	sd	zero,144(s0)
   1913c:	0a040793          	addi	a5,s0,160
   19140:	0cf43823          	sd	a5,208(s0)
   19144:	0cf43c23          	sd	a5,216(s0)
   19148:	0d040793          	addi	a5,s0,208
   1914c:	0ef43023          	sd	a5,224(s0)
   19150:	0e043c23          	sd	zero,248(s0)
   19154:	10043023          	sd	zero,256(s0)
   19158:	11040793          	addi	a5,s0,272
   1915c:	14f43023          	sd	a5,320(s0)
   19160:	14f43423          	sd	a5,328(s0)
   19164:	14040793          	addi	a5,s0,320
   19168:	14f43823          	sd	a5,336(s0)
      : _M_ptr(0), _M_refcount()
   1916c:	16043023          	sd	zero,352(s0)
      constexpr __shared_count() noexcept : _M_pi(0)
   19170:	16043423          	sd	zero,360(s0)
        have_abbrevs(false) {}
   19174:	16040823          	sb	zero,368(s0)
   19178:	16043c23          	sd	zero,376(s0)
   1917c:	18043023          	sd	zero,384(s0)
   19180:	18043423          	sd	zero,392(s0)
   19184:	1c040793          	addi	a5,s0,448
   19188:	18f43823          	sd	a5,400(s0)
   1918c:	00100793          	addi	a5,zero,1
   19190:	18f43c23          	sd	a5,408(s0)
    _Hash_node_base() noexcept : _M_nxt() { }
   19194:	1a043023          	sd	zero,416(s0)
   19198:	1a043423          	sd	zero,424(s0)
    : _M_max_load_factor(__z), _M_next_resize(0) { }
   1919c:	0001e797          	auipc	a5,0x1e
   191a0:	9447a787          	flw	fa5,-1724(a5) # 36ae0 <std::__detail::__to_chars_10_impl<unsigned int>(char*, unsigned int, unsigned int)::__digits+0xf0>
   191a4:	1af42827          	fsw	fa5,432(s0)
   191a8:	1a043c23          	sd	zero,440(s0)
   191ac:	1c043023          	sd	zero,448(s0)
   191b0:	01893423          	sd	s8,8(s2)
	_Sp_counted_base<_Lp>* __tmp = __r._M_pi;
   191b4:	01093483          	ld	s1,16(s2)
	__r._M_pi = _M_pi;
   191b8:	00893823          	sd	s0,16(s2)
	if (_M_pi != nullptr)
   191bc:	02048463          	beq	s1,zero,191e4 <dwarf::type_unit::type_unit(dwarf::dwarf const&, unsigned long)+0x59c>
    if (__is_single_threaded())
   191c0:	00029797          	auipc	a5,0x29
   191c4:	2c07b783          	ld	a5,704(a5) # 42480 <__libc_single_threaded@GLIBC_2.32-0x1a0>
   191c8:	0007c783          	lbu	a5,0(a5)
   191cc:	0e078663          	beq	a5,zero,192b8 <dwarf::type_unit::type_unit(dwarf::dwarf const&, unsigned long)+0x670>
    _Atomic_word __result = *__mem;
   191d0:	0304a503          	lw	a0,48(s1)
    *__mem += __val;
   191d4:	fff5079b          	addiw	a5,a0,-1
   191d8:	02f4a823          	sw	a5,48(s1)
      if (__gnu_cxx::__exchange_and_add_dispatch(&_M_use_count, -1) == 1)
   191dc:	00100793          	addi	a5,zero,1
   191e0:	0ef50463          	beq	a0,a5,192c8 <dwarf::type_unit::type_unit(dwarf::dwarf const&, unsigned long)+0x680>
	if (_M_pi != nullptr)
   191e4:	03013403          	ld	s0,48(sp)
   191e8:	02040463          	beq	s0,zero,19210 <dwarf::type_unit::type_unit(dwarf::dwarf const&, unsigned long)+0x5c8>
    if (__is_single_threaded())
   191ec:	00029797          	auipc	a5,0x29
   191f0:	2947b783          	ld	a5,660(a5) # 42480 <__libc_single_threaded@GLIBC_2.32-0x1a0>
   191f4:	0007c783          	lbu	a5,0(a5)
   191f8:	12078663          	beq	a5,zero,19324 <dwarf::type_unit::type_unit(dwarf::dwarf const&, unsigned long)+0x6dc>
    _Atomic_word __result = *__mem;
   191fc:	03042503          	lw	a0,48(s0)
    *__mem += __val;
   19200:	fff5079b          	addiw	a5,a0,-1
   19204:	02f42823          	sw	a5,48(s0)
      if (__gnu_cxx::__exchange_and_add_dispatch(&_M_use_count, -1) == 1)
   19208:	00100793          	addi	a5,zero,1
   1920c:	12f50463          	beq	a0,a5,19334 <dwarf::type_unit::type_unit(dwarf::dwarf const&, unsigned long)+0x6ec>
	if (_M_pi != nullptr)
   19210:	00813403          	ld	s0,8(sp)
   19214:	02040463          	beq	s0,zero,1923c <dwarf::type_unit::type_unit(dwarf::dwarf const&, unsigned long)+0x5f4>
    if (__is_single_threaded())
   19218:	00029797          	auipc	a5,0x29
   1921c:	2687b783          	ld	a5,616(a5) # 42480 <__libc_single_threaded@GLIBC_2.32-0x1a0>
   19220:	0007c783          	lbu	a5,0(a5)
   19224:	16078663          	beq	a5,zero,19390 <dwarf::type_unit::type_unit(dwarf::dwarf const&, unsigned long)+0x748>
    _Atomic_word __result = *__mem;
   19228:	03042503          	lw	a0,48(s0)
    *__mem += __val;
   1922c:	fff5079b          	addiw	a5,a0,-1
   19230:	02f42823          	sw	a5,48(s0)
      if (__gnu_cxx::__exchange_and_add_dispatch(&_M_use_count, -1) == 1)
   19234:	00100793          	addi	a5,zero,1
   19238:	16f50463          	beq	a0,a5,193a0 <dwarf::type_unit::type_unit(dwarf::dwarf const&, unsigned long)+0x758>
	if (_M_pi != nullptr)
   1923c:	01813403          	ld	s0,24(sp)
   19240:	02040463          	beq	s0,zero,19268 <dwarf::type_unit::type_unit(dwarf::dwarf const&, unsigned long)+0x620>
    if (__is_single_threaded())
   19244:	00029797          	auipc	a5,0x29
   19248:	23c7b783          	ld	a5,572(a5) # 42480 <__libc_single_threaded@GLIBC_2.32-0x1a0>
   1924c:	0007c783          	lbu	a5,0(a5)
   19250:	1a078663          	beq	a5,zero,193fc <dwarf::type_unit::type_unit(dwarf::dwarf const&, unsigned long)+0x7b4>
    _Atomic_word __result = *__mem;
   19254:	03042503          	lw	a0,48(s0)
    *__mem += __val;
   19258:	fff5079b          	addiw	a5,a0,-1
   1925c:	02f42823          	sw	a5,48(s0)
      if (__gnu_cxx::__exchange_and_add_dispatch(&_M_use_count, -1) == 1)
   19260:	00100793          	addi	a5,zero,1
   19264:	1af50463          	beq	a0,a5,1940c <dwarf::type_unit::type_unit(dwarf::dwarf const&, unsigned long)+0x7c4>
}
   19268:	0d813083          	ld	ra,216(sp)
   1926c:	0d013403          	ld	s0,208(sp)
   19270:	0c813483          	ld	s1,200(sp)
   19274:	0c013903          	ld	s2,192(sp)
   19278:	0b813983          	ld	s3,184(sp)
   1927c:	0b013a03          	ld	s4,176(sp)
   19280:	0a813a83          	ld	s5,168(sp)
   19284:	0a013b03          	ld	s6,160(sp)
   19288:	09813b83          	ld	s7,152(sp)
   1928c:	09013c03          	ld	s8,144(sp)
   19290:	0e010113          	addi	sp,sp,224
   19294:	00008067          	jalr	zero,0(ra)
      __atomic_add(__mem, __val);
   19298:	00100593          	addi	a1,zero,1
   1929c:	03050513          	addi	a0,a0,48
   192a0:	8b0fd0ef          	jal	ra,16350 <__gnu_cxx::__atomic_add(int volatile*, int)@plt>
   192a4:	e4dff06f          	jal	zero,190f0 <dwarf::type_unit::type_unit(dwarf::dwarf const&, unsigned long)+0x4a8>
   192a8:	00100593          	addi	a1,zero,1
   192ac:	03050513          	addi	a0,a0,48
   192b0:	8a0fd0ef          	jal	ra,16350 <__gnu_cxx::__atomic_add(int volatile*, int)@plt>
   192b4:	e71ff06f          	jal	zero,19124 <dwarf::type_unit::type_unit(dwarf::dwarf const&, unsigned long)+0x4dc>
      return __exchange_and_add(__mem, __val);
   192b8:	fff00593          	addi	a1,zero,-1
   192bc:	03048513          	addi	a0,s1,48
   192c0:	8c0fd0ef          	jal	ra,16380 <__gnu_cxx::__exchange_and_add(int volatile*, int)@plt>
   192c4:	f19ff06f          	jal	zero,191dc <dwarf::type_unit::type_unit(dwarf::dwarf const&, unsigned long)+0x594>
	_M_dispose();
   192c8:	0004b783          	ld	a5,0(s1)
   192cc:	0107b783          	ld	a5,16(a5)
   192d0:	00048513          	addi	a0,s1,0
   192d4:	000780e7          	jalr	ra,0(a5)
	    __atomic_thread_fence (__ATOMIC_ACQ_REL);
   192d8:	0ff0000f          	fence	iorw,iorw
    if (__is_single_threaded())
   192dc:	00029797          	auipc	a5,0x29
   192e0:	1a47b783          	ld	a5,420(a5) # 42480 <__libc_single_threaded@GLIBC_2.32-0x1a0>
   192e4:	0007c783          	lbu	a5,0(a5)
   192e8:	02078663          	beq	a5,zero,19314 <dwarf::type_unit::type_unit(dwarf::dwarf const&, unsigned long)+0x6cc>
    _Atomic_word __result = *__mem;
   192ec:	0344a503          	lw	a0,52(s1)
    *__mem += __val;
   192f0:	fff5079b          	addiw	a5,a0,-1
   192f4:	02f4aa23          	sw	a5,52(s1)
	if (__gnu_cxx::__exchange_and_add_dispatch(&_M_weak_count,
   192f8:	00100793          	addi	a5,zero,1
   192fc:	eef514e3          	bne	a0,a5,191e4 <dwarf::type_unit::type_unit(dwarf::dwarf const&, unsigned long)+0x59c>
	    _M_destroy();
   19300:	0004b783          	ld	a5,0(s1)
   19304:	0187b783          	ld	a5,24(a5)
   19308:	00048513          	addi	a0,s1,0
   1930c:	000780e7          	jalr	ra,0(a5)
   19310:	ed5ff06f          	jal	zero,191e4 <dwarf::type_unit::type_unit(dwarf::dwarf const&, unsigned long)+0x59c>
      return __exchange_and_add(__mem, __val);
   19314:	fff00593          	addi	a1,zero,-1
   19318:	03448513          	addi	a0,s1,52
   1931c:	864fd0ef          	jal	ra,16380 <__gnu_cxx::__exchange_and_add(int volatile*, int)@plt>
   19320:	fd9ff06f          	jal	zero,192f8 <dwarf::type_unit::type_unit(dwarf::dwarf const&, unsigned long)+0x6b0>
   19324:	fff00593          	addi	a1,zero,-1
   19328:	03040513          	addi	a0,s0,48
   1932c:	854fd0ef          	jal	ra,16380 <__gnu_cxx::__exchange_and_add(int volatile*, int)@plt>
   19330:	ed9ff06f          	jal	zero,19208 <dwarf::type_unit::type_unit(dwarf::dwarf const&, unsigned long)+0x5c0>
	_M_dispose();
   19334:	00043783          	ld	a5,0(s0)
   19338:	0107b783          	ld	a5,16(a5)
   1933c:	00040513          	addi	a0,s0,0
   19340:	000780e7          	jalr	ra,0(a5)
	    __atomic_thread_fence (__ATOMIC_ACQ_REL);
   19344:	0ff0000f          	fence	iorw,iorw
    if (__is_single_threaded())
   19348:	00029797          	auipc	a5,0x29
   1934c:	1387b783          	ld	a5,312(a5) # 42480 <__libc_single_threaded@GLIBC_2.32-0x1a0>
   19350:	0007c783          	lbu	a5,0(a5)
   19354:	02078663          	beq	a5,zero,19380 <dwarf::type_unit::type_unit(dwarf::dwarf const&, unsigned long)+0x738>
    _Atomic_word __result = *__mem;
   19358:	03442503          	lw	a0,52(s0)
    *__mem += __val;
   1935c:	fff5079b          	addiw	a5,a0,-1
   19360:	02f42a23          	sw	a5,52(s0)
	if (__gnu_cxx::__exchange_and_add_dispatch(&_M_weak_count,
   19364:	00100793          	addi	a5,zero,1
   19368:	eaf514e3          	bne	a0,a5,19210 <dwarf::type_unit::type_unit(dwarf::dwarf const&, unsigned long)+0x5c8>
	    _M_destroy();
   1936c:	00043783          	ld	a5,0(s0)
   19370:	0187b783          	ld	a5,24(a5)
   19374:	00040513          	addi	a0,s0,0
   19378:	000780e7          	jalr	ra,0(a5)
   1937c:	e95ff06f          	jal	zero,19210 <dwarf::type_unit::type_unit(dwarf::dwarf const&, unsigned long)+0x5c8>
      return __exchange_and_add(__mem, __val);
   19380:	fff00593          	addi	a1,zero,-1
   19384:	03440513          	addi	a0,s0,52
   19388:	ff9fc0ef          	jal	ra,16380 <__gnu_cxx::__exchange_and_add(int volatile*, int)@plt>
   1938c:	fd9ff06f          	jal	zero,19364 <dwarf::type_unit::type_unit(dwarf::dwarf const&, unsigned long)+0x71c>
   19390:	fff00593          	addi	a1,zero,-1
   19394:	03040513          	addi	a0,s0,48
   19398:	fe9fc0ef          	jal	ra,16380 <__gnu_cxx::__exchange_and_add(int volatile*, int)@plt>
   1939c:	e99ff06f          	jal	zero,19234 <dwarf::type_unit::type_unit(dwarf::dwarf const&, unsigned long)+0x5ec>
	_M_dispose();
   193a0:	00043783          	ld	a5,0(s0)
   193a4:	0107b783          	ld	a5,16(a5)
   193a8:	00040513          	addi	a0,s0,0
   193ac:	000780e7          	jalr	ra,0(a5)
	    __atomic_thread_fence (__ATOMIC_ACQ_REL);
   193b0:	0ff0000f          	fence	iorw,iorw
    if (__is_single_threaded())
   193b4:	00029797          	auipc	a5,0x29
   193b8:	0cc7b783          	ld	a5,204(a5) # 42480 <__libc_single_threaded@GLIBC_2.32-0x1a0>
   193bc:	0007c783          	lbu	a5,0(a5)
   193c0:	02078663          	beq	a5,zero,193ec <dwarf::type_unit::type_unit(dwarf::dwarf const&, unsigned long)+0x7a4>
    _Atomic_word __result = *__mem;
   193c4:	03442503          	lw	a0,52(s0)
    *__mem += __val;
   193c8:	fff5079b          	addiw	a5,a0,-1
   193cc:	02f42a23          	sw	a5,52(s0)
	if (__gnu_cxx::__exchange_and_add_dispatch(&_M_weak_count,
   193d0:	00100793          	addi	a5,zero,1
   193d4:	e6f514e3          	bne	a0,a5,1923c <dwarf::type_unit::type_unit(dwarf::dwarf const&, unsigned long)+0x5f4>
	    _M_destroy();
   193d8:	00043783          	ld	a5,0(s0)
   193dc:	0187b783          	ld	a5,24(a5)
   193e0:	00040513          	addi	a0,s0,0
   193e4:	000780e7          	jalr	ra,0(a5)
   193e8:	e55ff06f          	jal	zero,1923c <dwarf::type_unit::type_unit(dwarf::dwarf const&, unsigned long)+0x5f4>
      return __exchange_and_add(__mem, __val);
   193ec:	fff00593          	addi	a1,zero,-1
   193f0:	03440513          	addi	a0,s0,52
   193f4:	f8dfc0ef          	jal	ra,16380 <__gnu_cxx::__exchange_and_add(int volatile*, int)@plt>
   193f8:	fd9ff06f          	jal	zero,193d0 <dwarf::type_unit::type_unit(dwarf::dwarf const&, unsigned long)+0x788>
   193fc:	fff00593          	addi	a1,zero,-1
   19400:	03040513          	addi	a0,s0,48
   19404:	f7dfc0ef          	jal	ra,16380 <__gnu_cxx::__exchange_and_add(int volatile*, int)@plt>
   19408:	e59ff06f          	jal	zero,19260 <dwarf::type_unit::type_unit(dwarf::dwarf const&, unsigned long)+0x618>
	_M_dispose();
   1940c:	00043783          	ld	a5,0(s0)
   19410:	0107b783          	ld	a5,16(a5)
   19414:	00040513          	addi	a0,s0,0
   19418:	000780e7          	jalr	ra,0(a5)
	    __atomic_thread_fence (__ATOMIC_ACQ_REL);
   1941c:	0ff0000f          	fence	iorw,iorw
    if (__is_single_threaded())
   19420:	00029797          	auipc	a5,0x29
   19424:	0607b783          	ld	a5,96(a5) # 42480 <__libc_single_threaded@GLIBC_2.32-0x1a0>
   19428:	0007c783          	lbu	a5,0(a5)
   1942c:	02078663          	beq	a5,zero,19458 <dwarf::type_unit::type_unit(dwarf::dwarf const&, unsigned long)+0x810>
    _Atomic_word __result = *__mem;
   19430:	03442503          	lw	a0,52(s0)
    *__mem += __val;
   19434:	fff5079b          	addiw	a5,a0,-1
   19438:	02f42a23          	sw	a5,52(s0)
	if (__gnu_cxx::__exchange_and_add_dispatch(&_M_weak_count,
   1943c:	00100793          	addi	a5,zero,1
   19440:	e2f514e3          	bne	a0,a5,19268 <dwarf::type_unit::type_unit(dwarf::dwarf const&, unsigned long)+0x620>
	    _M_destroy();
   19444:	00043783          	ld	a5,0(s0)
   19448:	0187b783          	ld	a5,24(a5)
   1944c:	00040513          	addi	a0,s0,0
   19450:	000780e7          	jalr	ra,0(a5)
   19454:	e15ff06f          	jal	zero,19268 <dwarf::type_unit::type_unit(dwarf::dwarf const&, unsigned long)+0x620>
      return __exchange_and_add(__mem, __val);
   19458:	fff00593          	addi	a1,zero,-1
   1945c:	03440513          	addi	a0,s0,52
   19460:	f21fc0ef          	jal	ra,16380 <__gnu_cxx::__exchange_and_add(int volatile*, int)@plt>
   19464:	fd9ff06f          	jal	zero,1943c <dwarf::type_unit::type_unit(dwarf::dwarf const&, unsigned long)+0x7f4>
      { return _M_dataplus._M_p; }
   19468:	00050413          	addi	s0,a0,0
   1946c:	04013503          	ld	a0,64(sp)
	if (!_M_is_local())
   19470:	05010793          	addi	a5,sp,80
   19474:	00f50463          	beq	a0,a5,1947c <dwarf::type_unit::type_unit(dwarf::dwarf const&, unsigned long)+0x834>
	_GLIBCXX_OPERATOR_DELETE(_GLIBCXX_SIZED_DEALLOC(__p, __n));
   19478:	898fd0ef          	jal	ra,16510 <operator delete(void*)@plt>
      { return _M_dataplus._M_p; }
   1947c:	06013503          	ld	a0,96(sp)
	if (!_M_is_local())
   19480:	07010793          	addi	a5,sp,112
   19484:	00f50463          	beq	a0,a5,1948c <dwarf::type_unit::type_unit(dwarf::dwarf const&, unsigned long)+0x844>
   19488:	888fd0ef          	jal	ra,16510 <operator delete(void*)@plt>
    throw format_error("unknown type unit version " + std::to_string(version));
   1948c:	00048513          	addi	a0,s1,0
   19490:	840fd0ef          	jal	ra,164d0 <__cxa_free_exception@plt>
	if (_M_pi != nullptr)
   19494:	03013503          	ld	a0,48(sp)
   19498:	00050863          	beq	a0,zero,194a8 <dwarf::type_unit::type_unit(dwarf::dwarf const&, unsigned long)+0x860>
	  _M_pi->_M_release();
   1949c:	00029317          	auipc	t1,0x29
   194a0:	f2c33303          	ld	t1,-212(t1) # 423c8 <std::_Sp_counted_base<(__gnu_cxx::_Lock_policy)1>::_M_release()@@Base+0x2b554>
   194a4:	000300e7          	jalr	ra,0(t1)
	if (_M_pi != nullptr)
   194a8:	00813503          	ld	a0,8(sp)
   194ac:	00050863          	beq	a0,zero,194bc <dwarf::type_unit::type_unit(dwarf::dwarf const&, unsigned long)+0x874>
	  _M_pi->_M_release();
   194b0:	00029317          	auipc	t1,0x29
   194b4:	f1833303          	ld	t1,-232(t1) # 423c8 <std::_Sp_counted_base<(__gnu_cxx::_Lock_policy)1>::_M_release()@@Base+0x2b554>
   194b8:	000300e7          	jalr	ra,0(t1)
	if (_M_pi != nullptr)
   194bc:	01813503          	ld	a0,24(sp)
   194c0:	00050863          	beq	a0,zero,194d0 <dwarf::type_unit::type_unit(dwarf::dwarf const&, unsigned long)+0x888>
	  _M_pi->_M_release();
   194c4:	00029317          	auipc	t1,0x29
   194c8:	f0433303          	ld	t1,-252(t1) # 423c8 <std::_Sp_counted_base<(__gnu_cxx::_Lock_policy)1>::_M_release()@@Base+0x2b554>
   194cc:	000300e7          	jalr	ra,0(t1)
}
   194d0:	00090513          	addi	a0,s2,0
   194d4:	d6dfd0ef          	jal	ra,17240 <dwarf::unit::~unit()>
   194d8:	00040513          	addi	a0,s0,0
   194dc:	a14fd0ef          	jal	ra,166f0 <_Unwind_Resume@plt>
      { return _M_dataplus._M_p; }
   194e0:	00050413          	addi	s0,a0,0
   194e4:	f99ff06f          	jal	zero,1947c <dwarf::type_unit::type_unit(dwarf::dwarf const&, unsigned long)+0x834>
	if (_M_pi != nullptr)
   194e8:	00050413          	addi	s0,a0,0
   194ec:	fd1ff06f          	jal	zero,194bc <dwarf::type_unit::type_unit(dwarf::dwarf const&, unsigned long)+0x874>
   194f0:	00050413          	addi	s0,a0,0
   194f4:	fddff06f          	jal	zero,194d0 <dwarf::type_unit::type_unit(dwarf::dwarf const&, unsigned long)+0x888>
        val |= ((uint64_t)p[i]) << (i * 8);
   194f8:	0007c603          	lbu	a2,0(a5)
    pos += sizeof(T);
   194fc:	00178793          	addi	a5,a5,1
   19500:	02f13c23          	sd	a5,56(sp)
  subsec->addr_size = address_size;
   19504:	00013683          	ld	a3,0(sp)
   19508:	02c6a023          	sw	a2,32(a3)
    if ((section_offset)(sec->end - pos) < bytes || pos >= sec->end)
   1950c:	01073703          	ld	a4,16(a4)
   19510:	40f70633          	sub	a2,a4,a5
   19514:	00700693          	addi	a3,zero,7
   19518:	00c6f463          	bgeu	a3,a2,19520 <dwarf::type_unit::type_unit(dwarf::dwarf const&, unsigned long)+0x8d8>
   1951c:	ace7ece3          	bltu	a5,a4,18ff4 <dwarf::type_unit::type_unit(dwarf::dwarf const&, unsigned long)+0x3ac>
      underflow();
   19520:	02810513          	addi	a0,sp,40
   19524:	428030ef          	jal	ra,1c94c <dwarf::cursor::underflow()>
   19528:	acdff06f          	jal	zero,18ff4 <dwarf::type_unit::type_unit(dwarf::dwarf const&, unsigned long)+0x3ac>
      __shared_ptr(const __shared_ptr&) noexcept = default;
   1952c:	02913423          	sd	s1,40(sp)
      : _M_pi(__r._M_pi)
   19530:	02013823          	sd	zero,48(sp)
      : sec(sec), pos(sec->begin + offset) {}
   19534:	0084b783          	ld	a5,8(s1)
   19538:	02f13c23          	sd	a5,56(sp)
  sub.skip_initial_length();
   1953c:	02810513          	addi	a0,sp,40
   19540:	274030ef          	jal	ra,1c7b4 <dwarf::cursor::skip_initial_length()>
   19544:	95dff06f          	jal	zero,18ea0 <dwarf::type_unit::type_unit(dwarf::dwarf const&, unsigned long)+0x258>

0000000000019548 <dwarf::dwarf::get_type_unit(unsigned long) const>:
const type_unit &dwarf::get_type_unit(uint64_t type_signature) const {
   19548:	f2010113          	addi	sp,sp,-224
   1954c:	0c113c23          	sd	ra,216(sp)
   19550:	0c813823          	sd	s0,208(sp)
   19554:	0c913423          	sd	s1,200(sp)
   19558:	0d213023          	sd	s2,192(sp)
   1955c:	0b313c23          	sd	s3,184(sp)
   19560:	0b413823          	sd	s4,176(sp)
   19564:	0b513423          	sd	s5,168(sp)
   19568:	0b613023          	sd	s6,160(sp)
   1956c:	09713c23          	sd	s7,152(sp)
   19570:	09813823          	sd	s8,144(sp)
   19574:	09913423          	sd	s9,136(sp)
   19578:	09a13023          	sd	s10,128(sp)
   1957c:	00050913          	addi	s2,a0,0
   19580:	00b13423          	sd	a1,8(sp)
  if (!m->have_type_units) {
   19584:	00053783          	ld	a5,0(a0)
   19588:	0807c783          	lbu	a5,128(a5)
   1958c:	32079c63          	bne	a5,zero,198c4 <dwarf::dwarf::get_type_unit(unsigned long) const+0x37c>
    cursor tucur(get_section(section_type::types));
   19590:	00b00613          	addi	a2,zero,11
   19594:	00050593          	addi	a1,a0,0
   19598:	05810513          	addi	a0,sp,88
   1959c:	dc1fd0ef          	jal	ra,1735c <dwarf::dwarf::get_section(dwarf::section_type) const>
      __shared_ptr(const __shared_ptr&) noexcept = default;
   195a0:	05813783          	ld	a5,88(sp)
   195a4:	00f13c23          	sd	a5,24(sp)
      : _M_pi(__r._M_pi)
   195a8:	06013503          	ld	a0,96(sp)
   195ac:	02a13023          	sd	a0,32(sp)
	if (_M_pi != nullptr)
   195b0:	02050063          	beq	a0,zero,195d0 <dwarf::dwarf::get_type_unit(unsigned long) const+0x88>
    if (__is_single_threaded())
   195b4:	00029797          	auipc	a5,0x29
   195b8:	ecc7b783          	ld	a5,-308(a5) # 42480 <__libc_single_threaded@GLIBC_2.32-0x1a0>
   195bc:	0007c783          	lbu	a5,0(a5)
   195c0:	08078463          	beq	a5,zero,19648 <dwarf::dwarf::get_type_unit(unsigned long) const+0x100>
  { *__mem += __val; }
   195c4:	03052783          	lw	a5,48(a0)
   195c8:	0017879b          	addiw	a5,a5,1
   195cc:	02f52823          	sw	a5,48(a0)
   195d0:	05813783          	ld	a5,88(sp)
   195d4:	0087b783          	ld	a5,8(a5)
   195d8:	02f13423          	sd	a5,40(sp)
	if (_M_pi != nullptr)
   195dc:	06013403          	ld	s0,96(sp)
   195e0:	02040463          	beq	s0,zero,19608 <dwarf::dwarf::get_type_unit(unsigned long) const+0xc0>
    if (__is_single_threaded())
   195e4:	00029797          	auipc	a5,0x29
   195e8:	e9c7b783          	ld	a5,-356(a5) # 42480 <__libc_single_threaded@GLIBC_2.32-0x1a0>
   195ec:	0007c783          	lbu	a5,0(a5)
   195f0:	06078463          	beq	a5,zero,19658 <dwarf::dwarf::get_type_unit(unsigned long) const+0x110>
    _Atomic_word __result = *__mem;
   195f4:	03042503          	lw	a0,48(s0)
    *__mem += __val;
   195f8:	fff5079b          	addiw	a5,a0,-1
   195fc:	02f42823          	sw	a5,48(s0)
      if (__gnu_cxx::__exchange_and_add_dispatch(&_M_use_count, -1) == 1)
   19600:	00100793          	addi	a5,zero,1
   19604:	06f50263          	beq	a0,a5,19668 <dwarf::dwarf::get_type_unit(unsigned long) const+0x120>
  bool end() const { return pos >= sec->end; }
   19608:	02813783          	ld	a5,40(sp)
      { return _M_ptr; }
   1960c:	01813703          	ld	a4,24(sp)
    while (!tucur.end()) {
   19610:	01073683          	ld	a3,16(a4)
   19614:	26d7fc63          	bgeu	a5,a3,1988c <dwarf::dwarf::get_type_unit(unsigned long) const+0x344>
      type_unit tu(*this, tucur.get_section_offset());
   19618:	03810993          	addi	s3,sp,56
      operator[](const key_type& __k)
      { return _M_h[__k]; }

      mapped_type&
      operator[](key_type&& __k)
      { return _M_h[std::move(__k)]; }
