ELF Header:
  Magic:   7f 45 4c 46 02 01 01 03 00 00 00 00 00 00 00 00 
  Class:                             ELF64
  Data:                              2's complement, little endian
  Version:                           1 (current)
  OS/ABI:                            UNIX - GNU
  ABI Version:                       0
  Type:                              EXEC (Executable file)
  Machine:                           RISC-V
  Version:                           0x1
  Entry point address:               0x16800
  Start of program headers:          64 (bytes into file)
  Start of section headers:          4704136 (bytes into file)
  Flags:                             0x5, RVC, double-float ABI
  Size of this header:               64 (bytes)
  Size of program headers:           56 (bytes)
  Number of program headers:         10
  Size of section headers:           64 (bytes)
  Number of section headers:         42
  Section header string table index: 41

Section Headers:
  [Nr] Name              Type            Address          Off    Size   ES Flg Lk Inf Al
  [ 0]                   NULL            0000000000000000 000000 000000 00      0   0  0
  [ 1] .interp           PROGBITS        0000000000010270 000270 000021 00   A  0   0  1
  [ 2] .note.ABI-tag     NOTE            0000000000010294 000294 000020 00   A  0   0  4
  [ 3] .hash             HASH            00000000000102b8 0002b8 00051c 04   A  5   0  8
  [ 4] .gnu.hash         GNU_HASH        00000000000107d8 0007d8 000564 00   A  5   0  8
  [ 5] .dynsym           DYNSYM          0000000000010d40 000d40 001230 18   A  6   1  8
  [ 6] .dynstr           STRTAB          0000000000011f70 001f70 002eb9 00   A  0   0  1
  [ 7] .gnu.version      VERSYM          0000000000014e2a 004e2a 000184 02   A  5   0  2
  [ 8] .gnu.version_r    VERNEED         0000000000014fb0 004fb0 0000e0 00   A  6   3  8
  [ 9] .rela.dyn         RELA            0000000000015090 005090 000b40 18   A  5   0  8
  [10] .rela.plt         RELA            0000000000015bd0 005bd0 000738 18  AI  5  23  8
  [11] .plt              PROGBITS        0000000000016310 006310 0004f0 10  AX  0   0 16
  [12] .text             PROGBITS        0000000000016800 006800 01661a 00  AX  0   0  4
  [13] .rodata           PROGBITS        000000000002ce20 01ce20 004223 00   A  0   0  8
  [14] .eh_frame_hdr     PROGBITS        0000000000031044 021044 000ae4 00   A  0   0  4
  [15] .eh_frame         PROGBITS        0000000000031b28 021b28 003728 00   A  0   0  8
  [16] .gcc_except_table PROGBITS        0000000000035250 025250 002026 00   A  0   0  4
  [17] .preinit_array    PREINIT_ARRAY   00000000000386d0 0276d0 000008 08  WA  0   0  1
  [18] .init_array       INIT_ARRAY      00000000000386d8 0276d8 000010 08  WA  0   0  8
  [19] .fini_array       FINI_ARRAY      00000000000386e8 0276e8 000008 08  WA  0   0  8
  [20] .data.rel.ro      PROGBITS        00000000000386f0 0276f0 000700 00  WA  0   0  8
  [21] .dynamic          DYNAMIC         0000000000038df0 027df0 000210 10  WA  6   0  8
  [22] .data             PROGBITS        0000000000039000 028000 000018 00  WA  0   0  8
  [23] .got              PROGBITS        0000000000039018 028018 0005e8 08  WA  0   0  8
  [24] .sdata            PROGBITS        0000000000039600 028600 000018 00  WA  0   0  8
  [25] .bss              NOBITS          0000000000039618 028618 000030 00  WA  0   0  8
  [26] .comment          PROGBITS        0000000000000000 028618 00002d 01  MS  0   0  1
  [27] .riscv.attributes RISCV_ATTRIBUTES 0000000000000000 028645 000035 00      0   0  1
  [28] .debug_aranges    PROGBITS        0000000000000000 028680 000ee0 00      0   0 16
  [29] .debug_info       PROGBITS        0000000000000000 029560 1c36d8 00      0   0  1
  [30] .debug_abbrev     PROGBITS        0000000000000000 1ecc38 00eca5 00      0   0  1
  [31] .debug_line       PROGBITS        0000000000000000 1fb8dd 075b37 00      0   0  1
  [32] .debug_frame      PROGBITS        0000000000000000 271418 000068 00      0   0  8
  [33] .debug_str        PROGBITS        0000000000000000 271480 098f2d 01  MS  0   0  1
  [34] .debug_loc        PROGBITS        0000000000000000 30a3ad 12c8da 00      0   0  1
  [35] .debug_ranges     PROGBITS        0000000000000000 436c87 02a4e0 00      0   0  1
  [36] .debug_line_str   PROGBITS        0000000000000000 461167 00019e 01  MS  0   0  1
  [37] .debug_loclists   PROGBITS        0000000000000000 461305 00012b 00      0   0  1
  [38] .debug_macro      PROGBITS        0000000000000000 461430 00e0d2 00      0   0  1
  [39] .symtab           SYMTAB          0000000000000000 46f508 004dd0 18     40 242  8
  [40] .strtab           STRTAB          0000000000000000 4742d8 0082f7 00      0   0  1
  [41] .shstrtab         STRTAB          0000000000000000 47c5cf 0001b5 00      0   0  1
Key to Flags:
  W (write), A (alloc), X (execute), M (merge), S (strings), I (info),
  L (link order), O (extra OS processing required), G (group), T (TLS),
  C (compressed), x (unknown), o (OS specific), E (exclude),
  R (retain), D (mbind), p (processor specific)

There are no section groups in this file.

Program Headers:
  Type           Offset   VirtAddr           PhysAddr           FileSiz  MemSiz   Flg Align
  PHDR           0x000040 0x0000000000010040 0x0000000000010040 0x000230 0x000230 R   0x8
  INTERP         0x000270 0x0000000000010270 0x0000000000010270 0x000021 0x000021 R   0x1
      [Requesting program interpreter: /lib/ld-linux-riscv64-lp64d.so.1]
  RISCV_ATTRIBUT 0x028645 0x0000000000000000 0x0000000000000000 0x000035 0x000000 R   0x1
  LOAD           0x000000 0x0000000000010000 0x0000000000010000 0x027276 0x027276 R E 0x1000
  LOAD           0x0276d0 0x00000000000386d0 0x00000000000386d0 0x000f48 0x000f78 RW  0x1000
  DYNAMIC        0x027df0 0x0000000000038df0 0x0000000000038df0 0x000210 0x000210 RW  0x8
  NOTE           0x000294 0x0000000000010294 0x0000000000010294 0x000020 0x000020 R   0x4
  GNU_EH_FRAME   0x021044 0x0000000000031044 0x0000000000031044 0x000ae4 0x000ae4 R   0x4
  GNU_STACK      0x000000 0x0000000000000000 0x0000000000000000 0x000000 0x000000 RW  0x10
  GNU_RELRO      0x0276d0 0x00000000000386d0 0x00000000000386d0 0x000930 0x000930 R   0x1

 Section to Segment mapping:
  Segment Sections...
   00     
   01     .interp 
   02     .riscv.attributes 
   03     .interp .note.ABI-tag .hash .gnu.hash .dynsym .dynstr .gnu.version .gnu.version_r .rela.dyn .rela.plt .plt .text .rodata .eh_frame_hdr .eh_frame .gcc_except_table 
   04     .preinit_array .init_array .fini_array .data.rel.ro .dynamic .data .got .sdata .bss 
   05     .dynamic 
   06     .note.ABI-tag 
   07     .eh_frame_hdr 
   08     
   09     .preinit_array .init_array .fini_array .data.rel.ro .dynamic 

Dynamic section at offset 0x27df0 contains 28 entries:
  Tag        Type                         Name/Value
 0x0000000000000001 (NEEDED)             Shared library: [libstdc++.so.6]
 0x0000000000000001 (NEEDED)             Shared library: [libm.so.6]
 0x0000000000000001 (NEEDED)             Shared library: [libgcc_s.so.1]
 0x0000000000000001 (NEEDED)             Shared library: [libc.so.6]
 0x0000000000000020 (PREINIT_ARRAY)      0x386d0
 0x0000000000000021 (PREINIT_ARRAYSZ)    8 (bytes)
 0x0000000000000019 (INIT_ARRAY)         0x386d8
 0x000000000000001b (INIT_ARRAYSZ)       16 (bytes)
 0x000000000000001a (FINI_ARRAY)         0x386e8
 0x000000000000001c (FINI_ARRAYSZ)       8 (bytes)
 0x0000000000000004 (HASH)               0x102b8
 0x000000006ffffef5 (GNU_HASH)           0x107d8
 0x0000000000000005 (STRTAB)             0x11f70
 0x0000000000000006 (SYMTAB)             0x10d40
 0x000000000000000a (STRSZ)              11961 (bytes)
 0x000000000000000b (SYMENT)             24 (bytes)
 0x0000000000000015 (DEBUG)              0x0
 0x0000000000000003 (PLTGOT)             0x39018
 0x0000000000000002 (PLTRELSZ)           1848 (bytes)
 0x0000000000000014 (PLTREL)             RELA
 0x0000000000000017 (JMPREL)             0x15bd0
 0x0000000000000007 (RELA)               0x15090
 0x0000000000000008 (RELASZ)             4728 (bytes)
 0x0000000000000009 (RELAENT)            24 (bytes)
 0x000000006ffffffe (VERNEED)            0x14fb0
 0x000000006fffffff (VERNEEDNUM)         3
 0x000000006ffffff0 (VERSYM)             0x14e2a
 0x0000000000000000 (NULL)               0x0

Relocation section '.rela.dyn' at offset 0x5090 contains 120 entries:
    Offset             Info             Type               Symbol's Value  Symbol's Name + Addend
00000000000388c8  0000000f00000002 R_RISCV_64             0000000000000000 _ZTISt13runtime_error@GLIBCXX_3.4 + 0
0000000000038a70  0000000f00000002 R_RISCV_64             0000000000000000 _ZTISt13runtime_error@GLIBCXX_3.4 + 0
0000000000038b50  0000000f00000002 R_RISCV_64             0000000000000000 _ZTISt13runtime_error@GLIBCXX_3.4 + 0
00000000000395f8  0000000f00000002 R_RISCV_64             0000000000000000 _ZTISt13runtime_error@GLIBCXX_3.4 + 0
0000000000038a30  0000000b00000002 R_RISCV_64             0000000000000000 _ZTISt11logic_error@GLIBCXX_3.4 + 0
0000000000038b68  0000000b00000002 R_RISCV_64             0000000000000000 _ZTISt11logic_error@GLIBCXX_3.4 + 0
0000000000039578  0000000b00000002 R_RISCV_64             0000000000000000 _ZTISt11logic_error@GLIBCXX_3.4 + 0
0000000000039008  0000000900000002 R_RISCV_64             0000000000000000 _ZTISt12out_of_range@GLIBCXX_3.4 + 0
0000000000039570  0000000900000002 R_RISCV_64             0000000000000000 _ZTISt12out_of_range@GLIBCXX_3.4 + 0
0000000000039298  000000ae00000002 R_RISCV_64             000000000001a80a _ZNSt10_HashtableImSt4pairIKmN5dwarf12abbrev_entryEESaIS4_ENSt8__detail10_Select1stESt8equal_toImESt4hashImENS6_18_Mod_range_hashingENS6_20_Default_ranged_hashENS6_20_Prime_rehash_policyENS6_17_Hashtable_traitsILb0ELb0ELb1EEEE13_M_rehash_auxEmSt17integral_constantIbLb1EE + 0
00000000000392a0  0000002600000002 R_RISCV_64             000000000002cfb0 _ZTIN5dwarf4unitE + 0
00000000000392a8  0000007800000002 R_RISCV_64             000000000002b9c0 _ZN3elf21section_type_mismatchD1Ev + 0
00000000000392b0  0000003300000002 R_RISCV_64             00000000000388b8 _ZTIN5dwarf12format_errorE + 0
00000000000392b8  0000005300000002 R_RISCV_64             000000000002d0d8 _ZTVN5dwarf16compilation_unitE + 0
00000000000392c0  0000005c00000002 R_RISCV_64             00000000000249c4 _ZNSt12_Destroy_auxILb0EE9__destroyIPN5dwarf10line_table4fileEEEvT_S6_ + 0
00000000000392c8  0000002c00000002 R_RISCV_64             000000000002c912 _ZNSt6vectorIN3elf7sectionESaIS1_EE17_M_realloc_insertIJS1_EEEvN9__gnu_cxx17__normal_iteratorIPS1_S3_EEDpOT_ + 0
00000000000392d0  0000008600000002 R_RISCV_64             0000000000021654 _ZN5dwarf12expr_contextD1Ev + 0
00000000000392d8  0000003700000002 R_RISCV_64             0000000000019df6 _ZNSt10_HashtableImSt4pairIKmN5dwarf12abbrev_entryEESaIS4_ENSt8__detail10_Select1stESt8equal_toImESt4hashImENS6_18_Mod_range_hashingENS6_20_Default_ranged_hashENS6_20_Prime_rehash_policyENS6_17_Hashtable_traitsILb0ELb0ELb1EEEE5clearEv + 0
00000000000392e0  0000006f00000002 R_RISCV_64             0000000000038b58 _ZTIN3elf21section_type_mismatchE + 0
00000000000392e8  0000009400000002 R_RISCV_64             000000000001a352 _ZNSt6vectorIN5dwarf16compilation_unitESaIS1_EE17_M_realloc_insertIJRNS0_5dwarfEmEEEvN9__gnu_cxx17__normal_iteratorIPS1_S3_EEDpOT_ + 0
00000000000392f0  0000000100000002 R_RISCV_64             0000000000000000 _ZTISt12system_error@GLIBCXX_3.4.11 + 0
00000000000392f8  000000be00000002 R_RISCV_64             0000000000019d66 _Z6to_hexImENSt7__cxx1112basic_stringIcSt11char_traitsIcESaIcEEET_ + 0
0000000000039300  0000004000000002 R_RISCV_64             00000000000240d4 _ZNSt7__cxx119to_stringEm + 0
0000000000039308  000000a200000002 R_RISCV_64             0000000000019d08 _ZNSt7__cxx1112basic_stringIcSt11char_traitsIcESaIcEE12_M_constructIPKcEEvT_S8_St20forward_iterator_tag + 0
0000000000039310  000000b700000002 R_RISCV_64             000000000002454e _ZNSt7__cxx1112basic_stringIcSt11char_traitsIcESaIcEE12_M_constructIPcEEvT_S7_St20forward_iterator_tag + 0
0000000000039318  0000004d00000002 R_RISCV_64             000000000001a14c _ZNKSt10_HashtableImSt4pairIKmN5dwarf9type_unitEESaIS4_ENSt8__detail10_Select1stESt8equal_toImESt4hashImENS6_18_Mod_range_hashingENS6_20_Default_ranged_hashENS6_20_Prime_rehash_policyENS6_17_Hashtable_traitsILb0ELb0ELb1EEEE19_M_find_before_nodeEmRS1_m + 0
0000000000039320  0000004600000002 R_RISCV_64             0000000000038b40 _ZTIN3elf12format_errorE + 0
0000000000039328  000000a000000002 R_RISCV_64             0000000000039010 _ZN5dwarf15no_expr_contextE + 0
0000000000039330  0000006200000002 R_RISCV_64             0000000000022096 _ZNSt6vectorImSaImEE17_M_realloc_insertIJmEEEvN9__gnu_cxx17__normal_iteratorIPmS1_EEDpOT_ + 0
0000000000039338  0000001b00000002 R_RISCV_64             000000000002c016 _ZN3elf9canon_hdrINS_4EhdrEEEvPT_INS_5Elf64ELNS_10byte_orderE0EEPKvNS_8elfclassENS_7elfdataE + 0
0000000000039340  0000005500000002 R_RISCV_64             0000000000038be8 _ZTVN3elf12format_errorE + 0
0000000000039348  0000008b00000002 R_RISCV_64             0000000000038d18 _ZTVSt23_Sp_counted_ptr_inplaceIN3elf6symtab4implESaIvELN9__gnu_cxx12_Lock_policyE1EE + 0
0000000000039350  000000a300000002 R_RISCV_64             0000000000038a88 _ZTVN5dwarf10expr_errorE + 0
0000000000039358  0000007e00000002 R_RISCV_64             0000000000038958 _ZTVN5dwarf9type_unitE + 0
0000000000039360  0000004e00000002 R_RISCV_64             000000000002d3a0 _ZZNSt8__detail18__to_chars_10_implIjEEvPcjT_E8__digits + 0
0000000000039368  0000008700000002 R_RISCV_64             000000000001a1e8 _ZNSt8_Rb_treeIN5dwarf12section_typeESt4pairIKS1_St10shared_ptrINS0_7sectionEEESt10_Select1stIS7_ESt4lessIS1_ESaIS7_EE29_M_get_insert_hint_unique_posESt23_Rb_tree_const_iteratorIS7_ERS3_ + 0
0000000000039370  0000001d00000002 R_RISCV_64             0000000000019636 _ZNSt6vectorIN5dwarf16compilation_unitESaIS1_EED1Ev + 0
0000000000039378  0000007900000002 R_RISCV_64             000000000001eff6 _ZN5dwarf6cursor7addressEv + 0
0000000000039380  000000c100000002 R_RISCV_64             00000000000195cc _ZN5dwarf12format_errorD1Ev + 0
0000000000039388  0000003c00000002 R_RISCV_64             000000000001a120 _ZNSt10_HashtableImSt4pairIKmN5dwarf9type_unitEESaIS4_ENSt8__detail10_Select1stESt8equal_toImESt4hashImENS6_18_Mod_range_hashingENS6_20_Default_ranged_hashENS6_20_Prime_rehash_policyENS6_17_Hashtable_traitsILb0ELb0ELb1EEEE12_Scoped_nodeD1Ev + 0
0000000000039390  000000a500000002 R_RISCV_64             0000000000019fce _ZNSt6vectorIN5dwarf12abbrev_entryESaIS1_EE17_M_default_appendEm + 0
0000000000039398  0000004f00000002 R_RISCV_64             0000000000038b08 _ZTVSt23_Sp_counted_ptr_inplaceIN5dwarf10line_table4implESaIvELN9__gnu_cxx12_Lock_policyE1EE + 0
00000000000393a0  000000b800000002 R_RISCV_64             000000000001a2c6 _ZNSt8_Rb_treeIN5dwarf12section_typeESt4pairIKS1_St10shared_ptrINS0_7sectionEEESt10_Select1stIS7_ESt4lessIS1_ESaIS7_EE22_M_emplace_hint_uniqueIJRKSt21piecewise_construct_tSt5tupleIJRS3_EESI_IJEEEEESt17_Rb_tree_iteratorIS7_ESt23_Rb_tree_const_iteratorIS7_EDpOT_ + 0
00000000000393a8  0000007a00000002 R_RISCV_64             0000000000038c38 _ZTVSt23_Sp_counted_ptr_inplaceIN3elf3elf4implESaIvELN9__gnu_cxx12_Lock_policyE1EE + 0
00000000000393b0  0000004300000002 R_RISCV_64             0000000000019a5e _ZNSt8_Rb_treeIN5dwarf12section_typeESt4pairIKS1_St10shared_ptrINS0_7sectionEEESt10_Select1stIS7_ESt4lessIS1_ESaIS7_EE8_M_eraseEPSt13_Rb_tree_nodeIS7_E + 0
00000000000393b8  0000003d00000002 R_RISCV_64             0000000000038c10 _ZTVN3elf21section_type_mismatchE + 0
00000000000393c0  0000007100000002 R_RISCV_64             000000000002436c _ZStplIcSt11char_traitsIcESaIcEENSt7__cxx1112basic_stringIT_T0_T1_EEOS8_S9_ + 0
00000000000393c8  0000009e00000002 R_RISCV_64             0000000000016c88 _ZNSt16_Sp_counted_baseILN9__gnu_cxx12_Lock_policyE1EE10_M_releaseEv + 0
00000000000393d0  0000006d00000002 R_RISCV_64             000000000001a61a _ZNSt10_HashtableImSt4pairIKmN5dwarf9type_unitEESaIS4_ENSt8__detail10_Select1stESt8equal_toImESt4hashImENS6_18_Mod_range_hashingENS6_20_Default_ranged_hashENS6_20_Prime_rehash_policyENS6_17_Hashtable_traitsILb0ELb0ELb1EEEE21_M_insert_unique_nodeEmmPNS6_10_Hash_nodeIS4_Lb0EEEm + 0
00000000000393d8  0000003100000002 R_RISCV_64             000000000001a55c _ZNSt10_HashtableImSt4pairIKmN5dwarf9type_unitEESaIS4_ENSt8__detail10_Select1stESt8equal_toImESt4hashImENS6_18_Mod_range_hashingENS6_20_Default_ranged_hashENS6_20_Prime_rehash_policyENS6_17_Hashtable_traitsILb0ELb0ELb1EEEE13_M_rehash_auxEmSt17integral_constantIbLb1EE + 0
00000000000393e0  0000000200000002 R_RISCV_64             0000000000000000 _ZNSt11range_errorD1Ev@GLIBCXX_3.4 + 0
00000000000393e8  000000b600000002 R_RISCV_64             0000000000019954 _ZN5dwarf12small_vectorImLj6EED1Ev + 0
00000000000393f0  000000b300000002 R_RISCV_64             000000000001f348 _ZNSt8__detail18__to_chars_10_implImEEvPcjT_ + 0
00000000000393f8  0000000300000002 R_RISCV_64             0000000000000000 _ZTISt15underflow_error@GLIBCXX_3.4 + 0
0000000000039400  0000005d00000002 R_RISCV_64             000000000002217a _ZNSt6vectorImSaImEE12emplace_backIJmEEEvDpOT_ + 0
0000000000039408  0000000400000002 R_RISCV_64             0000000000000000 _ZNSt13runtime_errorD1Ev@GLIBCXX_3.4 + 0
0000000000039410  0000001800000002 R_RISCV_64             000000000002cf08 _ZTSSt19_Sp_make_shared_tag + 0
0000000000039418  0000009800000002 R_RISCV_64             000000000002a256 _Z6to_hexIiENSt7__cxx1112basic_stringIcSt11char_traitsIcESaIcEEET_ + 0
0000000000039420  0000000500000002 R_RISCV_64             0000000000000000 _ZNSt12system_errorD1Ev@GLIBCXX_3.4.11 + 0
0000000000039428  0000008c00000002 R_RISCV_64             0000000000038ca8 _ZTVSt23_Sp_counted_ptr_inplaceIN3elf7section4implESaIvELN9__gnu_cxx12_Lock_policyE1EE + 0
0000000000039430  000000c000000002 R_RISCV_64             000000000002cc80 _ZNSt12system_errorC1ESt10error_codePKc + 0
0000000000039438  0000007500000002 R_RISCV_64             00000000000389e8 _ZTVSt23_Sp_counted_ptr_inplaceIN5dwarf4unit4implESaIvELN9__gnu_cxx12_Lock_policyE1EE + 0
0000000000039440  0000002000000002 R_RISCV_64             00000000000249f6 _ZNSt6vectorIN5dwarf10line_table4fileESaIS2_EE17_M_realloc_insertIJRKNSt7__cxx1112basic_stringIcSt11char_traitsIcESaIcEEEEEEvN9__gnu_cxx17__normal_iteratorIPS2_S4_EEDpOT_ + 0
0000000000039448  0000001900000002 R_RISCV_64             0000000000038a38 _ZTVN5dwarf19value_type_mismatchE + 0
0000000000039450  0000007000000002 R_RISCV_64             000000000001a184 _ZNSt8_Rb_treeIN5dwarf12section_typeESt4pairIKS1_St10shared_ptrINS0_7sectionEEESt10_Select1stIS7_ESt4lessIS1_ESaIS7_EE24_M_get_insert_unique_posERS3_ + 0
0000000000039458  0000006600000002 R_RISCV_64             000000000002461a _ZNSt6vectorINSt7__cxx1112basic_stringIcSt11char_traitsIcESaIcEEESaIS5_EE17_M_realloc_insertIJRKS5_EEEvN9__gnu_cxx17__normal_iteratorIPS5_S7_EEDpOT_ + 0
0000000000039460  0000001000000002 R_RISCV_64             0000000000038d90 _ZTVN3elf11mmap_loaderE + 0
0000000000039468  0000003000000002 R_RISCV_64             000000000002d990 _ZZNSt8__detail18__to_chars_10_implImEEvPcjT_E8__digits + 0
0000000000039470  0000000600000002 R_RISCV_64             0000000000000000 _ZNSt11logic_errorD1Ev@GLIBCXX_3.4 + 0
0000000000039478  0000009d00000002 R_RISCV_64             0000000000038c70 _ZTVSt23_Sp_counted_ptr_inplaceIN3elf7segment4implESaIvELN9__gnu_cxx12_Lock_policyE1EE + 0
0000000000039480  0000009700000002 R_RISCV_64             0000000000039620 __libc_single_threaded@GLIBC_2.32 + 0
0000000000039488  000000b400000002 R_RISCV_64             000000000001a6de _ZNSt8__detail9_Map_baseImSt4pairIKmN5dwarf9type_unitEESaIS5_ENS_10_Select1stESt8equal_toImESt4hashImENS_18_Mod_range_hashingENS_20_Default_ranged_hashENS_20_Prime_rehash_policyENS_17_Hashtable_traitsILb0ELb0ELb1EEELb1EEixEOm + 0
0000000000039490  0000003800000002 R_RISCV_64             0000000000019794 _ZNSt7__cxx119to_stringEi + 0
0000000000039498  0000008300000002 R_RISCV_64             000000000002420e _ZNSt8__detail14__to_chars_lenIjEEjT_i + 0
00000000000394a0  0000001500000002 R_RISCV_64             000000000001f8c2 _ZNSt6vectorIN5dwarf14attribute_specESaIS1_EE17_M_realloc_insertIJS1_EEEvN9__gnu_cxx17__normal_iteratorIPS1_S3_EEDpOT_ + 0
00000000000394a8  0000001e00000002 R_RISCV_64             0000000000021656 _ZN5dwarf10expr_errorD1Ev + 0
00000000000394b0  0000003500000002 R_RISCV_64             0000000000038db8 _ZTVSt23_Sp_counted_ptr_inplaceIN3elf11mmap_loaderESaIvELN9__gnu_cxx12_Lock_policyE1EE + 0
00000000000394b8  0000009a00000002 R_RISCV_64             0000000000024280 _ZNSt8__detail18__to_chars_10_implIjEEvPcjT_ + 0
00000000000394c0  0000000700000002 R_RISCV_64             0000000000000000 _ZNSt12out_of_rangeD1Ev@GLIBCXX_3.4 + 0
00000000000394c8  0000008900000002 R_RISCV_64             0000000000024c30 _ZNSt6vectorIN5dwarf10line_table4fileESaIS2_EE17_M_realloc_insertIJNSt7__cxx1112basic_stringIcSt11char_traitsIcESaIcEEEEEEvN9__gnu_cxx17__normal_iteratorIPS2_S4_EEDpOT_ + 0
00000000000394d0  000000b900000002 R_RISCV_64             000000000002444e _ZNSt6vectorIhSaIhEE17_M_default_appendEm + 0
00000000000394d8  0000006100000002 R_RISCV_64             0000000000024f2a _ZNSt6vectorIN5dwarf10line_table4fileESaIS2_EE17_M_realloc_insertIJNSt7__cxx1112basic_stringIcSt11char_traitsIcESaIcEEERmSC_EEEvN9__gnu_cxx17__normal_iteratorIPS2_S4_EEDpOT_ + 0
00000000000394e0  0000005000000002 R_RISCV_64             000000000001a98c _ZNSt8__detail9_Map_baseImSt4pairIKmN5dwarf12abbrev_entryEESaIS5_ENS_10_Select1stESt8equal_toImESt4hashImENS_18_Mod_range_hashingENS_20_Default_ranged_hashENS_20_Prime_rehash_policyENS_17_Hashtable_traitsILb0ELb0ELb1EEELb1EEixERS2_ + 0
00000000000394e8  0000007600000002 R_RISCV_64             000000000002518c _ZNSt6vectorIN5dwarf10line_table4fileESaIS2_EE12emplace_backIJNSt7__cxx1112basic_stringIcSt11char_traitsIcESaIcEEERmSC_EEEvDpOT_ + 0
00000000000394f0  0000003a00000002 R_RISCV_64             0000000000024322 _ZNSt7__cxx119to_stringEj + 0
00000000000394f8  0000009000000002 R_RISCV_64             000000000001bb4e _ZNSt6vectorISt4pairIN5dwarf5DW_ATENS1_5valueEESaIS4_EE17_M_realloc_insertIJS4_EEEvN9__gnu_cxx17__normal_iteratorIPS4_S6_EEDpOT_ + 0
0000000000039500  0000006a00000002 R_RISCV_64             00000000000247ba _ZNSt6vectorINSt7__cxx1112basic_stringIcSt11char_traitsIcESaIcEEESaIS5_EE17_M_realloc_insertIJS5_EEEvN9__gnu_cxx17__normal_iteratorIPS5_S7_EEDpOT_ + 0
0000000000039508  0000004500000002 R_RISCV_64             000000000002c810 _ZNSt6vectorIN3elf7segmentESaIS1_EE17_M_realloc_insertIJS1_EEEvN9__gnu_cxx17__normal_iteratorIPS1_S3_EEDpOT_ + 0
0000000000039510  0000001400000002 R_RISCV_64             000000000001a774 _ZNSt8__detail9_Map_baseImSt4pairIKmN5dwarf9type_unitEESaIS5_ENS_10_Select1stESt8equal_toImESt4hashImENS_18_Mod_range_hashingENS_20_Default_ranged_hashENS_20_Prime_rehash_policyENS_17_Hashtable_traitsILb0ELb0ELb1EEELb1EEixERS2_ + 0
0000000000039518  0000005100000002 R_RISCV_64             0000000000021fb2 _ZNSt6vectorImSaImEE17_M_realloc_insertIJRKmEEEvN9__gnu_cxx17__normal_iteratorIPmS1_EEDpOT_ + 0
0000000000039520  000000a400000002 R_RISCV_64             0000000000038a60 _ZTIN5dwarf10expr_errorE + 0
0000000000039528  0000001100000002 R_RISCV_64             000000000001f2e8 _ZNSt8__detail14__to_chars_lenImEEjT_i + 0
0000000000039530  0000003e00000002 R_RISCV_64             00000000000389b0 _ZTVSt23_Sp_counted_ptr_inplaceIN5dwarf5dwarf4implESaIvELN9__gnu_cxx12_Lock_policyE1EE + 0
0000000000039538  0000004c00000002 R_RISCV_64             000000000002d158 _ZZNSt19_Sp_make_shared_tag5_S_tiEvE5__tag + 0
0000000000039540  0000008400000002 R_RISCV_64             000000000002c706 _ZN3elf9canon_hdrINS_3SymEEEvPT_INS_5Elf64ELNS_10byte_orderE0EEPKvNS_8elfclassENS_7elfdataE + 0
0000000000039548  0000002d00000002 R_RISCV_64             000000000001a524 _ZNKSt10_HashtableImSt4pairIKmN5dwarf12abbrev_entryEESaIS4_ENSt8__detail10_Select1stESt8equal_toImESt4hashImENS6_18_Mod_range_hashingENS6_20_Default_ranged_hashENS6_20_Prime_rehash_policyENS6_17_Hashtable_traitsILb0ELb0ELb1EEEE19_M_find_before_nodeEmRS1_m + 0
0000000000039550  0000000800000002 R_RISCV_64             0000000000000000 _ZTISt11range_error@GLIBCXX_3.4 + 0
0000000000039558  0000009300000002 R_RISCV_64             0000000000038930 _ZTVN5dwarf12format_errorE + 0
0000000000039560  0000001600000002 R_RISCV_64             000000000001a8c8 _ZNSt10_HashtableImSt4pairIKmN5dwarf12abbrev_entryEESaIS4_ENSt8__detail10_Select1stESt8equal_toImESt4hashImENS6_18_Mod_range_hashingENS6_20_Default_ranged_hashENS6_20_Prime_rehash_policyENS6_17_Hashtable_traitsILb0ELb0ELb1EEEE21_M_insert_unique_nodeEmmPNS6_10_Hash_nodeIS4_Lb0EEEm + 0
0000000000039568  0000007300000002 R_RISCV_64             000000000002b8a0 _ZN3elf12format_errorD1Ev + 0
0000000000039580  000000ba00000002 R_RISCV_64             000000000002c5a8 _ZN3elf9canon_hdrINS_4ShdrEEEvPT_INS_5Elf64ELNS_10byte_orderE0EEPKvNS_8elfclassENS_7elfdataE + 0
0000000000039588  0000000c00000002 R_RISCV_64             0000000000000000 _ZTVSt12system_error@GLIBCXX_3.4.11 + 0
0000000000039590  0000009c00000002 R_RISCV_64             0000000000024e88 _ZNSt6vectorIN5dwarf10line_table4fileESaIS2_EE12emplace_backIJNSt7__cxx1112basic_stringIcSt11char_traitsIcESaIcEEEEEEvDpOT_ + 0
0000000000039598  0000006b00000002 R_RISCV_64             0000000000038a20 _ZTIN5dwarf19value_type_mismatchE + 0
00000000000395a0  0000001f00000002 R_RISCV_64             000000000001f802 _ZNSt6vectorIN5dwarf14attribute_specESaIS1_EE16_M_shrink_to_fitEv + 0
00000000000395a8  0000008f00000002 R_RISCV_64             00000000000388d0 _ZTIN5dwarf9type_unitE + 0
00000000000395b0  0000006700000002 R_RISCV_64             000000000002d0b8 _ZTVN5dwarf4unitE + 0
00000000000395b8  0000008a00000002 R_RISCV_64             0000000000024948 _ZNSt6vectorINSt7__cxx1112basic_stringIcSt11char_traitsIcESaIcEEESaIS5_EE12emplace_backIJS5_EEEvDpOT_ + 0
00000000000395c0  000000a600000002 R_RISCV_64             0000000000038978 _ZTVSt23_Sp_counted_ptr_inplaceIN5dwarf7sectionESaIvELN9__gnu_cxx12_Lock_policyE1EE + 0
00000000000395c8  0000007c00000002 R_RISCV_64             00000000000245ac _ZStplIcSt11char_traitsIcESaIcEENSt7__cxx1112basic_stringIT_T0_T1_EERKS8_SA_ + 0
00000000000395d0  000000a700000002 R_RISCV_64             000000000002c482 _ZN3elf9canon_hdrINS_4PhdrEEEvPT_INS_5Elf64ELNS_10byte_orderE0EEPKvNS_8elfclassENS_7elfdataE + 0
00000000000395d8  0000005f00000002 R_RISCV_64             000000000001efb6 _ZN5dwarf19value_type_mismatchD1Ev + 0
00000000000395e0  0000000e00000002 R_RISCV_64             0000000000000000 _ZNSt15underflow_errorD1Ev@GLIBCXX_3.4 + 0
00000000000395e8  0000004b00000002 R_RISCV_64             0000000000019980 _ZNSt6vectorIN5dwarf14attribute_specESaIS1_EEaSERKS3_ + 0
00000000000395f0  0000009100000002 R_RISCV_64             0000000000038ce0 _ZTVSt23_Sp_counted_ptr_inplaceIN3elf6strtab4implESaIvELN9__gnu_cxx12_Lock_policyE1EE + 0
00000000000387b0  0000002a00000004 R_RISCV_COPY           00000000000387b0 _ZTVN10__cxxabiv117__class_type_infoE@CXXABI_1.3 + 0
0000000000038808  0000009900000004 R_RISCV_COPY           0000000000038808 _ZTVN10__cxxabiv120__si_class_type_infoE@CXXABI_1.3 + 0
0000000000038860  000000ab00000004 R_RISCV_COPY           0000000000038860 _ZTVN10__cxxabiv121__vmi_class_type_infoE@CXXABI_1.3 + 0
0000000000039620  0000009700000004 R_RISCV_COPY           0000000000039620 __libc_single_threaded@GLIBC_2.32 + 0
0000000000039618  0000005a00000004 R_RISCV_COPY           0000000000039618 stderr@GLIBC_2.27 + 0

Relocation section '.rela.plt' at offset 0x5bd0 contains 77 entries:
    Offset             Info             Type               Symbol's Value  Symbol's Name + Addend
0000000000039028  0000002500000005 R_RISCV_JUMP_SLOT      0000000000016330 _Znam@GLIBCXX_3.4 + 0
0000000000039030  0000009b00000005 R_RISCV_JUMP_SLOT      0000000000016340 _ZSt29_Rb_tree_insert_and_rebalancebPSt18_Rb_tree_node_baseS0_RS_@GLIBCXX_3.4 + 0
0000000000039038  000000b200000005 R_RISCV_JUMP_SLOT      0000000000016350 _ZN9__gnu_cxx12__atomic_addEPVii@GLIBCXX_3.4 + 0
0000000000039040  0000002100000005 R_RISCV_JUMP_SLOT      0000000000016360 strcmp@GLIBC_2.27 + 0
0000000000039048  0000008d00000005 R_RISCV_JUMP_SLOT      0000000000016370 __bswapsi2@GCC_4.3.0 + 0
0000000000039050  0000006c00000005 R_RISCV_JUMP_SLOT      0000000000016380 _ZN9__gnu_cxx18__exchange_and_addEPVii@GLIBCXX_3.4 + 0
0000000000039058  0000004200000005 R_RISCV_JUMP_SLOT      0000000000016390 _ZNSt7__cxx1112basic_stringIcSt11char_traitsIcESaIcEE6insertEmPKc@GLIBCXX_3.4.21 + 0
0000000000039060  0000005400000005 R_RISCV_JUMP_SLOT      00000000000163a0 _ZNKSt7__cxx1112basic_stringIcSt11char_traitsIcESaIcEE7compareEPKc@GLIBCXX_3.4.21 + 0
0000000000039068  0000005b00000005 R_RISCV_JUMP_SLOT      00000000000163b0 _ZNSt7__cxx1112basic_stringIcSt11char_traitsIcESaIcEE6resizeEmc@GLIBCXX_3.4.21 + 0
0000000000039070  000000bb00000005 R_RISCV_JUMP_SLOT      00000000000163c0 _ZNSt7__cxx1112basic_stringIcSt11char_traitsIcESaIcEE9_M_appendEPKcm@GLIBCXX_3.4.21 + 0
0000000000039078  000000b500000005 R_RISCV_JUMP_SLOT      00000000000163d0 __libc_start_main@GLIBC_2.27 + 0
0000000000039080  0000001200000005 R_RISCV_JUMP_SLOT      00000000000163e0 _ZSt17__throw_bad_allocv@GLIBCXX_3.4 + 0
0000000000039088  0000004900000005 R_RISCV_JUMP_SLOT      00000000000163f0 _ZNSt13runtime_errorC1EPKc@GLIBCXX_3.4.21 + 0
0000000000039090  000000b000000005 R_RISCV_JUMP_SLOT      0000000000016400 __cxa_begin_catch@CXXABI_1.3 + 0
0000000000039098  000000a800000005 R_RISCV_JUMP_SLOT      0000000000016410 strlen@GLIBC_2.27 + 0
00000000000390a0  0000003600000005 R_RISCV_JUMP_SLOT      0000000000016420 __cxa_allocate_exception@CXXABI_1.3 + 0
00000000000390a8  0000001c00000005 R_RISCV_JUMP_SLOT      0000000000016430 putchar@GLIBC_2.27 + 0
00000000000390b0  0000006900000005 R_RISCV_JUMP_SLOT      0000000000016440 _ZSt20__throw_length_errorPKc@GLIBCXX_3.4 + 0
00000000000390b8  0000007b00000005 R_RISCV_JUMP_SLOT      0000000000016450 _ZNSt7__cxx1112basic_stringIcSt11char_traitsIcESaIcEE9_M_assignERKS4_@GLIBCXX_3.4.21 + 0
00000000000390c0  0000008e00000005 R_RISCV_JUMP_SLOT      0000000000016460 _ZNSt3_V215system_categoryEv@GLIBCXX_3.4.21 + 0
00000000000390c8  0000005600000005 R_RISCV_JUMP_SLOT      0000000000016470 _ZNSt7__cxx1112basic_stringIcSt11char_traitsIcESaIcEEC1EOS4_@GLIBCXX_3.4.21 + 0
00000000000390d0  0000003900000005 R_RISCV_JUMP_SLOT      0000000000016480 open@GLIBC_2.27 + 0
00000000000390d8  0000009500000005 R_RISCV_JUMP_SLOT      0000000000016490 __cxa_guard_release@CXXABI_1.3 + 0
00000000000390e0  0000007d00000005 R_RISCV_JUMP_SLOT      00000000000164a0 mmap@GLIBC_2.27 + 0
00000000000390e8  0000006e00000005 R_RISCV_JUMP_SLOT      00000000000164b0 _ZSt18_Rb_tree_incrementPSt18_Rb_tree_node_base@GLIBCXX_3.4 + 0
00000000000390f0  0000008500000005 R_RISCV_JUMP_SLOT      00000000000164c0 _ZSt19__throw_logic_errorPKc@GLIBCXX_3.4 + 0
00000000000390f8  0000006300000005 R_RISCV_JUMP_SLOT      00000000000164d0 __cxa_free_exception@CXXABI_1.3 + 0
0000000000039100  000000bf00000005 R_RISCV_JUMP_SLOT      00000000000164e0 munmap@GLIBC_2.27 + 0
0000000000039108  0000009600000005 R_RISCV_JUMP_SLOT      00000000000164f0 _ZSt28__throw_bad_array_new_lengthv@GLIBCXX_3.4.29 + 0
0000000000039110  0000004700000005 R_RISCV_JUMP_SLOT      0000000000016500 __assert_fail@GLIBC_2.27 + 0
0000000000039118  0000002f00000005 R_RISCV_JUMP_SLOT      0000000000016510 _ZdlPv@GLIBCXX_3.4 + 0
0000000000039120  0000007f00000005 R_RISCV_JUMP_SLOT      0000000000016520 _Znwm@GLIBCXX_3.4 + 0
0000000000039128  0000008000000005 R_RISCV_JUMP_SLOT      0000000000016530 _ZSt18_Rb_tree_decrementPSt18_Rb_tree_node_base@GLIBCXX_3.4 + 0
0000000000039130  0000002700000005 R_RISCV_JUMP_SLOT      0000000000016540 _ZNSt13runtime_errorD2Ev@GLIBCXX_3.4 + 0
0000000000039138  0000001300000005 R_RISCV_JUMP_SLOT      0000000000016550 __bswapdi2@GCC_4.3.0 + 0
0000000000039140  0000007700000005 R_RISCV_JUMP_SLOT      0000000000016560 __dynamic_cast@CXXABI_1.3 + 0
0000000000039148  0000005700000005 R_RISCV_JUMP_SLOT      0000000000016570 _ZNSt7__cxx1112basic_stringIcSt11char_traitsIcESaIcEE12_M_constructEmc@GLIBCXX_3.4.21 + 0
0000000000039150  0000004400000005 R_RISCV_JUMP_SLOT      0000000000016580 _ZNSt11logic_errorC2EPKc@GLIBCXX_3.4.21 + 0
0000000000039158  000000a100000005 R_RISCV_JUMP_SLOT      0000000000016590 strerror@GLIBC_2.27 + 0
0000000000039160  000000bc00000005 R_RISCV_JUMP_SLOT      00000000000165a0 _ZNSt13runtime_errorC2ERKNSt7__cxx1112basic_stringIcSt11char_traitsIcESaIcEEE@GLIBCXX_3.4.21 + 0
0000000000039168  0000001a00000005 R_RISCV_JUMP_SLOT      00000000000165b0 memcpy@GLIBC_2.27 + 0
0000000000039170  0000008800000005 R_RISCV_JUMP_SLOT      00000000000165c0 _ZdaPv@GLIBCXX_3.4 + 0
0000000000039178  0000009200000005 R_RISCV_JUMP_SLOT      00000000000165d0 _ZNKSt8__detail20_Prime_rehash_policy14_M_need_rehashEmmm@GLIBCXX_3.4.18 + 0
0000000000039180  0000004100000005 R_RISCV_JUMP_SLOT      00000000000165e0 memset@GLIBC_2.27 + 0
0000000000039188  0000005800000005 R_RISCV_JUMP_SLOT      00000000000165f0 _ZNSt7__cxx1112basic_stringIcSt11char_traitsIcESaIcEEC1EPKcRKS3_@GLIBCXX_3.4.21 + 0
0000000000039190  000000b100000005 R_RISCV_JUMP_SLOT      0000000000016600 _ZNKSt13runtime_error4whatEv@GLIBCXX_3.4 + 0
0000000000039198  0000006000000005 R_RISCV_JUMP_SLOT      0000000000016610 _ZNSt11logic_errorC1EPKc@GLIBCXX_3.4.21 + 0
00000000000391a0  0000004800000005 R_RISCV_JUMP_SLOT      0000000000016620 __cxa_rethrow@CXXABI_1.3 + 0
00000000000391a8  0000008100000005 R_RISCV_JUMP_SLOT      0000000000016630 _ZNKSt11logic_error4whatEv@GLIBCXX_3.4 + 0
00000000000391b0  000000bd00000005 R_RISCV_JUMP_SLOT      0000000000016640 _ZSt24__throw_out_of_range_fmtPKcz@GLIBCXX_3.4.20 + 0
00000000000391b8  0000007200000005 R_RISCV_JUMP_SLOT      0000000000016650 _ZNSt12out_of_rangeC1ERKNSt7__cxx1112basic_stringIcSt11char_traitsIcESaIcEEE@GLIBCXX_3.4.21 + 0
00000000000391c0  0000002300000005 R_RISCV_JUMP_SLOT      0000000000016660 _ZNSt7__cxx1112basic_stringIcSt11char_traitsIcESaIcEE10_M_replaceEmmPKcm@GLIBCXX_3.4.21 + 0
00000000000391c8  0000004a00000005 R_RISCV_JUMP_SLOT      0000000000016670 lseek@GLIBC_2.27 + 0
00000000000391d0  000000ad00000005 R_RISCV_JUMP_SLOT      0000000000016680 _ZNSt13runtime_errorC1ERKNSt7__cxx1112basic_stringIcSt11char_traitsIcESaIcEEE@GLIBCXX_3.4.21 + 0
00000000000391d8  000000a900000005 R_RISCV_JUMP_SLOT      0000000000016690 __cxa_end_catch@CXXABI_1.3 + 0
00000000000391e0  000000ac00000005 R_RISCV_JUMP_SLOT      00000000000166a0 __gxx_personality_v0@CXXABI_1.3 + 0
00000000000391e8  0000006400000005 R_RISCV_JUMP_SLOT      00000000000166b0 strncmp@GLIBC_2.27 + 0
00000000000391f0  0000003200000005 R_RISCV_JUMP_SLOT      00000000000166c0 __cxa_throw@CXXABI_1.3 + 0
00000000000391f8  000000aa00000005 R_RISCV_JUMP_SLOT      00000000000166d0 _ZNSt11range_errorC1EPKc@GLIBCXX_3.4.21 + 0
0000000000039200  0000003400000005 R_RISCV_JUMP_SLOT      00000000000166e0 fprintf@GLIBC_2.27 + 0
0000000000039208  0000002800000005 R_RISCV_JUMP_SLOT      00000000000166f0 _Unwind_Resume@GCC_3.0 + 0
0000000000039210  0000005900000005 R_RISCV_JUMP_SLOT      0000000000016700 _ZNSt11logic_errorD2Ev@GLIBCXX_3.4 + 0
0000000000039218  0000006800000005 R_RISCV_JUMP_SLOT      0000000000016710 _ZNSt7__cxx1112basic_stringIcSt11char_traitsIcESaIcEE9_M_createERmm@GLIBCXX_3.4.21 + 0
0000000000039220  0000008200000005 R_RISCV_JUMP_SLOT      0000000000016720 __cxa_atexit@GLIBC_2.27 + 0
0000000000039228  0000002400000005 R_RISCV_JUMP_SLOT      0000000000016730 _ZNSt7__cxx1112basic_stringIcSt11char_traitsIcESaIcEE9_M_mutateEmmPKcm@GLIBCXX_3.4.21 + 0
0000000000039230  0000001700000005 R_RISCV_JUMP_SLOT      0000000000016740 __cxa_guard_acquire@CXXABI_1.3 + 0
0000000000039238  0000002200000005 R_RISCV_JUMP_SLOT      0000000000016750 _ZNSt7__cxx1112basic_stringIcSt11char_traitsIcESaIcEE14_M_replace_auxEmmmc@GLIBCXX_3.4.21 + 0
0000000000039240  0000003f00000005 R_RISCV_JUMP_SLOT      0000000000016760 printf@GLIBC_2.27 + 0
0000000000039248  0000002b00000005 R_RISCV_JUMP_SLOT      0000000000016770 _ZNSt13runtime_errorC2EPKc@GLIBCXX_3.4.21 + 0
0000000000039250  0000002900000005 R_RISCV_JUMP_SLOT      0000000000016780 memmove@GLIBC_2.27 + 0
0000000000039258  000000af00000005 R_RISCV_JUMP_SLOT      0000000000000000 __cxa_pure_virtual@CXXABI_1.3 + 0
0000000000039260  0000005e00000005 R_RISCV_JUMP_SLOT      00000000000167a0 _ZNSt7__cxx1112basic_stringIcSt11char_traitsIcESaIcEE6appendEPKc@GLIBCXX_3.4.21 + 0
0000000000039268  0000005200000005 R_RISCV_JUMP_SLOT      00000000000167b0 _ZNSt11range_errorC1ERKNSt7__cxx1112basic_stringIcSt11char_traitsIcESaIcEEE@GLIBCXX_3.4.21 + 0
0000000000039270  0000006500000005 R_RISCV_JUMP_SLOT      00000000000167c0 __errno_location@GLIBC_2.27 + 0
0000000000039278  0000002e00000005 R_RISCV_JUMP_SLOT      00000000000167d0 close@GLIBC_2.27 + 0
0000000000039280  0000009f00000005 R_RISCV_JUMP_SLOT      00000000000167e0 _ZNSt15underflow_errorC1EPKc@GLIBCXX_3.4.21 + 0
0000000000039288  0000003b00000005 R_RISCV_JUMP_SLOT      00000000000167f0 _ZNSt11logic_errorC2ERKNSt7__cxx1112basic_stringIcSt11char_traitsIcESaIcEEE@GLIBCXX_3.4.21 + 0

The decoding of unwind sections for machine type RISC-V is not currently supported.

Symbol table '.dynsym' contains 194 entries:
   Num:    Value          Size Type    Bind   Vis      Ndx Name
     0: 0000000000000000     0 NOTYPE  LOCAL  DEFAULT  UND 
     1: 0000000000000000     0 OBJECT  GLOBAL DEFAULT  UND _ZTISt12system_error@GLIBCXX_3.4.11 (6)
     2: 0000000000000000     0 FUNC    GLOBAL DEFAULT  UND _ZNSt11range_errorD1Ev@GLIBCXX_3.4 (2)
     3: 0000000000000000     0 OBJECT  GLOBAL DEFAULT  UND _ZTISt15underflow_error@GLIBCXX_3.4 (2)
     4: 0000000000000000     0 FUNC    GLOBAL DEFAULT  UND _ZNSt13runtime_errorD1Ev@GLIBCXX_3.4 (2)
     5: 0000000000000000     0 FUNC    GLOBAL DEFAULT  UND _ZNSt12system_errorD1Ev@GLIBCXX_3.4.11 (6)
     6: 0000000000000000     0 FUNC    GLOBAL DEFAULT  UND _ZNSt11logic_errorD1Ev@GLIBCXX_3.4 (2)
     7: 0000000000000000     0 FUNC    GLOBAL DEFAULT  UND _ZNSt12out_of_rangeD1Ev@GLIBCXX_3.4 (2)
     8: 0000000000000000     0 OBJECT  GLOBAL DEFAULT  UND _ZTISt11range_error@GLIBCXX_3.4 (2)
     9: 0000000000000000     0 OBJECT  GLOBAL DEFAULT  UND _ZTISt12out_of_range@GLIBCXX_3.4 (2)
    10: 0000000000000000     0 NOTYPE  WEAK   DEFAULT  UND _ITM_deregisterTMCloneTable
    11: 0000000000000000     0 OBJECT  GLOBAL DEFAULT  UND _ZTISt11logic_error@GLIBCXX_3.4 (2)
    12: 0000000000000000     0 OBJECT  GLOBAL DEFAULT  UND _ZTVSt12system_error@GLIBCXX_3.4.11 (6)
    13: 0000000000000000     0 NOTYPE  WEAK   DEFAULT  UND _ITM_registerTMCloneTable
    14: 0000000000000000     0 FUNC    GLOBAL DEFAULT  UND _ZNSt15underflow_errorD1Ev@GLIBCXX_3.4 (2)
    15: 0000000000000000     0 OBJECT  GLOBAL DEFAULT  UND _ZTISt13runtime_error@GLIBCXX_3.4 (2)
    16: 0000000000038d90    40 OBJECT  WEAK   DEFAULT   20 _ZTVN3elf11mmap_loaderE
    17: 000000000001f2e8    96 FUNC    WEAK   DEFAULT   12 _ZNSt8__detail14__to_chars_lenImEEjT_i
    18: 00000000000163e0     0 FUNC    GLOBAL DEFAULT  UND _ZSt17__throw_bad_allocv@GLIBCXX_3.4 (2)
    19: 0000000000016550     0 FUNC    GLOBAL DEFAULT  UND __bswapdi2@GCC_4.3.0 (4)
    20: 000000000001a774   150 FUNC    WEAK   DEFAULT   12 _ZNSt8__detail9_Map_baseImSt4pairIKmN5dwarf9type_unitEESaIS5_ENS_10_Select1stESt8equal_toImESt4hashImENS_18_Mod_range_hashingENS_20_Default_ranged_hashENS_20_Prime_rehash_policyENS_17_Hashtable_traitsILb0ELb0ELb1EEELb1EEixERS2_
    21: 000000000001f8c2   360 FUNC    WEAK   DEFAULT   12 _ZNSt6vectorIN5dwarf14attribute_specESaIS1_EE17_M_realloc_insertIJS1_EEEvN9__gnu_cxx17__normal_iteratorIPS1_S3_EEDpOT_
    22: 000000000001a8c8   196 FUNC    WEAK   DEFAULT   12 _ZNSt10_HashtableImSt4pairIKmN5dwarf12abbrev_entryEESaIS4_ENSt8__detail10_Select1stESt8equal_toImESt4hashImENS6_18_Mod_range_hashingENS6_20_Default_ranged_hashENS6_20_Prime_rehash_policyENS6_17_Hashtable_traitsILb0ELb0ELb1EEEE21_M_insert_unique_nodeEmmPNS6_10_Hash_nodeIS4_Lb0EEEm
    23: 0000000000016740     0 FUNC    GLOBAL DEFAULT  UND __cxa_guard_acquire@CXXABI_1.3 (7)
    24: 000000000002cf08    24 OBJECT  WEAK   DEFAULT   13 _ZTSSt19_Sp_make_shared_tag
    25: 0000000000038a38    40 OBJECT  WEAK   DEFAULT   20 _ZTVN5dwarf19value_type_mismatchE
    26: 00000000000165b0     0 FUNC    GLOBAL DEFAULT  UND memcpy@GLIBC_2.27 (3)
    27: 000000000002c016  1132 FUNC    WEAK   DEFAULT   12 _ZN3elf9canon_hdrINS_4EhdrEEEvPT_INS_5Elf64ELNS_10byte_orderE0EEPKvNS_8elfclassENS_7elfdataE
    28: 0000000000016430     0 FUNC    GLOBAL DEFAULT  UND putchar@GLIBC_2.27 (3)
    29: 0000000000019636    56 FUNC    WEAK   DEFAULT   12 _ZNSt6vectorIN5dwarf16compilation_unitESaIS1_EED1Ev
    30: 0000000000021656    26 FUNC    WEAK   DEFAULT   12 _ZN5dwarf10expr_errorD1Ev
    31: 000000000001f802   192 FUNC    WEAK   DEFAULT   12 _ZNSt6vectorIN5dwarf14attribute_specESaIS1_EE16_M_shrink_to_fitEv
    32: 00000000000249f6   570 FUNC    WEAK   DEFAULT   12 _ZNSt6vectorIN5dwarf10line_table4fileESaIS2_EE17_M_realloc_insertIJRKNSt7__cxx1112basic_stringIcSt11char_traitsIcESaIcEEEEEEvN9__gnu_cxx17__normal_iteratorIPS2_S4_EEDpOT_
    33: 0000000000016360     0 FUNC    GLOBAL DEFAULT  UND strcmp@GLIBC_2.27 (3)
    34: 0000000000016750     0 FUNC    GLOBAL DEFAULT  UND _ZNSt7__cxx1112basic_stringIcSt11char_traitsIcESaIcEE14_M_replace_auxEmmmc@GLIBCXX_3.4.21 (5)
    35: 0000000000016660     0 FUNC    GLOBAL DEFAULT  UND _ZNSt7__cxx1112basic_stringIcSt11char_traitsIcESaIcEE10_M_replaceEmmPKcm@GLIBCXX_3.4.21 (5)
    36: 0000000000016730     0 FUNC    GLOBAL DEFAULT  UND _ZNSt7__cxx1112basic_stringIcSt11char_traitsIcESaIcEE9_M_mutateEmmPKcm@GLIBCXX_3.4.21 (5)
    37: 0000000000016330     0 FUNC    GLOBAL DEFAULT  UND _Znam@GLIBCXX_3.4 (2)
    38: 000000000002cfb0    16 OBJECT  WEAK   DEFAULT   13 _ZTIN5dwarf4unitE
    39: 0000000000016540     0 FUNC    GLOBAL DEFAULT  UND _ZNSt13runtime_errorD2Ev@GLIBCXX_3.4 (2)
    40: 00000000000166f0     0 FUNC    GLOBAL DEFAULT  UND _Unwind_Resume@GCC_3.0 (12)
    41: 0000000000016780     0 FUNC    GLOBAL DEFAULT  UND memmove@GLIBC_2.27 (3)
    42: 00000000000387b0    88 OBJECT  WEAK   DEFAULT   20 _ZTVN10__cxxabiv117__class_type_infoE@CXXABI_1.3 (7)
    43: 0000000000016770     0 FUNC    GLOBAL DEFAULT  UND _ZNSt13runtime_errorC2EPKc@GLIBCXX_3.4.21 (5)
    44: 000000000002c912   258 FUNC    WEAK   DEFAULT   12 _ZNSt6vectorIN3elf7sectionESaIS1_EE17_M_realloc_insertIJS1_EEEvN9__gnu_cxx17__normal_iteratorIPS1_S3_EEDpOT_
    45: 000000000001a524    56 FUNC    WEAK   DEFAULT   12 _ZNKSt10_HashtableImSt4pairIKmN5dwarf12abbrev_entryEESaIS4_ENSt8__detail10_Select1stESt8equal_toImESt4hashImENS6_18_Mod_range_hashingENS6_20_Default_ranged_hashENS6_20_Prime_rehash_policyENS6_17_Hashtable_traitsILb0ELb0ELb1EEEE19_M_find_before_nodeEmRS1_m
    46: 00000000000167d0     0 FUNC    GLOBAL DEFAULT  UND close@GLIBC_2.27 (3)
    47: 0000000000016510     0 FUNC    GLOBAL DEFAULT  UND _ZdlPv@GLIBCXX_3.4 (2)
    48: 000000000002d990   201 OBJECT  UNIQUE DEFAULT   13 _ZZNSt8__detail18__to_chars_10_implImEEvPcjT_E8__digits
    49: 000000000001a55c   190 FUNC    WEAK   DEFAULT   12 _ZNSt10_HashtableImSt4pairIKmN5dwarf9type_unitEESaIS4_ENSt8__detail10_Select1stESt8equal_toImESt4hashImENS6_18_Mod_range_hashingENS6_20_Default_ranged_hashENS6_20_Prime_rehash_policyENS6_17_Hashtable_traitsILb0ELb0ELb1EEEE13_M_rehash_auxEmSt17integral_constantIbLb1EE
    50: 00000000000166c0     0 FUNC    GLOBAL DEFAULT  UND __cxa_throw@CXXABI_1.3 (7)
    51: 00000000000388b8    24 OBJECT  WEAK   DEFAULT   20 _ZTIN5dwarf12format_errorE
    52: 00000000000166e0     0 FUNC    GLOBAL DEFAULT  UND fprintf@GLIBC_2.27 (3)
    53: 0000000000038db8    56 OBJECT  WEAK   DEFAULT   20 _ZTVSt23_Sp_counted_ptr_inplaceIN3elf11mmap_loaderESaIvELN9__gnu_cxx12_Lock_policyE1EE
    54: 0000000000016420     0 FUNC    GLOBAL DEFAULT  UND __cxa_allocate_exception@CXXABI_1.3 (7)
    55: 0000000000019df6    74 FUNC    WEAK   DEFAULT   12 _ZNSt10_HashtableImSt4pairIKmN5dwarf12abbrev_entryEESaIS4_ENSt8__detail10_Select1stESt8equal_toImESt4hashImENS6_18_Mod_range_hashingENS6_20_Default_ranged_hashENS6_20_Prime_rehash_policyENS6_17_Hashtable_traitsILb0ELb0ELb1EEEE5clearEv
    56: 0000000000019794   384 FUNC    WEAK   DEFAULT   12 _ZNSt7__cxx119to_stringEi
    57: 0000000000016480     0 FUNC    GLOBAL DEFAULT  UND open@GLIBC_2.27 (3)
    58: 0000000000024322    74 FUNC    WEAK   DEFAULT   12 _ZNSt7__cxx119to_stringEj
    59: 00000000000167f0     0 FUNC    GLOBAL DEFAULT  UND _ZNSt11logic_errorC2ERKNSt7__cxx1112basic_stringIcSt11char_traitsIcESaIcEEE@GLIBCXX_3.4.21 (5)
    60: 000000000001a120    44 FUNC    WEAK   DEFAULT   12 _ZNSt10_HashtableImSt4pairIKmN5dwarf9type_unitEESaIS4_ENSt8__detail10_Select1stESt8equal_toImESt4hashImENS6_18_Mod_range_hashingENS6_20_Default_ranged_hashENS6_20_Prime_rehash_policyENS6_17_Hashtable_traitsILb0ELb0ELb1EEEE12_Scoped_nodeD1Ev
    61: 0000000000038c10    40 OBJECT  WEAK   DEFAULT   20 _ZTVN3elf21section_type_mismatchE
    62: 00000000000389b0    56 OBJECT  WEAK   DEFAULT   20 _ZTVSt23_Sp_counted_ptr_inplaceIN5dwarf5dwarf4implESaIvELN9__gnu_cxx12_Lock_policyE1EE
    63: 0000000000016760     0 FUNC    GLOBAL DEFAULT  UND printf@GLIBC_2.27 (3)
    64: 00000000000240d4   314 FUNC    WEAK   DEFAULT   12 _ZNSt7__cxx119to_stringEm
    65: 00000000000165e0     0 FUNC    GLOBAL DEFAULT  UND memset@GLIBC_2.27 (3)
    66: 0000000000016390     0 FUNC    GLOBAL DEFAULT  UND _ZNSt7__cxx1112basic_stringIcSt11char_traitsIcESaIcEE6insertEmPKc@GLIBCXX_3.4.21 (5)
    67: 0000000000019a5e   198 FUNC    WEAK   DEFAULT   12 _ZNSt8_Rb_treeIN5dwarf12section_typeESt4pairIKS1_St10shared_ptrINS0_7sectionEEESt10_Select1stIS7_ESt4lessIS1_ESaIS7_EE8_M_eraseEPSt13_Rb_tree_nodeIS7_E
    68: 0000000000016580     0 FUNC    GLOBAL DEFAULT  UND _ZNSt11logic_errorC2EPKc@GLIBCXX_3.4.21 (5)
    69: 000000000002c810   258 FUNC    WEAK   DEFAULT   12 _ZNSt6vectorIN3elf7segmentESaIS1_EE17_M_realloc_insertIJS1_EEEvN9__gnu_cxx17__normal_iteratorIPS1_S3_EEDpOT_
    70: 0000000000038b40    24 OBJECT  WEAK   DEFAULT   20 _ZTIN3elf12format_errorE
    71: 0000000000016500     0 FUNC    GLOBAL DEFAULT  UND __assert_fail@GLIBC_2.27 (3)
    72: 0000000000016620     0 FUNC    GLOBAL DEFAULT  UND __cxa_rethrow@CXXABI_1.3 (7)
    73: 00000000000163f0     0 FUNC    GLOBAL DEFAULT  UND _ZNSt13runtime_errorC1EPKc@GLIBCXX_3.4.21 (5)
    74: 0000000000016670     0 FUNC    GLOBAL DEFAULT  UND lseek@GLIBC_2.27 (3)
    75: 0000000000019980   222 FUNC    WEAK   DEFAULT   12 _ZNSt6vectorIN5dwarf14attribute_specESaIS1_EEaSERKS3_
    76: 000000000002d158    16 OBJECT  UNIQUE DEFAULT   13 _ZZNSt19_Sp_make_shared_tag5_S_tiEvE5__tag
    77: 000000000001a14c    56 FUNC    WEAK   DEFAULT   12 _ZNKSt10_HashtableImSt4pairIKmN5dwarf9type_unitEESaIS4_ENSt8__detail10_Select1stESt8equal_toImESt4hashImENS6_18_Mod_range_hashingENS6_20_Default_ranged_hashENS6_20_Prime_rehash_policyENS6_17_Hashtable_traitsILb0ELb0ELb1EEEE19_M_find_before_nodeEmRS1_m
    78: 000000000002d3a0   201 OBJECT  UNIQUE DEFAULT   13 _ZZNSt8__detail18__to_chars_10_implIjEEvPcjT_E8__digits
    79: 0000000000038b08    56 OBJECT  WEAK   DEFAULT   20 _ZTVSt23_Sp_counted_ptr_inplaceIN5dwarf10line_table4implESaIvELN9__gnu_cxx12_Lock_policyE1EE
    80: 000000000001a98c   152 FUNC    WEAK   DEFAULT   12 _ZNSt8__detail9_Map_baseImSt4pairIKmN5dwarf12abbrev_entryEESaIS5_ENS_10_Select1stESt8equal_toImESt4hashImENS_18_Mod_range_hashingENS_20_Default_ranged_hashENS_20_Prime_rehash_policyENS_17_Hashtable_traitsILb0ELb0ELb1EEELb1EEixERS2_
    81: 0000000000021fb2   228 FUNC    WEAK   DEFAULT   12 _ZNSt6vectorImSaImEE17_M_realloc_insertIJRKmEEEvN9__gnu_cxx17__normal_iteratorIPmS1_EEDpOT_
    82: 00000000000167b0     0 FUNC    GLOBAL DEFAULT  UND _ZNSt11range_errorC1ERKNSt7__cxx1112basic_stringIcSt11char_traitsIcESaIcEEE@GLIBCXX_3.4.21 (5)
    83: 000000000002d0d8    32 OBJECT  WEAK   DEFAULT   13 _ZTVN5dwarf16compilation_unitE
    84: 00000000000163a0     0 FUNC    GLOBAL DEFAULT  UND _ZNKSt7__cxx1112basic_stringIcSt11char_traitsIcESaIcEE7compareEPKc@GLIBCXX_3.4.21 (5)
    85: 0000000000038be8    40 OBJECT  WEAK   DEFAULT   20 _ZTVN3elf12format_errorE
    86: 0000000000016470     0 FUNC    GLOBAL DEFAULT  UND _ZNSt7__cxx1112basic_stringIcSt11char_traitsIcESaIcEEC1EOS4_@GLIBCXX_3.4.21 (5)
    87: 0000000000016570     0 FUNC    GLOBAL DEFAULT  UND _ZNSt7__cxx1112basic_stringIcSt11char_traitsIcESaIcEE12_M_constructEmc@GLIBCXX_3.4.21 (5)
    88: 00000000000165f0     0 FUNC    GLOBAL DEFAULT  UND _ZNSt7__cxx1112basic_stringIcSt11char_traitsIcESaIcEEC1EPKcRKS3_@GLIBCXX_3.4.21 (5)
    89: 0000000000016700     0 FUNC    GLOBAL DEFAULT  UND _ZNSt11logic_errorD2Ev@GLIBCXX_3.4 (2)
    90: 0000000000039618     8 OBJECT  GLOBAL DEFAULT   25 stderr@GLIBC_2.27 (3)
    91: 00000000000163b0     0 FUNC    GLOBAL DEFAULT  UND _ZNSt7__cxx1112basic_stringIcSt11char_traitsIcESaIcEE6resizeEmc@GLIBCXX_3.4.21 (5)
    92: 00000000000249c4    50 FUNC    WEAK   DEFAULT   12 _ZNSt12_Destroy_auxILb0EE9__destroyIPN5dwarf10line_table4fileEEEvT_S6_
    93: 000000000002217a    44 FUNC    WEAK   DEFAULT   12 _ZNSt6vectorImSaImEE12emplace_backIJmEEEvDpOT_
    94: 00000000000167a0     0 FUNC    GLOBAL DEFAULT  UND _ZNSt7__cxx1112basic_stringIcSt11char_traitsIcESaIcEE6appendEPKc@GLIBCXX_3.4.21 (5)
    95: 000000000001efb6    26 FUNC    WEAK   DEFAULT   12 _ZN5dwarf19value_type_mismatchD1Ev
    96: 0000000000016610     0 FUNC    GLOBAL DEFAULT  UND _ZNSt11logic_errorC1EPKc@GLIBCXX_3.4.21 (5)
    97: 0000000000024f2a   610 FUNC    WEAK   DEFAULT   12 _ZNSt6vectorIN5dwarf10line_table4fileESaIS2_EE17_M_realloc_insertIJNSt7__cxx1112basic_stringIcSt11char_traitsIcESaIcEEERmSC_EEEvN9__gnu_cxx17__normal_iteratorIPS2_S4_EEDpOT_
    98: 0000000000022096   228 FUNC    WEAK   DEFAULT   12 _ZNSt6vectorImSaImEE17_M_realloc_insertIJmEEEvN9__gnu_cxx17__normal_iteratorIPmS1_EEDpOT_
    99: 00000000000164d0     0 FUNC    GLOBAL DEFAULT  UND __cxa_free_exception@CXXABI_1.3 (7)
   100: 00000000000166b0     0 FUNC    GLOBAL DEFAULT  UND strncmp@GLIBC_2.27 (3)
   101: 00000000000167c0     0 FUNC    GLOBAL DEFAULT  UND __errno_location@GLIBC_2.27 (3)
   102: 000000000002461a   416 FUNC    WEAK   DEFAULT   12 _ZNSt6vectorINSt7__cxx1112basic_stringIcSt11char_traitsIcESaIcEEESaIS5_EE17_M_realloc_insertIJRKS5_EEEvN9__gnu_cxx17__normal_iteratorIPS5_S7_EEDpOT_
   103: 000000000002d0b8    32 OBJECT  WEAK   DEFAULT   13 _ZTVN5dwarf4unitE
   104: 0000000000016710     0 FUNC    GLOBAL DEFAULT  UND _ZNSt7__cxx1112basic_stringIcSt11char_traitsIcESaIcEE9_M_createERmm@GLIBCXX_3.4.21 (5)
   105: 0000000000016440     0 FUNC    GLOBAL DEFAULT  UND _ZSt20__throw_length_errorPKc@GLIBCXX_3.4 (2)
   106: 00000000000247ba   398 FUNC    WEAK   DEFAULT   12 _ZNSt6vectorINSt7__cxx1112basic_stringIcSt11char_traitsIcESaIcEEESaIS5_EE17_M_realloc_insertIJS5_EEEvN9__gnu_cxx17__normal_iteratorIPS5_S7_EEDpOT_
   107: 0000000000038a20    24 OBJECT  WEAK   DEFAULT   20 _ZTIN5dwarf19value_type_mismatchE
   108: 0000000000016380     0 FUNC    GLOBAL DEFAULT  UND _ZN9__gnu_cxx18__exchange_and_addEPVii@GLIBCXX_3.4 (2)
   109: 000000000001a61a   196 FUNC    WEAK   DEFAULT   12 _ZNSt10_HashtableImSt4pairIKmN5dwarf9type_unitEESaIS4_ENSt8__detail10_Select1stESt8equal_toImESt4hashImENS6_18_Mod_range_hashingENS6_20_Default_ranged_hashENS6_20_Prime_rehash_policyENS6_17_Hashtable_traitsILb0ELb0ELb1EEEE21_M_insert_unique_nodeEmmPNS6_10_Hash_nodeIS4_Lb0EEEm
   110: 00000000000164b0     0 FUNC    GLOBAL DEFAULT  UND _ZSt18_Rb_tree_incrementPSt18_Rb_tree_node_base@GLIBCXX_3.4 (2)
   111: 0000000000038b58    24 OBJECT  WEAK   DEFAULT   20 _ZTIN3elf21section_type_mismatchE
   112: 000000000001a184   100 FUNC    WEAK   DEFAULT   12 _ZNSt8_Rb_treeIN5dwarf12section_typeESt4pairIKS1_St10shared_ptrINS0_7sectionEEESt10_Select1stIS7_ESt4lessIS1_ESaIS7_EE24_M_get_insert_unique_posERS3_
   113: 000000000002436c   226 FUNC    WEAK   DEFAULT   12 _ZStplIcSt11char_traitsIcESaIcEENSt7__cxx1112basic_stringIT_T0_T1_EEOS8_S9_
   114: 0000000000016650     0 FUNC    GLOBAL DEFAULT  UND _ZNSt12out_of_rangeC1ERKNSt7__cxx1112basic_stringIcSt11char_traitsIcESaIcEEE@GLIBCXX_3.4.21 (5)
   115: 000000000002b8a0    26 FUNC    WEAK   DEFAULT   12 _ZN3elf12format_errorD1Ev
   116: 0000000000039800     0 NOTYPE  GLOBAL DEFAULT  ABS __global_pointer$
   117: 00000000000389e8    56 OBJECT  WEAK   DEFAULT   20 _ZTVSt23_Sp_counted_ptr_inplaceIN5dwarf4unit4implESaIvELN9__gnu_cxx12_Lock_policyE1EE
   118: 000000000002518c   184 FUNC    WEAK   DEFAULT   12 _ZNSt6vectorIN5dwarf10line_table4fileESaIS2_EE12emplace_backIJNSt7__cxx1112basic_stringIcSt11char_traitsIcESaIcEEERmSC_EEEvDpOT_
   119: 0000000000016560     0 FUNC    GLOBAL DEFAULT  UND __dynamic_cast@CXXABI_1.3 (7)
   120: 000000000002b9c0    26 FUNC    WEAK   DEFAULT   12 _ZN3elf21section_type_mismatchD1Ev
   121: 000000000001eff6   754 FUNC    WEAK   DEFAULT   12 _ZN5dwarf6cursor7addressEv
   122: 0000000000038c38    56 OBJECT  WEAK   DEFAULT   20 _ZTVSt23_Sp_counted_ptr_inplaceIN3elf3elf4implESaIvELN9__gnu_cxx12_Lock_policyE1EE
   123: 0000000000016450     0 FUNC    GLOBAL DEFAULT  UND _ZNSt7__cxx1112basic_stringIcSt11char_traitsIcESaIcEE9_M_assignERKS4_@GLIBCXX_3.4.21 (5)
   124: 00000000000245ac   110 FUNC    WEAK   DEFAULT   12 _ZStplIcSt11char_traitsIcESaIcEENSt7__cxx1112basic_stringIT_T0_T1_EERKS8_SA_
   125: 00000000000164a0     0 FUNC    GLOBAL DEFAULT  UND mmap@GLIBC_2.27 (3)
   126: 0000000000038958    32 OBJECT  WEAK   DEFAULT   20 _ZTVN5dwarf9type_unitE
   127: 0000000000016520     0 FUNC    GLOBAL DEFAULT  UND _Znwm@GLIBCXX_3.4 (2)
   128: 0000000000016530     0 FUNC    GLOBAL DEFAULT  UND _ZSt18_Rb_tree_decrementPSt18_Rb_tree_node_base@GLIBCXX_3.4 (2)
   129: 0000000000016630     0 FUNC    GLOBAL DEFAULT  UND _ZNKSt11logic_error4whatEv@GLIBCXX_3.4 (2)
   130: 0000000000016720     0 FUNC    GLOBAL DEFAULT  UND __cxa_atexit@GLIBC_2.27 (3)
   131: 000000000002420e   114 FUNC    WEAK   DEFAULT   12 _ZNSt8__detail14__to_chars_lenIjEEjT_i
   132: 000000000002c706   266 FUNC    WEAK   DEFAULT   12 _ZN3elf9canon_hdrINS_3SymEEEvPT_INS_5Elf64ELNS_10byte_orderE0EEPKvNS_8elfclassENS_7elfdataE
   133: 00000000000164c0     0 FUNC    GLOBAL DEFAULT  UND _ZSt19__throw_logic_errorPKc@GLIBCXX_3.4 (2)
   134: 0000000000021654     2 FUNC    WEAK   DEFAULT   12 _ZN5dwarf12expr_contextD1Ev
   135: 000000000001a1e8   222 FUNC    WEAK   DEFAULT   12 _ZNSt8_Rb_treeIN5dwarf12section_typeESt4pairIKS1_St10shared_ptrINS0_7sectionEEESt10_Select1stIS7_ESt4lessIS1_ESaIS7_EE29_M_get_insert_hint_unique_posESt23_Rb_tree_const_iteratorIS7_ERS3_
   136: 00000000000165c0     0 FUNC    GLOBAL DEFAULT  UND _ZdaPv@GLIBCXX_3.4 (2)
   137: 0000000000024c30   600 FUNC    WEAK   DEFAULT   12 _ZNSt6vectorIN5dwarf10line_table4fileESaIS2_EE17_M_realloc_insertIJNSt7__cxx1112basic_stringIcSt11char_traitsIcESaIcEEEEEEvN9__gnu_cxx17__normal_iteratorIPS2_S4_EEDpOT_
   138: 0000000000024948   124 FUNC    WEAK   DEFAULT   12 _ZNSt6vectorINSt7__cxx1112basic_stringIcSt11char_traitsIcESaIcEEESaIS5_EE12emplace_backIJS5_EEEvDpOT_
   139: 0000000000038d18    56 OBJECT  WEAK   DEFAULT   20 _ZTVSt23_Sp_counted_ptr_inplaceIN3elf6symtab4implESaIvELN9__gnu_cxx12_Lock_policyE1EE
   140: 0000000000038ca8    56 OBJECT  WEAK   DEFAULT   20 _ZTVSt23_Sp_counted_ptr_inplaceIN3elf7section4implESaIvELN9__gnu_cxx12_Lock_policyE1EE
   141: 0000000000016370     0 FUNC    GLOBAL DEFAULT  UND __bswapsi2@GCC_4.3.0 (4)
   142: 0000000000016460     0 FUNC    GLOBAL DEFAULT  UND _ZNSt3_V215system_categoryEv@GLIBCXX_3.4.21 (5)
   143: 00000000000388d0    24 OBJECT  WEAK   DEFAULT   20 _ZTIN5dwarf9type_unitE
   144: 000000000001bb4e   282 FUNC    WEAK   DEFAULT   12 _ZNSt6vectorISt4pairIN5dwarf5DW_ATENS1_5valueEESaIS4_EE17_M_realloc_insertIJS4_EEEvN9__gnu_cxx17__normal_iteratorIPS4_S6_EEDpOT_
   145: 0000000000038ce0    56 OBJECT  WEAK   DEFAULT   20 _ZTVSt23_Sp_counted_ptr_inplaceIN3elf6strtab4implESaIvELN9__gnu_cxx12_Lock_policyE1EE
   146: 00000000000165d0     0 FUNC    GLOBAL DEFAULT  UND _ZNKSt8__detail20_Prime_rehash_policy14_M_need_rehashEmmm@GLIBCXX_3.4.18 (10)
   147: 0000000000038930    40 OBJECT  WEAK   DEFAULT   20 _ZTVN5dwarf12format_errorE
   148: 000000000001a352   466 FUNC    WEAK   DEFAULT   12 _ZNSt6vectorIN5dwarf16compilation_unitESaIS1_EE17_M_realloc_insertIJRNS0_5dwarfEmEEEvN9__gnu_cxx17__normal_iteratorIPS1_S3_EEDpOT_
   149: 0000000000016490     0 FUNC    GLOBAL DEFAULT  UND __cxa_guard_release@CXXABI_1.3 (7)
   150: 00000000000164f0     0 FUNC    GLOBAL DEFAULT  UND _ZSt28__throw_bad_array_new_lengthv@GLIBCXX_3.4.29 (8)
   151: 0000000000039620     1 OBJECT  GLOBAL DEFAULT   25 __libc_single_threaded@GLIBC_2.32 (9)
   152: 000000000002a256   146 FUNC    WEAK   DEFAULT   12 _Z6to_hexIiENSt7__cxx1112basic_stringIcSt11char_traitsIcESaIcEEET_
   153: 0000000000038808    88 OBJECT  WEAK   DEFAULT   20 _ZTVN10__cxxabiv120__si_class_type_infoE@CXXABI_1.3 (7)
   154: 0000000000024280   162 FUNC    WEAK   DEFAULT   12 _ZNSt8__detail18__to_chars_10_implIjEEvPcjT_
   155: 0000000000016340     0 FUNC    GLOBAL DEFAULT  UND _ZSt29_Rb_tree_insert_and_rebalancebPSt18_Rb_tree_node_baseS0_RS_@GLIBCXX_3.4 (2)
   156: 0000000000024e88   162 FUNC    WEAK   DEFAULT   12 _ZNSt6vectorIN5dwarf10line_table4fileESaIS2_EE12emplace_backIJNSt7__cxx1112basic_stringIcSt11char_traitsIcESaIcEEEEEEvDpOT_
   157: 0000000000038c70    56 OBJECT  WEAK   DEFAULT   20 _ZTVSt23_Sp_counted_ptr_inplaceIN3elf7segment4implESaIvELN9__gnu_cxx12_Lock_policyE1EE
   158: 0000000000016c88   102 FUNC    WEAK   DEFAULT   12 _ZNSt16_Sp_counted_baseILN9__gnu_cxx12_Lock_policyE1EE10_M_releaseEv
   159: 00000000000167e0     0 FUNC    GLOBAL DEFAULT  UND _ZNSt15underflow_errorC1EPKc@GLIBCXX_3.4.21 (5)
   160: 0000000000039010     8 OBJECT  GLOBAL DEFAULT   22 _ZN5dwarf15no_expr_contextE
   161: 0000000000016590     0 FUNC    GLOBAL DEFAULT  UND strerror@GLIBC_2.27 (3)
   162: 0000000000019d08    94 FUNC    WEAK   DEFAULT   12 _ZNSt7__cxx1112basic_stringIcSt11char_traitsIcESaIcEE12_M_constructIPKcEEvT_S8_St20forward_iterator_tag
   163: 0000000000038a88    40 OBJECT  WEAK   DEFAULT   20 _ZTVN5dwarf10expr_errorE
   164: 0000000000038a60    24 OBJECT  WEAK   DEFAULT   20 _ZTIN5dwarf10expr_errorE
   165: 0000000000019fce   338 FUNC    WEAK   DEFAULT   12 _ZNSt6vectorIN5dwarf12abbrev_entryESaIS1_EE17_M_default_appendEm
   166: 0000000000038978    56 OBJECT  WEAK   DEFAULT   20 _ZTVSt23_Sp_counted_ptr_inplaceIN5dwarf7sectionESaIvELN9__gnu_cxx12_Lock_policyE1EE
   167: 000000000002c482   294 FUNC    WEAK   DEFAULT   12 _ZN3elf9canon_hdrINS_4PhdrEEEvPT_INS_5Elf64ELNS_10byte_orderE0EEPKvNS_8elfclassENS_7elfdataE
   168: 0000000000016410     0 FUNC    GLOBAL DEFAULT  UND strlen@GLIBC_2.27 (3)
   169: 0000000000016690     0 FUNC    GLOBAL DEFAULT  UND __cxa_end_catch@CXXABI_1.3 (7)
   170: 00000000000166d0     0 FUNC    GLOBAL DEFAULT  UND _ZNSt11range_errorC1EPKc@GLIBCXX_3.4.21 (5)
   171: 0000000000038860    88 OBJECT  WEAK   DEFAULT   20 _ZTVN10__cxxabiv121__vmi_class_type_infoE@CXXABI_1.3 (7)
   172: 00000000000166a0     0 FUNC    GLOBAL DEFAULT  UND __gxx_personality_v0@CXXABI_1.3 (7)
   173: 0000000000016680     0 FUNC    GLOBAL DEFAULT  UND _ZNSt13runtime_errorC1ERKNSt7__cxx1112basic_stringIcSt11char_traitsIcESaIcEEE@GLIBCXX_3.4.21 (5)
   174: 000000000001a80a   190 FUNC    WEAK   DEFAULT   12 _ZNSt10_HashtableImSt4pairIKmN5dwarf12abbrev_entryEESaIS4_ENSt8__detail10_Select1stESt8equal_toImESt4hashImENS6_18_Mod_range_hashingENS6_20_Default_ranged_hashENS6_20_Prime_rehash_policyENS6_17_Hashtable_traitsILb0ELb0ELb1EEEE13_M_rehash_auxEmSt17integral_constantIbLb1EE
   175: 0000000000000000     0 FUNC    WEAK   DEFAULT  UND __cxa_pure_virtual@CXXABI_1.3 (7)
   176: 0000000000016400     0 FUNC    GLOBAL DEFAULT  UND __cxa_begin_catch@CXXABI_1.3 (7)
   177: 0000000000016600     0 FUNC    GLOBAL DEFAULT  UND _ZNKSt13runtime_error4whatEv@GLIBCXX_3.4 (2)
   178: 0000000000016350     0 FUNC    GLOBAL DEFAULT  UND _ZN9__gnu_cxx12__atomic_addEPVii@GLIBCXX_3.4 (2)
   179: 000000000001f348   128 FUNC    WEAK   DEFAULT   12 _ZNSt8__detail18__to_chars_10_implImEEvPcjT_
   180: 000000000001a6de   150 FUNC    WEAK   DEFAULT   12 _ZNSt8__detail9_Map_baseImSt4pairIKmN5dwarf9type_unitEESaIS5_ENS_10_Select1stESt8equal_toImESt4hashImENS_18_Mod_range_hashingENS_20_Default_ranged_hashENS_20_Prime_rehash_policyENS_17_Hashtable_traitsILb0ELb0ELb1EEELb1EEixEOm
   181: 00000000000163d0     0 FUNC    GLOBAL DEFAULT  UND __libc_start_main@GLIBC_2.27 (3)
   182: 0000000000019954    44 FUNC    WEAK   DEFAULT   12 _ZN5dwarf12small_vectorImLj6EED1Ev
   183: 000000000002454e    94 FUNC    WEAK   DEFAULT   12 _ZNSt7__cxx1112basic_stringIcSt11char_traitsIcESaIcEE12_M_constructIPcEEvT_S7_St20forward_iterator_tag
   184: 000000000001a2c6   140 FUNC    WEAK   DEFAULT   12 _ZNSt8_Rb_treeIN5dwarf12section_typeESt4pairIKS1_St10shared_ptrINS0_7sectionEEESt10_Select1stIS7_ESt4lessIS1_ESaIS7_EE22_M_emplace_hint_uniqueIJRKSt21piecewise_construct_tSt5tupleIJRS3_EESI_IJEEEEESt17_Rb_tree_iteratorIS7_ESt23_Rb_tree_const_iteratorIS7_EDpOT_
   185: 000000000002444e   256 FUNC    WEAK   DEFAULT   12 _ZNSt6vectorIhSaIhEE17_M_default_appendEm
   186: 000000000002c5a8   350 FUNC    WEAK   DEFAULT   12 _ZN3elf9canon_hdrINS_4ShdrEEEvPT_INS_5Elf64ELNS_10byte_orderE0EEPKvNS_8elfclassENS_7elfdataE
   187: 00000000000163c0     0 FUNC    GLOBAL DEFAULT  UND _ZNSt7__cxx1112basic_stringIcSt11char_traitsIcESaIcEE9_M_appendEPKcm@GLIBCXX_3.4.21 (5)
   188: 00000000000165a0     0 FUNC    GLOBAL DEFAULT  UND _ZNSt13runtime_errorC2ERKNSt7__cxx1112basic_stringIcSt11char_traitsIcESaIcEEE@GLIBCXX_3.4.21 (5)
   189: 0000000000016640     0 FUNC    GLOBAL DEFAULT  UND _ZSt24__throw_out_of_range_fmtPKcz@GLIBCXX_3.4.20 (11)
   190: 0000000000019d66   144 FUNC    WEAK   DEFAULT   12 _Z6to_hexImENSt7__cxx1112basic_stringIcSt11char_traitsIcESaIcEEET_
   191: 00000000000164e0     0 FUNC    GLOBAL DEFAULT  UND munmap@GLIBC_2.27 (3)
   192: 000000000002cc80   320 FUNC    WEAK   DEFAULT   12 _ZNSt12system_errorC1ESt10error_codePKc
   193: 00000000000195cc    26 FUNC    WEAK   DEFAULT   12 _ZN5dwarf12format_errorD1Ev

Symbol table '.symtab' contains 830 entries:
   Num:    Value          Size Type    Bind   Vis      Ndx Name
     0: 0000000000000000     0 NOTYPE  LOCAL  DEFAULT  UND 
     1: 0000000000010270     0 SECTION LOCAL  DEFAULT    1 .interp
     2: 0000000000010294     0 SECTION LOCAL  DEFAULT    2 .note.ABI-tag
     3: 00000000000102b8     0 SECTION LOCAL  DEFAULT    3 .hash
     4: 00000000000107d8     0 SECTION LOCAL  DEFAULT    4 .gnu.hash
     5: 0000000000010d40     0 SECTION LOCAL  DEFAULT    5 .dynsym
     6: 0000000000011f70     0 SECTION LOCAL  DEFAULT    6 .dynstr
     7: 0000000000014e2a     0 SECTION LOCAL  DEFAULT    7 .gnu.version
     8: 0000000000014fb0     0 SECTION LOCAL  DEFAULT    8 .gnu.version_r
     9: 0000000000015090     0 SECTION LOCAL  DEFAULT    9 .rela.dyn
    10: 0000000000015bd0     0 SECTION LOCAL  DEFAULT   10 .rela.plt
    11: 0000000000016310     0 SECTION LOCAL  DEFAULT   11 .plt
    12: 0000000000016800     0 SECTION LOCAL  DEFAULT   12 .text
    13: 000000000002ce20     0 SECTION LOCAL  DEFAULT   13 .rodata
    14: 0000000000031044     0 SECTION LOCAL  DEFAULT   14 .eh_frame_hdr
    15: 0000000000031b28     0 SECTION LOCAL  DEFAULT   15 .eh_frame
    16: 0000000000035250     0 SECTION LOCAL  DEFAULT   16 .gcc_except_table
    17: 00000000000386d0     0 SECTION LOCAL  DEFAULT   17 .preinit_array
    18: 00000000000386d8     0 SECTION LOCAL  DEFAULT   18 .init_array
    19: 00000000000386e8     0 SECTION LOCAL  DEFAULT   19 .fini_array
    20: 00000000000386f0     0 SECTION LOCAL  DEFAULT   20 .data.rel.ro
    21: 0000000000038df0     0 SECTION LOCAL  DEFAULT   21 .dynamic
    22: 0000000000039000     0 SECTION LOCAL  DEFAULT   22 .data
    23: 0000000000039018     0 SECTION LOCAL  DEFAULT   23 .got
    24: 0000000000039600     0 SECTION LOCAL  DEFAULT   24 .sdata
    25: 0000000000039618     0 SECTION LOCAL  DEFAULT   25 .bss
    26: 0000000000000000     0 SECTION LOCAL  DEFAULT   26 .comment
    27: 0000000000000000     0 SECTION LOCAL  DEFAULT   27 .riscv.attributes
    28: 0000000000000000     0 SECTION LOCAL  DEFAULT   28 .debug_aranges
    29: 0000000000000000     0 SECTION LOCAL  DEFAULT   29 .debug_info
    30: 0000000000000000     0 SECTION LOCAL  DEFAULT   30 .debug_abbrev
    31: 0000000000000000     0 SECTION LOCAL  DEFAULT   31 .debug_line
    32: 0000000000000000     0 SECTION LOCAL  DEFAULT   32 .debug_frame
    33: 0000000000000000     0 SECTION LOCAL  DEFAULT   33 .debug_str
    34: 0000000000000000     0 SECTION LOCAL  DEFAULT   34 .debug_loc
    35: 0000000000000000     0 SECTION LOCAL  DEFAULT   35 .debug_ranges
    36: 0000000000000000     0 SECTION LOCAL  DEFAULT   36 .debug_line_str
    37: 0000000000000000     0 SECTION LOCAL  DEFAULT   37 .debug_loclists
    38: 0000000000000000     0 SECTION LOCAL  DEFAULT   38 .debug_macro
    39: 0000000000000000     0 FILE    LOCAL  DEFAULT  ABS abi-note.c
    40: 0000000000010294    32 OBJECT  LOCAL  DEFAULT    2 __abi_tag
    41: 0000000000000000     0 FILE    LOCAL  DEFAULT  ABS start.o
    42: 0000000000016800     0 NOTYPE  LOCAL  DEFAULT   12 $x
    43: 000000000001682e     0 NOTYPE  LOCAL  DEFAULT   12 load_gp
    44: 0000000000000000     0 FILE    LOCAL  DEFAULT  ABS init.c
    45: 0000000000000000     0 FILE    LOCAL  DEFAULT  ABS static-reloc.c
    46: 0000000000000000     0 FILE    LOCAL  DEFAULT  ABS crtstuff.c
    47: 000000000001683a     0 FUNC    LOCAL  DEFAULT   12 deregister_tm_clones
    48: 000000000001683a     0 NOTYPE  LOCAL  DEFAULT   12 $x
    49: 0000000000016854     0 FUNC    LOCAL  DEFAULT   12 register_tm_clones
    50: 0000000000016878     0 FUNC    LOCAL  DEFAULT   12 __do_global_dtors_aux
    51: 0000000000039621     1 OBJECT  LOCAL  DEFAULT   25 completed.0
    52: 00000000000386e8     0 OBJECT  LOCAL  DEFAULT   19 __do_global_dtors_aux_fini_array_entry
    53: 0000000000016896     0 FUNC    LOCAL  DEFAULT   12 frame_dummy
    54: 00000000000386d8     0 OBJECT  LOCAL  DEFAULT   18 __frame_dummy_init_array_entry
    55: 0000000000000000     0 FILE    LOCAL  DEFAULT  ABS dump-lines.cc
    56: 0000000000016ad6     0 NOTYPE  LOCAL  DEFAULT   12 $x
    57: 0000000000016ad8     0 NOTYPE  LOCAL  DEFAULT   12 $x
    58: 0000000000016aec     0 NOTYPE  LOCAL  DEFAULT   12 $x
    59: 0000000000016b40     0 NOTYPE  LOCAL  DEFAULT   12 $x
    60: 0000000000016b4e     0 NOTYPE  LOCAL  DEFAULT   12 $x
    61: 0000000000016b5c     0 NOTYPE  LOCAL  DEFAULT   12 $x
    62: 0000000000016b74     0 NOTYPE  LOCAL  DEFAULT   12 $x
    63: 0000000000016b98     0 NOTYPE  LOCAL  DEFAULT   12 $x
    64: 0000000000016c0a     0 NOTYPE  LOCAL  DEFAULT   12 $x
    65: 0000000000016c88     0 NOTYPE  LOCAL  DEFAULT   12 $x
    66: 0000000000016cee     0 NOTYPE  LOCAL  DEFAULT   12 $x
    67: 0000000000016898     0 NOTYPE  LOCAL  DEFAULT   12 $x
    68: 0000000000000000     0 FILE    LOCAL  DEFAULT  ABS dwarf.cc
    69: 00000000000195c4     0 NOTYPE  LOCAL  DEFAULT   12 $x
    70: 00000000000195c6     0 NOTYPE  LOCAL  DEFAULT   12 $x
    71: 00000000000195c8     0 NOTYPE  LOCAL  DEFAULT   12 $x
    72: 00000000000195ca     0 NOTYPE  LOCAL  DEFAULT   12 $x
    73: 00000000000195cc     0 NOTYPE  LOCAL  DEFAULT   12 $x
    74: 00000000000195e6     0 NOTYPE  LOCAL  DEFAULT   12 $x
    75: 000000000001960c     0 NOTYPE  LOCAL  DEFAULT   12 $x
    76: 000000000001961a     0 NOTYPE  LOCAL  DEFAULT   12 $x
    77: 0000000000019628     0 NOTYPE  LOCAL  DEFAULT   12 $x
    78: 0000000000019636     0 NOTYPE  LOCAL  DEFAULT   12 $x
    79: 000000000001966e     0 NOTYPE  LOCAL  DEFAULT   12 $x
    80: 000000000001967c     0 NOTYPE  LOCAL  DEFAULT   12 $x
    81: 000000000001968a     0 NOTYPE  LOCAL  DEFAULT   12 $x
    82: 0000000000019698     0 NOTYPE  LOCAL  DEFAULT   12 $x
    83: 00000000000196ec     0 NOTYPE  LOCAL  DEFAULT   12 $x
    84: 0000000000019740     0 NOTYPE  LOCAL  DEFAULT   12 $x
    85: 0000000000019794     0 NOTYPE  LOCAL  DEFAULT   12 $x
    86: 0000000000016e40     0 NOTYPE  LOCAL  DEFAULT   12 $x
    87: 0000000000019914     0 NOTYPE  LOCAL  DEFAULT   12 $x
    88: 000000000001992e     0 NOTYPE  LOCAL  DEFAULT   12 $x
    89: 0000000000019954     0 NOTYPE  LOCAL  DEFAULT   12 $x
    90: 0000000000019980     0 NOTYPE  LOCAL  DEFAULT   12 $x
    91: 0000000000019a5e     0 NOTYPE  LOCAL  DEFAULT   12 $x
    92: 0000000000019b24     0 NOTYPE  LOCAL  DEFAULT   12 $x
    93: 0000000000019d08     0 NOTYPE  LOCAL  DEFAULT   12 $x
    94: 0000000000019d66     0 NOTYPE  LOCAL  DEFAULT   12 $x
    95: 0000000000019df6     0 NOTYPE  LOCAL  DEFAULT   12 $x
    96: 0000000000019e40     0 NOTYPE  LOCAL  DEFAULT   12 $x
    97: 0000000000019fce     0 NOTYPE  LOCAL  DEFAULT   12 $x
    98: 000000000001a120     0 NOTYPE  LOCAL  DEFAULT   12 $x
    99: 000000000001a14c     0 NOTYPE  LOCAL  DEFAULT   12 $x
   100: 000000000001a184     0 NOTYPE  LOCAL  DEFAULT   12 $x
   101: 000000000001a1e8     0 NOTYPE  LOCAL  DEFAULT   12 $x
   102: 000000000001a2c6     0 NOTYPE  LOCAL  DEFAULT   12 $x
   103: 000000000001a352     0 NOTYPE  LOCAL  DEFAULT   12 $x
   104: 000000000001a524     0 NOTYPE  LOCAL  DEFAULT   12 $x
   105: 000000000001a55c     0 NOTYPE  LOCAL  DEFAULT   12 $x
   106: 000000000001a61a     0 NOTYPE  LOCAL  DEFAULT   12 $x
   107: 000000000001a6de     0 NOTYPE  LOCAL  DEFAULT   12 $x
   108: 000000000001a774     0 NOTYPE  LOCAL  DEFAULT   12 $x
   109: 000000000001a80a     0 NOTYPE  LOCAL  DEFAULT   12 $x
   110: 000000000001a8c8     0 NOTYPE  LOCAL  DEFAULT   12 $x
   111: 000000000001a98c     0 NOTYPE  LOCAL  DEFAULT   12 $x
   112: 000000000002d498     1 OBJECT  LOCAL  DEFAULT   13 _ZStL19piecewise_construct
   113: 0000000000039628    24 OBJECT  LOCAL  DEFAULT   25 _ZZNK5dwarf5dwarf17compilation_unitsEvE5empty
   114: 0000000000039640     8 OBJECT  LOCAL  DEFAULT   25 _ZGVZNK5dwarf5dwarf17compilation_unitsEvE5empty
   115: 0000000000000000     0 FILE    LOCAL  DEFAULT  ABS cursor.cc
   116: 000000000001aa24     0 NOTYPE  LOCAL  DEFAULT   12 $x
   117: 000000000001abd2   758 FUNC    LOCAL  DEFAULT   12 _ZN5dwarf6cursor9skip_formENS_7DW_FORME.localalias
   118: 0000000000000000     0 FILE    LOCAL  DEFAULT  ABS die.cc
   119: 000000000001b16e     0 NOTYPE  LOCAL  DEFAULT   12 $x
   120: 000000000001b8ee   408 FUNC    LOCAL  DEFAULT   12 _ZN5dwarf3die8iteratorppEv.localalias
   121: 000000000001bb4e     0 NOTYPE  LOCAL  DEFAULT   12 $x
   122: 0000000000000000     0 FILE    LOCAL  DEFAULT  ABS value.cc
   123: 000000000001efb6     0 NOTYPE  LOCAL  DEFAULT   12 $x
   124: 000000000001efd0     0 NOTYPE  LOCAL  DEFAULT   12 $x
   125: 000000000001eff6     0 NOTYPE  LOCAL  DEFAULT   12 $x
   126: 000000000001bc68     0 NOTYPE  LOCAL  DEFAULT   12 $x
   127: 000000000001f2e8     0 NOTYPE  LOCAL  DEFAULT   12 $x
   128: 000000000001f348     0 NOTYPE  LOCAL  DEFAULT   12 $x
   129: 0000000000000000     0 FILE    LOCAL  DEFAULT  ABS abbrev.cc
   130: 000000000001f3c8     0 NOTYPE  LOCAL  DEFAULT   12 $x
   131: 000000000001f802     0 NOTYPE  LOCAL  DEFAULT   12 $x
   132: 000000000001f8c2     0 NOTYPE  LOCAL  DEFAULT   12 $x
   133: 0000000000000000     0 FILE    LOCAL  DEFAULT  ABS expr.cc
   134: 0000000000021654     0 NOTYPE  LOCAL  DEFAULT   12 $x
   135: 0000000000021656     0 NOTYPE  LOCAL  DEFAULT   12 $x
   136: 0000000000021670     0 NOTYPE  LOCAL  DEFAULT   12 $x
   137: 0000000000021696     0 NOTYPE  LOCAL  DEFAULT   12 $x
   138: 00000000000216a4     0 NOTYPE  LOCAL  DEFAULT   12 $x
   139: 00000000000216f0     0 NOTYPE  LOCAL  DEFAULT   12 $x
   140: 000000000002173c     0 NOTYPE  LOCAL  DEFAULT   12 $x
   141: 0000000000021788     0 NOTYPE  LOCAL  DEFAULT   12 $x
   142: 000000000001fa2a     0 NOTYPE  LOCAL  DEFAULT   12 $x
   143: 0000000000021632    34 FUNC    LOCAL  DEFAULT   12 _GLOBAL__sub_I_expr.cc
   144: 0000000000000000     0 FILE    LOCAL  DEFAULT  ABS rangelist.cc
   145: 00000000000217d4     0 NOTYPE  LOCAL  DEFAULT   12 $x
   146: 0000000000021fb2     0 NOTYPE  LOCAL  DEFAULT   12 $x
   147: 0000000000022096     0 NOTYPE  LOCAL  DEFAULT   12 $x
   148: 000000000002217a     0 NOTYPE  LOCAL  DEFAULT   12 $x
   149: 0000000000000000     0 FILE    LOCAL  DEFAULT  ABS line.cc
   150: 0000000000023f84     0 NOTYPE  LOCAL  DEFAULT   12 $x
   151: 0000000000023f86     0 NOTYPE  LOCAL  DEFAULT   12 $x
   152: 0000000000023f94     0 NOTYPE  LOCAL  DEFAULT   12 $x
   153: 0000000000023fa2     0 NOTYPE  LOCAL  DEFAULT   12 $x
   154: 0000000000023ff6     0 NOTYPE  LOCAL  DEFAULT   12 $x
   155: 00000000000240d4     0 NOTYPE  LOCAL  DEFAULT   12 $x
   156: 00000000000221a6     0 NOTYPE  LOCAL  DEFAULT   12 $x
   157: 000000000002420e     0 NOTYPE  LOCAL  DEFAULT   12 $x
   158: 0000000000024280     0 NOTYPE  LOCAL  DEFAULT   12 $x
   159: 0000000000024322     0 NOTYPE  LOCAL  DEFAULT   12 $x
   160: 000000000002436c     0 NOTYPE  LOCAL  DEFAULT   12 $x
   161: 000000000002444e     0 NOTYPE  LOCAL  DEFAULT   12 $x
   162: 000000000002454e     0 NOTYPE  LOCAL  DEFAULT   12 $x
   163: 00000000000245ac     0 NOTYPE  LOCAL  DEFAULT   12 $x
   164: 000000000002461a     0 NOTYPE  LOCAL  DEFAULT   12 $x
   165: 00000000000247ba     0 NOTYPE  LOCAL  DEFAULT   12 $x
   166: 0000000000024948     0 NOTYPE  LOCAL  DEFAULT   12 $x
   167: 00000000000249c4     0 NOTYPE  LOCAL  DEFAULT   12 $x
   168: 00000000000249f6     0 NOTYPE  LOCAL  DEFAULT   12 $x
   169: 0000000000024c30     0 NOTYPE  LOCAL  DEFAULT   12 $x
   170: 0000000000024e88     0 NOTYPE  LOCAL  DEFAULT   12 $x
   171: 0000000000024f2a     0 NOTYPE  LOCAL  DEFAULT   12 $x
   172: 000000000002518c     0 NOTYPE  LOCAL  DEFAULT   12 $x
   173: 000000000002e490    52 OBJECT  LOCAL  DEFAULT   13 _ZN5dwarfL14opcode_lengthsE
   174: 0000000000000000     0 FILE    LOCAL  DEFAULT  ABS attrs.cc
   175: 0000000000025244     0 NOTYPE  LOCAL  DEFAULT   12 $x
   176: 0000000000025b14   586 FUNC    LOCAL  DEFAULT   12 _ZN5dwarfL12_at_udynamicENS_5DW_ATERKNS_3dieEPNS_12expr_contextEi
   177: 0000000000000000     0 FILE    LOCAL  DEFAULT  ABS elf.cc
   178: 0000000000025fd8     0 NOTYPE  LOCAL  DEFAULT   12 $x
   179: 00000000000386f0   192 OBJECT  LOCAL  DEFAULT   20 _ZN5dwarfL8sectionsE
   180: 0000000000000000     0 FILE    LOCAL  DEFAULT  ABS to_string.cc
   181: 000000000002a256     0 NOTYPE  LOCAL  DEFAULT   12 $x
   182: 0000000000026046     0 NOTYPE  LOCAL  DEFAULT   12 $x
   183: 0000000000000000     0 FILE    LOCAL  DEFAULT  ABS elf.cc
   184: 000000000002b896     0 NOTYPE  LOCAL  DEFAULT   12 $x
   185: 000000000002b898     0 NOTYPE  LOCAL  DEFAULT   12 $x
   186: 000000000002b89a     0 NOTYPE  LOCAL  DEFAULT   12 $x
   187: 000000000002b89c     0 NOTYPE  LOCAL  DEFAULT   12 $x
   188: 000000000002b89e     0 NOTYPE  LOCAL  DEFAULT   12 $x
   189: 000000000002b8a0     0 NOTYPE  LOCAL  DEFAULT   12 $x
   190: 000000000002b8ba     0 NOTYPE  LOCAL  DEFAULT   12 $x
   191: 000000000002b8e0     0 NOTYPE  LOCAL  DEFAULT   12 $x
   192: 000000000002b8ee     0 NOTYPE  LOCAL  DEFAULT   12 $x
   193: 000000000002b8fc     0 NOTYPE  LOCAL  DEFAULT   12 $x
   194: 000000000002b90a     0 NOTYPE  LOCAL  DEFAULT   12 $x
   195: 000000000002b918     0 NOTYPE  LOCAL  DEFAULT   12 $x
   196: 000000000002b926     0 NOTYPE  LOCAL  DEFAULT   12 $x
   197: 000000000002b934     0 NOTYPE  LOCAL  DEFAULT   12 $x
   198: 000000000002b942     0 NOTYPE  LOCAL  DEFAULT   12 $x
   199: 000000000002b950     0 NOTYPE  LOCAL  DEFAULT   12 $x
   200: 000000000002b95e     0 NOTYPE  LOCAL  DEFAULT   12 $x
   201: 000000000002b96c     0 NOTYPE  LOCAL  DEFAULT   12 $x
   202: 000000000002b9c0     0 NOTYPE  LOCAL  DEFAULT   12 $x
   203: 000000000002b9da     0 NOTYPE  LOCAL  DEFAULT   12 $x
   204: 000000000002ba00     0 NOTYPE  LOCAL  DEFAULT   12 $x
   205: 000000000002ba54     0 NOTYPE  LOCAL  DEFAULT   12 $x
   206: 000000000002baa8     0 NOTYPE  LOCAL  DEFAULT   12 $x
   207: 000000000002bafc     0 NOTYPE  LOCAL  DEFAULT   12 $x
   208: 000000000002bb50     0 NOTYPE  LOCAL  DEFAULT   12 $x
   209: 000000000002bbc8     0 NOTYPE  LOCAL  DEFAULT   12 $x
   210: 000000000002bc40     0 NOTYPE  LOCAL  DEFAULT   12 $x
   211: 000000000002bcb8     0 NOTYPE  LOCAL  DEFAULT   12 $x
   212: 000000000002bda0     0 NOTYPE  LOCAL  DEFAULT   12 $x
   213: 000000000002a2e8     0 NOTYPE  LOCAL  DEFAULT   12 $x
   214: 000000000002c016     0 NOTYPE  LOCAL  DEFAULT   12 $x
   215: 000000000002c482     0 NOTYPE  LOCAL  DEFAULT   12 $x
   216: 000000000002c5a8     0 NOTYPE  LOCAL  DEFAULT   12 $x
   217: 000000000002c706     0 NOTYPE  LOCAL  DEFAULT   12 $x
   218: 000000000002c810     0 NOTYPE  LOCAL  DEFAULT   12 $x
   219: 000000000002c912     0 NOTYPE  LOCAL  DEFAULT   12 $x
   220: 0000000000000000     0 FILE    LOCAL  DEFAULT  ABS mmap_loader.cc
   221: 000000000002cb64     0 NOTYPE  LOCAL  DEFAULT   12 $x
   222: 000000000002cb66     0 NOTYPE  LOCAL  DEFAULT   12 $x
   223: 000000000002cb7a     0 NOTYPE  LOCAL  DEFAULT   12 $x
   224: 000000000002cbce     0 NOTYPE  LOCAL  DEFAULT   12 $x
   225: 000000000002cbdc     0 NOTYPE  LOCAL  DEFAULT   12 $x
   226: 000000000002cbea     0 NOTYPE  LOCAL  DEFAULT   12 $x
   227: 000000000002cc38     0 NOTYPE  LOCAL  DEFAULT   12 $x
   228: 000000000002cc56     0 NOTYPE  LOCAL  DEFAULT   12 $x
   229: 000000000002cc80     0 NOTYPE  LOCAL  DEFAULT   12 $x
   230: 000000000002ca14     0 NOTYPE  LOCAL  DEFAULT   12 $x
   231: 0000000000000000     0 FILE    LOCAL  DEFAULT  ABS elf-init.c
   232: 000000000002cdc0     0 NOTYPE  LOCAL  DEFAULT   12 $x
   233: 0000000000000000     0 FILE    LOCAL  DEFAULT  ABS crtstuff.c
   234: 000000000003524c     0 OBJECT  LOCAL  DEFAULT   15 __FRAME_END__
   235: 0000000000000000     0 FILE    LOCAL  DEFAULT  ABS 
   236: 0000000000031044     0 NOTYPE  LOCAL  DEFAULT   14 __GNU_EH_FRAME_HDR
   237: 0000000000016310     0 OBJECT  LOCAL  DEFAULT   11 _PROCEDURE_LINKAGE_TABLE_
   238: 0000000000038df0     0 OBJECT  LOCAL  DEFAULT   21 _DYNAMIC
   239: 00000000000386e8     0 NOTYPE  LOCAL  DEFAULT   18 __init_array_end
   240: 00000000000386d8     0 NOTYPE  LOCAL  DEFAULT   18 __init_array_start
   241: 0000000000039290     0 OBJECT  LOCAL  DEFAULT   23 _GLOBAL_OFFSET_TABLE_
   242: 0000000000016e40   120 FUNC    GLOBAL DEFAULT   12 _ZN5dwarf5dwarfD1Ev
   243: 000000000001730c  1546 FUNC    GLOBAL DEFAULT   12 _ZN5dwarf16compilation_unitC1ERKNS_5dwarfEm
   244: 000000000002d120    56 OBJECT  WEAK   DEFAULT   13 _ZTVSt23_Sp_counted_ptr_inplaceIN5dwarf3elf10elf_loaderIN3elf3elfEEESaIvELN9__gnu_cxx12_Lock_policyE1EE
   245: 0000000000016330     0 FUNC    GLOBAL DEFAULT  UND _Znam@GLIBCXX_3.4
   246: 0000000000025984    34 FUNC    GLOBAL DEFAULT   12 _ZN5dwarf11at_explicitERKNS_3dieE
   247: 0000000000025f72   102 FUNC    GLOBAL DEFAULT   12 _ZN5dwarf12die_pc_rangeERKNS_3dieE
   248: 0000000000025244    40 FUNC    GLOBAL DEFAULT   12 _ZN5dwarf10at_siblingERKNS_3dieE
   249: 000000000001b660     8 FUNC    GLOBAL DEFAULT   12 _ZNKSt4hashIN5dwarf3dieEEclERKS1_
   250: 000000000001c646   928 FUNC    GLOBAL DEFAULT   12 _ZNK5dwarf5value12as_sconstantEv
   251: 000000000001a80a   190 FUNC    WEAK   DEFAULT   12 _ZNSt10_HashtableImSt4pairIKmN5dwarf12abbrev_entryEESaIS4_ENSt8__detail10_Select1stESt8equal_toImESt4hashImENS6_18_Mod_range_hashingENS6_20_Default_ranged_hashENS6_20_Prime_rehash_policyENS6_17_Hashtable_traitsILb0ELb0ELb1EEEE13_M_rehash_auxEmSt17integral_constantIbLb1EE
   252: 0000000000025962    34 FUNC    GLOBAL DEFAULT   12 _ZN5dwarf17at_threads_scaledERKNS_3dieE
   253: 000000000002cbdc    14 FUNC    WEAK   DEFAULT   12 _ZNSt23_Sp_counted_ptr_inplaceIN3elf11mmap_loaderESaIvELN9__gnu_cxx12_Lock_policyE1EE10_M_destroyEv
   254: 000000000002b8a0    26 FUNC    WEAK   DEFAULT   12 _ZN3elf12format_errorD2Ev
   255: 0000000000025e48   298 FUNC    GLOBAL DEFAULT   12 _ZN5dwarf10at_high_pcERKNS_3dieE
   256: 000000000002cfb0    16 OBJECT  WEAK   DEFAULT   13 _ZTIN5dwarf4unitE
   257: 000000000002b95e    14 FUNC    WEAK   DEFAULT   12 _ZNSt23_Sp_counted_ptr_inplaceIN3elf6symtab4implESaIvELN9__gnu_cxx12_Lock_policyE1EE10_M_destroyEv
   258: 0000000000016eb8    82 FUNC    GLOBAL DEFAULT   12 _ZNK5dwarf5dwarf17compilation_unitsEv
   259: 000000000001966e    14 FUNC    WEAK   DEFAULT   12 _ZNSt23_Sp_counted_ptr_inplaceIN5dwarf5dwarf4implESaIvELN9__gnu_cxx12_Lock_policyE1EE10_M_destroyEv
   260: 000000000002d2a0    80 OBJECT  WEAK   DEFAULT   13 _ZTSSt23_Sp_counted_ptr_inplaceIN5dwarf7sectionESaIvELN9__gnu_cxx12_Lock_policyE1EE
   261: 000000000002e1d0    23 OBJECT  WEAK   DEFAULT   13 _ZTSN5dwarf12expr_contextE
   262: 000000000002b8e0    14 FUNC    WEAK   DEFAULT   12 _ZNSt23_Sp_counted_ptr_inplaceIN3elf3elf4implESaIvELN9__gnu_cxx12_Lock_policyE1EED0Ev
   263: 00000000000254f2    34 FUNC    GLOBAL DEFAULT   12 _ZN5dwarf13at_artificialERKNS_3dieE
   264: 0000000000016340     0 FUNC    GLOBAL DEFAULT  UND _ZSt29_Rb_tree_insert_and_rebalancebPSt18_Rb_tree_node_baseS0_RS_@GLIBCXX_3.4
   265: 000000000002b918    14 FUNC    WEAK   DEFAULT   12 _ZNSt23_Sp_counted_ptr_inplaceIN3elf6symtab4implESaIvELN9__gnu_cxx12_Lock_policyE1EED0Ev
   266: 000000000002a4a6     6 FUNC    GLOBAL DEFAULT   12 _ZNK3elf7segment9file_sizeEv
   267: 000000000002a2ee    62 FUNC    GLOBAL DEFAULT   12 _ZNK3elf3elf10get_loaderEv
   268: 000000000002cc80   320 FUNC    WEAK   DEFAULT   12 _ZNSt12system_errorC2ESt10error_codePKc
   269: 000000000002b9c0    26 FUNC    WEAK   DEFAULT   12 _ZN3elf21section_type_mismatchD1Ev
   270: 00000000000388b8    24 OBJECT  WEAK   DEFAULT   20 _ZTIN5dwarf12format_errorE
   271: 0000000000026d56   424 FUNC    GLOBAL DEFAULT   12 _ZN5dwarf9to_stringB5cxx11ENS_11expr_result4typeE
   272: 0000000000016350     0 FUNC    GLOBAL DEFAULT  UND _ZN9__gnu_cxx12__atomic_addEPVii@GLIBCXX_3.4
   273: 000000000002d0d8    32 OBJECT  WEAK   DEFAULT   13 _ZTVN5dwarf16compilation_unitE
   274: 00000000000249c4    50 FUNC    WEAK   DEFAULT   12 _ZNSt12_Destroy_auxILb0EE9__destroyIPN5dwarf10line_table4fileEEEvT_S6_
   275: 000000000002c912   258 FUNC    WEAK   DEFAULT   12 _ZNSt6vectorIN3elf7sectionESaIS1_EE17_M_realloc_insertIJS1_EEEvN9__gnu_cxx17__normal_iteratorIPS1_S3_EEDpOT_
   276: 0000000000016360     0 FUNC    GLOBAL DEFAULT  UND strcmp@GLIBC_2.27
   277: 0000000000026732   274 FUNC    GLOBAL DEFAULT   12 _ZN5dwarf9to_stringB5cxx11ENS_6DW_VISE
   278: 00000000000216f0    76 FUNC    WEAK   DEFAULT   12 _ZN5dwarf12expr_context11xderef_sizeEmmj
   279: 00000000000195cc    26 FUNC    WEAK   DEFAULT   12 _ZN5dwarf12format_errorD2Ev
   280: 0000000000016370     0 FUNC    GLOBAL DEFAULT  UND __bswapsi2@GCC_4.3.0
   281: 00000000000256ee    42 FUNC    GLOBAL DEFAULT   12 _ZN5dwarf9at_friendERKNS_3dieE
   282: 0000000000021654     2 FUNC    WEAK   DEFAULT   12 _ZN5dwarf12expr_contextD1Ev
   283: 0000000000016b4e    14 FUNC    WEAK   DEFAULT   12 _ZNSt23_Sp_counted_ptr_inplaceIN5dwarf3elf10elf_loaderIN3elf3elfEEESaIvELN9__gnu_cxx12_Lock_policyE1EE10_M_destroyEv
   284: 00000000000257e4    34 FUNC    GLOBAL DEFAULT   12 _ZN5dwarf21at_variable_parameterERKNS_3dieE
   285: 0000000000016380     0 FUNC    GLOBAL DEFAULT  UND _ZN9__gnu_cxx18__exchange_and_addEPVii@GLIBCXX_3.4
   286: 00000000000279d6   892 FUNC    GLOBAL DEFAULT   12 _ZN5dwarf9to_stringB5cxx11ENS_7DW_LANGE
   287: 0000000000038b70    24 OBJECT  WEAK   DEFAULT   20 _ZTISt23_Sp_counted_ptr_inplaceIN3elf3elf4implESaIvELN9__gnu_cxx12_Lock_policyE1EE
   288: 0000000000019df6    74 FUNC    WEAK   DEFAULT   12 _ZNSt10_HashtableImSt4pairIKmN5dwarf12abbrev_entryEESaIS4_ENSt8__detail10_Select1stESt8equal_toImESt4hashImENS6_18_Mod_range_hashingENS6_20_Default_ranged_hashENS6_20_Prime_rehash_policyENS6_17_Hashtable_traitsILb0ELb0ELb1EEEE5clearEv
   289: 0000000000039618     0 NOTYPE  GLOBAL DEFAULT   24 _edata
   290: 0000000000016f0a   132 FUNC    GLOBAL DEFAULT   12 _ZN5dwarf4unitD1Ev
   291: 0000000000016390     0 FUNC    GLOBAL DEFAULT  UND _ZNSt7__cxx1112basic_stringIcSt11char_traitsIcESaIcEE6insertEmPKc@GLIBCXX_3.4.21
   292: 000000000002cf90    16 OBJECT  WEAK   DEFAULT   13 _ZTIN5dwarf6loaderE
   293: 0000000000025aa6    34 FUNC    GLOBAL DEFAULT   12 _ZN5dwarf13at_const_exprERKNS_3dieE
   294: 000000000001f640   450 FUNC    GLOBAL DEFAULT   12 _ZN5dwarf12abbrev_entry4readEPNS_6cursorE
   295: 000000000001dba8  2128 FUNC    GLOBAL DEFAULT   12 _ZNK5dwarf5value12as_referenceEv
   296: 000000000002cb66    20 FUNC    WEAK   DEFAULT   12 _ZNSt23_Sp_counted_ptr_inplaceIN3elf11mmap_loaderESaIvELN9__gnu_cxx12_Lock_policyE1EE10_M_disposeEv
   297: 0000000000038b58    24 OBJECT  WEAK   DEFAULT   20 _ZTIN3elf21section_type_mismatchE
   298: 0000000000039618     8 OBJECT  GLOBAL DEFAULT   25 stderr@GLIBC_2.27
   299: 0000000000019342   308 FUNC    GLOBAL DEFAULT   12 _ZNK5dwarf4unit10get_abbrevEm
   300: 000000000001a352   466 FUNC    WEAK   DEFAULT   12 _ZNSt6vectorIN5dwarf16compilation_unitESaIS1_EE17_M_realloc_insertIJRNS0_5dwarfEmEEEvN9__gnu_cxx17__normal_iteratorIPS1_S3_EEDpOT_
   301: 00000000000163a0     0 FUNC    GLOBAL DEFAULT  UND _ZNKSt7__cxx1112basic_stringIcSt11char_traitsIcESaIcEE7compareEPKc@GLIBCXX_3.4.21
   302: 0000000000000000     0 OBJECT  GLOBAL DEFAULT  UND _ZTISt12system_error@GLIBCXX_3.4.11
   303: 0000000000023c38    44 FUNC    GLOBAL DEFAULT   12 _ZN5dwarf10line_table8iteratorC1EPKS0_m
   304: 0000000000026844   314 FUNC    GLOBAL DEFAULT   12 _ZN5dwarf9to_stringB5cxx11ENS_6DW_INLE
   305: 000000000002b0a2   142 FUNC    GLOBAL DEFAULT   12 _ZN3elf3symC2ENS_3elfEPKvNS_6strtabE
   306: 00000000000163b0     0 FUNC    GLOBAL DEFAULT  UND _ZNSt7__cxx1112basic_stringIcSt11char_traitsIcESaIcEE6resizeEmc@GLIBCXX_3.4.21
   307: 000000000002d020    24 OBJECT  WEAK   DEFAULT   13 _ZTIN5dwarf3elf10elf_loaderIN3elf3elfEEE
   308: 0000000000019d66   144 FUNC    WEAK   DEFAULT   12 _Z6to_hexImENSt7__cxx1112basic_stringIcSt11char_traitsIcESaIcEEET_
   309: 000000000001b632    24 FUNC    GLOBAL DEFAULT   12 _ZNK5dwarf3dieeqERKS0_
   310: 000000000002bafc    84 FUNC    WEAK   DEFAULT   12 _ZNSt23_Sp_counted_ptr_inplaceIN3elf7section4implESaIvELN9__gnu_cxx12_Lock_policyE1EE14_M_get_deleterERKSt9type_info
   311: 00000000000163c0     0 FUNC    GLOBAL DEFAULT  UND _ZNSt7__cxx1112basic_stringIcSt11char_traitsIcESaIcEE9_M_appendEPKcm@GLIBCXX_3.4.21
   312: 000000000002b38e  1288 FUNC    GLOBAL DEFAULT   12 _ZN3elf3elfC2ERKSt10shared_ptrINS_6loaderEE
   313: 00000000000252d6    34 FUNC    GLOBAL DEFAULT   12 _ZN5dwarf11at_languageERKNS_3dieE
   314: 000000000002e4c8    89 OBJECT  WEAK   DEFAULT   13 _ZTSSt23_Sp_counted_ptr_inplaceIN5dwarf10line_table4implESaIvELN9__gnu_cxx12_Lock_policyE1EE
   315: 000000000001968a    14 FUNC    WEAK   DEFAULT   12 _ZNSt23_Sp_counted_ptr_inplaceIN5dwarf4unit4implESaIvELN9__gnu_cxx12_Lock_policyE1EE10_M_destroyEv
   316: 0000000000019954    44 FUNC    WEAK   DEFAULT   12 _ZN5dwarf12small_vectorImLj6EED2Ev
   317: 0000000000021b80    36 FUNC    GLOBAL DEFAULT   12 _ZNK5dwarf9rangelist5beginEv
   318: 0000000000039000     0 NOTYPE  WEAK   DEFAULT   22 data_start
   319: 00000000000195c4     2 FUNC    WEAK   DEFAULT   12 _ZNSt23_Sp_counted_ptr_inplaceIN5dwarf4unit4implESaIvELN9__gnu_cxx12_Lock_policyE1EED1Ev
   320: 00000000000163d0     0 FUNC    GLOBAL DEFAULT  UND __libc_start_main@GLIBC_2.27
   321: 000000000001b8ee   408 FUNC    GLOBAL DEFAULT   12 _ZN5dwarf3die8iteratorppEv
   322: 0000000000025a84    34 FUNC    GLOBAL DEFAULT   12 _ZN5dwarf18at_main_subprogramERKNS_3dieE
   323: 0000000000038a78    16 OBJECT  WEAK   DEFAULT   20 _ZTIN5dwarf12expr_contextE
   324: 000000000002612a   228 FUNC    GLOBAL DEFAULT   12 _ZN5dwarf9to_stringB5cxx11ENS_6DW_ORDE
   325: 0000000000039600     4 OBJECT  GLOBAL DEFAULT   24 _IO_stdin_used
   326: 000000000002cbea    78 FUNC    WEAK   DEFAULT   12 _ZN3elf11mmap_loader4loadElm
   327: 000000000001e3f8  3006 FUNC    GLOBAL DEFAULT   12 _ZN5dwarf9to_stringB5cxx11ERKNS_5valueE
   328: 0000000000023fa2    84 FUNC    WEAK   DEFAULT   12 _ZNSt23_Sp_counted_ptr_inplaceIN5dwarf10line_table4implESaIvELN9__gnu_cxx12_Lock_policyE1EE14_M_get_deleterERKSt9type_info
   329: 0000000000016f8e    26 FUNC    GLOBAL DEFAULT   12 _ZN5dwarf4unitD0Ev
   330: 000000000002b1ca    26 FUNC    GLOBAL DEFAULT   12 _ZNK3elf3sym8get_nameB5cxx11Ev
   331: 00000000000181a6  1626 FUNC    GLOBAL DEFAULT   12 _ZN5dwarf9type_unitC2ERKNS_5dwarfEm
   332: 000000000002ba00    84 FUNC    WEAK   DEFAULT   12 _ZNSt23_Sp_counted_ptr_inplaceIN3elf6strtab4implESaIvELN9__gnu_cxx12_Lock_policyE1EE14_M_get_deleterERKSt9type_info
   333: 000000000001b702   492 FUNC    GLOBAL DEFAULT   12 _ZNK5dwarf3die7resolveENS_5DW_ATE
   334: 00000000000163e0     0 FUNC    GLOBAL DEFAULT  UND _ZSt17__throw_bad_allocv@GLIBCXX_3.4
   335: 00000000000240d4   314 FUNC    WEAK   DEFAULT   12 _ZNSt7__cxx119to_stringEm
   336: 0000000000021b1c   100 FUNC    GLOBAL DEFAULT   12 _ZN5dwarf9rangelist8iteratorC2ERKSt10shared_ptrINS_7sectionEEm
   337: 000000000002d348    82 OBJECT  WEAK   DEFAULT   13 _ZTSSt23_Sp_counted_ptr_inplaceIN5dwarf4unit4implESaIvELN9__gnu_cxx12_Lock_policyE1EE
   338: 0000000000030dc8    79 OBJECT  WEAK   DEFAULT   13 _ZTSSt23_Sp_counted_ptr_inplaceIN3elf3elf4implESaIvELN9__gnu_cxx12_Lock_policyE1EE
   339: 00000000000163f0     0 FUNC    GLOBAL DEFAULT  UND _ZNSt13runtime_errorC1EPKc@GLIBCXX_3.4.21
   340: 000000000002bda0   630 FUNC    WEAK   DEFAULT   12 _ZNSt23_Sp_counted_ptr_inplaceIN3elf3elf4implESaIvELN9__gnu_cxx12_Lock_policyE1EE10_M_disposeEv
   341: 0000000000019d08    94 FUNC    WEAK   DEFAULT   12 _ZNSt7__cxx1112basic_stringIcSt11char_traitsIcESaIcEE12_M_constructIPKcEEvT_S8_St20forward_iterator_tag
   342: 000000000002bcb8   232 FUNC    WEAK   DEFAULT   12 _ZNSt23_Sp_counted_ptr_inplaceIN3elf6symtab4implESaIvELN9__gnu_cxx12_Lock_policyE1EE10_M_disposeEv
   343: 000000000002454e    94 FUNC    WEAK   DEFAULT   12 _ZNSt7__cxx1112basic_stringIcSt11char_traitsIcESaIcEE12_M_constructIPcEEvT_S7_St20forward_iterator_tag
   344: 0000000000016400     0 FUNC    GLOBAL DEFAULT  UND __cxa_begin_catch@CXXABI_1.3
   345: 000000000001a14c    56 FUNC    WEAK   DEFAULT   12 _ZNKSt10_HashtableImSt4pairIKmN5dwarf9type_unitEESaIS4_ENSt8__detail10_Select1stESt8equal_toImESt4hashImENS6_18_Mod_range_hashingENS6_20_Default_ranged_hashENS6_20_Prime_rehash_policyENS6_17_Hashtable_traitsILb0ELb0ELb1EEEE19_M_find_before_nodeEmRS1_m
   346: 000000000001ab78    90 FUNC    GLOBAL DEFAULT   12 _ZN5dwarf6cursor7sleb128Ev
   347: 0000000000016b40    14 FUNC    WEAK   DEFAULT   12 _ZNSt23_Sp_counted_ptr_inplaceIN5dwarf3elf10elf_loaderIN3elf3elfEEESaIvELN9__gnu_cxx12_Lock_policyE1EED0Ev
   348: 000000000002b1e4   426 FUNC    GLOBAL DEFAULT   12 _ZN3elf5enums9to_stringB5cxx11ENS0_3shnE
   349: 0000000000038b40    24 OBJECT  WEAK   DEFAULT   20 _ZTIN3elf12format_errorE
   350: 0000000000039010     8 OBJECT  GLOBAL DEFAULT   22 _ZN5dwarf15no_expr_contextE
   351: 000000000002584c    34 FUNC    GLOBAL DEFAULT   12 _ZN5dwarf11at_use_UTF8ERKNS_3dieE
   352: 000000000002d970    30 OBJECT  WEAK   DEFAULT   13 _ZTSN5dwarf19value_type_mismatchE
   353: 0000000000022096   228 FUNC    WEAK   DEFAULT   12 _ZNSt6vectorImSaImEE17_M_realloc_insertIJmEEEvN9__gnu_cxx17__normal_iteratorIPmS1_EEDpOT_
   354: 0000000000025898    42 FUNC    GLOBAL DEFAULT   12 _ZN5dwarf9at_rangesERKNS_3dieE
   355: 000000000002b89c     2 FUNC    WEAK   DEFAULT   12 _ZNSt23_Sp_counted_ptr_inplaceIN3elf7segment4implESaIvELN9__gnu_cxx12_Lock_policyE1EED1Ev
   356: 000000000002d2f0    83 OBJECT  WEAK   DEFAULT   13 _ZTSSt23_Sp_counted_ptr_inplaceIN5dwarf5dwarf4implESaIvELN9__gnu_cxx12_Lock_policyE1EE
   357: 000000000001b184     4 FUNC    GLOBAL DEFAULT   12 _ZNK5dwarf3die8get_unitEv
   358: 000000000001aa82   134 FUNC    GLOBAL DEFAULT   12 _ZN5dwarf6cursor4cstrEPm
   359: 000000000002e1b8    21 OBJECT  WEAK   DEFAULT   13 _ZTSN5dwarf10expr_errorE
   360: 000000000002cf58    40 OBJECT  WEAK   DEFAULT   13 _ZTISt16_Sp_counted_baseILN9__gnu_cxx12_Lock_policyE1EE
   361: 0000000000016410     0 FUNC    GLOBAL DEFAULT  UND strlen@GLIBC_2.27
   362: 00000000000168f2   484 FUNC    GLOBAL DEFAULT   12 main
   363: 000000000002b90a    14 FUNC    WEAK   DEFAULT   12 _ZNSt23_Sp_counted_ptr_inplaceIN3elf6strtab4implESaIvELN9__gnu_cxx12_Lock_policyE1EED0Ev
   364: 0000000000016420     0 FUNC    GLOBAL DEFAULT  UND __cxa_allocate_exception@CXXABI_1.3
   365: 0000000000017916  2192 FUNC    GLOBAL DEFAULT   12 _ZN5dwarf5dwarfC1ERKSt10shared_ptrINS_6loaderEE
   366: 000000000002c016  1132 FUNC    WEAK   DEFAULT   12 _ZN3elf9canon_hdrINS_4EhdrEEEvPT_INS_5Elf64ELNS_10byte_orderE0EEPKvNS_8elfclassENS_7elfdataE
   367: 0000000000019698    84 FUNC    WEAK   DEFAULT   12 _ZNSt23_Sp_counted_ptr_inplaceIN5dwarf7sectionESaIvELN9__gnu_cxx12_Lock_policyE1EE14_M_get_deleterERKSt9type_info
   368: 0000000000038b88    24 OBJECT  WEAK   DEFAULT   20 _ZTISt23_Sp_counted_ptr_inplaceIN3elf7segment4implESaIvELN9__gnu_cxx12_Lock_policyE1EE
   369: 0000000000022216   410 FUNC    GLOBAL DEFAULT   12 _ZNK5dwarf10line_table5entry15get_descriptionB5cxx11Ev
   370: 0000000000038be8    40 OBJECT  WEAK   DEFAULT   20 _ZTVN3elf12format_errorE
   371: 0000000000030fc8    14 OBJECT  WEAK   DEFAULT   13 _ZTSN3elf6loaderE
   372: 0000000000025294    34 FUNC    GLOBAL DEFAULT   12 _ZN5dwarf11at_orderingERKNS_3dieE
   373: 000000000002586e    42 FUNC    GLOBAL DEFAULT   12 _ZN5dwarf12at_extensionERKNS_3dieE
   374: 00000000000195e6    38 FUNC    WEAK   DEFAULT   12 _ZN5dwarf12format_errorD0Ev
   375: 0000000000038d18    56 OBJECT  WEAK   DEFAULT   20 _ZTVSt23_Sp_counted_ptr_inplaceIN3elf6symtab4implESaIvELN9__gnu_cxx12_Lock_policyE1EE
   376: 0000000000016430     0 FUNC    GLOBAL DEFAULT  UND putchar@GLIBC_2.27
   377: 0000000000016440     0 FUNC    GLOBAL DEFAULT  UND _ZSt20__throw_length_errorPKc@GLIBCXX_3.4
   378: 00000000000221a6    52 FUNC    GLOBAL DEFAULT   12 _ZN5dwarf10line_table5entry5resetEb
   379: 0000000000016450     0 FUNC    GLOBAL DEFAULT  UND _ZNSt7__cxx1112basic_stringIcSt11char_traitsIcESaIcEE9_M_assignERKS4_@GLIBCXX_3.4.21
   380: 0000000000038a88    40 OBJECT  WEAK   DEFAULT   20 _ZTVN5dwarf10expr_errorE
   381: 0000000000038958    32 OBJECT  WEAK   DEFAULT   20 _ZTVN5dwarf9type_unitE
   382: 0000000000025db8    24 FUNC    GLOBAL DEFAULT   12 _ZN5dwarf13at_bit_strideERKNS_3dieEPNS_12expr_contextE
   383: 000000000002a57e   166 FUNC    GLOBAL DEFAULT   12 _ZN3elf6strtabC1ENS_3elfEPKvm
   384: 000000000002d3a0   201 OBJECT  UNIQUE DEFAULT   13 _ZZNSt8__detail18__to_chars_10_implIjEEvPcjT_E8__digits
   385: 0000000000038ba0    24 OBJECT  WEAK   DEFAULT   20 _ZTISt23_Sp_counted_ptr_inplaceIN3elf7section4implESaIvELN9__gnu_cxx12_Lock_policyE1EE
   386: 000000000001bc68    26 FUNC    GLOBAL DEFAULT   12 _ZNK5dwarf5value18get_section_offsetEv
   387: 000000000002a954   242 FUNC    GLOBAL DEFAULT   12 _ZNK3elf7section8get_nameEPm
   388: 0000000000039608     0 OBJECT  GLOBAL HIDDEN    24 __dso_handle
   389: 00000000000195c8     2 FUNC    WEAK   DEFAULT   12 _ZNSt23_Sp_counted_ptr_inplaceIN5dwarf7sectionESaIvELN9__gnu_cxx12_Lock_policyE1EED1Ev
   390: 0000000000016460     0 FUNC    GLOBAL DEFAULT  UND _ZNSt3_V215system_categoryEv@GLIBCXX_3.4.21
   391: 000000000001a1e8   222 FUNC    WEAK   DEFAULT   12 _ZNSt8_Rb_treeIN5dwarf12section_typeESt4pairIKS1_St10shared_ptrINS0_7sectionEEESt10_Select1stIS7_ESt4lessIS1_ESaIS7_EE29_M_get_insert_hint_unique_posESt23_Rb_tree_const_iteratorIS7_ERS3_
   392: 0000000000025de8    24 FUNC    GLOBAL DEFAULT   12 _ZN5dwarf8at_countERKNS_3dieEPNS_12expr_contextE
   393: 000000000001d8c6    32 FUNC    GLOBAL DEFAULT   12 _ZN5dwarf5valueC2EPKNS_4unitENS_5DW_ATENS_7DW_FORMENS0_4typeEm
   394: 0000000000019636    56 FUNC    WEAK   DEFAULT   12 _ZNSt6vectorIN5dwarf16compilation_unitESaIS1_EED1Ev
   395: 0000000000016470     0 FUNC    GLOBAL DEFAULT  UND _ZNSt7__cxx1112basic_stringIcSt11char_traitsIcESaIcEEC1EOS4_@GLIBCXX_3.4.21
   396: 000000000002a4b8   192 FUNC    GLOBAL DEFAULT   12 _ZNK3elf7section4dataEv
   397: 000000000002b934    14 FUNC    WEAK   DEFAULT   12 _ZNSt23_Sp_counted_ptr_inplaceIN3elf7segment4implESaIvELN9__gnu_cxx12_Lock_policyE1EE10_M_destroyEv
   398: 0000000000016480     0 FUNC    GLOBAL DEFAULT  UND open@GLIBC_2.27
   399: 000000000001cffc   926 FUNC    GLOBAL DEFAULT   12 _ZNK5dwarf5value7as_cstrEPm
   400: 0000000000017916  2192 FUNC    GLOBAL DEFAULT   12 _ZN5dwarf5dwarfC2ERKSt10shared_ptrINS_6loaderEE
   401: 000000000001eff6   754 FUNC    WEAK   DEFAULT   12 _ZN5dwarf6cursor7addressEv
   402: 000000000002a57e   166 FUNC    GLOBAL DEFAULT   12 _ZN3elf6strtabC2ENS_3elfEPKvm
   403: 00000000000195cc    26 FUNC    WEAK   DEFAULT   12 _ZN5dwarf12format_errorD1Ev
   404: 000000000001a120    44 FUNC    WEAK   DEFAULT   12 _ZNSt10_HashtableImSt4pairIKmN5dwarf9type_unitEESaIS4_ENSt8__detail10_Select1stESt8equal_toImESt4hashImENS6_18_Mod_range_hashingENS6_20_Default_ranged_hashENS6_20_Prime_rehash_policyENS6_17_Hashtable_traitsILb0ELb0ELb1EEEE12_Scoped_nodeD1Ev
   405: 0000000000016ad8    20 FUNC    WEAK   DEFAULT   12 _ZNSt23_Sp_counted_ptr_inplaceIN5dwarf3elf10elf_loaderIN3elf3elfEEESaIvELN9__gnu_cxx12_Lock_policyE1EE10_M_disposeEv
   406: 0000000000016490     0 FUNC    GLOBAL DEFAULT  UND __cxa_guard_release@CXXABI_1.3
   407: 0000000000016e40   120 FUNC    GLOBAL DEFAULT   12 _ZN5dwarf5dwarfD2Ev
   408: 000000000001efb6    26 FUNC    WEAK   DEFAULT   12 _ZN5dwarf19value_type_mismatchD2Ev
   409: 000000000001d3ca   788 FUNC    GLOBAL DEFAULT   12 _ZNK5dwarf5value13as_sec_offsetEv
   410: 000000000001d6de   488 FUNC    GLOBAL DEFAULT   12 _ZN5dwarf5value16resolve_indirectENS_5DW_ATE
   411: 00000000000253ea    40 FUNC    GLOBAL DEFAULT   12 _ZN5dwarf18at_containing_typeERKNS_3dieE
   412: 00000000000195c8     2 FUNC    WEAK   DEFAULT   12 _ZNSt23_Sp_counted_ptr_inplaceIN5dwarf7sectionESaIvELN9__gnu_cxx12_Lock_policyE1EED2Ev
   413: 0000000000039610     8 OBJECT  WEAK   HIDDEN    24 DW.ref.__gxx_personality_v0
   414: 0000000000019fce   338 FUNC    WEAK   DEFAULT   12 _ZNSt6vectorIN5dwarf12abbrev_entryESaIS1_EE17_M_default_appendEm
   415: 00000000000164a0     0 FUNC    GLOBAL DEFAULT  UND mmap@GLIBC_2.27
   416: 000000000002cc56    42 FUNC    WEAK   DEFAULT   12 _ZN3elf11mmap_loaderD0Ev
   417: 00000000000218c4   600 FUNC    GLOBAL DEFAULT   12 _ZN5dwarf9rangelist8iteratorppEv
   418: 00000000000273fe   748 FUNC    GLOBAL DEFAULT   12 _ZN5dwarf9to_stringB5cxx11ENS_5value4typeE
   419: 00000000000164b0     0 FUNC    GLOBAL DEFAULT  UND _ZSt18_Rb_tree_incrementPSt18_Rb_tree_node_base@GLIBCXX_3.4
   420: 00000000000253aa    40 FUNC    GLOBAL DEFAULT   12 _ZN5dwarf11at_comp_dirB5cxx11ERKNS_3dieE
   421: 00000000000387b0    88 OBJECT  WEAK   DEFAULT   20 _ZTVN10__cxxabiv117__class_type_infoE@CXXABI_1.3
   422: 0000000000026bf6   352 FUNC    GLOBAL DEFAULT   12 _ZN5dwarf9to_stringB5cxx11ENS_5DW_DSE
   423: 00000000000164c0     0 FUNC    GLOBAL DEFAULT  UND _ZSt19__throw_logic_errorPKc@GLIBCXX_3.4
   424: 0000000000019476   334 FUNC    GLOBAL DEFAULT   12 _ZNK5dwarf9type_unit4typeEv
   425: 00000000000164d0     0 FUNC    GLOBAL DEFAULT  UND __cxa_free_exception@CXXABI_1.3
   426: 00000000000252b6    32 FUNC    GLOBAL DEFAULT   12 _ZN5dwarf9at_low_pcERKNS_3dieE
   427: 0000000000023f84     2 FUNC    WEAK   DEFAULT   12 _ZNSt23_Sp_counted_ptr_inplaceIN5dwarf10line_table4implESaIvELN9__gnu_cxx12_Lock_policyE1EED1Ev
   428: 0000000000038b08    56 OBJECT  WEAK   DEFAULT   20 _ZTVSt23_Sp_counted_ptr_inplaceIN5dwarf10line_table4implESaIvELN9__gnu_cxx12_Lock_policyE1EE
   429: 000000000001fa2a     8 FUNC    GLOBAL DEFAULT   12 _ZN5dwarf4exprC1EPKNS_4unitEmm
   430: 000000000001a2c6   140 FUNC    WEAK   DEFAULT   12 _ZNSt8_Rb_treeIN5dwarf12section_typeESt4pairIKS1_St10shared_ptrINS0_7sectionEEESt10_Select1stIS7_ESt4lessIS1_ESaIS7_EE22_M_emplace_hint_uniqueIJRKSt21piecewise_construct_tSt5tupleIJRS3_EESI_IJEEEEESt17_Rb_tree_iteratorIS7_ESt23_Rb_tree_const_iteratorIS7_EDpOT_
   431: 00000000000217d4   222 FUNC    GLOBAL DEFAULT   12 _ZN5dwarf9rangelistC1ERKSt10shared_ptrINS_7sectionEEmjm
   432: 000000000001b64a    22 FUNC    GLOBAL DEFAULT   12 _ZNK5dwarf3dieneERKS0_
   433: 0000000000025436    34 FUNC    GLOBAL DEFAULT   12 _ZN5dwarf14at_is_optionalERKNS_3dieE
   434: 000000000002715a   676 FUNC    GLOBAL DEFAULT   12 _ZN5dwarf9to_stringB5cxx11ENS_12section_typeE
   435: 000000000001d39a    48 FUNC    GLOBAL DEFAULT   12 _ZNK5dwarf5value9as_stringERNSt7__cxx1112basic_stringIcSt11char_traitsIcESaIcEEE
   436: 00000000000164e0     0 FUNC    GLOBAL DEFAULT  UND munmap@GLIBC_2.27
   437: 0000000000025d74    22 FUNC    GLOBAL DEFAULT   12 _ZN5dwarf13at_bit_offsetERKNS_3dieEPNS_12expr_contextE
   438: 0000000000021656    26 FUNC    WEAK   DEFAULT   12 _ZN5dwarf10expr_errorD2Ev
   439: 000000000002b896     2 FUNC    WEAK   DEFAULT   12 _ZNSt23_Sp_counted_ptr_inplaceIN3elf6symtab4implESaIvELN9__gnu_cxx12_Lock_policyE1EED1Ev
   440: 00000000000253d2    24 FUNC    GLOBAL DEFAULT   12 _ZN5dwarf14at_const_valueERKNS_3dieE
   441: 00000000000388e8    24 OBJECT  WEAK   DEFAULT   20 _ZTISt23_Sp_counted_ptr_inplaceIN5dwarf7sectionESaIvELN9__gnu_cxx12_Lock_policyE1EE
   442: 0000000000038c38    56 OBJECT  WEAK   DEFAULT   20 _ZTVSt23_Sp_counted_ptr_inplaceIN3elf3elf4implESaIvELN9__gnu_cxx12_Lock_policyE1EE
   443: 0000000000019628    14 FUNC    WEAK   DEFAULT   12 _ZNSt23_Sp_counted_ptr_inplaceIN5dwarf4unit4implESaIvELN9__gnu_cxx12_Lock_policyE1EED0Ev
   444: 0000000000030ec8    82 OBJECT  WEAK   DEFAULT   13 _ZTSSt23_Sp_counted_ptr_inplaceIN3elf6strtab4implESaIvELN9__gnu_cxx12_Lock_policyE1EE
   445: 00000000000164f0     0 FUNC    GLOBAL DEFAULT  UND _ZSt28__throw_bad_array_new_lengthv@GLIBCXX_3.4.29
   446: 0000000000019a5e   198 FUNC    WEAK   DEFAULT   12 _ZNSt8_Rb_treeIN5dwarf12section_typeESt4pairIKS1_St10shared_ptrINS0_7sectionEEESt10_Select1stIS7_ESt4lessIS1_ESaIS7_EE8_M_eraseEPSt13_Rb_tree_nodeIS7_E
   447: 000000000002ac1a   474 FUNC    GLOBAL DEFAULT   12 _ZNK3elf7section9as_symtabEv
   448: 0000000000025da0    24 FUNC    GLOBAL DEFAULT   12 _ZN5dwarf14at_lower_boundERKNS_3dieEPNS_12expr_contextE
   449: 000000000002b130    76 FUNC    GLOBAL DEFAULT   12 _ZNK3elf7section8get_nameB5cxx11Ev
   450: 0000000000023c64    38 FUNC    GLOBAL DEFAULT   12 _ZNK5dwarf10line_table5beginEv
   451: 0000000000030da8    30 OBJECT  WEAK   DEFAULT   13 _ZTSN3elf21section_type_mismatchE
   452: 00000000000259d0    36 FUNC    GLOBAL DEFAULT   12 _ZN5dwarf12at_endianityERKNS_3dieE
   453: 000000000001b16e    22 FUNC    GLOBAL DEFAULT   12 _ZN5dwarf3dieC1EPKNS_4unitE
   454: 00000000000218b2    18 FUNC    GLOBAL DEFAULT   12 _ZNK5dwarf9rangelist3endEv
   455: 000000000001ab38    64 FUNC    GLOBAL DEFAULT   12 _ZN5dwarf6cursor9underflowEv
   456: 0000000000038c10    40 OBJECT  WEAK   DEFAULT   20 _ZTVN3elf21section_type_mismatchE
   457: 0000000000016500     0 FUNC    GLOBAL DEFAULT  UND __assert_fail@GLIBC_2.27
   458: 0000000000039600     0 NOTYPE  GLOBAL DEFAULT   24 __SDATA_BEGIN__
   459: 0000000000038900    24 OBJECT  WEAK   DEFAULT   20 _ZTISt23_Sp_counted_ptr_inplaceIN5dwarf5dwarf4implESaIvELN9__gnu_cxx12_Lock_policyE1EE
   460: 000000000002436c   226 FUNC    WEAK   DEFAULT   12 _ZStplIcSt11char_traitsIcESaIcEENSt7__cxx1112basic_stringIT_T0_T1_EEOS8_S9_
   461: 000000000001b558   218 FUNC    GLOBAL DEFAULT   12 _ZNK5dwarf3dieixENS_5DW_ATE
   462: 0000000000021dc6   492 FUNC    GLOBAL DEFAULT   12 _ZN5dwarf9rangelistC1ERKSt16initializer_listISt4pairImmEE
   463: 0000000000025940    34 FUNC    GLOBAL DEFAULT   12 _ZN5dwarf10at_mutableERKNS_3dieE
   464: 0000000000016b98   114 FUNC    WEAK   DEFAULT   12 _ZN5dwarf3elf10elf_loaderIN3elf3elfEED1Ev
   465: 0000000000016c88   102 FUNC    WEAK   DEFAULT   12 _ZNSt16_Sp_counted_baseILN9__gnu_cxx12_Lock_policyE1EE10_M_releaseEv
   466: 0000000000023cb6   260 FUNC    GLOBAL DEFAULT   12 _ZNK5dwarf10line_table12find_addressEm
   467: 0000000000023f84     2 FUNC    WEAK   DEFAULT   12 _ZNSt23_Sp_counted_ptr_inplaceIN5dwarf10line_table4implESaIvELN9__gnu_cxx12_Lock_policyE1EED2Ev
   468: 000000000001efd0    38 FUNC    WEAK   DEFAULT   12 _ZN5dwarf19value_type_mismatchD0Ev
   469: 000000000001a61a   196 FUNC    WEAK   DEFAULT   12 _ZNSt10_HashtableImSt4pairIKmN5dwarf9type_unitEESaIS4_ENSt8__detail10_Select1stESt8equal_toImESt4hashImENS6_18_Mod_range_hashingENS6_20_Default_ranged_hashENS6_20_Prime_rehash_policyENS6_17_Hashtable_traitsILb0ELb0ELb1EEEE21_M_insert_unique_nodeEmmPNS6_10_Hash_nodeIS4_Lb0EEEm
   470: 00000000000195ca     2 FUNC    WEAK   DEFAULT   12 _ZNSt23_Sp_counted_ptr_inplaceIN5dwarf7sectionESaIvELN9__gnu_cxx12_Lock_policyE1EE10_M_disposeEv
   471: 000000000001b1a2   910 FUNC    GLOBAL DEFAULT   12 _ZN5dwarf3die4readEm
   472: 000000000001a55c   190 FUNC    WEAK   DEFAULT   12 _ZNSt10_HashtableImSt4pairIKmN5dwarf9type_unitEESaIS4_ENSt8__detail10_Select1stESt8equal_toImESt4hashImENS6_18_Mod_range_hashingENS6_20_Default_ranged_hashENS6_20_Prime_rehash_policyENS6_17_Hashtable_traitsILb0ELb0ELb1EEEE13_M_rehash_auxEmSt17integral_constantIbLb1EE
   473: 000000000002d0f8    40 OBJECT  WEAK   DEFAULT   13 _ZTVN5dwarf3elf10elf_loaderIN3elf3elfEEE
   474: 0000000000000000     0 FUNC    GLOBAL DEFAULT  UND _ZNSt11range_errorD1Ev@GLIBCXX_3.4
   475: 0000000000019954    44 FUNC    WEAK   DEFAULT   12 _ZN5dwarf12small_vectorImLj6EED1Ev
   476: 0000000000025718    36 FUNC    GLOBAL DEFAULT   12 _ZN5dwarf18at_identifier_caseERKNS_3dieE
   477: 0000000000021dc6   492 FUNC    GLOBAL DEFAULT   12 _ZN5dwarf9rangelistC2ERKSt16initializer_listISt4pairImmEE
   478: 000000000001f348   128 FUNC    WEAK   DEFAULT   12 _ZNSt8__detail18__to_chars_10_implImEEvPcjT_
   479: 0000000000016510     0 FUNC    GLOBAL DEFAULT  UND _ZdlPv@GLIBCXX_3.4
   480: 000000000002ca14   336 FUNC    GLOBAL DEFAULT   12 _ZN3elf18create_mmap_loaderEi
   481: 000000000002d288    19 OBJECT  WEAK   DEFAULT   13 _ZTSN5dwarf9type_unitE
   482: 0000000000000000     0 OBJECT  GLOBAL DEFAULT  UND _ZTISt15underflow_error@GLIBCXX_3.4
   483: 00000000000195c6     2 FUNC    WEAK   DEFAULT   12 _ZNSt23_Sp_counted_ptr_inplaceIN5dwarf5dwarf4implESaIvELN9__gnu_cxx12_Lock_policyE1EED2Ev
   484: 000000000001cd7e   638 FUNC    GLOBAL DEFAULT   12 _ZNK5dwarf5value7as_flagEv
   485: 0000000000016800    46 FUNC    GLOBAL DEFAULT   12 _start
   486: 0000000000016520     0 FUNC    GLOBAL DEFAULT  UND _Znwm@GLIBCXX_3.4
   487: 000000000002620e   228 FUNC    GLOBAL DEFAULT   12 _ZN5dwarf9to_stringB5cxx11ENS_11DW_CHILDRENE
   488: 000000000002b9da    38 FUNC    WEAK   DEFAULT   12 _ZN3elf21section_type_mismatchD0Ev
   489: 0000000000038d78    24 OBJECT  WEAK   DEFAULT   20 _ZTISt23_Sp_counted_ptr_inplaceIN3elf11mmap_loaderESaIvELN9__gnu_cxx12_Lock_policyE1EE
   490: 000000000001aa24    94 FUNC    GLOBAL DEFAULT   12 _ZN5dwarf6cursor19skip_initial_lengthEv
   491: 0000000000021670    38 FUNC    WEAK   DEFAULT   12 _ZN5dwarf10expr_errorD0Ev
   492: 000000000002217a    44 FUNC    WEAK   DEFAULT   12 _ZNSt6vectorImSaImEE12emplace_backIJmEEEvDpOT_
   493: 000000000001bc82   602 FUNC    GLOBAL DEFAULT   12 _ZNK5dwarf5value10as_addressEv
   494: 000000000002ce98    21 OBJECT  WEAK   DEFAULT   13 _ZTSN9__gnu_cxx7__mutexE
   495: 0000000000000000     0 FUNC    GLOBAL DEFAULT  UND _ZNSt13runtime_errorD1Ev@GLIBCXX_3.4
   496: 0000000000016b5c    24 FUNC    WEAK   DEFAULT   12 _ZN5dwarf16compilation_unitD2Ev
   497: 000000000002a32c     8 FUNC    GLOBAL DEFAULT   12 _ZNK3elf3elf8sectionsEv
   498: 0000000000039800     0 NOTYPE  GLOBAL DEFAULT  ABS __global_pointer$
   499: 0000000000016530     0 FUNC    GLOBAL DEFAULT  UND _ZSt18_Rb_tree_decrementPSt18_Rb_tree_node_base@GLIBCXX_3.4
   500: 000000000001f3c8   632 FUNC    GLOBAL DEFAULT   12 _ZN5dwarf14attribute_specC2ENS_5DW_ATENS_7DW_FORME
   501: 000000000002b896     2 FUNC    WEAK   DEFAULT   12 _ZNSt23_Sp_counted_ptr_inplaceIN3elf6symtab4implESaIvELN9__gnu_cxx12_Lock_policyE1EED2Ev
   502: 000000000002a394    88 FUNC    GLOBAL DEFAULT   12 _ZNK3elf3elf11get_segmentEj
   503: 0000000000025458    42 FUNC    GLOBAL DEFAULT   12 _ZN5dwarf11at_producerB5cxx11ERKNS_3dieE
   504: 000000000002cf08    24 OBJECT  WEAK   DEFAULT   13 _ZTSSt19_Sp_make_shared_tag
   505: 000000000002b89c     2 FUNC    WEAK   DEFAULT   12 _ZNSt23_Sp_counted_ptr_inplaceIN3elf7segment4implESaIvELN9__gnu_cxx12_Lock_policyE1EED2Ev
   506: 000000000002a754   512 FUNC    GLOBAL DEFAULT   12 _ZNK3elf6strtab3getEmPm
   507: 0000000000039000     8 OBJECT  WEAK   HIDDEN    22 DW.ref._ZTIN5dwarf12format_errorE
   508: 000000000002cb7a    84 FUNC    WEAK   DEFAULT   12 _ZNSt23_Sp_counted_ptr_inplaceIN3elf11mmap_loaderESaIvELN9__gnu_cxx12_Lock_policyE1EE14_M_get_deleterERKSt9type_info
   509: 000000000002a256   146 FUNC    WEAK   DEFAULT   12 _Z6to_hexIiENSt7__cxx1112basic_stringIcSt11char_traitsIcESaIcEEET_
   510: 000000000002cc38    30 FUNC    WEAK   DEFAULT   12 _ZN3elf11mmap_loaderD1Ev
   511: 000000000002a578     6 FUNC    GLOBAL DEFAULT   12 _ZNK3elf7section4sizeEv
   512: 0000000000026abc   314 FUNC    GLOBAL DEFAULT   12 _ZN5dwarf9to_stringB5cxx11ENS_5DW_IDE
   513: 0000000000000000     0 FUNC    GLOBAL DEFAULT  UND _ZNSt12system_errorD1Ev@GLIBCXX_3.4.11
   514: 0000000000025e18    24 FUNC    GLOBAL DEFAULT   12 _ZN5dwarf13at_associatedERKNS_3dieEPNS_12expr_contextE
   515: 000000000002a624   304 FUNC    GLOBAL DEFAULT   12 _ZNK3elf7section9as_strtabEv
   516: 0000000000038ca8    56 OBJECT  WEAK   DEFAULT   20 _ZTVSt23_Sp_counted_ptr_inplaceIN3elf7section4implESaIvELN9__gnu_cxx12_Lock_policyE1EE
   517: 000000000002ba54    84 FUNC    WEAK   DEFAULT   12 _ZNSt23_Sp_counted_ptr_inplaceIN3elf6symtab4implESaIvELN9__gnu_cxx12_Lock_policyE1EE14_M_get_deleterERKSt9type_info
   518: 0000000000025916    42 FUNC    GLOBAL DEFAULT   12 _ZN5dwarf17at_picture_stringB5cxx11ERKNS_3dieE
   519: 000000000002cc80   320 FUNC    WEAK   DEFAULT   12 _ZNSt12system_errorC1ESt10error_codePKc
   520: 000000000001b188    26 FUNC    GLOBAL DEFAULT   12 _ZNK5dwarf3die18get_section_offsetEv
   521: 000000000002b898     2 FUNC    WEAK   DEFAULT   12 _ZNSt23_Sp_counted_ptr_inplaceIN3elf6strtab4implESaIvELN9__gnu_cxx12_Lock_policyE1EED1Ev
   522: 0000000000021788    76 FUNC    WEAK   DEFAULT   12 _ZN5dwarf12expr_context3regEj
   523: 0000000000021696    14 FUNC    WEAK   DEFAULT   12 _ZN5dwarf12expr_contextD0Ev
   524: 0000000000016540     0 FUNC    GLOBAL DEFAULT  UND _ZNSt13runtime_errorD2Ev@GLIBCXX_3.4
   525: 0000000000025d5e    22 FUNC    GLOBAL DEFAULT   12 _ZN5dwarf12at_byte_sizeERKNS_3dieEPNS_12expr_contextE
   526: 00000000000389e8    56 OBJECT  WEAK   DEFAULT   20 _ZTVSt23_Sp_counted_ptr_inplaceIN5dwarf4unit4implESaIvELN9__gnu_cxx12_Lock_policyE1EE
   527: 0000000000016550     0 FUNC    GLOBAL DEFAULT  UND __bswapdi2@GCC_4.3.0
   528: 00000000000249f6   570 FUNC    WEAK   DEFAULT   12 _ZNSt6vectorIN5dwarf10line_table4fileESaIS2_EE17_M_realloc_insertIJRKNSt7__cxx1112basic_stringIcSt11char_traitsIcESaIcEEEEEEvN9__gnu_cxx17__normal_iteratorIPS2_S4_EEDpOT_
   529: 000000000002baa8    84 FUNC    WEAK   DEFAULT   12 _ZNSt23_Sp_counted_ptr_inplaceIN3elf3elf4implESaIvELN9__gnu_cxx12_Lock_policyE1EE14_M_get_deleterERKSt9type_info
   530: 0000000000016560     0 FUNC    GLOBAL DEFAULT  UND __dynamic_cast@CXXABI_1.3
   531: 00000000000195c6     2 FUNC    WEAK   DEFAULT   12 _ZNSt23_Sp_counted_ptr_inplaceIN5dwarf5dwarf4implESaIvELN9__gnu_cxx12_Lock_policyE1EED1Ev
   532: 000000000002a3f2   180 FUNC    GLOBAL DEFAULT   12 _ZNK3elf7segment4dataEv
   533: 000000000002535a    40 FUNC    GLOBAL DEFAULT   12 _ZN5dwarf9at_importERKNS_3dieE
   534: 0000000000039018     0 OBJECT  GLOBAL HIDDEN    23 __TMC_END__
   535: 00000000000254ce    36 FUNC    GLOBAL DEFAULT   12 _ZN5dwarf16at_accessibilityERKNS_3dieE
   536: 0000000000021610    34 FUNC    GLOBAL DEFAULT   12 _ZNK5dwarf4expr8evaluateEPNS_12expr_contextEm
   537: 0000000000019740    84 FUNC    WEAK   DEFAULT   12 _ZNSt23_Sp_counted_ptr_inplaceIN5dwarf5dwarf4implESaIvELN9__gnu_cxx12_Lock_policyE1EE14_M_get_deleterERKSt9type_info
   538: 000000000002bb50   120 FUNC    WEAK   DEFAULT   12 _ZNSt23_Sp_counted_ptr_inplaceIN3elf7segment4implESaIvELN9__gnu_cxx12_Lock_policyE1EE10_M_disposeEv
   539: 0000000000025320    24 FUNC    GLOBAL DEFAULT   12 _ZN5dwarf14at_discr_valueERKNS_3dieE
   540: 0000000000038a38    40 OBJECT  WEAK   DEFAULT   20 _ZTVN5dwarf19value_type_mismatchE
   541: 0000000000016570     0 FUNC    GLOBAL DEFAULT  UND _ZNSt7__cxx1112basic_stringIcSt11char_traitsIcESaIcEE12_M_constructEmc@GLIBCXX_3.4.21
   542: 0000000000027d52  1074 FUNC    GLOBAL DEFAULT   12 _ZN5dwarf9to_stringB5cxx11ENS_7DW_FORME
   543: 000000000002d038   100 OBJECT  WEAK   DEFAULT   13 _ZTSSt23_Sp_counted_ptr_inplaceIN5dwarf3elf10elf_loaderIN3elf3elfEEESaIvELN9__gnu_cxx12_Lock_policyE1EE
   544: 000000000002b89e     2 FUNC    WEAK   DEFAULT   12 _ZNSt23_Sp_counted_ptr_inplaceIN3elf3elf4implESaIvELN9__gnu_cxx12_Lock_policyE1EED2Ev
   545: 0000000000016fac     6 FUNC    GLOBAL DEFAULT   12 _ZNK5dwarf4unit18get_section_offsetEv
   546: 000000000002adf4   182 FUNC    GLOBAL DEFAULT   12 _ZN3elf6symtab8iteratorC2ERKS0_PKc
   547: 000000000001a184   100 FUNC    WEAK   DEFAULT   12 _ZNSt8_Rb_treeIN5dwarf12section_typeESt4pairIKS1_St10shared_ptrINS0_7sectionEEESt10_Select1stIS7_ESt4lessIS1_ESaIS7_EE24_M_get_insert_unique_posERS3_
   548: 0000000000016580     0 FUNC    GLOBAL DEFAULT  UND _ZNSt11logic_errorC2EPKc@GLIBCXX_3.4.21
   549: 0000000000016b74    36 FUNC    WEAK   DEFAULT   12 _ZN5dwarf16compilation_unitD0Ev
   550: 000000000001b6a2    96 FUNC    GLOBAL DEFAULT   12 _ZNK5dwarf3die5beginEv
   551: 000000000002461a   416 FUNC    WEAK   DEFAULT   12 _ZNSt6vectorINSt7__cxx1112basic_stringIcSt11char_traitsIcESaIcEEESaIS5_EE17_M_realloc_insertIJRKS5_EEEvN9__gnu_cxx17__normal_iteratorIPS5_S7_EEDpOT_
   552: 0000000000026046   228 FUNC    GLOBAL DEFAULT   12 _ZN5dwarf9to_stringB5cxx11ENS_6DW_DSCE
   553: 000000000002afbe   228 FUNC    GLOBAL DEFAULT   12 _ZN3elf7sectionC1ERKNS_3elfEPKv
   554: 0000000000038d90    40 OBJECT  WEAK   DEFAULT   20 _ZTVN3elf11mmap_loaderE
   555: 0000000000019914    26 FUNC    WEAK   DEFAULT   12 _ZN5dwarf9type_unitD2Ev
   556: 000000000001b05e   272 FUNC    GLOBAL DEFAULT   12 _ZN5dwarf6cursor6offsetEv
   557: 000000000002d990   201 OBJECT  UNIQUE DEFAULT   13 _ZZNSt8__detail18__to_chars_10_implImEEvPcjT_E8__digits
   558: 000000000002b942    14 FUNC    WEAK   DEFAULT   12 _ZNSt23_Sp_counted_ptr_inplaceIN3elf7section4implESaIvELN9__gnu_cxx12_Lock_policyE1EE10_M_destroyEv
   559: 0000000000000000     0 FUNC    GLOBAL DEFAULT  UND _ZNSt11logic_errorD1Ev@GLIBCXX_3.4
   560: 0000000000030ff0    83 OBJECT  WEAK   DEFAULT   13 _ZTSSt23_Sp_counted_ptr_inplaceIN3elf11mmap_loaderESaIvELN9__gnu_cxx12_Lock_policyE1EE
   561: 0000000000038bd0    24 OBJECT  WEAK   DEFAULT   20 _ZTISt23_Sp_counted_ptr_inplaceIN3elf6symtab4implESaIvELN9__gnu_cxx12_Lock_policyE1EE
   562: 000000000002b17c    78 FUNC    GLOBAL DEFAULT   12 _ZNK3elf6strtab3getB5cxx11Em
   563: 0000000000038c70    56 OBJECT  WEAK   DEFAULT   20 _ZTVSt23_Sp_counted_ptr_inplaceIN3elf7segment4implESaIvELN9__gnu_cxx12_Lock_policyE1EE
   564: 0000000000025514    36 FUNC    GLOBAL DEFAULT   12 _ZN5dwarf21at_calling_conventionERKNS_3dieE
   565: 00000000000258ec    42 FUNC    GLOBAL DEFAULT   12 _ZN5dwarf8at_smallERKNS_3dieE
   566: 0000000000016590     0 FUNC    GLOBAL DEFAULT  UND strerror@GLIBC_2.27
   567: 00000000000165a0     0 FUNC    GLOBAL DEFAULT  UND _ZNSt13runtime_errorC2ERKNSt7__cxx1112basic_stringIcSt11char_traitsIcESaIcEEE@GLIBCXX_3.4.21
   568: 00000000000165b0     0 FUNC    GLOBAL DEFAULT  UND memcpy@GLIBC_2.27
   569: 000000000002b96c    84 FUNC    WEAK   DEFAULT   12 _ZNSt23_Sp_counted_ptr_inplaceIN3elf7segment4implESaIvELN9__gnu_cxx12_Lock_policyE1EE14_M_get_deleterERKSt9type_info
   570: 0000000000022626  3280 FUNC    GLOBAL DEFAULT   12 _ZN5dwarf10line_tableC1ERKSt10shared_ptrINS_7sectionEEmjRKNSt7__cxx1112basic_stringIcSt11char_traitsIcESaIcEEESD_
   571: 0000000000025412    36 FUNC    GLOBAL DEFAULT   12 _ZN5dwarf9at_inlineERKNS_3dieE
   572: 000000000002a334     8 FUNC    GLOBAL DEFAULT   12 _ZNK3elf3elf8segmentsEv
   573: 0000000000039620     1 OBJECT  GLOBAL DEFAULT   25 __libc_single_threaded@GLIBC_2.32
   574: 000000000002b38e  1288 FUNC    GLOBAL DEFAULT   12 _ZN3elf3elfC1ERKSt10shared_ptrINS_6loaderEE
   575: 0000000000016fbe   846 FUNC    GLOBAL DEFAULT   12 _ZNK5dwarf5dwarf11get_sectionENS_12section_typeE
   576: 00000000000165c0     0 FUNC    GLOBAL DEFAULT  UND _ZdaPv@GLIBCXX_3.4
   577: 0000000000038808    88 OBJECT  WEAK   DEFAULT   20 _ZTVN10__cxxabiv120__si_class_type_infoE@CXXABI_1.3
   578: 0000000000016c0a   126 FUNC    WEAK   DEFAULT   12 _ZN5dwarf3elf10elf_loaderIN3elf3elfEED0Ev
   579: 000000000001c9e6   920 FUNC    GLOBAL DEFAULT   12 _ZNK5dwarf5value10as_exprlocEv
   580: 000000000002b898     2 FUNC    WEAK   DEFAULT   12 _ZNSt23_Sp_counted_ptr_inplaceIN3elf6strtab4implESaIvELN9__gnu_cxx12_Lock_policyE1EED2Ev
   581: 0000000000025686    34 FUNC    GLOBAL DEFAULT   12 _ZN5dwarf14at_declarationERKNS_3dieE
   582: 0000000000029470  3558 FUNC    GLOBAL DEFAULT   12 _ZN5dwarf9to_stringB5cxx11ENS_5DW_ATE
   583: 000000000002aaae   364 FUNC    GLOBAL DEFAULT   12 _ZN3elf6symtabC1ENS_3elfEPKvmNS_6strtabE
   584: 000000000001a6de   150 FUNC    WEAK   DEFAULT   12 _ZNSt8__detail9_Map_baseImSt4pairIKmN5dwarf9type_unitEESaIS5_ENS_10_Select1stESt8equal_toImESt4hashImENS_18_Mod_range_hashingENS_20_Default_ranged_hashENS_20_Prime_rehash_policyENS_17_Hashtable_traitsILb0ELb0ELb1EEELb1EEixEOm
   585: 0000000000026512   274 FUNC    GLOBAL DEFAULT   12 _ZN5dwarf9to_stringB5cxx11ENS_5DW_CCE
   586: 00000000000256cc    34 FUNC    GLOBAL DEFAULT   12 _ZN5dwarf11at_externalERKNS_3dieE
   587: 00000000000254a4    42 FUNC    GLOBAL DEFAULT   12 _ZN5dwarf18at_abstract_originERKNS_3dieE
   588: 0000000000019794   384 FUNC    WEAK   DEFAULT   12 _ZNSt7__cxx119to_stringEi
   589: 0000000000030d90    21 OBJECT  WEAK   DEFAULT   13 _ZTSN3elf12format_errorE
   590: 0000000000038d60    24 OBJECT  WEAK   DEFAULT   20 _ZTIN3elf11mmap_loaderE
   591: 000000000002420e   114 FUNC    WEAK   DEFAULT   12 _ZNSt8__detail14__to_chars_lenIjEEjT_i
   592: 00000000000165d0     0 FUNC    GLOBAL DEFAULT  UND _ZNKSt8__detail20_Prime_rehash_policy14_M_need_rehashEmmm@GLIBCXX_3.4.18
   593: 000000000002b89a     2 FUNC    WEAK   DEFAULT   12 _ZNSt23_Sp_counted_ptr_inplaceIN3elf7section4implESaIvELN9__gnu_cxx12_Lock_policyE1EED1Ev
   594: 0000000000025e30    24 FUNC    GLOBAL DEFAULT   12 _ZN5dwarf14at_byte_strideERKNS_3dieEPNS_12expr_contextE
   595: 0000000000018fb2   912 FUNC    GLOBAL DEFAULT   12 _ZNK5dwarf16compilation_unit14get_line_tableEv
   596: 000000000001f8c2   360 FUNC    WEAK   DEFAULT   12 _ZNSt6vectorIN5dwarf14attribute_specESaIS1_EE17_M_realloc_insertIJS1_EEEvN9__gnu_cxx17__normal_iteratorIPS1_S3_EEDpOT_
   597: 00000000000165e0     0 FUNC    GLOBAL DEFAULT  UND memset@GLIBC_2.27
   598: 00000000000257ba    42 FUNC    GLOBAL DEFAULT   12 _ZN5dwarf7at_typeERKNS_3dieE
   599: 000000000002526c    40 FUNC    GLOBAL DEFAULT   12 _ZN5dwarf7at_nameB5cxx11ERKNS_3dieE
   600: 0000000000026022    36 FUNC    GLOBAL DEFAULT   12 _ZN5dwarf3elf20section_type_to_nameENS_12section_typeE
   601: 0000000000021656    26 FUNC    WEAK   DEFAULT   12 _ZN5dwarf10expr_errorD1Ev
   602: 00000000000165f0     0 FUNC    GLOBAL DEFAULT  UND _ZNSt7__cxx1112basic_stringIcSt11char_traitsIcESaIcEEC1EPKcRKS3_@GLIBCXX_3.4.21
   603: 0000000000016ad6     2 FUNC    WEAK   DEFAULT   12 _ZNSt23_Sp_counted_ptr_inplaceIN5dwarf3elf10elf_loaderIN3elf3elfEEESaIvELN9__gnu_cxx12_Lock_policyE1EED2Ev
   604: 0000000000025790    42 FUNC    GLOBAL DEFAULT   12 _ZN5dwarf16at_specificationERKNS_3dieE
   605: 00000000000196ec    84 FUNC    WEAK   DEFAULT   12 _ZNSt23_Sp_counted_ptr_inplaceIN5dwarf4unit4implESaIvELN9__gnu_cxx12_Lock_policyE1EE14_M_get_deleterERKSt9type_info
   606: 0000000000039000     0 NOTYPE  GLOBAL DEFAULT   22 __data_start
   607: 0000000000019914    26 FUNC    WEAK   DEFAULT   12 _ZN5dwarf9type_unitD1Ev
   608: 0000000000016600     0 FUNC    GLOBAL DEFAULT  UND _ZNKSt13runtime_error4whatEv@GLIBCXX_3.4
   609: 0000000000039648     0 NOTYPE  GLOBAL DEFAULT   25 _end
   610: 000000000002cb64     2 FUNC    WEAK   DEFAULT   12 _ZNSt23_Sp_counted_ptr_inplaceIN3elf11mmap_loaderESaIvELN9__gnu_cxx12_Lock_policyE1EED2Ev
   611: 0000000000038db8    56 OBJECT  WEAK   DEFAULT   20 _ZTVSt23_Sp_counted_ptr_inplaceIN3elf11mmap_loaderESaIvELN9__gnu_cxx12_Lock_policyE1EE
   612: 0000000000025d8a    22 FUNC    GLOBAL DEFAULT   12 _ZN5dwarf11at_bit_sizeERKNS_3dieEPNS_12expr_contextE
   613: 0000000000039008     8 OBJECT  WEAK   HIDDEN    22 DW.ref._ZTISt12out_of_range
   614: 000000000001d8c6    32 FUNC    GLOBAL DEFAULT   12 _ZN5dwarf5valueC1EPKNS_4unitENS_5DW_ATENS_7DW_FORMENS0_4typeEm
   615: 00000000000215f4    28 FUNC    GLOBAL DEFAULT   12 _ZNK5dwarf4expr8evaluateEPNS_12expr_contextE
   616: 000000000001f3c8   632 FUNC    GLOBAL DEFAULT   12 _ZN5dwarf14attribute_specC1ENS_5DW_ATENS_7DW_FORME
   617: 00000000000259a6    42 FUNC    GLOBAL DEFAULT   12 _ZN5dwarf17at_object_pointerERKNS_3dieE
   618: 0000000000024280   162 FUNC    WEAK   DEFAULT   12 _ZNSt8__detail18__to_chars_10_implIjEEvPcjT_
   619: 0000000000000000     0 FUNC    GLOBAL DEFAULT  UND _ZNSt12out_of_rangeD1Ev@GLIBCXX_3.4
   620: 00000000000217d4   222 FUNC    GLOBAL DEFAULT   12 _ZN5dwarf9rangelistC2ERKSt10shared_ptrINS_7sectionEEmjm
   621: 000000000002d270    23 OBJECT  WEAK   DEFAULT   13 _ZTSN5dwarf12format_errorE
   622: 0000000000025538   334 FUNC    GLOBAL DEFAULT   12 _ZN5dwarf23at_data_member_locationERKNS_3dieEPNS_12expr_contextEmm
   623: 0000000000023c38    44 FUNC    GLOBAL DEFAULT   12 _ZN5dwarf10line_table8iteratorC2EPKS0_m
   624: 000000000002aede   224 FUNC    GLOBAL DEFAULT   12 _ZN3elf7segmentC1ERKNS_3elfEPKv
   625: 0000000000024c30   600 FUNC    WEAK   DEFAULT   12 _ZNSt6vectorIN5dwarf10line_table4fileESaIS2_EE17_M_realloc_insertIJNSt7__cxx1112basic_stringIcSt11char_traitsIcESaIcEEEEEEvN9__gnu_cxx17__normal_iteratorIPS2_S4_EEDpOT_
   626: 0000000000019636    56 FUNC    WEAK   DEFAULT   12 _ZNSt6vectorIN5dwarf16compilation_unitESaIS1_EED2Ev
   627: 00000000000195c4     2 FUNC    WEAK   DEFAULT   12 _ZNSt23_Sp_counted_ptr_inplaceIN5dwarf4unit4implESaIvELN9__gnu_cxx12_Lock_policyE1EED2Ev
   628: 000000000002444e   256 FUNC    WEAK   DEFAULT   12 _ZNSt6vectorIhSaIhEE17_M_default_appendEm
   629: 0000000000025766    42 FUNC    GLOBAL DEFAULT   12 _ZN5dwarf11at_priorityERKNS_3dieE
   630: 00000000000256a8    36 FUNC    GLOBAL DEFAULT   12 _ZN5dwarf11at_encodingERKNS_3dieE
   631: 0000000000016610     0 FUNC    GLOBAL DEFAULT  UND _ZNSt11logic_errorC1EPKc@GLIBCXX_3.4.21
   632: 0000000000024f2a   610 FUNC    WEAK   DEFAULT   12 _ZNSt6vectorIN5dwarf10line_table4fileESaIS2_EE17_M_realloc_insertIJNSt7__cxx1112basic_stringIcSt11char_traitsIcESaIcEEERmSC_EEEvN9__gnu_cxx17__normal_iteratorIPS2_S4_EEDpOT_
   633: 000000000002cfa0    14 OBJECT  WEAK   DEFAULT   13 _ZTSN5dwarf4unitE
   634: 000000000002a3ec     6 FUNC    GLOBAL DEFAULT   12 _ZNK3elf7segment7get_hdrEv
   635: 0000000000016620     0 FUNC    GLOBAL DEFAULT  UND __cxa_rethrow@CXXABI_1.3
   636: 0000000000026efe   604 FUNC    GLOBAL DEFAULT   12 _ZN5dwarf9to_stringB5cxx11ENS_6DW_LNSE
   637: 0000000000016630     0 FUNC    GLOBAL DEFAULT  UND _ZNKSt11logic_error4whatEv@GLIBCXX_3.4
   638: 000000000001ab08    48 FUNC    GLOBAL DEFAULT   12 _ZN5dwarf6cursor6stringERNSt7__cxx1112basic_stringIcSt11char_traitsIcESaIcEEE
   639: 0000000000025a5a    42 FUNC    GLOBAL DEFAULT   12 _ZN5dwarf12at_signatureERKNS_3dieE
   640: 0000000000025fd8    74 FUNC    GLOBAL DEFAULT   12 _ZN5dwarf3elf20section_name_to_typeEPKcPNS_12section_typeE
   641: 000000000002cf20    52 OBJECT  WEAK   DEFAULT   13 _ZTSSt16_Sp_counted_baseILN9__gnu_cxx12_Lock_policyE1EE
   642: 0000000000018e7e   308 FUNC    GLOBAL DEFAULT   12 _ZNK5dwarf4unit4rootEv
   643: 0000000000016b98   114 FUNC    WEAK   DEFAULT   12 _ZN5dwarf3elf10elf_loaderIN3elf3elfEED2Ev
   644: 000000000002cff8    37 OBJECT  WEAK   DEFAULT   13 _ZTSN5dwarf3elf10elf_loaderIN3elf3elfEEE
   645: 0000000000039618     0 NOTYPE  GLOBAL DEFAULT   25 __bss_start
   646: 0000000000016f0a   132 FUNC    GLOBAL DEFAULT   12 _ZN5dwarf4unitD2Ev
   647: 000000000001a98c   152 FUNC    WEAK   DEFAULT   12 _ZNSt8__detail9_Map_baseImSt4pairIKmN5dwarf12abbrev_entryEESaIS5_ENS_10_Select1stESt8equal_toImESt4hashImENS_18_Mod_range_hashingENS_20_Default_ranged_hashENS_20_Prime_rehash_policyENS_17_Hashtable_traitsILb0ELb0ELb1EEELb1EEixERS2_
   648: 0000000000016640     0 FUNC    GLOBAL DEFAULT  UND _ZSt24__throw_out_of_range_fmtPKcz@GLIBCXX_3.4.20
   649: 000000000002aa9a    20 FUNC    GLOBAL DEFAULT   12 _ZNK3elf3sym8get_nameEPm
   650: 000000000002aaae   364 FUNC    GLOBAL DEFAULT   12 _ZN3elf6symtabC2ENS_3elfEPKvmNS_6strtabE
   651: 000000000002b89e     2 FUNC    WEAK   DEFAULT   12 _ZNSt23_Sp_counted_ptr_inplaceIN3elf3elf4implESaIvELN9__gnu_cxx12_Lock_policyE1EED1Ev
   652: 0000000000016650     0 FUNC    GLOBAL DEFAULT  UND _ZNSt12out_of_rangeC1ERKNSt7__cxx1112basic_stringIcSt11char_traitsIcESaIcEEE@GLIBCXX_3.4.21
   653: 000000000002a4b2     6 FUNC    GLOBAL DEFAULT   12 _ZNK3elf7section7get_hdrEv
   654: 0000000000025ac8    34 FUNC    GLOBAL DEFAULT   12 _ZN5dwarf13at_enum_classERKNS_3dieE
   655: 00000000000221da    60 FUNC    GLOBAL DEFAULT   12 _ZN5dwarf10line_table4fileC2ENSt7__cxx1112basic_stringIcSt11char_traitsIcESaIcEEEmm
   656: 000000000002173c    76 FUNC    WEAK   DEFAULT   12 _ZN5dwarf12expr_context10deref_sizeEmj
   657: 000000000002518c   184 FUNC    WEAK   DEFAULT   12 _ZNSt6vectorIN5dwarf10line_table4fileESaIS2_EE12emplace_backIJNSt7__cxx1112basic_stringIcSt11char_traitsIcESaIcEEERmSC_EEEvDpOT_
   658: 0000000000025a16    34 FUNC    GLOBAL DEFAULT   12 _ZN5dwarf7at_pureERKNS_3dieE
   659: 0000000000025e00    24 FUNC    GLOBAL DEFAULT   12 _ZN5dwarf12at_allocatedERKNS_3dieEPNS_12expr_contextE
   660: 000000000002b926    14 FUNC    WEAK   DEFAULT   12 _ZNSt23_Sp_counted_ptr_inplaceIN3elf3elf4implESaIvELN9__gnu_cxx12_Lock_policyE1EE10_M_destroyEv
   661: 000000000002a2e8     6 FUNC    GLOBAL DEFAULT   12 _ZNK3elf3elf7get_hdrEv
   662: 0000000000023c8a    44 FUNC    GLOBAL DEFAULT   12 _ZNK5dwarf10line_table3endEv
   663: 0000000000016660     0 FUNC    GLOBAL DEFAULT  UND _ZNSt7__cxx1112basic_stringIcSt11char_traitsIcESaIcEE10_M_replaceEmmPKcm@GLIBCXX_3.4.21
   664: 0000000000024322    74 FUNC    WEAK   DEFAULT   12 _ZNSt7__cxx119to_stringEj
   665: 000000000001bb4e   282 FUNC    WEAK   DEFAULT   12 _ZNSt6vectorISt4pairIN5dwarf5DW_ATENS1_5valueEESaIS4_EE17_M_realloc_insertIJS4_EEEvN9__gnu_cxx17__normal_iteratorIPS4_S6_EEDpOT_
   666: 000000000002afbe   228 FUNC    GLOBAL DEFAULT   12 _ZN3elf7sectionC2ERKNS_3elfEPKv
   667: 000000000001db64    68 FUNC    GLOBAL DEFAULT   12 _ZNK5dwarf5value9as_stringB5cxx11Ev
   668: 0000000000016fb2     6 FUNC    GLOBAL DEFAULT   12 _ZNK5dwarf4unit4dataEv
   669: 000000000002cef0    24 OBJECT  WEAK   DEFAULT   13 _ZTISt11_Mutex_baseILN9__gnu_cxx12_Lock_policyE1EE
   670: 0000000000021654     2 FUNC    WEAK   DEFAULT   12 _ZN5dwarf12expr_contextD2Ev
   671: 000000000002cdc0    88 FUNC    GLOBAL DEFAULT   12 __libc_csu_init
   672: 00000000000247ba   398 FUNC    WEAK   DEFAULT   12 _ZNSt6vectorINSt7__cxx1112basic_stringIcSt11char_traitsIcESaIcEEESaIS5_EE17_M_realloc_insertIJS5_EEEvN9__gnu_cxx17__normal_iteratorIPS5_S7_EEDpOT_
   673: 0000000000030fd8    20 OBJECT  WEAK   DEFAULT   13 _ZTSN3elf11mmap_loaderE
   674: 000000000002d0a0    24 OBJECT  WEAK   DEFAULT   13 _ZTISt23_Sp_counted_ptr_inplaceIN5dwarf3elf10elf_loaderIN3elf3elfEEESaIvELN9__gnu_cxx12_Lock_policyE1EE
   675: 000000000001fa32  7106 FUNC    GLOBAL DEFAULT   12 _ZNK5dwarf4expr8evaluateEPNS_12expr_contextERKSt16initializer_listImE
   676: 0000000000016670     0 FUNC    GLOBAL DEFAULT  UND lseek@GLIBC_2.27
   677: 00000000000232f6  1616 FUNC    GLOBAL DEFAULT   12 _ZN5dwarf10line_table8iterator4stepEPNS_6cursorE
   678: 000000000002b89a     2 FUNC    WEAK   DEFAULT   12 _ZNSt23_Sp_counted_ptr_inplaceIN3elf7section4implESaIvELN9__gnu_cxx12_Lock_policyE1EED2Ev
   679: 000000000001c282   964 FUNC    GLOBAL DEFAULT   12 _ZNK5dwarf5value12as_uconstantEv
   680: 0000000000023dba   458 FUNC    GLOBAL DEFAULT   12 _ZNK5dwarf10line_table8get_fileEj
   681: 000000000002c810   258 FUNC    WEAK   DEFAULT   12 _ZNSt6vectorIN3elf7segmentESaIS1_EE17_M_realloc_insertIJS1_EEEvN9__gnu_cxx17__normal_iteratorIPS1_S3_EEDpOT_
   682: 000000000001a774   150 FUNC    WEAK   DEFAULT   12 _ZNSt8__detail9_Map_baseImSt4pairIKmN5dwarf9type_unitEESaIS5_ENS_10_Select1stESt8equal_toImESt4hashImENS_18_Mod_range_hashingENS_20_Default_ranged_hashENS_20_Prime_rehash_policyENS_17_Hashtable_traitsILb0ELb0ELb1EEELb1EEixERS2_
   683: 000000000001b530    40 FUNC    GLOBAL DEFAULT   12 _ZNK5dwarf3die3hasENS_5DW_ATE
   684: 0000000000019b24   484 FUNC    WEAK   DEFAULT   12 _ZNSt23_Sp_counted_ptr_inplaceIN5dwarf5dwarf4implESaIvELN9__gnu_cxx12_Lock_policyE1EE10_M_disposeEv
   685: 000000000002cbce    14 FUNC    WEAK   DEFAULT   12 _ZNSt23_Sp_counted_ptr_inplaceIN3elf11mmap_loaderESaIvELN9__gnu_cxx12_Lock_policyE1EED0Ev
   686: 0000000000021ba4   546 FUNC    GLOBAL DEFAULT   12 _ZNK5dwarf9rangelist8containsEm
   687: 0000000000021fb2   228 FUNC    WEAK   DEFAULT   12 _ZNSt6vectorImSaImEE17_M_realloc_insertIJRKmEEEvN9__gnu_cxx17__normal_iteratorIPmS1_EEDpOT_
   688: 00000000000259f4    34 FUNC    GLOBAL DEFAULT   12 _ZN5dwarf12at_elementalERKNS_3dieE
   689: 000000000002adf4   182 FUNC    GLOBAL DEFAULT   12 _ZN3elf6symtab8iteratorC1ERKS0_PKc
   690: 000000000001730c  1546 FUNC    GLOBAL DEFAULT   12 _ZN5dwarf16compilation_unitC2ERKNS_5dwarfEm
   691: 0000000000026624   270 FUNC    GLOBAL DEFAULT   12 _ZN5dwarf9to_stringB5cxx11ENS_6DW_ENDE
   692: 000000000002cfc0    27 OBJECT  WEAK   DEFAULT   13 _ZTSN5dwarf16compilation_unitE
   693: 0000000000016cee   338 FUNC    WEAK   DEFAULT   12 _ZN5dwarf3elf10elf_loaderIN3elf3elfEE4loadENS_12section_typeEPm
   694: 000000000001b668    58 FUNC    GLOBAL DEFAULT   12 _ZN5dwarf3die8iteratorC1EPKNS_4unitEm
   695: 00000000000252f8    40 FUNC    GLOBAL DEFAULT   12 _ZN5dwarf8at_discrERKNS_3dieE
   696: 0000000000016680     0 FUNC    GLOBAL DEFAULT  UND _ZNSt13runtime_errorC1ERKNSt7__cxx1112basic_stringIcSt11char_traitsIcESaIcEEE@GLIBCXX_3.4.21
   697: 000000000001abd2   758 FUNC    GLOBAL DEFAULT   12 _ZN5dwarf6cursor9skip_formENS_7DW_FORME
   698: 000000000002b0a2   142 FUNC    GLOBAL DEFAULT   12 _ZN3elf3symC1ENS_3elfEPKvNS_6strtabE
   699: 0000000000038a60    24 OBJECT  WEAK   DEFAULT   20 _ZTIN5dwarf10expr_errorE
   700: 000000000001f2e8    96 FUNC    WEAK   DEFAULT   12 _ZNSt8__detail14__to_chars_lenImEEjT_i
   701: 0000000000016fb8     6 FUNC    GLOBAL DEFAULT   12 _ZNK5dwarf9type_unit18get_type_signatureEv
   702: 0000000000016690     0 FUNC    GLOBAL DEFAULT  UND __cxa_end_catch@CXXABI_1.3
   703: 00000000000389b0    56 OBJECT  WEAK   DEFAULT   20 _ZTVSt23_Sp_counted_ptr_inplaceIN5dwarf5dwarf4implESaIvELN9__gnu_cxx12_Lock_policyE1EE
   704: 000000000002d158    16 OBJECT  UNIQUE DEFAULT   13 _ZZNSt19_Sp_make_shared_tag5_S_tiEvE5__tag
   705: 00000000000166a0     0 FUNC    GLOBAL DEFAULT  UND __gxx_personality_v0@CXXABI_1.3
   706: 000000000002a4ac     6 FUNC    GLOBAL DEFAULT   12 _ZNK3elf7segment8mem_sizeEv
   707: 0000000000030e18    83 OBJECT  WEAK   DEFAULT   13 _ZTSSt23_Sp_counted_ptr_inplaceIN3elf7segment4implESaIvELN9__gnu_cxx12_Lock_policyE1EE
   708: 0000000000023f94    14 FUNC    WEAK   DEFAULT   12 _ZNSt23_Sp_counted_ptr_inplaceIN5dwarf10line_table4implESaIvELN9__gnu_cxx12_Lock_policyE1EE10_M_destroyEv
   709: 000000000002c706   266 FUNC    WEAK   DEFAULT   12 _ZN3elf9canon_hdrINS_3SymEEEvPT_INS_5Elf64ELNS_10byte_orderE0EEPKvNS_8elfclassENS_7elfdataE
   710: 000000000002cfe0    24 OBJECT  WEAK   DEFAULT   13 _ZTIN5dwarf16compilation_unitE
   711: 0000000000025dd0    24 FUNC    GLOBAL DEFAULT   12 _ZN5dwarf14at_upper_boundERKNS_3dieEPNS_12expr_contextE
   712: 00000000000166b0     0 FUNC    GLOBAL DEFAULT  UND strncmp@GLIBC_2.27
   713: 000000000002bbc8   120 FUNC    WEAK   DEFAULT   12 _ZNSt23_Sp_counted_ptr_inplaceIN3elf6strtab4implESaIvELN9__gnu_cxx12_Lock_policyE1EE10_M_disposeEv
   714: 0000000000028aaa  2502 FUNC    GLOBAL DEFAULT   12 _ZN5dwarf9to_stringB5cxx11ENS_5DW_OPE
   715: 000000000002b8fc    14 FUNC    WEAK   DEFAULT   12 _ZNSt23_Sp_counted_ptr_inplaceIN3elf7section4implESaIvELN9__gnu_cxx12_Lock_policyE1EED0Ev
   716: 000000000001fa2a     8 FUNC    GLOBAL DEFAULT   12 _ZN5dwarf4exprC2EPKNS_4unitEmm
   717: 000000000001a524    56 FUNC    WEAK   DEFAULT   12 _ZNKSt10_HashtableImSt4pairIKmN5dwarf12abbrev_entryEESaIS4_ENSt8__detail10_Select1stESt8equal_toImESt4hashImENS6_18_Mod_range_hashingENS6_20_Default_ranged_hashENS6_20_Prime_rehash_policyENS6_17_Hashtable_traitsILb0ELb0ELb1EEEE19_M_find_before_nodeEmRS1_m
   718: 0000000000000000     0 OBJECT  GLOBAL DEFAULT  UND _ZTISt11range_error@GLIBCXX_3.4
   719: 0000000000023ff6   222 FUNC    WEAK   DEFAULT   12 _ZNSt23_Sp_counted_ptr_inplaceIN5dwarf10line_table4implESaIvELN9__gnu_cxx12_Lock_policyE1EE10_M_disposeEv
   720: 000000000001b16e    22 FUNC    GLOBAL DEFAULT   12 _ZN5dwarf3dieC2EPKNS_4unitE
   721: 0000000000038930    40 OBJECT  WEAK   DEFAULT   20 _ZTVN5dwarf12format_errorE
   722: 0000000000018bde   672 FUNC    GLOBAL DEFAULT   12 _ZN5dwarf4unit4impl13force_abbrevsEv
   723: 000000000002cc38    30 FUNC    WEAK   DEFAULT   12 _ZN3elf11mmap_loaderD2Ev
   724: 0000000000028184  2342 FUNC    GLOBAL DEFAULT   12 _ZN5dwarf9to_stringB5cxx11ENS_6DW_TAGE
   725: 0000000000030e70    83 OBJECT  WEAK   DEFAULT   13 _ZTSSt23_Sp_counted_ptr_inplaceIN3elf7section4implESaIvELN9__gnu_cxx12_Lock_policyE1EE
   726: 0000000000039000     0 NOTYPE  GLOBAL DEFAULT   22 __DATA_BEGIN__
   727: 000000000001aec8   406 FUNC    GLOBAL DEFAULT   12 _ZN5dwarf6cursor10subsectionEv
   728: 000000000001a8c8   196 FUNC    WEAK   DEFAULT   12 _ZNSt10_HashtableImSt4pairIKmN5dwarf12abbrev_entryEESaIS4_ENSt8__detail10_Select1stESt8equal_toImESt4hashImENS6_18_Mod_range_hashingENS6_20_Default_ranged_hashENS6_20_Prime_rehash_policyENS6_17_Hashtable_traitsILb0ELb0ELb1EEEE21_M_insert_unique_nodeEmmPNS6_10_Hash_nodeIS4_Lb0EEEm
   729: 000000000002b8a0    26 FUNC    WEAK   DEFAULT   12 _ZN3elf12format_errorD1Ev
   730: 000000000002cec0    47 OBJECT  WEAK   DEFAULT   13 _ZTSSt11_Mutex_baseILN9__gnu_cxx12_Lock_policyE1EE
   731: 000000000002aeaa    26 FUNC    GLOBAL DEFAULT   12 _ZNK3elf6symtab5beginEv
   732: 0000000000025382    40 FUNC    GLOBAL DEFAULT   12 _ZN5dwarf19at_common_referenceERKNS_3dieE
   733: 0000000000016fa8     4 FUNC    GLOBAL DEFAULT   12 _ZNK5dwarf4unit9get_dwarfEv
   734: 0000000000038918    24 OBJECT  WEAK   DEFAULT   20 _ZTISt23_Sp_counted_ptr_inplaceIN5dwarf4unit4implESaIvELN9__gnu_cxx12_Lock_policyE1EE
   735: 00000000000166c0     0 FUNC    GLOBAL DEFAULT  UND __cxa_throw@CXXABI_1.3
   736: 00000000000166d0     0 FUNC    GLOBAL DEFAULT  UND _ZNSt11range_errorC1EPKc@GLIBCXX_3.4.21
   737: 00000000000262f2   274 FUNC    GLOBAL DEFAULT   12 _ZN5dwarf9to_stringB5cxx11ENS_9DW_ACCESSE
   738: 00000000000181a6  1626 FUNC    GLOBAL DEFAULT   12 _ZN5dwarf9type_unitC1ERKNS_5dwarfEm
   739: 0000000000016ad6     2 FUNC    WEAK   DEFAULT   12 _ZNSt23_Sp_counted_ptr_inplaceIN5dwarf3elf10elf_loaderIN3elf3elfEEESaIvELN9__gnu_cxx12_Lock_policyE1EED1Ev
   740: 000000000001a120    44 FUNC    WEAK   DEFAULT   12 _ZNSt10_HashtableImSt4pairIKmN5dwarf9type_unitEESaIS4_ENSt8__detail10_Select1stESt8equal_toImESt4hashImENS6_18_Mod_range_hashingENS6_20_Default_ranged_hashENS6_20_Prime_rehash_policyENS6_17_Hashtable_traitsILb0ELb0ELb1EEEE12_Scoped_nodeD2Ev
   741: 000000000002b8ee    14 FUNC    WEAK   DEFAULT   12 _ZNSt23_Sp_counted_ptr_inplaceIN3elf7segment4implESaIvELN9__gnu_cxx12_Lock_policyE1EED0Ev
   742: 000000000001967c    14 FUNC    WEAK   DEFAULT   12 _ZNSt23_Sp_counted_ptr_inplaceIN5dwarf7sectionESaIvELN9__gnu_cxx12_Lock_policyE1EE10_M_destroyEv
   743: 0000000000022626  3280 FUNC    GLOBAL DEFAULT   12 _ZN5dwarf10line_tableC2ERKSt10shared_ptrINS_7sectionEEmjRKNSt7__cxx1112basic_stringIcSt11char_traitsIcESaIcEEESD_
   744: 0000000000025aea    42 FUNC    GLOBAL DEFAULT   12 _ZN5dwarf15at_linkage_nameB5cxx11ERKNS_3dieE
   745: 0000000000000000     0 OBJECT  GLOBAL DEFAULT  UND _ZTISt12out_of_range@GLIBCXX_3.4
   746: 0000000000016b5c    24 FUNC    WEAK   DEFAULT   12 _ZN5dwarf16compilation_unitD1Ev
   747: 0000000000038860    88 OBJECT  WEAK   DEFAULT   20 _ZTVN10__cxxabiv121__vmi_class_type_infoE@CXXABI_1.3
   748: 0000000000000000     0 NOTYPE  WEAK   DEFAULT  UND _ITM_deregisterTMCloneTable
   749: 0000000000039648     0 NOTYPE  GLOBAL DEFAULT   25 __BSS_END__
   750: 00000000000166e0     0 FUNC    GLOBAL DEFAULT  UND fprintf@GLIBC_2.27
   751: 000000000002aede   224 FUNC    GLOBAL DEFAULT   12 _ZN3elf7segmentC2ERKNS_3elfEPKv
   752: 00000000000166f0     0 FUNC    GLOBAL DEFAULT  UND _Unwind_Resume@GCC_3.0
   753: 0000000000016700     0 FUNC    GLOBAL DEFAULT  UND _ZNSt11logic_errorD2Ev@GLIBCXX_3.4
   754: 0000000000000000     0 OBJECT  GLOBAL DEFAULT  UND _ZTISt11logic_error@GLIBCXX_3.4
   755: 000000000002b950    14 FUNC    WEAK   DEFAULT   12 _ZNSt23_Sp_counted_ptr_inplaceIN3elf6strtab4implESaIvELN9__gnu_cxx12_Lock_policyE1EE10_M_destroyEv
   756: 00000000000276ea   748 FUNC    GLOBAL DEFAULT   12 _ZN5dwarf9to_stringB5cxx11ENS_6DW_ATEE
   757: 0000000000038bb8    24 OBJECT  WEAK   DEFAULT   20 _ZTISt23_Sp_counted_ptr_inplaceIN3elf6strtab4implESaIvELN9__gnu_cxx12_Lock_policyE1EE
   758: 0000000000016710     0 FUNC    GLOBAL DEFAULT  UND _ZNSt7__cxx1112basic_stringIcSt11char_traitsIcESaIcEE9_M_createERmm@GLIBCXX_3.4.21
   759: 00000000000258c2    42 FUNC    GLOBAL DEFAULT   12 _ZN5dwarf14at_descriptionB5cxx11ERKNS_3dieE
   760: 000000000002c5a8   350 FUNC    WEAK   DEFAULT   12 _ZN3elf9canon_hdrINS_4ShdrEEEvPT_INS_5Elf64ELNS_10byte_orderE0EEPKvNS_8elfclassENS_7elfdataE
   761: 0000000000025a38    34 FUNC    GLOBAL DEFAULT   12 _ZN5dwarf12at_recursiveERKNS_3dieE
   762: 000000000002b8ba    38 FUNC    WEAK   DEFAULT   12 _ZN3elf12format_errorD0Ev
   763: 000000000002ce18     2 FUNC    GLOBAL DEFAULT   12 __libc_csu_fini
   764: 0000000000016720     0 FUNC    GLOBAL DEFAULT  UND __cxa_atexit@GLIBC_2.27
   765: 0000000000016730     0 FUNC    GLOBAL DEFAULT  UND _ZNSt7__cxx1112basic_stringIcSt11char_traitsIcESaIcEE9_M_mutateEmmPKcm@GLIBCXX_3.4.21
   766: 0000000000016740     0 FUNC    GLOBAL DEFAULT  UND __cxa_guard_acquire@CXXABI_1.3
   767: 0000000000038af0    24 OBJECT  WEAK   DEFAULT   20 _ZTISt23_Sp_counted_ptr_inplaceIN5dwarf10line_table4implESaIvELN9__gnu_cxx12_Lock_policyE1EE
   768: 0000000000023f86    14 FUNC    WEAK   DEFAULT   12 _ZNSt23_Sp_counted_ptr_inplaceIN5dwarf10line_table4implESaIvELN9__gnu_cxx12_Lock_policyE1EED0Ev
   769: 0000000000038ab0    64 OBJECT  WEAK   DEFAULT   20 _ZTVN5dwarf12expr_contextE
   770: 0000000000016aec    84 FUNC    WEAK   DEFAULT   12 _ZNSt23_Sp_counted_ptr_inplaceIN5dwarf3elf10elf_loaderIN3elf3elfEEESaIvELN9__gnu_cxx12_Lock_policyE1EE14_M_get_deleterERKSt9type_info
   771: 0000000000000000     0 OBJECT  GLOBAL DEFAULT  UND _ZTVSt12system_error@GLIBCXX_3.4.11
   772: 000000000002573c    42 FUNC    GLOBAL DEFAULT   12 _ZN5dwarf16at_namelist_itemERKNS_3dieE
   773: 0000000000024e88   162 FUNC    WEAK   DEFAULT   12 _ZNSt6vectorIN5dwarf10line_table4fileESaIS2_EE12emplace_backIJNSt7__cxx1112basic_stringIcSt11char_traitsIcESaIcEEEEEEvDpOT_
   774: 0000000000038a20    24 OBJECT  WEAK   DEFAULT   20 _ZTIN5dwarf19value_type_mismatchE
   775: 000000000001f802   192 FUNC    WEAK   DEFAULT   12 _ZNSt6vectorIN5dwarf14attribute_specESaIS1_EE16_M_shrink_to_fitEv
   776: 0000000000023946   754 FUNC    GLOBAL DEFAULT   12 _ZN5dwarf10line_table8iteratorppEv
   777: 00000000000388d0    24 OBJECT  WEAK   DEFAULT   20 _ZTIN5dwarf9type_unitE
   778: 00000000000221da    60 FUNC    GLOBAL DEFAULT   12 _ZN5dwarf10line_table4fileC1ENSt7__cxx1112basic_stringIcSt11char_traitsIcESaIcEEEmm
   779: 000000000001ba86   200 FUNC    GLOBAL DEFAULT   12 _ZNK5dwarf3die10attributesEv
   780: 0000000000018800   990 FUNC    GLOBAL DEFAULT   12 _ZNK5dwarf5dwarf13get_type_unitEm
   781: 000000000001b668    58 FUNC    GLOBAL DEFAULT   12 _ZN5dwarf3die8iteratorC2EPKNS_4unitEm
   782: 000000000002bc40   120 FUNC    WEAK   DEFAULT   12 _ZNSt23_Sp_counted_ptr_inplaceIN3elf7section4implESaIvELN9__gnu_cxx12_Lock_policyE1EE10_M_disposeEv
   783: 0000000000016750     0 FUNC    GLOBAL DEFAULT  UND _ZNSt7__cxx1112basic_stringIcSt11char_traitsIcESaIcEE14_M_replace_auxEmmmc@GLIBCXX_3.4.21
   784: 000000000002d0b8    32 OBJECT  WEAK   DEFAULT   13 _ZTVN5dwarf4unitE
   785: 000000000001d8e6   638 FUNC    GLOBAL DEFAULT   12 _ZNK5dwarf5value12as_rangelistEv
   786: 0000000000030f20    82 OBJECT  WEAK   DEFAULT   13 _ZTSSt23_Sp_counted_ptr_inplaceIN3elf6symtab4implESaIvELN9__gnu_cxx12_Lock_policyE1EE
   787: 0000000000026404   270 FUNC    GLOBAL DEFAULT   12 _ZN5dwarf9to_stringB5cxx11ENS_13DW_VIRTUALITYE
   788: 000000000002aa46    84 FUNC    GLOBAL DEFAULT   12 _ZNK3elf3elf11get_sectionERKNSt7__cxx1112basic_stringIcSt11char_traitsIcESaIcEEE
   789: 0000000000024948   124 FUNC    WEAK   DEFAULT   12 _ZNSt6vectorINSt7__cxx1112basic_stringIcSt11char_traitsIcESaIcEEESaIS5_EE12emplace_backIJS5_EEEvDpOT_
   790: 000000000002cf80    16 OBJECT  WEAK   DEFAULT   13 _ZTSN5dwarf6loaderE
   791: 000000000002a33c    88 FUNC    GLOBAL DEFAULT   12 _ZNK3elf3elf11get_sectionEj
   792: 000000000001bedc   934 FUNC    GLOBAL DEFAULT   12 _ZNK5dwarf5value8as_blockEPm
   793: 0000000000016760     0 FUNC    GLOBAL DEFAULT  UND printf@GLIBC_2.27
   794: 0000000000016770     0 FUNC    GLOBAL DEFAULT  UND _ZNSt13runtime_errorC2EPKc@GLIBCXX_3.4.21
   795: 000000000001961a    14 FUNC    WEAK   DEFAULT   12 _ZNSt23_Sp_counted_ptr_inplaceIN5dwarf7sectionESaIvELN9__gnu_cxx12_Lock_policyE1EED0Ev
   796: 0000000000016780     0 FUNC    GLOBAL DEFAULT  UND memmove@GLIBC_2.27
   797: 0000000000000000     0 FUNC    WEAK   DEFAULT  UND __cxa_pure_virtual@CXXABI_1.3
   798: 000000000002cb64     2 FUNC    WEAK   DEFAULT   12 _ZNSt23_Sp_counted_ptr_inplaceIN3elf11mmap_loaderESaIvELN9__gnu_cxx12_Lock_policyE1EED1Ev
   799: 000000000002697e   318 FUNC    GLOBAL DEFAULT   12 _ZN5dwarf9to_stringB5cxx11ENS_6DW_LNEE
   800: 000000000002aec4    26 FUNC    GLOBAL DEFAULT   12 _ZNK3elf6symtab3endEv
   801: 0000000000000000     0 NOTYPE  WEAK   DEFAULT  UND _ITM_registerTMCloneTable
   802: 0000000000016898    90 FUNC    GLOBAL DEFAULT   12 _Z15dump_line_tableRKN5dwarf10line_tableE
   803: 00000000000167a0     0 FUNC    GLOBAL DEFAULT  UND _ZNSt7__cxx1112basic_stringIcSt11char_traitsIcESaIcEE6appendEPKc@GLIBCXX_3.4.21
   804: 0000000000038978    56 OBJECT  WEAK   DEFAULT   20 _ZTVSt23_Sp_counted_ptr_inplaceIN5dwarf7sectionESaIvELN9__gnu_cxx12_Lock_policyE1EE
   805: 000000000002ceb0    16 OBJECT  WEAK   DEFAULT   13 _ZTIN9__gnu_cxx7__mutexE
   806: 00000000000223b0   630 FUNC    GLOBAL DEFAULT   12 _ZN5dwarf10line_table4impl15read_file_entryEPNS_6cursorEb
   807: 00000000000167b0     0 FUNC    GLOBAL DEFAULT  UND _ZNSt11range_errorC1ERKNSt7__cxx1112basic_stringIcSt11char_traitsIcESaIcEEE@GLIBCXX_3.4.21
   808: 00000000000216a4    76 FUNC    WEAK   DEFAULT   12 _ZN5dwarf12expr_context16form_tls_addressEm
   809: 00000000000245ac   110 FUNC    WEAK   DEFAULT   12 _ZStplIcSt11char_traitsIcESaIcEENSt7__cxx1112basic_stringIT_T0_T1_EERKS8_SA_
   810: 000000000002c482   294 FUNC    WEAK   DEFAULT   12 _ZN3elf9canon_hdrINS_4PhdrEEEvPT_INS_5Elf64ELNS_10byte_orderE0EEPKvNS_8elfclassENS_7elfdataE
   811: 0000000000021b1c   100 FUNC    GLOBAL DEFAULT   12 _ZN5dwarf9rangelist8iteratorC1ERKSt10shared_ptrINS_7sectionEEm
   812: 000000000001efb6    26 FUNC    WEAK   DEFAULT   12 _ZN5dwarf19value_type_mismatchD1Ev
   813: 00000000000167c0     0 FUNC    GLOBAL DEFAULT  UND __errno_location@GLIBC_2.27
   814: 0000000000000000     0 FUNC    GLOBAL DEFAULT  UND _ZNSt15underflow_errorD1Ev@GLIBCXX_3.4
   815: 000000000001992e    38 FUNC    WEAK   DEFAULT   12 _ZN5dwarf9type_unitD0Ev
   816: 0000000000019980   222 FUNC    WEAK   DEFAULT   12 _ZNSt6vectorIN5dwarf14attribute_specESaIS1_EEaSERKS3_
   817: 0000000000038ce0    56 OBJECT  WEAK   DEFAULT   20 _ZTVSt23_Sp_counted_ptr_inplaceIN3elf6strtab4implESaIvELN9__gnu_cxx12_Lock_policyE1EE
   818: 0000000000025806    36 FUNC    GLOBAL DEFAULT   12 _ZN5dwarf13at_virtualityERKNS_3dieE
   819: 0000000000000000     0 OBJECT  GLOBAL DEFAULT  UND _ZTISt13runtime_error@GLIBCXX_3.4
   820: 0000000000019e40   398 FUNC    WEAK   DEFAULT   12 _ZNSt23_Sp_counted_ptr_inplaceIN5dwarf4unit4implESaIvELN9__gnu_cxx12_Lock_policyE1EE10_M_disposeEv
   821: 0000000000025482    34 FUNC    GLOBAL DEFAULT   12 _ZN5dwarf13at_prototypedERKNS_3dieE
   822: 000000000002582a    34 FUNC    GLOBAL DEFAULT   12 _ZN5dwarf11at_entry_pcERKNS_3dieE
   823: 000000000002b9c0    26 FUNC    WEAK   DEFAULT   12 _ZN3elf21section_type_mismatchD2Ev
   824: 00000000000167d0     0 FUNC    GLOBAL DEFAULT  UND close@GLIBC_2.27
   825: 0000000000038d50    16 OBJECT  WEAK   DEFAULT   20 _ZTIN3elf6loaderE
   826: 0000000000025338    34 FUNC    GLOBAL DEFAULT   12 _ZN5dwarf13at_visibilityERKNS_3dieE
   827: 000000000001960c    14 FUNC    WEAK   DEFAULT   12 _ZNSt23_Sp_counted_ptr_inplaceIN5dwarf5dwarf4implESaIvELN9__gnu_cxx12_Lock_policyE1EED0Ev
   828: 00000000000167e0     0 FUNC    GLOBAL DEFAULT  UND _ZNSt15underflow_errorC1EPKc@GLIBCXX_3.4.21
   829: 00000000000167f0     0 FUNC    GLOBAL DEFAULT  UND _ZNSt11logic_errorC2ERKNSt7__cxx1112basic_stringIcSt11char_traitsIcESaIcEEE@GLIBCXX_3.4.21

Histogram for bucket list length (total of 131 buckets):
 Length  Number     % of total  Coverage
      0  27         ( 20.6%)
      1  50         ( 38.2%)     25.9%
      2  33         ( 25.2%)     60.1%
      3  13         (  9.9%)     80.3%
      4  4          (  3.1%)     88.6%
      5  2          (  1.5%)     93.8%
      6  2          (  1.5%)    100.0%

Histogram for `.gnu.hash' bucket list length (total of 131 buckets):
 Length  Number     % of total  Coverage
      0  33         ( 25.2%)
      1  45         ( 34.4%)     25.3%
      2  33         ( 25.2%)     62.4%
      3  14         ( 10.7%)     86.0%
      4  5          (  3.8%)     97.2%
      5  1          (  0.8%)    100.0%

Version symbols section '.gnu.version' contains 194 entries:
 Addr: 0x0000000000014e2a  Offset: 0x004e2a  Link: 5 (.dynsym)
  000:   0 (*local*)       6 (GLIBCXX_3.4.11)    2 (GLIBCXX_3.4)   2 (GLIBCXX_3.4)
  004:   2 (GLIBCXX_3.4)   6 (GLIBCXX_3.4.11)    2 (GLIBCXX_3.4)   2 (GLIBCXX_3.4)
  008:   2 (GLIBCXX_3.4)   2 (GLIBCXX_3.4)   1 (*global*)      2 (GLIBCXX_3.4)
  00c:   6 (GLIBCXX_3.4.11)    1 (*global*)      2 (GLIBCXX_3.4)   2 (GLIBCXX_3.4)
  010:   1 (*global*)      1 (*global*)      2 (GLIBCXX_3.4)   4 (GCC_4.3.0)  
  014:   1 (*global*)      1 (*global*)      1 (*global*)      7 (CXXABI_1.3) 
  018:   1 (*global*)      1 (*global*)      3 (GLIBC_2.27)    1 (*global*)   
  01c:   3 (GLIBC_2.27)    1 (*global*)      1 (*global*)      1 (*global*)   
  020:   1 (*global*)      3 (GLIBC_2.27)    5 (GLIBCXX_3.4.21)    5 (GLIBCXX_3.4.21) 
  024:   5 (GLIBCXX_3.4.21)    2 (GLIBCXX_3.4)   1 (*global*)      2 (GLIBCXX_3.4)
  028:   c (GCC_3.0)       3 (GLIBC_2.27)    7 (CXXABI_1.3)    5 (GLIBCXX_3.4.21) 
  02c:   1 (*global*)      1 (*global*)      3 (GLIBC_2.27)    2 (GLIBCXX_3.4)
  030:   1 (*global*)      1 (*global*)      7 (CXXABI_1.3)    1 (*global*)   
  034:   3 (GLIBC_2.27)    1 (*global*)      7 (CXXABI_1.3)    1 (*global*)   
  038:   1 (*global*)      3 (GLIBC_2.27)    1 (*global*)      5 (GLIBCXX_3.4.21) 
  03c:   1 (*global*)      1 (*global*)      1 (*global*)      3 (GLIBC_2.27) 
  040:   1 (*global*)      3 (GLIBC_2.27)    5 (GLIBCXX_3.4.21)    1 (*global*)   
  044:   5 (GLIBCXX_3.4.21)    1 (*global*)      1 (*global*)      3 (GLIBC_2.27) 
  048:   7 (CXXABI_1.3)    5 (GLIBCXX_3.4.21)    3 (GLIBC_2.27)    1 (*global*)   
  04c:   1 (*global*)      1 (*global*)      1 (*global*)      1 (*global*)   
  050:   1 (*global*)      1 (*global*)      5 (GLIBCXX_3.4.21)    1 (*global*)   
  054:   5 (GLIBCXX_3.4.21)    1 (*global*)      5 (GLIBCXX_3.4.21)    5 (GLIBCXX_3.4.21) 
  058:   5 (GLIBCXX_3.4.21)    2 (GLIBCXX_3.4)   3 (GLIBC_2.27)    5 (GLIBCXX_3.4.21) 
  05c:   1 (*global*)      1 (*global*)      5 (GLIBCXX_3.4.21)    1 (*global*)   
  060:   5 (GLIBCXX_3.4.21)    1 (*global*)      1 (*global*)      7 (CXXABI_1.3) 
  064:   3 (GLIBC_2.27)    3 (GLIBC_2.27)    1 (*global*)      1 (*global*)   
  068:   5 (GLIBCXX_3.4.21)    2 (GLIBCXX_3.4)   1 (*global*)      1 (*global*)   
  06c:   2 (GLIBCXX_3.4)   1 (*global*)      2 (GLIBCXX_3.4)   1 (*global*)   
  070:   1 (*global*)      1 (*global*)      5 (GLIBCXX_3.4.21)    1 (*global*)   
  074:   1 (*global*)      1 (*global*)      1 (*global*)      7 (CXXABI_1.3) 
  078:   1 (*global*)      1 (*global*)      1 (*global*)      5 (GLIBCXX_3.4.21) 
  07c:   1 (*global*)      3 (GLIBC_2.27)    1 (*global*)      2 (GLIBCXX_3.4)
  080:   2 (GLIBCXX_3.4)   2 (GLIBCXX_3.4)   3 (GLIBC_2.27)    1 (*global*)   
  084:   1 (*global*)      2 (GLIBCXX_3.4)   1 (*global*)      1 (*global*)   
  088:   2 (GLIBCXX_3.4)   1 (*global*)      1 (*global*)      1 (*global*)   
  08c:   1 (*global*)      4 (GCC_4.3.0)     5 (GLIBCXX_3.4.21)    1 (*global*)   
  090:   1 (*global*)      1 (*global*)      a (GLIBCXX_3.4.18)    1 (*global*)   
  094:   1 (*global*)      7 (CXXABI_1.3)    8 (GLIBCXX_3.4.29)    9 (GLIBC_2.32) 
  098:   1 (*global*)      7 (CXXABI_1.3)    1 (*global*)      2 (GLIBCXX_3.4)
  09c:   1 (*global*)      1 (*global*)      1 (*global*)      5 (GLIBCXX_3.4.21) 
  0a0:   1 (*global*)      3 (GLIBC_2.27)    1 (*global*)      1 (*global*)   
  0a4:   1 (*global*)      1 (*global*)      1 (*global*)      1 (*global*)   
  0a8:   3 (GLIBC_2.27)    7 (CXXABI_1.3)    5 (GLIBCXX_3.4.21)    7 (CXXABI_1.3) 
  0ac:   7 (CXXABI_1.3)    5 (GLIBCXX_3.4.21)    1 (*global*)      7 (CXXABI_1.3) 
  0b0:   7 (CXXABI_1.3)    2 (GLIBCXX_3.4)   2 (GLIBCXX_3.4)   1 (*global*)   
  0b4:   1 (*global*)      3 (GLIBC_2.27)    1 (*global*)      1 (*global*)   
  0b8:   1 (*global*)      1 (*global*)      1 (*global*)      5 (GLIBCXX_3.4.21) 
  0bc:   5 (GLIBCXX_3.4.21)    b (GLIBCXX_3.4.20)    1 (*global*)      3 (GLIBC_2.27) 
  0c0:   1 (*global*)      1 (*global*)   

Version needs section '.gnu.version_r' contains 3 entries:
 Addr: 0x0000000000014fb0  Offset: 0x004fb0  Link: 6 (.dynstr)
  000000: Version: 1  File: libgcc_s.so.1  Cnt: 2
  0x0010:   Name: GCC_3.0  Flags: none  Version: 12
  0x0020:   Name: GCC_4.3.0  Flags: none  Version: 4
  0x0030: Version: 1  File: libc.so.6  Cnt: 2
  0x0040:   Name: GLIBC_2.32  Flags: none  Version: 9
  0x0050:   Name: GLIBC_2.27  Flags: none  Version: 3
  0x0060: Version: 1  File: libstdc++.so.6  Cnt: 7
  0x0070:   Name: GLIBCXX_3.4.20  Flags: none  Version: 11
  0x0080:   Name: GLIBCXX_3.4.18  Flags: none  Version: 10
  0x0090:   Name: GLIBCXX_3.4.29  Flags: none  Version: 8
  0x00a0:   Name: CXXABI_1.3  Flags: none  Version: 7
  0x00b0:   Name: GLIBCXX_3.4.11  Flags: none  Version: 6
  0x00c0:   Name: GLIBCXX_3.4.21  Flags: none  Version: 5
  0x00d0:   Name: GLIBCXX_3.4  Flags: none  Version: 2

Displaying notes found in: .note.ABI-tag
  Owner                Data size 	Description
  GNU                  0x00000010	NT_GNU_ABI_TAG (ABI version tag)	    OS: Linux, ABI: 4.15.0
Attribute Section: riscv
File Attributes
  Tag_RISCV_stack_align: 16-bytes
  Tag_RISCV_arch: "rv64i2p0_m2p0_a2p0_f2p0_d2p0_c2p0"
