	.file	"dump-segments.cc"
	.option nopic
	.attribute arch, "rv64i2p0_m2p0_a2p0_f2p0_d2p0"
	.attribute unaligned_access, 0
	.attribute stack_align, 16
	.text
.Ltext0:
	.section	.text._ZNSt16_Sp_counted_baseILN9__gnu_cxx12_Lock_policyE1EE10_M_releaseEv,"axG",@progbits,_ZNSt16_Sp_counted_baseILN9__gnu_cxx12_Lock_policyE1EE10_M_releaseEv,comdat
	.align	2
	.weak	_ZNSt16_Sp_counted_baseILN9__gnu_cxx12_Lock_policyE1EE10_M_releaseEv
	.type	_ZNSt16_Sp_counted_baseILN9__gnu_cxx12_Lock_policyE1EE10_M_releaseEv, @function
_ZNSt16_Sp_counted_baseILN9__gnu_cxx12_Lock_policyE1EE10_M_releaseEv:
.LVL0:
.LFB1527:
.LM1:
	.cfi_startproc
.LM2:
	addi	sp,sp,-16
	.cfi_def_cfa_offset 16
	sd	ra,8(sp)
	sd	s0,0(sp)
	.cfi_offset 1, -8
	.cfi_offset 8, -16
	mv	s0,a0
.LM3:
.LM4:
.LVL1:
.LBB247:
.LBI247:
.LM5:
.LBB248:
.LM6:
.LBB249:
.LBI249:
.LM7:
.LBB250:
.LM8:
.LBE250:
.LBE249:
.LM9:
	lui	a5,%hi(__libc_single_threaded)
	lbu	a5,%lo(__libc_single_threaded)(a5)
	beq	a5,zero,.L2
.LM10:
.LVL2:
.LBB251:
.LBI251:
.LM11:
.LBB252:
.LM12:
.LM13:
	lw	a0,48(a0)
.LVL3:
.LM14:
.LM15:
	addiw	a5,a0,-1
	sw	a5,48(s0)
.LM16:
.LVL4:
.L3:
.LM17:
.LBE252:
.LBE251:
.LBE248:
.LBE247:
.LM18:
	li	a5,1
	beq	a0,a5,.L8
.L1:
.LM19:
	ld	ra,8(sp)
	.cfi_remember_state
	.cfi_restore 1
	ld	s0,0(sp)
	.cfi_restore 8
.LVL5:
.LM20:
	addi	sp,sp,16
	.cfi_def_cfa_offset 0
	jr	ra
.LVL6:
.L2:
	.cfi_restore_state
.LBB254:
.LBB253:
.LM21:
.LM22:
	li	a1,-1
	addi	a0,a0,48
	call	_ZN9__gnu_cxx18__exchange_and_addEPVii
.LVL7:
.LM23:
	j	.L3
.LVL8:
.L8:
.LM24:
.LBE253:
.LBE254:
.LM25:
.LBB255:
.LBI255:
.LM26:
.LBB256:
.LM27:
	ld	a5,0(s0)
	ld	a5,16(a5)
	mv	a0,s0
	jalr	a5
.LVL9:
.LM28:
	fence	iorw,iorw
.LVL10:
.LBB257:
.LBI257:
.LM29:
.LBB258:
.LM30:
.LBB259:
.LBI259:
.LM31:
.LBB260:
.LM32:
.LBE260:
.LBE259:
.LM33:
	lui	a5,%hi(__libc_single_threaded)
	lbu	a5,%lo(__libc_single_threaded)(a5)
	beq	a5,zero,.L5
.LM34:
.LVL11:
.LBB261:
.LBI261:
.LM35:
.LBB262:
.LM36:
.LM37:
	lw	a0,52(s0)
.LVL12:
.LM38:
.LM39:
	addiw	a5,a0,-1
	sw	a5,52(s0)
.LM40:
.LVL13:
.L6:
.LM41:
.LBE262:
.LBE261:
.LBE258:
.LBE257:
.LM42:
	li	a5,1
	bne	a0,a5,.L1
.LM43:
	ld	a5,0(s0)
	ld	a5,24(a5)
	mv	a0,s0
	jalr	a5
.LVL14:
.LM44:
.LBE256:
.LBE255:
.LM45:
	j	.L1
.LVL15:
.L5:
.LBB266:
.LBB265:
.LBB264:
.LBB263:
.LM46:
.LM47:
	li	a1,-1
	addi	a0,s0,52
	call	_ZN9__gnu_cxx18__exchange_and_addEPVii
.LVL16:
.LM48:
	j	.L6
.LBE263:
.LBE264:
.LBE265:
.LBE266:
	.cfi_endproc
.LFE1527:
	.size	_ZNSt16_Sp_counted_baseILN9__gnu_cxx12_Lock_policyE1EE10_M_releaseEv, .-_ZNSt16_Sp_counted_baseILN9__gnu_cxx12_Lock_policyE1EE10_M_releaseEv
	.section	.rodata.str1.8,"aMS",@progbits,1
	.align	3
.LC0:
	.string	"usage: %s elf-file\n"
	.align	3
.LC1:
	.string	"%s: %s\n"
	.align	3
.LC2:
	.string	"PhysAddr"
	.align	3
.LC3:
	.string	"VirtAddr"
	.align	3
.LC4:
	.string	"Offset"
	.align	3
.LC5:
	.string	"Type"
	.align	3
.LC6:
	.string	"  %-16s  %-16s   %-16s   %s\n"
	.align	3
.LC7:
	.string	"Align"
	.align	3
.LC8:
	.string	"Flags"
	.align	3
.LC9:
	.string	"MemSiz"
	.align	3
.LC10:
	.string	"FileSiz"
	.align	3
.LC11:
	.string	" "
	.align	3
.LC12:
	.string	"  %-16s  %-16s   %-16s  %6s %5s\n"
	.align	3
.LC13:
	.string	"   %-16s 0x%016lx 0x%016lx 0x%016lx\n"
	.align	3
.LC14:
	.string	""
	.align	3
.LC15:
	.string	"   %-16s 0x%016lx 0x%016lx %-5s %-5lx\n"
	.text
	.align	2
	.globl	main
	.type	main, @function
main:
.LVL17:
.LFB2311:
.LM49:
	.cfi_startproc
	.cfi_personality 0x9b,DW.ref.__gxx_personality_v0
	.cfi_lsda 0x1b,.LLSDA2311
.LM50:
	addi	sp,sp,-144
	.cfi_def_cfa_offset 144
	sd	ra,136(sp)
	sd	s0,128(sp)
	sd	s1,120(sp)
	sd	s2,112(sp)
	sd	s3,104(sp)
	sd	s4,96(sp)
	sd	s5,88(sp)
	sd	s6,80(sp)
	sd	s7,72(sp)
	sd	s8,64(sp)
	.cfi_offset 1, -8
	.cfi_offset 8, -16
	.cfi_offset 9, -24
	.cfi_offset 18, -32
	.cfi_offset 19, -40
	.cfi_offset 20, -48
	.cfi_offset 21, -56
	.cfi_offset 22, -64
	.cfi_offset 23, -72
	.cfi_offset 24, -80
	mv	s0,a1
.LM51:
	li	a5,2
	bne	a0,a5,.L34
.LM52:
.LM53:
	li	a1,0
.LVL18:
.LM54:
	ld	a0,8(s0)
.LVL19:
.LEHB0:
.LM55:
	call	open
.LVL20:
	mv	a1,a0
.LVL21:
.LM56:
	blt	a0,zero,.L35
.LM57:
.LM58:
	addi	a0,sp,48
.LVL22:
.LM59:
	call	_ZN3elf18create_mmap_loaderEi
.LVL23:
.LEHE0:
.LM60:
	addi	a1,sp,48
	addi	a0,sp,32
.LEHB1:
	call	_ZN3elf3elfC1ERKSt10shared_ptrINS_6loaderEE
.LVL24:
.LEHE1:
	j	.L36
.LVL25:
.L34:
.LM61:
.LM62:
	ld	a2,0(a1)
	lui	a1,%hi(.LC0)
	addi	a1,a1,%lo(.LC0)
	lui	a5,%hi(stderr)
	ld	a0,%lo(stderr)(a5)
.LVL26:
.LEHB2:
.LM63:
	call	fprintf
.LVL27:
.LM64:
.LM65:
	li	a0,2
	j	.L32
.LVL28:
.L35:
.LM66:
.LM67:
	lui	a5,%hi(stderr)
	ld	s1,%lo(stderr)(a5)
	ld	s0,8(s0)
.LVL29:
.LM68:
	call	__errno_location
.LVL30:
.LM69:
	lw	a0,0(a0)
	call	strerror
.LVL31:
	mv	a3,a0
	mv	a2,s0
	lui	a1,%hi(.LC1)
	addi	a1,a1,%lo(.LC1)
	mv	a0,s1
	call	fprintf
.LVL32:
.LEHE2:
.LM70:
.LM71:
	li	a0,1
	j	.L32
.LVL33:
.L36:
.LBB267:
.LBI267:
.LM72:
.LBB268:
.LBB269:
.LBI269:
.LM73:
.LBB270:
.LBI270:
.LM74:
.LBB271:
.LM75:
	ld	a0,56(sp)
.LM76:
	beq	a0,zero,.L13
.LM77:
	call	_ZNSt16_Sp_counted_baseILN9__gnu_cxx12_Lock_policyE1EE10_M_releaseEv
.LVL34:
.L13:
.LM78:
.LBE271:
.LBE270:
.LBE269:
.LBE268:
.LBE267:
.LM79:
.LM80:
	lui	a4,%hi(.LC2)
	addi	a4,a4,%lo(.LC2)
	lui	a3,%hi(.LC3)
	addi	a3,a3,%lo(.LC3)
	lui	a2,%hi(.LC4)
	addi	a2,a2,%lo(.LC4)
	lui	a1,%hi(.LC5)
	addi	a1,a1,%lo(.LC5)
	lui	a0,%hi(.LC6)
	addi	a0,a0,%lo(.LC6)
.LEHB3:
	call	printf
.LVL35:
.LM81:
.LM82:
	lui	a5,%hi(.LC7)
	addi	a5,a5,%lo(.LC7)
	lui	a4,%hi(.LC8)
	addi	a4,a4,%lo(.LC8)
	lui	a3,%hi(.LC9)
	addi	a3,a3,%lo(.LC9)
	lui	a2,%hi(.LC10)
	addi	a2,a2,%lo(.LC10)
	lui	a1,%hi(.LC11)
	addi	a1,a1,%lo(.LC11)
	lui	a0,%hi(.LC12)
	addi	a0,a0,%lo(.LC12)
	call	printf
.LVL36:
.LM83:
.LBB272:
.LM84:
	addi	a0,sp,32
	call	_ZNK3elf3elf8segmentsEv
.LVL37:
.LBB273:
.LBI273:
.LM85:
.LBB274:
.LBI274:
.LM86:
.LBB275:
.LM87:
	ld	s1,0(a0)
.LVL38:
.LM88:
.LBE275:
.LBE274:
.LBE273:
.LBB276:
.LBI276:
.LM89:
.LBB277:
.LBI277:
.LM90:
.LBB278:
.LM91:
	ld	s5,8(a0)
.LVL39:
.LM92:
.LBE278:
.LBE277:
.LBE276:
.LM93:
	beq	s1,s5,.L14
.LBB279:
.LM94:
	lui	s6,%hi(.LC13)
.LBB280:
.LBB281:
.LBB282:
.LBB283:
.LM95:
	addi	s2,sp,16
.LBE283:
.LBE282:
.LBE281:
.LBE280:
.LM96:
	lui	s7,%hi(.LC14)
	lui	s8,%hi(.LC15)
	j	.L17
.LVL40:
.L37:
.LM97:
	mv	s0,a0
.LVL41:
.LM98:
.LM99:
	lw	a1,0(a0)
	mv	a0,sp
	call	_ZN3elf9to_stringB5cxx11ENS_2ptE
.LVL42:
.LEHE3:
.LBB299:
.LBI299:
.LM100:
.LBB300:
.LBI300:
.LM101:
.LM102:
.LBE300:
.LBE299:
.LM103:
	ld	a4,24(s0)
	ld	a3,16(s0)
	ld	a2,8(s0)
	ld	a1,0(sp)
	addi	a0,s6,%lo(.LC13)
.LEHB4:
	call	printf
.LVL43:
.LEHE4:
.LBB301:
.LBI280:
.LM104:
.LBB298:
.LBB294:
.LBI282:
.LM105:
.LBB293:
.LBB284:
.LBI284:
.LM106:
.LBB285:
.LBI285:
.LM107:
.LBB286:
.LM108:
	ld	a0,0(sp)
.LVL44:
.LM109:
.LBE286:
.LBE285:
.LBB287:
.LBI287:
.LM110:
.LM111:
.LBE287:
.LBE284:
.LM112:
	beq	a0,s2,.L15
.LVL45:
.LBB288:
.LBI288:
.LM113:
.LBB289:
.LBB290:
.LBI290:
.LM114:
.LBB291:
.LBI291:
.LM115:
.LBB292:
.LM116:
	call	_ZdlPv
.LVL46:
.L15:
.LM117:
.LBE292:
.LBE291:
.LBE290:
.LBE289:
.LBE288:
.LBE293:
.LBE294:
.LBB295:
.LBI295:
.LM118:
.LBB296:
.LBI296:
.LM119:
.LBB297:
.LBI297:
.LM120:
.LM121:
.LBE297:
.LBE296:
.LBE295:
.LBE298:
.LBE301:
.LM122:
.LM123:
	ld	s3,32(s0)
.LM124:
	ld	s4,40(s0)
.LM125:
	lw	a1,4(s0)
	mv	a0,sp
.LEHB5:
	call	_ZN3elf9to_stringB5cxx11ENS_2pfE
.LVL47:
.LEHE5:
.LBB302:
.LBI302:
.LM126:
.LBB303:
.LBI303:
.LM127:
.LM128:
.LBE303:
.LBE302:
.LM129:
	ld	a5,48(s0)
	ld	a4,0(sp)
	mv	a3,s4
	mv	a2,s3
	addi	a1,s7,%lo(.LC14)
	addi	a0,s8,%lo(.LC15)
.LEHB6:
	call	printf
.LVL48:
.LEHE6:
.LBB304:
.LBI304:
.LM130:
.LBB305:
.LBB306:
.LBI306:
.LM131:
.LBB307:
.LBB308:
.LBI308:
.LM132:
.LBB309:
.LBI309:
.LM133:
.LBB310:
.LM134:
	ld	a0,0(sp)
.LVL49:
.LM135:
.LBE310:
.LBE309:
.LBB311:
.LBI311:
.LM136:
.LM137:
.LBE311:
.LBE308:
.LM138:
	beq	a0,s2,.L16
.LVL50:
.LBB312:
.LBI312:
.LM139:
.LBB313:
.LBB314:
.LBI314:
.LM140:
.LBB315:
.LBI315:
.LM141:
.LBB316:
.LM142:
	call	_ZdlPv
.LVL51:
.L16:
.LM143:
.LBE316:
.LBE315:
.LBE314:
.LBE313:
.LBE312:
.LBE307:
.LBE306:
.LBB317:
.LBI317:
.LM144:
.LBB318:
.LBI318:
.LM145:
.LBB319:
.LBI319:
.LM146:
.LM147:
.LBE319:
.LBE318:
.LBE317:
.LBE305:
.LBE304:
.LBE279:
.LM148:
.LM149:
	addi	s1,s1,16
.LVL52:
.LM150:
	beq	s5,s1,.L14
.LVL53:
.L17:
.LBB368:
.LM151:
.LM152:
	mv	a0,s1
.LEHB7:
	call	_ZNK3elf7segment7get_hdrEv
.LVL54:
.LEHE7:
.LM153:
	j	.L37
.LVL55:
.L14:
.LM154:
.LBE368:
.LBE272:
.LM155:
.LBB371:
.LBI371:
.LM156:
.LBB372:
.LBB373:
.LBB374:
.LBI374:
.LM157:
.LBB375:
.LBI375:
.LM158:
.LBB376:
.LBI376:
.LM159:
.LBB377:
.LM160:
	ld	a0,40(sp)
.LM161:
	beq	a0,zero,.L18
.LM162:
	call	_ZNSt16_Sp_counted_baseILN9__gnu_cxx12_Lock_policyE1EE10_M_releaseEv
.LVL56:
.L18:
.LM163:
.LBE377:
.LBE376:
.LBE375:
.LBE374:
.LBE373:
.LBE372:
.LBE371:
.LM164:
	li	a0,0
.LVL57:
.L32:
.LM165:
	ld	ra,136(sp)
	.cfi_remember_state
	.cfi_restore 1
	ld	s0,128(sp)
	.cfi_restore 8
	ld	s1,120(sp)
	.cfi_restore 9
	ld	s2,112(sp)
	.cfi_restore 18
	ld	s3,104(sp)
	.cfi_restore 19
	ld	s4,96(sp)
	.cfi_restore 20
	ld	s5,88(sp)
	.cfi_restore 21
	ld	s6,80(sp)
	.cfi_restore 22
	ld	s7,72(sp)
	.cfi_restore 23
	ld	s8,64(sp)
	.cfi_restore 24
	addi	sp,sp,144
	.cfi_def_cfa_offset 0
	jr	ra
.LVL58:
.L27:
	.cfi_restore_state
.LBB378:
.LBB379:
.LBB380:
.LBB381:
.LBB382:
.LM166:
	mv	s0,a0
.LVL59:
.LM167:
.LBE382:
.LBE381:
.LBE380:
.LBE379:
.LBI378:
.LM168:
.LBB386:
.LBB385:
.LBI380:
.LM169:
.LBB384:
.LBI381:
.LM170:
.LBB383:
.LM171:
	ld	a0,56(sp)
.LM172:
	beq	a0,zero,.L20
.LM173:
	call	_ZNSt16_Sp_counted_baseILN9__gnu_cxx12_Lock_policyE1EE10_M_releaseEv
.LVL60:
.L20:
.LM174:
	mv	a0,s0
.LEHB8:
	call	_Unwind_Resume
.LVL61:
.L29:
.LM175:
.LBE383:
.LBE384:
.LBE385:
.LBE386:
.LBE378:
.LBB387:
.LBB369:
.LBB320:
.LBB321:
.LBB322:
.LBB323:
.LBB324:
.LBB325:
.LBB326:
.LM176:
	mv	s0,a0
.LVL62:
.LM177:
.LBE326:
.LBE325:
.LBE324:
.LBE323:
.LBE322:
.LBE321:
.LBI320:
.LM178:
.LBB341:
.LBB337:
.LBI322:
.LM179:
.LBB336:
.LBB330:
.LBI324:
.LM180:
.LBB328:
.LBI325:
.LM181:
.LBB327:
.LM182:
	ld	a0,0(sp)
.LVL63:
.LM183:
.LBE327:
.LBE328:
.LBB329:
.LBI329:
.LM184:
.LM185:
.LBE329:
.LBE330:
.LM186:
	addi	a5,sp,16
	beq	a0,a5,.L23
.LVL64:
.LBB331:
.LBI331:
.LM187:
.LBB332:
.LBB333:
.LBI333:
.LM188:
.LBB334:
.LBI334:
.LM189:
.LBB335:
.LM190:
	call	_ZdlPv
.LVL65:
.LM191:
.LBE335:
.LBE334:
.LBE333:
.LBE332:
.LBE331:
.LBE336:
.LBE337:
.LBB338:
.LBI338:
.LM192:
.LBB339:
.LBI339:
.LM193:
.LBB340:
.LBI340:
.LM194:
.L23:
.LM195:
.LBE340:
.LBE339:
.LBE338:
.LBE341:
.LBE320:
.LBE369:
.LBE387:
.LBB388:
.LBI388:
.LM196:
.LBB389:
.LBB390:
.LBI390:
.LM197:
.LBB391:
.LBI391:
.LM198:
.LBB392:
.LBI392:
.LM199:
.LBB393:
.LM200:
	ld	a0,40(sp)
.LM201:
	beq	a0,zero,.L26
.LM202:
	call	_ZNSt16_Sp_counted_baseILN9__gnu_cxx12_Lock_policyE1EE10_M_releaseEv
.LVL66:
.L26:
.LM203:
	mv	a0,s0
	call	_Unwind_Resume
.LVL67:
.LEHE8:
.L30:
.LM204:
.LBE393:
.LBE392:
.LBE391:
.LBE390:
.LBE389:
.LBE388:
.LBB399:
.LBB370:
.LBB342:
.LBB343:
.LBB344:
.LBB345:
.LBB346:
.LBB347:
.LBB348:
.LM205:
	mv	s0,a0
.LVL68:
.LM206:
.LBE348:
.LBE347:
.LBE346:
.LBE345:
.LBE344:
.LBE343:
.LBI342:
.LM207:
.LBB367:
.LBB362:
.LBI344:
.LM208:
.LBB360:
.LBB352:
.LBI346:
.LM209:
.LBB350:
.LBI347:
.LM210:
.LBB349:
.LM211:
	ld	a0,0(sp)
.LVL69:
.LM212:
.LBE349:
.LBE350:
.LBB351:
.LBI351:
.LM213:
.LM214:
.LBE351:
.LBE352:
.LM215:
	addi	a5,sp,16
	beq	a0,a5,.L23
.LVL70:
.LBB353:
.LBI353:
.LM216:
.LBB354:
.LBB355:
.LBI355:
.LM217:
.LBB356:
.LBI356:
.LM218:
.LBB357:
.LM219:
	call	_ZdlPv
.LVL71:
.LM220:
.LBE357:
.LBE356:
.LBE355:
.LBE354:
.LBE353:
.LBE360:
.LBE362:
.LBB363:
.LBI363:
.LM221:
.LBB364:
.LBI364:
.LM222:
.LBB365:
.LBI365:
.LM223:
.LM224:
.LBE365:
.LBE364:
.LBE363:
.LBB366:
.LBB361:
.LBB359:
.LBB358:
.LM225:
	j	.L23
.LVL72:
.L28:
.LM226:
.LBE358:
.LBE359:
.LBE361:
.LBE366:
.LBE367:
.LBE342:
.LBE370:
.LBE399:
.LBB400:
.LBB398:
.LBB397:
.LBB396:
.LBB395:
.LBB394:
.LM227:
	mv	s0,a0
	j	.L23
.LBE394:
.LBE395:
.LBE396:
.LBE397:
.LBE398:
.LBE400:
	.cfi_endproc
.LFE2311:
	.globl	__gxx_personality_v0
	.section	.gcc_except_table,"a",@progbits
.LLSDA2311:
	.byte	0xff
	.byte	0xff
	.byte	0x3
	.byte	0x75
	.4byte	.LEHB0-.LFB2311
	.4byte	.LEHE0-.LEHB0
	.4byte	0
	.byte	0
	.4byte	.LEHB1-.LFB2311
	.4byte	.LEHE1-.LEHB1
	.4byte	.L27-.LFB2311
	.byte	0
	.4byte	.LEHB2-.LFB2311
	.4byte	.LEHE2-.LEHB2
	.4byte	0
	.byte	0
	.4byte	.LEHB3-.LFB2311
	.4byte	.LEHE3-.LEHB3
	.4byte	.L28-.LFB2311
	.byte	0
	.4byte	.LEHB4-.LFB2311
	.4byte	.LEHE4-.LEHB4
	.4byte	.L29-.LFB2311
	.byte	0
	.4byte	.LEHB5-.LFB2311
	.4byte	.LEHE5-.LEHB5
	.4byte	.L28-.LFB2311
	.byte	0
	.4byte	.LEHB6-.LFB2311
	.4byte	.LEHE6-.LEHB6
	.4byte	.L30-.LFB2311
	.byte	0
	.4byte	.LEHB7-.LFB2311
	.4byte	.LEHE7-.LEHB7
	.4byte	.L28-.LFB2311
	.byte	0
	.4byte	.LEHB8-.LFB2311
	.4byte	.LEHE8-.LEHB8
	.4byte	0
	.byte	0
	.text
	.size	main, .-main
.Letext0:
	.section	.sdata.DW.ref.__gxx_personality_v0,"awG",@progbits,DW.ref.__gxx_personality_v0,comdat
	.align	3
	.type	DW.ref.__gxx_personality_v0, @object
	.size	DW.ref.__gxx_personality_v0, 8
DW.ref.__gxx_personality_v0:
	.dword	__gxx_personality_v0
	.ident	"GCC: (g2ee5e430018) 12.2.0"
	.section	.note.GNU-stack,"",@progbits
