
dump-tree:     file format elf64-littleriscv


Disassembly of section .plt:

00000000000162c0 <_PROCEDURE_LINKAGE_TABLE_>:
   162c0:	97 33 02 00 33 03 c3 41 03 be 83 d5 13 03 43 fd     .3..3..A......C.
   162d0:	93 82 83 d5 13 53 13 00 83 b2 82 00 67 00 0e 00     .....S......g...

00000000000162e0 <operator new[](unsigned long)@plt>:
   162e0:	00023e17          	auipc	t3,0x23
   162e4:	d48e3e03          	ld	t3,-696(t3) # 39028 <operator new[](unsigned long)@GLIBCXX_3.4>
   162e8:	000e0367          	jalr	t1,0(t3)
   162ec:	00000013          	addi	zero,zero,0

00000000000162f0 <std::_Rb_tree_insert_and_rebalance(bool, std::_Rb_tree_node_base*, std::_Rb_tree_node_base*, std::_Rb_tree_node_base&)@plt>:
   162f0:	00023e17          	auipc	t3,0x23
   162f4:	d40e3e03          	ld	t3,-704(t3) # 39030 <std::_Rb_tree_insert_and_rebalance(bool, std::_Rb_tree_node_base*, std::_Rb_tree_node_base*, std::_Rb_tree_node_base&)@GLIBCXX_3.4>
   162f8:	000e0367          	jalr	t1,0(t3)
   162fc:	00000013          	addi	zero,zero,0

0000000000016300 <__gnu_cxx::__atomic_add(int volatile*, int)@plt>:
   16300:	00023e17          	auipc	t3,0x23
   16304:	d38e3e03          	ld	t3,-712(t3) # 39038 <__gnu_cxx::__atomic_add(int volatile*, int)@GLIBCXX_3.4>
   16308:	000e0367          	jalr	t1,0(t3)
   1630c:	00000013          	addi	zero,zero,0

0000000000016310 <strcmp@plt>:
   16310:	00023e17          	auipc	t3,0x23
   16314:	d30e3e03          	ld	t3,-720(t3) # 39040 <strcmp@GLIBC_2.27>
   16318:	000e0367          	jalr	t1,0(t3)
   1631c:	00000013          	addi	zero,zero,0

0000000000016320 <__bswapsi2@plt>:
   16320:	00023e17          	auipc	t3,0x23
   16324:	d28e3e03          	ld	t3,-728(t3) # 39048 <__bswapsi2@GCC_4.3.0>
   16328:	000e0367          	jalr	t1,0(t3)
   1632c:	00000013          	addi	zero,zero,0

0000000000016330 <__gnu_cxx::__exchange_and_add(int volatile*, int)@plt>:
   16330:	00023e17          	auipc	t3,0x23
   16334:	d20e3e03          	ld	t3,-736(t3) # 39050 <__gnu_cxx::__exchange_and_add(int volatile*, int)@GLIBCXX_3.4>
   16338:	000e0367          	jalr	t1,0(t3)
   1633c:	00000013          	addi	zero,zero,0

0000000000016340 <std::__cxx11::basic_string<char, std::char_traits<char>, std::allocator<char> >::insert(unsigned long, char const*)@plt>:
   16340:	00023e17          	auipc	t3,0x23
   16344:	d18e3e03          	ld	t3,-744(t3) # 39058 <std::__cxx11::basic_string<char, std::char_traits<char>, std::allocator<char> >::insert(unsigned long, char const*)@GLIBCXX_3.4.21>
   16348:	000e0367          	jalr	t1,0(t3)
   1634c:	00000013          	addi	zero,zero,0

0000000000016350 <std::__cxx11::basic_string<char, std::char_traits<char>, std::allocator<char> >::compare(char const*) const@plt>:
   16350:	00023e17          	auipc	t3,0x23
   16354:	d10e3e03          	ld	t3,-752(t3) # 39060 <std::__cxx11::basic_string<char, std::char_traits<char>, std::allocator<char> >::compare(char const*) const@GLIBCXX_3.4.21>
   16358:	000e0367          	jalr	t1,0(t3)
   1635c:	00000013          	addi	zero,zero,0

0000000000016360 <std::__cxx11::basic_string<char, std::char_traits<char>, std::allocator<char> >::resize(unsigned long, char)@plt>:
   16360:	00023e17          	auipc	t3,0x23
   16364:	d08e3e03          	ld	t3,-760(t3) # 39068 <std::__cxx11::basic_string<char, std::char_traits<char>, std::allocator<char> >::resize(unsigned long, char)@GLIBCXX_3.4.21>
   16368:	000e0367          	jalr	t1,0(t3)
   1636c:	00000013          	addi	zero,zero,0

0000000000016370 <std::__cxx11::basic_string<char, std::char_traits<char>, std::allocator<char> >::_M_append(char const*, unsigned long)@plt>:
   16370:	00023e17          	auipc	t3,0x23
   16374:	d00e3e03          	ld	t3,-768(t3) # 39070 <std::__cxx11::basic_string<char, std::char_traits<char>, std::allocator<char> >::_M_append(char const*, unsigned long)@GLIBCXX_3.4.21>
   16378:	000e0367          	jalr	t1,0(t3)
   1637c:	00000013          	addi	zero,zero,0

0000000000016380 <__libc_start_main@plt>:
   16380:	00023e17          	auipc	t3,0x23
   16384:	cf8e3e03          	ld	t3,-776(t3) # 39078 <__libc_start_main@GLIBC_2.27>
   16388:	000e0367          	jalr	t1,0(t3)
   1638c:	00000013          	addi	zero,zero,0

0000000000016390 <std::__throw_bad_alloc()@plt>:
   16390:	00023e17          	auipc	t3,0x23
   16394:	cf0e3e03          	ld	t3,-784(t3) # 39080 <std::__throw_bad_alloc()@GLIBCXX_3.4>
   16398:	000e0367          	jalr	t1,0(t3)
   1639c:	00000013          	addi	zero,zero,0

00000000000163a0 <std::runtime_error::runtime_error(char const*)@plt>:
   163a0:	00023e17          	auipc	t3,0x23
   163a4:	ce8e3e03          	ld	t3,-792(t3) # 39088 <std::runtime_error::runtime_error(char const*)@GLIBCXX_3.4.21>
   163a8:	000e0367          	jalr	t1,0(t3)
   163ac:	00000013          	addi	zero,zero,0

00000000000163b0 <__cxa_begin_catch@plt>:
   163b0:	00023e17          	auipc	t3,0x23
   163b4:	ce0e3e03          	ld	t3,-800(t3) # 39090 <__cxa_begin_catch@CXXABI_1.3>
   163b8:	000e0367          	jalr	t1,0(t3)
   163bc:	00000013          	addi	zero,zero,0

00000000000163c0 <strlen@plt>:
   163c0:	00023e17          	auipc	t3,0x23
   163c4:	cd8e3e03          	ld	t3,-808(t3) # 39098 <strlen@GLIBC_2.27>
   163c8:	000e0367          	jalr	t1,0(t3)
   163cc:	00000013          	addi	zero,zero,0

00000000000163d0 <__cxa_allocate_exception@plt>:
   163d0:	00023e17          	auipc	t3,0x23
   163d4:	cd0e3e03          	ld	t3,-816(t3) # 390a0 <__cxa_allocate_exception@CXXABI_1.3>
   163d8:	000e0367          	jalr	t1,0(t3)
   163dc:	00000013          	addi	zero,zero,0

00000000000163e0 <std::__throw_length_error(char const*)@plt>:
   163e0:	00023e17          	auipc	t3,0x23
   163e4:	cc8e3e03          	ld	t3,-824(t3) # 390a8 <std::__throw_length_error(char const*)@GLIBCXX_3.4>
   163e8:	000e0367          	jalr	t1,0(t3)
   163ec:	00000013          	addi	zero,zero,0

00000000000163f0 <std::__cxx11::basic_string<char, std::char_traits<char>, std::allocator<char> >::_M_assign(std::__cxx11::basic_string<char, std::char_traits<char>, std::allocator<char> > const&)@plt>:
   163f0:	00023e17          	auipc	t3,0x23
   163f4:	cc0e3e03          	ld	t3,-832(t3) # 390b0 <std::__cxx11::basic_string<char, std::char_traits<char>, std::allocator<char> >::_M_assign(std::__cxx11::basic_string<char, std::char_traits<char>, std::allocator<char> > const&)@GLIBCXX_3.4.21>
   163f8:	000e0367          	jalr	t1,0(t3)
   163fc:	00000013          	addi	zero,zero,0

0000000000016400 <std::_V2::system_category()@plt>:
   16400:	00023e17          	auipc	t3,0x23
   16404:	cb8e3e03          	ld	t3,-840(t3) # 390b8 <std::_V2::system_category()@GLIBCXX_3.4.21>
   16408:	000e0367          	jalr	t1,0(t3)
   1640c:	00000013          	addi	zero,zero,0

0000000000016410 <std::__cxx11::basic_string<char, std::char_traits<char>, std::allocator<char> >::basic_string(std::__cxx11::basic_string<char, std::char_traits<char>, std::allocator<char> >&&)@plt>:
   16410:	00023e17          	auipc	t3,0x23
   16414:	cb0e3e03          	ld	t3,-848(t3) # 390c0 <std::__cxx11::basic_string<char, std::char_traits<char>, std::allocator<char> >::basic_string(std::__cxx11::basic_string<char, std::char_traits<char>, std::allocator<char> >&&)@GLIBCXX_3.4.21>
   16418:	000e0367          	jalr	t1,0(t3)
   1641c:	00000013          	addi	zero,zero,0

0000000000016420 <open@plt>:
   16420:	00023e17          	auipc	t3,0x23
   16424:	ca8e3e03          	ld	t3,-856(t3) # 390c8 <open@GLIBC_2.27>
   16428:	000e0367          	jalr	t1,0(t3)
   1642c:	00000013          	addi	zero,zero,0

0000000000016430 <__cxa_guard_release@plt>:
   16430:	00023e17          	auipc	t3,0x23
   16434:	ca0e3e03          	ld	t3,-864(t3) # 390d0 <__cxa_guard_release@CXXABI_1.3>
   16438:	000e0367          	jalr	t1,0(t3)
   1643c:	00000013          	addi	zero,zero,0

0000000000016440 <mmap@plt>:
   16440:	00023e17          	auipc	t3,0x23
   16444:	c98e3e03          	ld	t3,-872(t3) # 390d8 <mmap@GLIBC_2.27>
   16448:	000e0367          	jalr	t1,0(t3)
   1644c:	00000013          	addi	zero,zero,0

0000000000016450 <std::_Rb_tree_increment(std::_Rb_tree_node_base*)@plt>:
   16450:	00023e17          	auipc	t3,0x23
   16454:	c90e3e03          	ld	t3,-880(t3) # 390e0 <std::_Rb_tree_increment(std::_Rb_tree_node_base*)@GLIBCXX_3.4>
   16458:	000e0367          	jalr	t1,0(t3)
   1645c:	00000013          	addi	zero,zero,0

0000000000016460 <std::__throw_logic_error(char const*)@plt>:
   16460:	00023e17          	auipc	t3,0x23
   16464:	c88e3e03          	ld	t3,-888(t3) # 390e8 <std::__throw_logic_error(char const*)@GLIBCXX_3.4>
   16468:	000e0367          	jalr	t1,0(t3)
   1646c:	00000013          	addi	zero,zero,0

0000000000016470 <__cxa_free_exception@plt>:
   16470:	00023e17          	auipc	t3,0x23
   16474:	c80e3e03          	ld	t3,-896(t3) # 390f0 <__cxa_free_exception@CXXABI_1.3>
   16478:	000e0367          	jalr	t1,0(t3)
   1647c:	00000013          	addi	zero,zero,0

0000000000016480 <munmap@plt>:
   16480:	00023e17          	auipc	t3,0x23
   16484:	c78e3e03          	ld	t3,-904(t3) # 390f8 <munmap@GLIBC_2.27>
   16488:	000e0367          	jalr	t1,0(t3)
   1648c:	00000013          	addi	zero,zero,0

0000000000016490 <std::__throw_bad_array_new_length()@plt>:
   16490:	00023e17          	auipc	t3,0x23
   16494:	c70e3e03          	ld	t3,-912(t3) # 39100 <std::__throw_bad_array_new_length()@GLIBCXX_3.4.29>
   16498:	000e0367          	jalr	t1,0(t3)
   1649c:	00000013          	addi	zero,zero,0

00000000000164a0 <__assert_fail@plt>:
   164a0:	00023e17          	auipc	t3,0x23
   164a4:	c68e3e03          	ld	t3,-920(t3) # 39108 <__assert_fail@GLIBC_2.27>
   164a8:	000e0367          	jalr	t1,0(t3)
   164ac:	00000013          	addi	zero,zero,0

00000000000164b0 <operator delete(void*)@plt>:
   164b0:	00023e17          	auipc	t3,0x23
   164b4:	c60e3e03          	ld	t3,-928(t3) # 39110 <operator delete(void*)@GLIBCXX_3.4>
   164b8:	000e0367          	jalr	t1,0(t3)
   164bc:	00000013          	addi	zero,zero,0

00000000000164c0 <operator new(unsigned long)@plt>:
   164c0:	00023e17          	auipc	t3,0x23
   164c4:	c58e3e03          	ld	t3,-936(t3) # 39118 <operator new(unsigned long)@GLIBCXX_3.4>
   164c8:	000e0367          	jalr	t1,0(t3)
   164cc:	00000013          	addi	zero,zero,0

00000000000164d0 <std::_Rb_tree_decrement(std::_Rb_tree_node_base*)@plt>:
   164d0:	00023e17          	auipc	t3,0x23
   164d4:	c50e3e03          	ld	t3,-944(t3) # 39120 <std::_Rb_tree_decrement(std::_Rb_tree_node_base*)@GLIBCXX_3.4>
   164d8:	000e0367          	jalr	t1,0(t3)
   164dc:	00000013          	addi	zero,zero,0

00000000000164e0 <std::runtime_error::~runtime_error()@plt>:
   164e0:	00023e17          	auipc	t3,0x23
   164e4:	c48e3e03          	ld	t3,-952(t3) # 39128 <std::runtime_error::~runtime_error()@GLIBCXX_3.4>
   164e8:	000e0367          	jalr	t1,0(t3)
   164ec:	00000013          	addi	zero,zero,0

00000000000164f0 <__bswapdi2@plt>:
   164f0:	00023e17          	auipc	t3,0x23
   164f4:	c40e3e03          	ld	t3,-960(t3) # 39130 <__bswapdi2@GCC_4.3.0>
   164f8:	000e0367          	jalr	t1,0(t3)
   164fc:	00000013          	addi	zero,zero,0

0000000000016500 <__dynamic_cast@plt>:
   16500:	00023e17          	auipc	t3,0x23
   16504:	c38e3e03          	ld	t3,-968(t3) # 39138 <__dynamic_cast@CXXABI_1.3>
   16508:	000e0367          	jalr	t1,0(t3)
   1650c:	00000013          	addi	zero,zero,0

0000000000016510 <std::__cxx11::basic_string<char, std::char_traits<char>, std::allocator<char> >::_M_construct(unsigned long, char)@plt>:
   16510:	00023e17          	auipc	t3,0x23
   16514:	c30e3e03          	ld	t3,-976(t3) # 39140 <std::__cxx11::basic_string<char, std::char_traits<char>, std::allocator<char> >::_M_construct(unsigned long, char)@GLIBCXX_3.4.21>
   16518:	000e0367          	jalr	t1,0(t3)
   1651c:	00000013          	addi	zero,zero,0

0000000000016520 <std::logic_error::logic_error(char const*)@plt>:
   16520:	00023e17          	auipc	t3,0x23
   16524:	c28e3e03          	ld	t3,-984(t3) # 39148 <std::logic_error::logic_error(char const*)@GLIBCXX_3.4.21>
   16528:	000e0367          	jalr	t1,0(t3)
   1652c:	00000013          	addi	zero,zero,0

0000000000016530 <strerror@plt>:
   16530:	00023e17          	auipc	t3,0x23
   16534:	c20e3e03          	ld	t3,-992(t3) # 39150 <strerror@GLIBC_2.27>
   16538:	000e0367          	jalr	t1,0(t3)
   1653c:	00000013          	addi	zero,zero,0

0000000000016540 <std::runtime_error::runtime_error(std::__cxx11::basic_string<char, std::char_traits<char>, std::allocator<char> > const&)@plt>:
   16540:	00023e17          	auipc	t3,0x23
   16544:	c18e3e03          	ld	t3,-1000(t3) # 39158 <std::runtime_error::runtime_error(std::__cxx11::basic_string<char, std::char_traits<char>, std::allocator<char> > const&)@GLIBCXX_3.4.21>
   16548:	000e0367          	jalr	t1,0(t3)
   1654c:	00000013          	addi	zero,zero,0

0000000000016550 <memcpy@plt>:
   16550:	00023e17          	auipc	t3,0x23
   16554:	c10e3e03          	ld	t3,-1008(t3) # 39160 <memcpy@GLIBC_2.27>
   16558:	000e0367          	jalr	t1,0(t3)
   1655c:	00000013          	addi	zero,zero,0

0000000000016560 <operator delete[](void*)@plt>:
   16560:	00023e17          	auipc	t3,0x23
   16564:	c08e3e03          	ld	t3,-1016(t3) # 39168 <operator delete[](void*)@GLIBCXX_3.4>
   16568:	000e0367          	jalr	t1,0(t3)
   1656c:	00000013          	addi	zero,zero,0

0000000000016570 <std::__detail::_Prime_rehash_policy::_M_need_rehash(unsigned long, unsigned long, unsigned long) const@plt>:
   16570:	00023e17          	auipc	t3,0x23
   16574:	c00e3e03          	ld	t3,-1024(t3) # 39170 <std::__detail::_Prime_rehash_policy::_M_need_rehash(unsigned long, unsigned long, unsigned long) const@GLIBCXX_3.4.18>
   16578:	000e0367          	jalr	t1,0(t3)
   1657c:	00000013          	addi	zero,zero,0

0000000000016580 <memset@plt>:
   16580:	00023e17          	auipc	t3,0x23
   16584:	bf8e3e03          	ld	t3,-1032(t3) # 39178 <memset@GLIBC_2.27>
   16588:	000e0367          	jalr	t1,0(t3)
   1658c:	00000013          	addi	zero,zero,0

0000000000016590 <std::__cxx11::basic_string<char, std::char_traits<char>, std::allocator<char> >::basic_string(char const*, std::allocator<char> const&)@plt>:
   16590:	00023e17          	auipc	t3,0x23
   16594:	bf0e3e03          	ld	t3,-1040(t3) # 39180 <std::__cxx11::basic_string<char, std::char_traits<char>, std::allocator<char> >::basic_string(char const*, std::allocator<char> const&)@GLIBCXX_3.4.21>
   16598:	000e0367          	jalr	t1,0(t3)
   1659c:	00000013          	addi	zero,zero,0

00000000000165a0 <std::runtime_error::what() const@plt>:
   165a0:	00023e17          	auipc	t3,0x23
   165a4:	be8e3e03          	ld	t3,-1048(t3) # 39188 <std::runtime_error::what() const@GLIBCXX_3.4>
   165a8:	000e0367          	jalr	t1,0(t3)
   165ac:	00000013          	addi	zero,zero,0

00000000000165b0 <std::logic_error::logic_error(char const*)@plt>:
   165b0:	00023e17          	auipc	t3,0x23
   165b4:	be0e3e03          	ld	t3,-1056(t3) # 39190 <std::logic_error::logic_error(char const*)@GLIBCXX_3.4.21>
   165b8:	000e0367          	jalr	t1,0(t3)
   165bc:	00000013          	addi	zero,zero,0

00000000000165c0 <__cxa_rethrow@plt>:
   165c0:	00023e17          	auipc	t3,0x23
   165c4:	bd8e3e03          	ld	t3,-1064(t3) # 39198 <__cxa_rethrow@CXXABI_1.3>
   165c8:	000e0367          	jalr	t1,0(t3)
   165cc:	00000013          	addi	zero,zero,0

00000000000165d0 <std::logic_error::what() const@plt>:
   165d0:	00023e17          	auipc	t3,0x23
   165d4:	bd0e3e03          	ld	t3,-1072(t3) # 391a0 <std::logic_error::what() const@GLIBCXX_3.4>
   165d8:	000e0367          	jalr	t1,0(t3)
   165dc:	00000013          	addi	zero,zero,0

00000000000165e0 <std::__throw_out_of_range_fmt(char const*, ...)@plt>:
   165e0:	00023e17          	auipc	t3,0x23
   165e4:	bc8e3e03          	ld	t3,-1080(t3) # 391a8 <std::__throw_out_of_range_fmt(char const*, ...)@GLIBCXX_3.4.20>
   165e8:	000e0367          	jalr	t1,0(t3)
   165ec:	00000013          	addi	zero,zero,0

00000000000165f0 <std::out_of_range::out_of_range(std::__cxx11::basic_string<char, std::char_traits<char>, std::allocator<char> > const&)@plt>:
   165f0:	00023e17          	auipc	t3,0x23
   165f4:	bc0e3e03          	ld	t3,-1088(t3) # 391b0 <std::out_of_range::out_of_range(std::__cxx11::basic_string<char, std::char_traits<char>, std::allocator<char> > const&)@GLIBCXX_3.4.21>
   165f8:	000e0367          	jalr	t1,0(t3)
   165fc:	00000013          	addi	zero,zero,0

0000000000016600 <std::__cxx11::basic_string<char, std::char_traits<char>, std::allocator<char> >::_M_replace(unsigned long, unsigned long, char const*, unsigned long)@plt>:
   16600:	00023e17          	auipc	t3,0x23
   16604:	bb8e3e03          	ld	t3,-1096(t3) # 391b8 <std::__cxx11::basic_string<char, std::char_traits<char>, std::allocator<char> >::_M_replace(unsigned long, unsigned long, char const*, unsigned long)@GLIBCXX_3.4.21>
   16608:	000e0367          	jalr	t1,0(t3)
   1660c:	00000013          	addi	zero,zero,0

0000000000016610 <lseek@plt>:
   16610:	00023e17          	auipc	t3,0x23
   16614:	bb0e3e03          	ld	t3,-1104(t3) # 391c0 <lseek@GLIBC_2.27>
   16618:	000e0367          	jalr	t1,0(t3)
   1661c:	00000013          	addi	zero,zero,0

0000000000016620 <std::runtime_error::runtime_error(std::__cxx11::basic_string<char, std::char_traits<char>, std::allocator<char> > const&)@plt>:
   16620:	00023e17          	auipc	t3,0x23
   16624:	ba8e3e03          	ld	t3,-1112(t3) # 391c8 <std::runtime_error::runtime_error(std::__cxx11::basic_string<char, std::char_traits<char>, std::allocator<char> > const&)@GLIBCXX_3.4.21>
   16628:	000e0367          	jalr	t1,0(t3)
   1662c:	00000013          	addi	zero,zero,0

0000000000016630 <__cxa_end_catch@plt>:
   16630:	00023e17          	auipc	t3,0x23
   16634:	ba0e3e03          	ld	t3,-1120(t3) # 391d0 <__cxa_end_catch@CXXABI_1.3>
   16638:	000e0367          	jalr	t1,0(t3)
   1663c:	00000013          	addi	zero,zero,0

0000000000016640 <__gxx_personality_v0@plt>:
   16640:	00023e17          	auipc	t3,0x23
   16644:	b98e3e03          	ld	t3,-1128(t3) # 391d8 <__gxx_personality_v0@CXXABI_1.3>
   16648:	000e0367          	jalr	t1,0(t3)
   1664c:	00000013          	addi	zero,zero,0

0000000000016650 <strncmp@plt>:
   16650:	00023e17          	auipc	t3,0x23
   16654:	b90e3e03          	ld	t3,-1136(t3) # 391e0 <strncmp@GLIBC_2.27>
   16658:	000e0367          	jalr	t1,0(t3)
   1665c:	00000013          	addi	zero,zero,0

0000000000016660 <__cxa_throw@plt>:
   16660:	00023e17          	auipc	t3,0x23
   16664:	b88e3e03          	ld	t3,-1144(t3) # 391e8 <__cxa_throw@CXXABI_1.3>
   16668:	000e0367          	jalr	t1,0(t3)
   1666c:	00000013          	addi	zero,zero,0

0000000000016670 <std::range_error::range_error(char const*)@plt>:
   16670:	00023e17          	auipc	t3,0x23
   16674:	b80e3e03          	ld	t3,-1152(t3) # 391f0 <std::range_error::range_error(char const*)@GLIBCXX_3.4.21>
   16678:	000e0367          	jalr	t1,0(t3)
   1667c:	00000013          	addi	zero,zero,0

0000000000016680 <fprintf@plt>:
   16680:	00023e17          	auipc	t3,0x23
   16684:	b78e3e03          	ld	t3,-1160(t3) # 391f8 <fprintf@GLIBC_2.27>
   16688:	000e0367          	jalr	t1,0(t3)
   1668c:	00000013          	addi	zero,zero,0

0000000000016690 <_Unwind_Resume@plt>:
   16690:	00023e17          	auipc	t3,0x23
   16694:	b70e3e03          	ld	t3,-1168(t3) # 39200 <_Unwind_Resume@GCC_3.0>
   16698:	000e0367          	jalr	t1,0(t3)
   1669c:	00000013          	addi	zero,zero,0

00000000000166a0 <std::logic_error::~logic_error()@plt>:
   166a0:	00023e17          	auipc	t3,0x23
   166a4:	b68e3e03          	ld	t3,-1176(t3) # 39208 <std::logic_error::~logic_error()@GLIBCXX_3.4>
   166a8:	000e0367          	jalr	t1,0(t3)
   166ac:	00000013          	addi	zero,zero,0

00000000000166b0 <std::__cxx11::basic_string<char, std::char_traits<char>, std::allocator<char> >::_M_create(unsigned long&, unsigned long)@plt>:
   166b0:	00023e17          	auipc	t3,0x23
   166b4:	b60e3e03          	ld	t3,-1184(t3) # 39210 <std::__cxx11::basic_string<char, std::char_traits<char>, std::allocator<char> >::_M_create(unsigned long&, unsigned long)@GLIBCXX_3.4.21>
   166b8:	000e0367          	jalr	t1,0(t3)
   166bc:	00000013          	addi	zero,zero,0

00000000000166c0 <__cxa_atexit@plt>:
   166c0:	00023e17          	auipc	t3,0x23
   166c4:	b58e3e03          	ld	t3,-1192(t3) # 39218 <__cxa_atexit@GLIBC_2.27>
   166c8:	000e0367          	jalr	t1,0(t3)
   166cc:	00000013          	addi	zero,zero,0

00000000000166d0 <std::__cxx11::basic_string<char, std::char_traits<char>, std::allocator<char> >::_M_mutate(unsigned long, unsigned long, char const*, unsigned long)@plt>:
   166d0:	00023e17          	auipc	t3,0x23
   166d4:	b50e3e03          	ld	t3,-1200(t3) # 39220 <std::__cxx11::basic_string<char, std::char_traits<char>, std::allocator<char> >::_M_mutate(unsigned long, unsigned long, char const*, unsigned long)@GLIBCXX_3.4.21>
   166d8:	000e0367          	jalr	t1,0(t3)
   166dc:	00000013          	addi	zero,zero,0

00000000000166e0 <__cxa_guard_acquire@plt>:
   166e0:	00023e17          	auipc	t3,0x23
   166e4:	b48e3e03          	ld	t3,-1208(t3) # 39228 <__cxa_guard_acquire@CXXABI_1.3>
   166e8:	000e0367          	jalr	t1,0(t3)
   166ec:	00000013          	addi	zero,zero,0

00000000000166f0 <std::__cxx11::basic_string<char, std::char_traits<char>, std::allocator<char> >::_M_replace_aux(unsigned long, unsigned long, unsigned long, char)@plt>:
   166f0:	00023e17          	auipc	t3,0x23
   166f4:	b40e3e03          	ld	t3,-1216(t3) # 39230 <std::__cxx11::basic_string<char, std::char_traits<char>, std::allocator<char> >::_M_replace_aux(unsigned long, unsigned long, unsigned long, char)@GLIBCXX_3.4.21>
   166f8:	000e0367          	jalr	t1,0(t3)
   166fc:	00000013          	addi	zero,zero,0

0000000000016700 <printf@plt>:
   16700:	00023e17          	auipc	t3,0x23
   16704:	b38e3e03          	ld	t3,-1224(t3) # 39238 <printf@GLIBC_2.27>
   16708:	000e0367          	jalr	t1,0(t3)
   1670c:	00000013          	addi	zero,zero,0

0000000000016710 <std::runtime_error::runtime_error(char const*)@plt>:
   16710:	00023e17          	auipc	t3,0x23
   16714:	b30e3e03          	ld	t3,-1232(t3) # 39240 <std::runtime_error::runtime_error(char const*)@GLIBCXX_3.4.21>
   16718:	000e0367          	jalr	t1,0(t3)
   1671c:	00000013          	addi	zero,zero,0

0000000000016720 <memmove@plt>:
   16720:	00023e17          	auipc	t3,0x23
   16724:	b28e3e03          	ld	t3,-1240(t3) # 39248 <memmove@GLIBC_2.27>
   16728:	000e0367          	jalr	t1,0(t3)
   1672c:	00000013          	addi	zero,zero,0

0000000000016730 <__cxa_pure_virtual@plt>:
   16730:	00023e17          	auipc	t3,0x23
   16734:	b20e3e03          	ld	t3,-1248(t3) # 39250 <__cxa_pure_virtual@CXXABI_1.3>
   16738:	000e0367          	jalr	t1,0(t3)
   1673c:	00000013          	addi	zero,zero,0

0000000000016740 <std::__cxx11::basic_string<char, std::char_traits<char>, std::allocator<char> >::append(char const*)@plt>:
   16740:	00023e17          	auipc	t3,0x23
   16744:	b18e3e03          	ld	t3,-1256(t3) # 39258 <std::__cxx11::basic_string<char, std::char_traits<char>, std::allocator<char> >::append(char const*)@GLIBCXX_3.4.21>
   16748:	000e0367          	jalr	t1,0(t3)
   1674c:	00000013          	addi	zero,zero,0

0000000000016750 <std::range_error::range_error(std::__cxx11::basic_string<char, std::char_traits<char>, std::allocator<char> > const&)@plt>:
   16750:	00023e17          	auipc	t3,0x23
   16754:	b10e3e03          	ld	t3,-1264(t3) # 39260 <std::range_error::range_error(std::__cxx11::basic_string<char, std::char_traits<char>, std::allocator<char> > const&)@GLIBCXX_3.4.21>
   16758:	000e0367          	jalr	t1,0(t3)
   1675c:	00000013          	addi	zero,zero,0

0000000000016760 <__errno_location@plt>:
   16760:	00023e17          	auipc	t3,0x23
   16764:	b08e3e03          	ld	t3,-1272(t3) # 39268 <__errno_location@GLIBC_2.27>
   16768:	000e0367          	jalr	t1,0(t3)
   1676c:	00000013          	addi	zero,zero,0

0000000000016770 <close@plt>:
   16770:	00023e17          	auipc	t3,0x23
   16774:	b00e3e03          	ld	t3,-1280(t3) # 39270 <close@GLIBC_2.27>
   16778:	000e0367          	jalr	t1,0(t3)
   1677c:	00000013          	addi	zero,zero,0

0000000000016780 <std::underflow_error::underflow_error(char const*)@plt>:
   16780:	00023e17          	auipc	t3,0x23
   16784:	af8e3e03          	ld	t3,-1288(t3) # 39278 <std::underflow_error::underflow_error(char const*)@GLIBCXX_3.4.21>
   16788:	000e0367          	jalr	t1,0(t3)
   1678c:	00000013          	addi	zero,zero,0

0000000000016790 <std::logic_error::logic_error(std::__cxx11::basic_string<char, std::char_traits<char>, std::allocator<char> > const&)@plt>:
   16790:	00023e17          	auipc	t3,0x23
   16794:	af0e3e03          	ld	t3,-1296(t3) # 39280 <std::logic_error::logic_error(std::__cxx11::basic_string<char, std::char_traits<char>, std::allocator<char> > const&)@GLIBCXX_3.4.21>
   16798:	000e0367          	jalr	t1,0(t3)
   1679c:	00000013          	addi	zero,zero,0

Disassembly of section .text:

00000000000167a0 <_start>:
ENTRY (ENTRY_POINT)
	/* Terminate call stack by noting ra is undefined.  Use a dummy
	   .cfi_label to force starting the FDE.  */
	.cfi_label .Ldummy
	cfi_undefined (ra)
	call  load_gp
   167a0:	02e000ef          	jal	ra,167ce <load_gp>
	mv    a5, a0  /* rtld_fini.  */
   167a4:	87aa                	c.mv	a5,a0
	/* main may be in a shared library.  */
	la   a0, main
   167a6:	00000517          	auipc	a0,0x0
   167aa:	25250513          	addi	a0,a0,594 # 169f8 <main>
	REG_L a1, 0(sp)      /* argc.  */
   167ae:	6582                	c.ldsp	a1,0(sp)
	addi  a2, sp, SZREG  /* argv.  */
   167b0:	0030                	c.addi4spn	a2,sp,8
	andi  sp, sp, ALMASK /* Align stack. */
   167b2:	ff017113          	andi	sp,sp,-16
	lla   a3, __libc_csu_init
   167b6:	00016697          	auipc	a3,0x16
   167ba:	70a68693          	addi	a3,a3,1802 # 2cec0 <__libc_csu_init>
	lla   a4, __libc_csu_fini
   167be:	00016717          	auipc	a4,0x16
   167c2:	75a70713          	addi	a4,a4,1882 # 2cf18 <__libc_csu_fini>
	mv    a6, sp  /* stack_end.  */
   167c6:	880a                	c.mv	a6,sp

	call  __libc_start_main@plt
   167c8:	bb9ff0ef          	jal	ra,16380 <__libc_start_main@plt>
	ebreak
   167cc:	9002                	c.ebreak

00000000000167ce <load_gp>:
   So we redundantly initialize it at the beginning of _start.  */

load_gp:
.option push
.option norelax
	lla   gp, __global_pointer$
   167ce:	00023197          	auipc	gp,0x23
   167d2:	03218193          	addi	gp,gp,50 # 39800 <__global_pointer$>
.option pop
	ret
   167d6:	8082                	c.jr	ra
	...

00000000000167da <deregister_tm_clones>:
   167da:	81818793          	addi	a5,gp,-2024 # 39018 <__TMC_END__>
   167de:	81818713          	addi	a4,gp,-2024 # 39018 <__TMC_END__>
   167e2:	00f70863          	beq	a4,a5,167f2 <deregister_tm_clones+0x18>
   167e6:	00000793          	addi	a5,zero,0
   167ea:	c781                	c.beqz	a5,167f2 <deregister_tm_clones+0x18>
   167ec:	81818513          	addi	a0,gp,-2024 # 39018 <__TMC_END__>
   167f0:	8782                	c.jr	a5
   167f2:	8082                	c.jr	ra

00000000000167f4 <register_tm_clones>:
   167f4:	81818793          	addi	a5,gp,-2024 # 39018 <__TMC_END__>
   167f8:	81818593          	addi	a1,gp,-2024 # 39018 <__TMC_END__>
   167fc:	8d9d                	c.sub	a1,a5
   167fe:	4035d793          	srai	a5,a1,0x3
   16802:	91fd                	c.srli	a1,0x3f
   16804:	95be                	c.add	a1,a5
   16806:	8585                	c.srai	a1,0x1
   16808:	c599                	c.beqz	a1,16816 <register_tm_clones+0x22>
   1680a:	00000793          	addi	a5,zero,0
   1680e:	c781                	c.beqz	a5,16816 <register_tm_clones+0x22>
   16810:	81818513          	addi	a0,gp,-2024 # 39018 <__TMC_END__>
   16814:	8782                	c.jr	a5
   16816:	8082                	c.jr	ra

0000000000016818 <__do_global_dtors_aux>:
   16818:	1141                	c.addi	sp,-16
   1681a:	e022                	c.sdsp	s0,0(sp)
   1681c:	e191c783          	lbu	a5,-487(gp) # 39619 <completed.0>
   16820:	e406                	c.sdsp	ra,8(sp)
   16822:	e791                	c.bnez	a5,1682e <__do_global_dtors_aux+0x16>
   16824:	fb7ff0ef          	jal	ra,167da <deregister_tm_clones>
   16828:	4785                	c.li	a5,1
   1682a:	e0f18ca3          	sb	a5,-487(gp) # 39619 <completed.0>
   1682e:	60a2                	c.ldsp	ra,8(sp)
   16830:	6402                	c.ldsp	s0,0(sp)
   16832:	0141                	c.addi	sp,16
   16834:	8082                	c.jr	ra

0000000000016836 <frame_dummy>:
   16836:	bf7d                	c.j	167f4 <register_tm_clones>

0000000000016838 <dump_tree(dwarf::die const&, int)>:
#include <fcntl.h>
#include <inttypes.h>

using namespace std;

void dump_tree(const dwarf::die &node, int depth = 0) {
   16838:	714d                	c.addi16sp	sp,-336
   1683a:	e686                	c.sdsp	ra,328(sp)
   1683c:	e2a2                	c.sdsp	s0,320(sp)
   1683e:	fe26                	c.sdsp	s1,312(sp)
   16840:	fa4a                	c.sdsp	s2,304(sp)
   16842:	f64e                	c.sdsp	s3,296(sp)
   16844:	f252                	c.sdsp	s4,288(sp)
   16846:	ee56                	c.sdsp	s5,280(sp)
   16848:	ea5a                	c.sdsp	s6,272(sp)
   1684a:	e65e                	c.sdsp	s7,264(sp)
   1684c:	e262                	c.sdsp	s8,256(sp)
   1684e:	8c2a                	c.mv	s8,a0
   16850:	892e                	c.mv	s2,a1
  printf("%*.s<%" PRIx64 "> %s\n", depth, " ", node.get_section_offset(),
   16852:	237040ef          	jal	ra,1b288 <dwarf::die::get_section_offset() const>
   16856:	842a                	c.mv	s0,a0
         to_string(node.tag).c_str());
   16858:	000c2583          	lw	a1,0(s8)
   1685c:	18a8                	c.addi4spn	a0,sp,120
   1685e:	227110ef          	jal	ra,28284 <dwarf::to_string[abi:cxx11](dwarf::DW_TAG)>
  printf("%*.s<%" PRIx64 "> %s\n", depth, " ", node.get_section_offset(),
   16862:	7766                	c.ldsp	a4,120(sp)
   16864:	86a2                	c.mv	a3,s0
   16866:	0002e637          	lui	a2,0x2e
   1686a:	45060613          	addi	a2,a2,1104 # 2e450 <typeinfo name for dwarf::expr_context+0x168>
   1686e:	85ca                	c.mv	a1,s2
   16870:	0002d537          	lui	a0,0x2d
   16874:	f5850513          	addi	a0,a0,-168 # 2cf58 <__libc_csu_fini+0x40>
   16878:	e89ff0ef          	jal	ra,16700 <printf@plt>
      { _M_string_length = __length; }

      _GLIBCXX20_CONSTEXPR
      pointer
      _M_data() const
      { return _M_dataplus._M_p; }
   1687c:	7566                	c.ldsp	a0,120(sp)

      _GLIBCXX20_CONSTEXPR
      void
      _M_dispose()
      {
	if (!_M_is_local())
   1687e:	013c                	c.addi4spn	a5,sp,136
   16880:	00f50463          	beq	a0,a5,16888 <dump_tree(dwarf::die const&, int)+0x50>
	    _GLIBCXX_OPERATOR_DELETE(_GLIBCXX_SIZED_DEALLOC(__p, __n),
				     std::align_val_t(alignof(_Tp)));
	    return;
	  }
#endif
	_GLIBCXX_OPERATOR_DELETE(_GLIBCXX_SIZED_DEALLOC(__p, __n));
   16884:	c2dff0ef          	jal	ra,164b0 <operator delete(void*)@plt>
  for (auto &attr : node.attributes())
   16888:	85e2                	c.mv	a1,s8
   1688a:	11a8                	c.addi4spn	a0,sp,232
   1688c:	2fa050ef          	jal	ra,1bb86 <dwarf::die::attributes() const>
      _GLIBCXX_CONSTEXPR __normal_iterator() _GLIBCXX_NOEXCEPT
      : _M_current(_Iterator()) { }

      explicit _GLIBCXX20_CONSTEXPR
      __normal_iterator(const _Iterator& __i) _GLIBCXX_NOEXCEPT
      : _M_current(__i) { }
   16890:	742e                	c.ldsp	s0,232(sp)
   16892:	79ce                	c.ldsp	s3,240(sp)
   16894:	05340d63          	beq	s0,s3,168ee <dump_tree(dwarf::die const&, int)+0xb6>
    printf("%*.s      %s %s\n", depth, " ", to_string(attr.first).c_str(),
   16898:	0002ebb7          	lui	s7,0x2e
   1689c:	0002db37          	lui	s6,0x2d
   168a0:	08810a93          	addi	s5,sp,136
   168a4:	01810a13          	addi	s4,sp,24
   168a8:	a835                	c.j	168e4 <dump_tree(dwarf::die const&, int)+0xac>
      { return _M_dataplus._M_p; }
   168aa:	64a2                	c.ldsp	s1,8(sp)
           to_string(attr.second).c_str());
   168ac:	00840593          	addi	a1,s0,8
   168b0:	18a8                	c.addi4spn	a0,sp,120
   168b2:	447070ef          	jal	ra,1e4f8 <dwarf::to_string[abi:cxx11](dwarf::value const&)>
    printf("%*.s      %s %s\n", depth, " ", to_string(attr.first).c_str(),
   168b6:	7766                	c.ldsp	a4,120(sp)
   168b8:	86a6                	c.mv	a3,s1
   168ba:	450b8613          	addi	a2,s7,1104 # 2e450 <typeinfo name for dwarf::expr_context+0x168>
   168be:	85ca                	c.mv	a1,s2
   168c0:	f68b0513          	addi	a0,s6,-152 # 2cf68 <__libc_csu_fini+0x50>
   168c4:	e3dff0ef          	jal	ra,16700 <printf@plt>
   168c8:	7566                	c.ldsp	a0,120(sp)
	if (!_M_is_local())
   168ca:	01550463          	beq	a0,s5,168d2 <dump_tree(dwarf::die const&, int)+0x9a>
   168ce:	be3ff0ef          	jal	ra,164b0 <operator delete(void*)@plt>
      { return _M_dataplus._M_p; }
   168d2:	6522                	c.ldsp	a0,8(sp)
	if (!_M_is_local())
   168d4:	01450463          	beq	a0,s4,168dc <dump_tree(dwarf::die const&, int)+0xa4>
   168d8:	bd9ff0ef          	jal	ra,164b0 <operator delete(void*)@plt>
  for (auto &attr : node.attributes())
   168dc:	02040413          	addi	s0,s0,32
   168e0:	00898763          	beq	s3,s0,168ee <dump_tree(dwarf::die const&, int)+0xb6>
    printf("%*.s      %s %s\n", depth, " ", to_string(attr.first).c_str(),
   168e4:	400c                	c.lw	a1,0(s0)
   168e6:	0028                	c.addi4spn	a0,sp,8
   168e8:	489120ef          	jal	ra,29570 <dwarf::to_string[abi:cxx11](dwarf::DW_AT)>
   168ec:	bf7d                	c.j	168aa <dump_tree(dwarf::die const&, int)+0x72>
       *  responsibility.
       */
      _GLIBCXX20_CONSTEXPR
      ~vector() _GLIBCXX_NOEXCEPT
      {
	std::_Destroy(this->_M_impl._M_start, this->_M_impl._M_finish,
   168ee:	752e                	c.ldsp	a0,232(sp)
	if (__p)
   168f0:	c119                	c.beqz	a0,168f6 <dump_tree(dwarf::die const&, int)+0xbe>
   168f2:	bbfff0ef          	jal	ra,164b0 <operator delete(void*)@plt>
  for (auto &child : node) // DFS
   168f6:	85e2                	c.mv	a1,s8
   168f8:	0028                	c.addi4spn	a0,sp,8
   168fa:	6a9040ef          	jal	ra,1b7a2 <dwarf::die::begin() const>
  iterator(const unit *cu, section_offset off);

  die d;
};

inline die::iterator die::end() const { return iterator(); }
   168fe:	fc82                	c.sdsp	zero,120(sp)
   16900:	e102                	c.sdsp	zero,128(sp)
   16902:	e502                	c.sdsp	zero,136(sp)
   16904:	e902                	c.sdsp	zero,144(sp)
   16906:	ed02                	c.sdsp	zero,152(sp)
   16908:	f102                	c.sdsp	zero,160(sp)
   1690a:	f502                	c.sdsp	zero,168(sp)
   1690c:	f902                	c.sdsp	zero,176(sp)
   1690e:	fd02                	c.sdsp	zero,184(sp)
   16910:	e182                	c.sdsp	zero,192(sp)
   16912:	f182                	c.sdsp	zero,224(sp)
  typedef T value_type;
  typedef value_type &reference;
  typedef const value_type &const_reference;
  typedef size_t size_type;

  small_vector() : base((T *)buf), end(base), cap((T *)&buf[sizeof(T[Min])]) {}
   16914:	093c                	c.addi4spn	a5,sp,152
   16916:	e5be                	c.sdsp	a5,200(sp)
   16918:	e9be                	c.sdsp	a5,208(sp)
   1691a:	01bc                	c.addi4spn	a5,sp,200
   1691c:	edbe                	c.sdsp	a5,216(sp)
    if (d.abbrev != o.d.abbrev)
   1691e:	67e2                	c.ldsp	a5,24(sp)
   16920:	672a                	c.ldsp	a4,136(sp)
   16922:	00e78b63          	beq	a5,a4,16938 <dump_tree(dwarf::die const&, int)+0x100>
    dump_tree(child, depth + 1);
   16926:	0019059b          	addiw	a1,s2,1
   1692a:	0028                	c.addi4spn	a0,sp,8
   1692c:	f0dff0ef          	jal	ra,16838 <dump_tree(dwarf::die const&, int)>
  for (auto &child : node) // DFS
   16930:	0028                	c.addi4spn	a0,sp,8
   16932:	0bc050ef          	jal	ra,1b9ee <dwarf::die::iterator::operator++()>
   16936:	b7e5                	c.j	1691e <dump_tree(dwarf::die const&, int)+0xe6>
    if (d.abbrev == nullptr)
   16938:	cb89                	c.beqz	a5,1694a <dump_tree(dwarf::die const&, int)+0x112>
    return d.next != o.d.next || d.cu != o.d.cu;
   1693a:	7746                	c.ldsp	a4,112(sp)
   1693c:	778e                	c.ldsp	a5,224(sp)
   1693e:	fef714e3          	bne	a4,a5,16926 <dump_tree(dwarf::die const&, int)+0xee>
   16942:	6742                	c.ldsp	a4,16(sp)
   16944:	678a                	c.ldsp	a5,128(sp)
   16946:	fef710e3          	bne	a4,a5,16926 <dump_tree(dwarf::die const&, int)+0xee>
    end--;
    end->~T();
  }

  void clear() {
    for (T *p = base; p < end; ++p)
   1694a:	652e                	c.ldsp	a0,200(sp)
   1694c:	67ce                	c.ldsp	a5,208(sp)
   1694e:	00f57763          	bgeu	a0,a5,1695c <dump_tree(dwarf::die const&, int)+0x124>
   16952:	87aa                	c.mv	a5,a0
   16954:	07a1                	c.addi	a5,8
   16956:	674e                	c.ldsp	a4,208(sp)
   16958:	fee7eee3          	bltu	a5,a4,16954 <dump_tree(dwarf::die const&, int)+0x11c>
      p->~T();
    end = base;
   1695c:	e9aa                	c.sdsp	a0,208(sp)
    if ((char *)base != buf)
   1695e:	093c                	c.addi4spn	a5,sp,152
   16960:	00f50563          	beq	a0,a5,1696a <dump_tree(dwarf::die const&, int)+0x132>
      delete[] (char *)base;
   16964:	c119                	c.beqz	a0,1696a <dump_tree(dwarf::die const&, int)+0x132>
   16966:	bfbff0ef          	jal	ra,16560 <operator delete[](void*)@plt>
    for (T *p = base; p < end; ++p)
   1696a:	6566                	c.ldsp	a0,88(sp)
   1696c:	7786                	c.ldsp	a5,96(sp)
   1696e:	00f57763          	bgeu	a0,a5,1697c <dump_tree(dwarf::die const&, int)+0x144>
   16972:	87aa                	c.mv	a5,a0
   16974:	07a1                	c.addi	a5,8
   16976:	7706                	c.ldsp	a4,96(sp)
   16978:	fee7eee3          	bltu	a5,a4,16974 <dump_tree(dwarf::die const&, int)+0x13c>
    if ((char *)base != buf)
   1697c:	103c                	c.addi4spn	a5,sp,40
   1697e:	00f50563          	beq	a0,a5,16988 <dump_tree(dwarf::die const&, int)+0x150>
      delete[] (char *)base;
   16982:	c119                	c.beqz	a0,16988 <dump_tree(dwarf::die const&, int)+0x150>
   16984:	bddff0ef          	jal	ra,16560 <operator delete[](void*)@plt>
}
   16988:	60b6                	c.ldsp	ra,328(sp)
   1698a:	6416                	c.ldsp	s0,320(sp)
   1698c:	74f2                	c.ldsp	s1,312(sp)
   1698e:	7952                	c.ldsp	s2,304(sp)
   16990:	79b2                	c.ldsp	s3,296(sp)
   16992:	7a12                	c.ldsp	s4,288(sp)
   16994:	6af2                	c.ldsp	s5,280(sp)
   16996:	6b52                	c.ldsp	s6,272(sp)
   16998:	6bb2                	c.ldsp	s7,264(sp)
   1699a:	6c12                	c.ldsp	s8,256(sp)
   1699c:	6171                	c.addi16sp	sp,336
   1699e:	8082                	c.jr	ra
      { return _M_dataplus._M_p; }
   169a0:	842a                	c.mv	s0,a0
   169a2:	7566                	c.ldsp	a0,120(sp)
	if (!_M_is_local())
   169a4:	013c                	c.addi4spn	a5,sp,136
   169a6:	00f50463          	beq	a0,a5,169ae <dump_tree(dwarf::die const&, int)+0x176>
   169aa:	b07ff0ef          	jal	ra,164b0 <operator delete(void*)@plt>
      ~__new_allocator() _GLIBCXX_USE_NOEXCEPT { }
   169ae:	8522                	c.mv	a0,s0
   169b0:	ce1ff0ef          	jal	ra,16690 <_Unwind_Resume@plt>
      { return _M_dataplus._M_p; }
   169b4:	842a                	c.mv	s0,a0
   169b6:	7566                	c.ldsp	a0,120(sp)
	if (!_M_is_local())
   169b8:	013c                	c.addi4spn	a5,sp,136
   169ba:	00f50463          	beq	a0,a5,169c2 <dump_tree(dwarf::die const&, int)+0x18a>
	_GLIBCXX_OPERATOR_DELETE(_GLIBCXX_SIZED_DEALLOC(__p, __n));
   169be:	af3ff0ef          	jal	ra,164b0 <operator delete(void*)@plt>
      { return _M_dataplus._M_p; }
   169c2:	6522                	c.ldsp	a0,8(sp)
	if (!_M_is_local())
   169c4:	083c                	c.addi4spn	a5,sp,24
   169c6:	00f50463          	beq	a0,a5,169ce <dump_tree(dwarf::die const&, int)+0x196>
   169ca:	ae7ff0ef          	jal	ra,164b0 <operator delete(void*)@plt>
	std::_Destroy(this->_M_impl._M_start, this->_M_impl._M_finish,
   169ce:	752e                	c.ldsp	a0,232(sp)
	if (__p)
   169d0:	c119                	c.beqz	a0,169d6 <dump_tree(dwarf::die const&, int)+0x19e>
   169d2:	adfff0ef          	jal	ra,164b0 <operator delete(void*)@plt>
      ~__new_allocator() _GLIBCXX_USE_NOEXCEPT { }
   169d6:	8522                	c.mv	a0,s0
   169d8:	cb9ff0ef          	jal	ra,16690 <_Unwind_Resume@plt>
      { return _M_dataplus._M_p; }
   169dc:	842a                	c.mv	s0,a0
   169de:	b7d5                	c.j	169c2 <dump_tree(dwarf::die const&, int)+0x18a>
	std::_Destroy(this->_M_impl._M_start, this->_M_impl._M_finish,
   169e0:	842a                	c.mv	s0,a0
   169e2:	b7f5                	c.j	169ce <dump_tree(dwarf::die const&, int)+0x196>
class die {
   169e4:	842a                	c.mv	s0,a0
   169e6:	0928                	c.addi4spn	a0,sp,152
   169e8:	558000ef          	jal	ra,16f40 <dwarf::small_vector<unsigned long, 6u>::~small_vector()>
   169ec:	1028                	c.addi4spn	a0,sp,40
   169ee:	552000ef          	jal	ra,16f40 <dwarf::small_vector<unsigned long, 6u>::~small_vector()>
   169f2:	8522                	c.mv	a0,s0
   169f4:	c9dff0ef          	jal	ra,16690 <_Unwind_Resume@plt>

00000000000169f8 <main>:

int main(int argc, char **argv) {
   169f8:	7135                	c.addi16sp	sp,-160
   169fa:	ed06                	c.sdsp	ra,152(sp)
   169fc:	e922                	c.sdsp	s0,144(sp)
   169fe:	e526                	c.sdsp	s1,136(sp)
   16a00:	e14a                	c.sdsp	s2,128(sp)
   16a02:	fcce                	c.sdsp	s3,120(sp)
   16a04:	f8d2                	c.sdsp	s4,112(sp)
   16a06:	f4d6                	c.sdsp	s5,104(sp)
   16a08:	842e                	c.mv	s0,a1
  if (argc != 2) {
   16a0a:	4789                	c.li	a5,2
   16a0c:	02f51163          	bne	a0,a5,16a2e <main+0x36>
    fprintf(stderr, "usage: %s elf-file\n", argv[0]);
    return 2;
  }
  int fd = open(argv[1], O_RDONLY);
   16a10:	4581                	c.li	a1,0
   16a12:	6408                	c.ld	a0,8(s0)
   16a14:	a0dff0ef          	jal	ra,16420 <open@plt>
   16a18:	85aa                	c.mv	a1,a0
  if (fd < 0) {
   16a1a:	02054563          	blt	a0,zero,16a44 <main+0x4c>
    fprintf(stderr, "%s: %s\n", argv[1], strerror(errno));
    return 1;
  }

  elf::elf ef(elf::create_mmap_loader(fd));
   16a1e:	0088                	c.addi4spn	a0,sp,64
   16a20:	0f4160ef          	jal	ra,2cb14 <elf::create_mmap_loader(int)>
   16a24:	008c                	c.addi4spn	a1,sp,64
   16a26:	1808                	c.addi4spn	a0,sp,48
   16a28:	267140ef          	jal	ra,2b48e <elf::elf::elf(std::shared_ptr<elf::loader> const&)>
   16a2c:	a83d                	c.j	16a6a <main+0x72>
    fprintf(stderr, "usage: %s elf-file\n", argv[0]);
   16a2e:	6190                	c.ld	a2,0(a1)
   16a30:	0002d5b7          	lui	a1,0x2d
   16a34:	f8058593          	addi	a1,a1,-128 # 2cf80 <__libc_csu_fini+0x68>
   16a38:	e101b503          	ld	a0,-496(gp) # 39610 <stderr@GLIBC_2.27>
   16a3c:	c45ff0ef          	jal	ra,16680 <fprintf@plt>
    return 2;
   16a40:	4509                	c.li	a0,2
   16a42:	aa25                	c.j	16b7a <main+0x182>
    fprintf(stderr, "%s: %s\n", argv[1], strerror(errno));
   16a44:	e101b483          	ld	s1,-496(gp) # 39610 <stderr@GLIBC_2.27>
   16a48:	6400                	c.ld	s0,8(s0)
   16a4a:	d17ff0ef          	jal	ra,16760 <__errno_location@plt>
   16a4e:	4108                	c.lw	a0,0(a0)
   16a50:	ae1ff0ef          	jal	ra,16530 <strerror@plt>
   16a54:	86aa                	c.mv	a3,a0
   16a56:	8622                	c.mv	a2,s0
   16a58:	0002d5b7          	lui	a1,0x2d
   16a5c:	f9858593          	addi	a1,a1,-104 # 2cf98 <__libc_csu_fini+0x80>
   16a60:	8526                	c.mv	a0,s1
   16a62:	c1fff0ef          	jal	ra,16680 <fprintf@plt>
    return 1;
   16a66:	4505                	c.li	a0,1
   16a68:	aa09                	c.j	16b7a <main+0x182>
      explicit
      __shared_count(const __weak_count<_Lp>& __r, std::nothrow_t) noexcept;

      ~__shared_count() noexcept
      {
	if (_M_pi != nullptr)
   16a6a:	6526                	c.ldsp	a0,72(sp)
   16a6c:	c119                	c.beqz	a0,16a72 <main+0x7a>
	  _M_pi->_M_release();
   16a6e:	31a000ef          	jal	ra,16d88 <std::_Sp_counted_base<(__gnu_cxx::_Lock_policy)1>::_M_release()>
	return static_cast<_Tp*>(_GLIBCXX_OPERATOR_NEW(__n * sizeof(_Tp)));
   16a72:	05000513          	addi	a0,zero,80
   16a76:	a4bff0ef          	jal	ra,164c0 <operator new(unsigned long)@plt>
   16a7a:	842a                	c.mv	s0,a0
    __mutex(const __mutex&);
    __mutex& operator=(const __mutex&);

  public:
    __mutex() 
    { 
   16a7c:	00052423          	sw	zero,8(a0)
   16a80:	00052623          	sw	zero,12(a0)
   16a84:	00052823          	sw	zero,16(a0)
   16a88:	00052a23          	sw	zero,20(a0)
   16a8c:	00052c23          	sw	zero,24(a0)
   16a90:	00052e23          	sw	zero,28(a0)
   16a94:	02053023          	sd	zero,32(a0)
   16a98:	02053423          	sd	zero,40(a0)
      : _M_use_count(1), _M_weak_count(1) { }
   16a9c:	4785                	c.li	a5,1
   16a9e:	d91c                	c.sw	a5,48(a0)
   16aa0:	d95c                	c.sw	a5,52(a0)
	: _M_impl(__a)
   16aa2:	0002d7b7          	lui	a5,0x2d
   16aa6:	24878793          	addi	a5,a5,584 # 2d248 <vtable for std::_Sp_counted_ptr_inplace<dwarf::elf::elf_loader<elf::elf>, std::allocator<void>, (__gnu_cxx::_Lock_policy)1>+0x10>
   16aaa:	e11c                	c.sd	a5,0(a0)
      __aligned_buffer(std::nullptr_t) { }

      void*
      _M_addr() noexcept
      {
        return static_cast<void*>(&_M_storage);
   16aac:	03850493          	addi	s1,a0,56

template <typename Elf> class elf_loader : public loader {
  Elf f;

public:
  elf_loader(const Elf &file) : f(file) {}
   16ab0:	0002d7b7          	lui	a5,0x2d
   16ab4:	22078793          	addi	a5,a5,544 # 2d220 <vtable for dwarf::elf::elf_loader<elf::elf>+0x10>
   16ab8:	fd1c                	c.sd	a5,56(a0)
	{
	  _M_refcount._M_swap(__r._M_refcount);
	  __r._M_ptr = nullptr;
	}

      __shared_ptr(const __shared_ptr&) noexcept = default;
   16aba:	77c2                	c.ldsp	a5,48(sp)
   16abc:	e13c                	c.sd	a5,64(a0)
      : _M_pi(__r._M_pi)
   16abe:	7562                	c.ldsp	a0,56(sp)
   16ac0:	e428                	c.sd	a0,72(s0)
	if (_M_pi != nullptr)
   16ac2:	c519                	c.beqz	a0,16ad0 <main+0xd8>

  inline void
  __attribute__ ((__always_inline__))
  __atomic_add_dispatch(_Atomic_word* __mem, int __val)
  {
    if (__is_single_threaded())
   16ac4:	e181c783          	lbu	a5,-488(gp) # 39618 <__libc_single_threaded@GLIBC_2.32>
   16ac8:	cb99                	c.beqz	a5,16ade <main+0xe6>
  { *__mem += __val; }
   16aca:	591c                	c.lw	a5,48(a0)
   16acc:	2785                	c.addiw	a5,1
   16ace:	d91c                	c.sw	a5,48(a0)
	__r._M_ptr = nullptr;
      }

      template<typename _Yp, typename = _Compatible<_Yp>>
	__shared_ptr(__shared_ptr<_Yp, _Lp>&& __r) noexcept
	: _M_ptr(__r._M_ptr), _M_refcount()
   16ad0:	e8a6                	c.sdsp	s1,80(sp)
	_M_pi = __tmp;
   16ad2:	eca2                	c.sdsp	s0,88(sp)
  dwarf::dwarf dw(dwarf::elf::create_loader(ef));
   16ad4:	088c                	c.addi4spn	a1,sp,80
   16ad6:	1008                	c.addi4spn	a0,sp,32
   16ad8:	76b000ef          	jal	ra,17a42 <dwarf::dwarf::dwarf(std::shared_ptr<dwarf::loader> const&)>
   16adc:	a039                	c.j	16aea <main+0xf2>
      __atomic_add_single(__mem, __val);
    else
      __atomic_add(__mem, __val);
   16ade:	4585                	c.li	a1,1
   16ae0:	03050513          	addi	a0,a0,48
   16ae4:	81dff0ef          	jal	ra,16300 <__gnu_cxx::__atomic_add(int volatile*, int)@plt>
   16ae8:	b7e5                	c.j	16ad0 <main+0xd8>
	if (_M_pi != nullptr)
   16aea:	6566                	c.ldsp	a0,88(sp)
   16aec:	c119                	c.beqz	a0,16af2 <main+0xfa>
	  _M_pi->_M_release();
   16aee:	29a000ef          	jal	ra,16d88 <std::_Sp_counted_base<(__gnu_cxx::_Lock_policy)1>::_M_release()>

  for (auto cu : dw.compilation_units()) {
   16af2:	1008                	c.addi4spn	a0,sp,32
   16af4:	4f0000ef          	jal	ra,16fe4 <dwarf::dwarf::compilation_units() const>
   16af8:	6100                	c.ld	s0,0(a0)
   16afa:	00853983          	ld	s3,8(a0)
   16afe:	06898663          	beq	s3,s0,16b6a <main+0x172>
class unit {
   16b02:	0002d937          	lui	s2,0x2d
   16b06:	1e090913          	addi	s2,s2,480 # 2d1e0 <vtable for dwarf::unit+0x10>
  compilation_unit(const compilation_unit &o) = default;
   16b0a:	0002d4b7          	lui	s1,0x2d
   16b0e:	20048493          	addi	s1,s1,512 # 2d200 <vtable for dwarf::compilation_unit+0x10>
    printf("--- <%" PRIx64 ">\n", cu.get_section_offset());
   16b12:	0002da37          	lui	s4,0x2d
   16b16:	a80d                	c.j	16b48 <main+0x150>
   16b18:	4585                	c.li	a1,1
   16b1a:	03050513          	addi	a0,a0,48
   16b1e:	fe2ff0ef          	jal	ra,16300 <__gnu_cxx::__atomic_add(int volatile*, int)@plt>
   16b22:	a83d                	c.j	16b60 <main+0x168>
   16b24:	85aa                	c.mv	a1,a0
   16b26:	fa0a0513          	addi	a0,s4,-96 # 2cfa0 <__libc_csu_fini+0x88>
   16b2a:	bd7ff0ef          	jal	ra,16700 <printf@plt>
    dump_tree(cu.root());
   16b2e:	0028                	c.addi4spn	a0,sp,8
   16b30:	47a020ef          	jal	ra,18faa <dwarf::unit::root() const>
   16b34:	4581                	c.li	a1,0
   16b36:	d03ff0ef          	jal	ra,16838 <dump_tree(dwarf::die const&, int)>
class compilation_unit : public unit {
   16b3a:	e426                	c.sdsp	s1,8(sp)
   16b3c:	0028                	c.addi4spn	a0,sp,8
   16b3e:	4f8000ef          	jal	ra,17036 <dwarf::unit::~unit()>

      _GLIBCXX20_CONSTEXPR
      __normal_iterator&
      operator++() _GLIBCXX_NOEXCEPT
      {
	++_M_current;
   16b42:	0461                	c.addi	s0,24
  for (auto cu : dw.compilation_units()) {
   16b44:	02898363          	beq	s3,s0,16b6a <main+0x172>
class unit {
   16b48:	e44a                	c.sdsp	s2,8(sp)
      __shared_ptr(const __shared_ptr&) noexcept = default;
   16b4a:	641c                	c.ld	a5,8(s0)
   16b4c:	e83e                	c.sdsp	a5,16(sp)
      : _M_pi(__r._M_pi)
   16b4e:	6808                	c.ld	a0,16(s0)
   16b50:	ec2a                	c.sdsp	a0,24(sp)
	if (_M_pi != nullptr)
   16b52:	c519                	c.beqz	a0,16b60 <main+0x168>
    if (__is_single_threaded())
   16b54:	e181c783          	lbu	a5,-488(gp) # 39618 <__libc_single_threaded@GLIBC_2.32>
   16b58:	d3e1                	c.beqz	a5,16b18 <main+0x120>
  { *__mem += __val; }
   16b5a:	591c                	c.lw	a5,48(a0)
   16b5c:	2785                	c.addiw	a5,1
   16b5e:	d91c                	c.sw	a5,48(a0)
  compilation_unit(const compilation_unit &o) = default;
   16b60:	e426                	c.sdsp	s1,8(sp)
    printf("--- <%" PRIx64 ">\n", cu.get_section_offset());
   16b62:	0028                	c.addi4spn	a0,sp,8
   16b64:	574000ef          	jal	ra,170d8 <dwarf::unit::get_section_offset() const>
   16b68:	bf75                	c.j	16b24 <main+0x12c>
  }

  return 0;
}
   16b6a:	1008                	c.addi4spn	a0,sp,32
   16b6c:	400000ef          	jal	ra,16f6c <dwarf::dwarf::~dwarf()>
	if (_M_pi != nullptr)
   16b70:	7562                	c.ldsp	a0,56(sp)
   16b72:	c119                	c.beqz	a0,16b78 <main+0x180>
	  _M_pi->_M_release();
   16b74:	214000ef          	jal	ra,16d88 <std::_Sp_counted_base<(__gnu_cxx::_Lock_policy)1>::_M_release()>
  return 0;
   16b78:	4501                	c.li	a0,0
}
   16b7a:	60ea                	c.ldsp	ra,152(sp)
   16b7c:	644a                	c.ldsp	s0,144(sp)
   16b7e:	64aa                	c.ldsp	s1,136(sp)
   16b80:	690a                	c.ldsp	s2,128(sp)
   16b82:	79e6                	c.ldsp	s3,120(sp)
   16b84:	7a46                	c.ldsp	s4,112(sp)
   16b86:	7aa6                	c.ldsp	s5,104(sp)
   16b88:	610d                	c.addi16sp	sp,160
   16b8a:	8082                	c.jr	ra
	if (_M_pi != nullptr)
   16b8c:	842a                	c.mv	s0,a0
   16b8e:	6526                	c.ldsp	a0,72(sp)
   16b90:	c119                	c.beqz	a0,16b96 <main+0x19e>
	  _M_pi->_M_release();
   16b92:	1f6000ef          	jal	ra,16d88 <std::_Sp_counted_base<(__gnu_cxx::_Lock_policy)1>::_M_release()>
   16b96:	8522                	c.mv	a0,s0
   16b98:	af9ff0ef          	jal	ra,16690 <_Unwind_Resume@plt>
	if (_M_pi != nullptr)
   16b9c:	842a                	c.mv	s0,a0
   16b9e:	6566                	c.ldsp	a0,88(sp)
   16ba0:	c119                	c.beqz	a0,16ba6 <main+0x1ae>
	  _M_pi->_M_release();
   16ba2:	1e6000ef          	jal	ra,16d88 <std::_Sp_counted_base<(__gnu_cxx::_Lock_policy)1>::_M_release()>
	if (_M_pi != nullptr)
   16ba6:	7562                	c.ldsp	a0,56(sp)
   16ba8:	c119                	c.beqz	a0,16bae <main+0x1b6>
	  _M_pi->_M_release();
   16baa:	1de000ef          	jal	ra,16d88 <std::_Sp_counted_base<(__gnu_cxx::_Lock_policy)1>::_M_release()>
   16bae:	8522                	c.mv	a0,s0
   16bb0:	ae1ff0ef          	jal	ra,16690 <_Unwind_Resume@plt>
class compilation_unit : public unit {
   16bb4:	842a                	c.mv	s0,a0
   16bb6:	0002d7b7          	lui	a5,0x2d
   16bba:	20078793          	addi	a5,a5,512 # 2d200 <vtable for dwarf::compilation_unit+0x10>
   16bbe:	e43e                	c.sdsp	a5,8(sp)
   16bc0:	0028                	c.addi4spn	a0,sp,8
   16bc2:	474000ef          	jal	ra,17036 <dwarf::unit::~unit()>
   16bc6:	1008                	c.addi4spn	a0,sp,32
   16bc8:	3a4000ef          	jal	ra,16f6c <dwarf::dwarf::~dwarf()>
   16bcc:	bfe9                	c.j	16ba6 <main+0x1ae>
   16bce:	842a                	c.mv	s0,a0
   16bd0:	bfdd                	c.j	16bc6 <main+0x1ce>
	if (_M_pi != nullptr)
   16bd2:	842a                	c.mv	s0,a0
   16bd4:	bfc9                	c.j	16ba6 <main+0x1ae>

0000000000016bd6 <std::_Sp_counted_ptr_inplace<dwarf::elf::elf_loader<elf::elf>, std::allocator<void>, (__gnu_cxx::_Lock_policy)1>::~_Sp_counted_ptr_inplace()>:
      ~_Sp_counted_ptr_inplace() noexcept { }
   16bd6:	8082                	c.jr	ra

0000000000016bd8 <std::_Sp_counted_ptr_inplace<dwarf::elf::elf_loader<elf::elf>, std::allocator<void>, (__gnu_cxx::_Lock_policy)1>::_M_dispose()>:
      _M_dispose() noexcept
   16bd8:	1141                	c.addi	sp,-16
   16bda:	e406                	c.sdsp	ra,8(sp)
    _Destroy(_Tp* __pointer)
    {
#if __cplusplus > 201703L
      std::destroy_at(__pointer);
#else
      __pointer->~_Tp();
   16bdc:	7d1c                	c.ld	a5,56(a0)
   16bde:	639c                	c.ld	a5,0(a5)
   16be0:	03850513          	addi	a0,a0,56
   16be4:	9782                	c.jalr	a5
      }
   16be6:	60a2                	c.ldsp	ra,8(sp)
   16be8:	0141                	c.addi	sp,16
   16bea:	8082                	c.jr	ra

0000000000016bec <std::_Sp_counted_ptr_inplace<dwarf::elf::elf_loader<elf::elf>, std::allocator<void>, (__gnu_cxx::_Lock_policy)1>::~_Sp_counted_ptr_inplace()>:
      ~_Sp_counted_ptr_inplace() noexcept { }
   16bec:	1141                	c.addi	sp,-16
   16bee:	e406                	c.sdsp	ra,8(sp)
   16bf0:	8c1ff0ef          	jal	ra,164b0 <operator delete(void*)@plt>
   16bf4:	60a2                	c.ldsp	ra,8(sp)
   16bf6:	0141                	c.addi	sp,16
   16bf8:	8082                	c.jr	ra

0000000000016bfa <std::_Sp_counted_ptr_inplace<dwarf::elf::elf_loader<elf::elf>, std::allocator<void>, (__gnu_cxx::_Lock_policy)1>::_M_destroy()>:
      _M_destroy() noexcept
   16bfa:	1141                	c.addi	sp,-16
   16bfc:	e406                	c.sdsp	ra,8(sp)
	_GLIBCXX_OPERATOR_DELETE(_GLIBCXX_SIZED_DEALLOC(__p, __n));
   16bfe:	8b3ff0ef          	jal	ra,164b0 <operator delete(void*)@plt>
      }
   16c02:	60a2                	c.ldsp	ra,8(sp)
   16c04:	0141                	c.addi	sp,16
   16c06:	8082                	c.jr	ra

0000000000016c08 <std::_Sp_counted_ptr_inplace<dwarf::elf::elf_loader<elf::elf>, std::allocator<void>, (__gnu_cxx::_Lock_policy)1>::_M_get_deleter(std::type_info const&)>:
      _M_get_deleter(const std::type_info& __ti) noexcept override
   16c08:	1141                	c.addi	sp,-16
   16c0a:	e406                	c.sdsp	ra,8(sp)
   16c0c:	e022                	c.sdsp	s0,0(sp)
   16c0e:	03850413          	addi	s0,a0,56
	    ||
   16c12:	0002d7b7          	lui	a5,0x2d
   16c16:	27078793          	addi	a5,a5,624 # 2d270 <std::_Sp_make_shared_tag::_S_ti()::__tag>
   16c1a:	02f58a63          	beq	a1,a5,16c4e <std::_Sp_counted_ptr_inplace<dwarf::elf::elf_loader<elf::elf>, std::allocator<void>, (__gnu_cxx::_Lock_policy)1>::_M_get_deleter(std::type_info const&)+0x46>
  type_info::operator==(const type_info& __arg) const _GLIBCXX_NOEXCEPT
  {
    if (std::__is_constant_evaluated())
      return this == &__arg;

    if (__name == __arg.__name)
   16c1e:	6588                	c.ld	a0,8(a1)
   16c20:	0002d7b7          	lui	a5,0x2d
   16c24:	02078793          	addi	a5,a5,32 # 2d020 <typeinfo name for std::_Sp_make_shared_tag>
   16c28:	02f50363          	beq	a0,a5,16c4e <std::_Sp_counted_ptr_inplace<dwarf::elf::elf_loader<elf::elf>, std::allocator<void>, (__gnu_cxx::_Lock_policy)1>::_M_get_deleter(std::type_info const&)+0x46>
#if !__GXX_TYPEINFO_EQUALITY_INLINE
    // ABI requires comparisons to be non-inline.
    return __equal(__arg);
#elif !__GXX_MERGED_TYPEINFO_NAMES
    // Need to do string comparison.
    return __name[0] != '*' && __builtin_strcmp (__name, __arg.name()) == 0;
   16c2c:	00054703          	lbu	a4,0(a0)
   16c30:	02a00793          	addi	a5,zero,42
   16c34:	02f70263          	beq	a4,a5,16c58 <std::_Sp_counted_ptr_inplace<dwarf::elf::elf_loader<elf::elf>, std::allocator<void>, (__gnu_cxx::_Lock_policy)1>::_M_get_deleter(std::type_info const&)+0x50>
   16c38:	0002d5b7          	lui	a1,0x2d
   16c3c:	02058593          	addi	a1,a1,32 # 2d020 <typeinfo name for std::_Sp_make_shared_tag>
   16c40:	ed0ff0ef          	jal	ra,16310 <strcmp@plt>
	return nullptr;
   16c44:	00153513          	sltiu	a0,a0,1
   16c48:	40a00533          	sub	a0,zero,a0
   16c4c:	8c69                	c.and	s0,a0
      }
   16c4e:	8522                	c.mv	a0,s0
   16c50:	60a2                	c.ldsp	ra,8(sp)
   16c52:	6402                	c.ldsp	s0,0(sp)
   16c54:	0141                	c.addi	sp,16
   16c56:	8082                	c.jr	ra
	return nullptr;
   16c58:	4401                	c.li	s0,0
   16c5a:	bfd5                	c.j	16c4e <std::_Sp_counted_ptr_inplace<dwarf::elf::elf_loader<elf::elf>, std::allocator<void>, (__gnu_cxx::_Lock_policy)1>::_M_get_deleter(std::type_info const&)+0x46>

0000000000016c5c <dwarf::compilation_unit::~compilation_unit()>:
   16c5c:	1141                	c.addi	sp,-16
   16c5e:	e406                	c.sdsp	ra,8(sp)
   16c60:	0002d7b7          	lui	a5,0x2d
   16c64:	20078793          	addi	a5,a5,512 # 2d200 <vtable for dwarf::compilation_unit+0x10>
   16c68:	e11c                	c.sd	a5,0(a0)
   16c6a:	3cc000ef          	jal	ra,17036 <dwarf::unit::~unit()>
   16c6e:	60a2                	c.ldsp	ra,8(sp)
   16c70:	0141                	c.addi	sp,16
   16c72:	8082                	c.jr	ra

0000000000016c74 <dwarf::compilation_unit::~compilation_unit()>:
   16c74:	1141                	c.addi	sp,-16
   16c76:	e406                	c.sdsp	ra,8(sp)
   16c78:	e022                	c.sdsp	s0,0(sp)
   16c7a:	842a                	c.mv	s0,a0
   16c7c:	0002d7b7          	lui	a5,0x2d
   16c80:	20078793          	addi	a5,a5,512 # 2d200 <vtable for dwarf::compilation_unit+0x10>
   16c84:	e11c                	c.sd	a5,0(a0)
   16c86:	3b0000ef          	jal	ra,17036 <dwarf::unit::~unit()>
   16c8a:	8522                	c.mv	a0,s0
   16c8c:	825ff0ef          	jal	ra,164b0 <operator delete(void*)@plt>
   16c90:	60a2                	c.ldsp	ra,8(sp)
   16c92:	6402                	c.ldsp	s0,0(sp)
   16c94:	0141                	c.addi	sp,16
   16c96:	8082                	c.jr	ra

0000000000016c98 <dwarf::elf::elf_loader<elf::elf>::~elf_loader()>:
template <typename Elf> class elf_loader : public loader {
   16c98:	1141                	c.addi	sp,-16
   16c9a:	e406                	c.sdsp	ra,8(sp)
   16c9c:	e022                	c.sdsp	s0,0(sp)
   16c9e:	0002d7b7          	lui	a5,0x2d
   16ca2:	22078793          	addi	a5,a5,544 # 2d220 <vtable for dwarf::elf::elf_loader<elf::elf>+0x10>
   16ca6:	e11c                	c.sd	a5,0(a0)
	if (_M_pi != nullptr)
   16ca8:	6900                	c.ld	s0,16(a0)
   16caa:	c819                	c.beqz	s0,16cc0 <dwarf::elf::elf_loader<elf::elf>::~elf_loader()+0x28>
    if (__is_single_threaded())
   16cac:	e181c783          	lbu	a5,-488(gp) # 39618 <__libc_single_threaded@GLIBC_2.32>
   16cb0:	cf81                	c.beqz	a5,16cc8 <dwarf::elf::elf_loader<elf::elf>::~elf_loader()+0x30>
    _Atomic_word __result = *__mem;
   16cb2:	5808                	c.lw	a0,48(s0)
    *__mem += __val;
   16cb4:	fff5079b          	addiw	a5,a0,-1
   16cb8:	d81c                	c.sw	a5,48(s0)
      if (__gnu_cxx::__exchange_and_add_dispatch(&_M_use_count, -1) == 1)
   16cba:	4785                	c.li	a5,1
   16cbc:	00f50c63          	beq	a0,a5,16cd4 <dwarf::elf::elf_loader<elf::elf>::~elf_loader()+0x3c>
   16cc0:	60a2                	c.ldsp	ra,8(sp)
   16cc2:	6402                	c.ldsp	s0,0(sp)
   16cc4:	0141                	c.addi	sp,16
   16cc6:	8082                	c.jr	ra
      return __exchange_and_add(__mem, __val);
   16cc8:	55fd                	c.li	a1,-1
   16cca:	03040513          	addi	a0,s0,48
   16cce:	e62ff0ef          	jal	ra,16330 <__gnu_cxx::__exchange_and_add(int volatile*, int)@plt>
   16cd2:	b7e5                	c.j	16cba <dwarf::elf::elf_loader<elf::elf>::~elf_loader()+0x22>
	_M_dispose();
   16cd4:	601c                	c.ld	a5,0(s0)
   16cd6:	6b9c                	c.ld	a5,16(a5)
   16cd8:	8522                	c.mv	a0,s0
   16cda:	9782                	c.jalr	a5
	    __atomic_thread_fence (__ATOMIC_ACQ_REL);
   16cdc:	0ff0000f          	fence	iorw,iorw
    if (__is_single_threaded())
   16ce0:	e181c783          	lbu	a5,-488(gp) # 39618 <__libc_single_threaded@GLIBC_2.32>
   16ce4:	cf89                	c.beqz	a5,16cfe <dwarf::elf::elf_loader<elf::elf>::~elf_loader()+0x66>
    _Atomic_word __result = *__mem;
   16ce6:	5848                	c.lw	a0,52(s0)
    *__mem += __val;
   16ce8:	fff5079b          	addiw	a5,a0,-1
   16cec:	d85c                	c.sw	a5,52(s0)
	if (__gnu_cxx::__exchange_and_add_dispatch(&_M_weak_count,
   16cee:	4785                	c.li	a5,1
   16cf0:	fcf518e3          	bne	a0,a5,16cc0 <dwarf::elf::elf_loader<elf::elf>::~elf_loader()+0x28>
	    _M_destroy();
   16cf4:	601c                	c.ld	a5,0(s0)
   16cf6:	6f9c                	c.ld	a5,24(a5)
   16cf8:	8522                	c.mv	a0,s0
   16cfa:	9782                	c.jalr	a5
   16cfc:	b7d1                	c.j	16cc0 <dwarf::elf::elf_loader<elf::elf>::~elf_loader()+0x28>
      return __exchange_and_add(__mem, __val);
   16cfe:	55fd                	c.li	a1,-1
   16d00:	03440513          	addi	a0,s0,52
   16d04:	e2cff0ef          	jal	ra,16330 <__gnu_cxx::__exchange_and_add(int volatile*, int)@plt>
   16d08:	b7dd                	c.j	16cee <dwarf::elf::elf_loader<elf::elf>::~elf_loader()+0x56>

0000000000016d0a <dwarf::elf::elf_loader<elf::elf>::~elf_loader()>:
   16d0a:	1101                	c.addi	sp,-32
   16d0c:	ec06                	c.sdsp	ra,24(sp)
   16d0e:	e822                	c.sdsp	s0,16(sp)
   16d10:	e426                	c.sdsp	s1,8(sp)
   16d12:	842a                	c.mv	s0,a0
   16d14:	0002d7b7          	lui	a5,0x2d
   16d18:	22078793          	addi	a5,a5,544 # 2d220 <vtable for dwarf::elf::elf_loader<elf::elf>+0x10>
   16d1c:	e11c                	c.sd	a5,0(a0)
	if (_M_pi != nullptr)
   16d1e:	6904                	c.ld	s1,16(a0)
   16d20:	c899                	c.beqz	s1,16d36 <dwarf::elf::elf_loader<elf::elf>::~elf_loader()+0x2c>
    if (__is_single_threaded())
   16d22:	e181c783          	lbu	a5,-488(gp) # 39618 <__libc_single_threaded@GLIBC_2.32>
   16d26:	c385                	c.beqz	a5,16d46 <dwarf::elf::elf_loader<elf::elf>::~elf_loader()+0x3c>
    _Atomic_word __result = *__mem;
   16d28:	5888                	c.lw	a0,48(s1)
    *__mem += __val;
   16d2a:	fff5079b          	addiw	a5,a0,-1
   16d2e:	d89c                	c.sw	a5,48(s1)
      if (__gnu_cxx::__exchange_and_add_dispatch(&_M_use_count, -1) == 1)
   16d30:	4785                	c.li	a5,1
   16d32:	02f50063          	beq	a0,a5,16d52 <dwarf::elf::elf_loader<elf::elf>::~elf_loader()+0x48>
   16d36:	8522                	c.mv	a0,s0
   16d38:	f78ff0ef          	jal	ra,164b0 <operator delete(void*)@plt>
   16d3c:	60e2                	c.ldsp	ra,24(sp)
   16d3e:	6442                	c.ldsp	s0,16(sp)
   16d40:	64a2                	c.ldsp	s1,8(sp)
   16d42:	6105                	c.addi16sp	sp,32
   16d44:	8082                	c.jr	ra
      return __exchange_and_add(__mem, __val);
   16d46:	55fd                	c.li	a1,-1
   16d48:	03048513          	addi	a0,s1,48
   16d4c:	de4ff0ef          	jal	ra,16330 <__gnu_cxx::__exchange_and_add(int volatile*, int)@plt>
   16d50:	b7c5                	c.j	16d30 <dwarf::elf::elf_loader<elf::elf>::~elf_loader()+0x26>
	_M_dispose();
   16d52:	609c                	c.ld	a5,0(s1)
   16d54:	6b9c                	c.ld	a5,16(a5)
   16d56:	8526                	c.mv	a0,s1
   16d58:	9782                	c.jalr	a5
	    __atomic_thread_fence (__ATOMIC_ACQ_REL);
   16d5a:	0ff0000f          	fence	iorw,iorw
    if (__is_single_threaded())
   16d5e:	e181c783          	lbu	a5,-488(gp) # 39618 <__libc_single_threaded@GLIBC_2.32>
   16d62:	cf89                	c.beqz	a5,16d7c <dwarf::elf::elf_loader<elf::elf>::~elf_loader()+0x72>
    _Atomic_word __result = *__mem;
   16d64:	58c8                	c.lw	a0,52(s1)
    *__mem += __val;
   16d66:	fff5079b          	addiw	a5,a0,-1
   16d6a:	d8dc                	c.sw	a5,52(s1)
	if (__gnu_cxx::__exchange_and_add_dispatch(&_M_weak_count,
   16d6c:	4785                	c.li	a5,1
   16d6e:	fcf514e3          	bne	a0,a5,16d36 <dwarf::elf::elf_loader<elf::elf>::~elf_loader()+0x2c>
	    _M_destroy();
   16d72:	609c                	c.ld	a5,0(s1)
   16d74:	6f9c                	c.ld	a5,24(a5)
   16d76:	8526                	c.mv	a0,s1
   16d78:	9782                	c.jalr	a5
   16d7a:	bf75                	c.j	16d36 <dwarf::elf::elf_loader<elf::elf>::~elf_loader()+0x2c>
      return __exchange_and_add(__mem, __val);
   16d7c:	55fd                	c.li	a1,-1
   16d7e:	03448513          	addi	a0,s1,52
   16d82:	daeff0ef          	jal	ra,16330 <__gnu_cxx::__exchange_and_add(int volatile*, int)@plt>
   16d86:	b7dd                	c.j	16d6c <dwarf::elf::elf_loader<elf::elf>::~elf_loader()+0x62>

0000000000016d88 <std::_Sp_counted_base<(__gnu_cxx::_Lock_policy)1>::_M_release()>:
    {
   16d88:	1141                	c.addi	sp,-16
   16d8a:	e406                	c.sdsp	ra,8(sp)
   16d8c:	e022                	c.sdsp	s0,0(sp)
   16d8e:	842a                	c.mv	s0,a0
    if (__is_single_threaded())
   16d90:	e181c783          	lbu	a5,-488(gp) # 39618 <__libc_single_threaded@GLIBC_2.32>
   16d94:	cf81                	c.beqz	a5,16dac <std::_Sp_counted_base<(__gnu_cxx::_Lock_policy)1>::_M_release()+0x24>
    _Atomic_word __result = *__mem;
   16d96:	5908                	c.lw	a0,48(a0)
    *__mem += __val;
   16d98:	fff5079b          	addiw	a5,a0,-1
   16d9c:	d81c                	c.sw	a5,48(s0)
      if (__gnu_cxx::__exchange_and_add_dispatch(&_M_use_count, -1) == 1)
   16d9e:	4785                	c.li	a5,1
   16da0:	00f50c63          	beq	a0,a5,16db8 <std::_Sp_counted_base<(__gnu_cxx::_Lock_policy)1>::_M_release()+0x30>
    }
   16da4:	60a2                	c.ldsp	ra,8(sp)
   16da6:	6402                	c.ldsp	s0,0(sp)
   16da8:	0141                	c.addi	sp,16
   16daa:	8082                	c.jr	ra
      return __exchange_and_add(__mem, __val);
   16dac:	55fd                	c.li	a1,-1
   16dae:	03050513          	addi	a0,a0,48
   16db2:	d7eff0ef          	jal	ra,16330 <__gnu_cxx::__exchange_and_add(int volatile*, int)@plt>
   16db6:	b7e5                	c.j	16d9e <std::_Sp_counted_base<(__gnu_cxx::_Lock_policy)1>::_M_release()+0x16>
	_M_dispose();
   16db8:	601c                	c.ld	a5,0(s0)
   16dba:	6b9c                	c.ld	a5,16(a5)
   16dbc:	8522                	c.mv	a0,s0
   16dbe:	9782                	c.jalr	a5
	    __atomic_thread_fence (__ATOMIC_ACQ_REL);
   16dc0:	0ff0000f          	fence	iorw,iorw
    if (__is_single_threaded())
   16dc4:	e181c783          	lbu	a5,-488(gp) # 39618 <__libc_single_threaded@GLIBC_2.32>
   16dc8:	cf89                	c.beqz	a5,16de2 <std::_Sp_counted_base<(__gnu_cxx::_Lock_policy)1>::_M_release()+0x5a>
    _Atomic_word __result = *__mem;
   16dca:	5848                	c.lw	a0,52(s0)
    *__mem += __val;
   16dcc:	fff5079b          	addiw	a5,a0,-1
   16dd0:	d85c                	c.sw	a5,52(s0)
	if (__gnu_cxx::__exchange_and_add_dispatch(&_M_weak_count,
   16dd2:	4785                	c.li	a5,1
   16dd4:	fcf518e3          	bne	a0,a5,16da4 <std::_Sp_counted_base<(__gnu_cxx::_Lock_policy)1>::_M_release()+0x1c>
	    _M_destroy();
   16dd8:	601c                	c.ld	a5,0(s0)
   16dda:	6f9c                	c.ld	a5,24(a5)
   16ddc:	8522                	c.mv	a0,s0
   16dde:	9782                	c.jalr	a5
    }
   16de0:	b7d1                	c.j	16da4 <std::_Sp_counted_base<(__gnu_cxx::_Lock_policy)1>::_M_release()+0x1c>
      return __exchange_and_add(__mem, __val);
   16de2:	55fd                	c.li	a1,-1
   16de4:	03440513          	addi	a0,s0,52
   16de8:	d48ff0ef          	jal	ra,16330 <__gnu_cxx::__exchange_and_add(int volatile*, int)@plt>
   16dec:	b7dd                	c.j	16dd2 <std::_Sp_counted_base<(__gnu_cxx::_Lock_policy)1>::_M_release()+0x4a>

0000000000016dee <dwarf::elf::elf_loader<elf::elf>::load(dwarf::section_type, unsigned long*)>:

  const void *load(section_type section, size_t *size_out) {
   16dee:	7159                	c.addi16sp	sp,-112
   16df0:	f486                	c.sdsp	ra,104(sp)
   16df2:	f0a2                	c.sdsp	s0,96(sp)
   16df4:	eca6                	c.sdsp	s1,88(sp)
   16df6:	e8ca                	c.sdsp	s2,80(sp)
   16df8:	e4ce                	c.sdsp	s3,72(sp)
   16dfa:	8932                	c.mv	s2,a2
    auto sec = f.get_section(section_type_to_name(section));
   16dfc:	00850993          	addi	s3,a0,8
   16e00:	852e                	c.mv	a0,a1
   16e02:	3200f0ef          	jal	ra,26122 <dwarf::elf::section_type_to_name(dwarf::section_type)>
	: allocator_type(__a), _M_p(__dat) { }
   16e06:	101c                	c.addi4spn	a5,sp,32
   16e08:	e83e                	c.sdsp	a5,16(sp)
      _GLIBCXX20_CONSTEXPR
      basic_string(const _CharT* __s, const _Alloc& __a = _Alloc())
      : _M_dataplus(_M_local_data(), __a)
      {
	// NB: Not required, but considered best practice.
	if (__s == 0)
   16e0a:	c91d                	c.beqz	a0,16e40 <dwarf::elf::elf_loader<elf::elf>::load(dwarf::section_type, unsigned long*)+0x52>
   16e0c:	84aa                	c.mv	s1,a0
      {
#if __cplusplus >= 201703L
	if (std::__is_constant_evaluated())
	  return __gnu_cxx::char_traits<char_type>::length(__s);
#endif
	return __builtin_strlen(__s);
   16e0e:	db2ff0ef          	jal	ra,163c0 <strlen@plt>
   16e12:	842a                	c.mv	s0,a0
      void
      basic_string<_CharT, _Traits, _Alloc>::
      _M_construct(_InIterator __beg, _InIterator __end,
		   std::forward_iterator_tag)
      {
	size_type __dnew = static_cast<size_type>(std::distance(__beg, __end));
   16e14:	e42a                	c.sdsp	a0,8(sp)

	if (__dnew > size_type(_S_local_capacity))
   16e16:	47bd                	c.li	a5,15
   16e18:	02a7ea63          	bltu	a5,a0,16e4c <dwarf::elf::elf_loader<elf::elf>::load(dwarf::section_type, unsigned long*)+0x5e>
	if (__n == 1)
   16e1c:	4785                	c.li	a5,1
   16e1e:	04f51463          	bne	a0,a5,16e66 <dwarf::elf::elf_loader<elf::elf>::load(dwarf::section_type, unsigned long*)+0x78>
	__c1 = __c2;
   16e22:	0004c783          	lbu	a5,0(s1)
   16e26:	02f10023          	sb	a5,32(sp)

	this->_S_copy_chars(_M_data(), __beg, __end);

	__guard._M_guarded = 0;

	_M_set_length(__dnew);
   16e2a:	6722                	c.ldsp	a4,8(sp)
      { _M_string_length = __length; }
   16e2c:	ec3a                	c.sdsp	a4,24(sp)
   16e2e:	67c2                	c.ldsp	a5,16(sp)
   16e30:	97ba                	c.add	a5,a4
   16e32:	00078023          	sb	zero,0(a5)
   16e36:	080c                	c.addi4spn	a1,sp,16
   16e38:	854e                	c.mv	a0,s3
   16e3a:	50d130ef          	jal	ra,2ab46 <elf::elf::get_section(std::__cxx11::basic_string<char, std::char_traits<char>, std::allocator<char> > const&) const>
   16e3e:	a03d                	c.j	16e6c <dwarf::elf::elf_loader<elf::elf>::load(dwarf::section_type, unsigned long*)+0x7e>
	  std::__throw_logic_error(__N("basic_string: "
   16e40:	0002d537          	lui	a0,0x2d
   16e44:	f2050513          	addi	a0,a0,-224 # 2cf20 <__libc_csu_fini+0x8>
   16e48:	e18ff0ef          	jal	ra,16460 <std::__throw_logic_error(char const*)@plt>
	    _M_data(_M_create(__dnew, size_type(0)));
   16e4c:	4601                	c.li	a2,0
   16e4e:	002c                	c.addi4spn	a1,sp,8
   16e50:	0808                	c.addi4spn	a0,sp,16
   16e52:	85fff0ef          	jal	ra,166b0 <std::__cxx11::basic_string<char, std::char_traits<char>, std::allocator<char> >::_M_create(unsigned long&, unsigned long)@plt>
      { _M_dataplus._M_p = __p; }
   16e56:	e82a                	c.sdsp	a0,16(sp)
      { _M_allocated_capacity = __capacity; }
   16e58:	67a2                	c.ldsp	a5,8(sp)
   16e5a:	f03e                	c.sdsp	a5,32(sp)
	  return __s1;
#if __cplusplus >= 202002L
	if (std::__is_constant_evaluated())
	  return __gnu_cxx::char_traits<char_type>::copy(__s1, __s2, __n);
#endif
	return static_cast<char_type*>(__builtin_memcpy(__s1, __s2, __n));
   16e5c:	8622                	c.mv	a2,s0
   16e5e:	85a6                	c.mv	a1,s1
   16e60:	ef0ff0ef          	jal	ra,16550 <memcpy@plt>
   16e64:	b7d9                	c.j	16e2a <dwarf::elf::elf_loader<elf::elf>::load(dwarf::section_type, unsigned long*)+0x3c>
	if (__n == 0)
   16e66:	d171                	c.beqz	a0,16e2a <dwarf::elf::elf_loader<elf::elf>::load(dwarf::section_type, unsigned long*)+0x3c>
      { return _M_dataplus._M_p; }
   16e68:	1008                	c.addi4spn	a0,sp,32
   16e6a:	bfcd                	c.j	16e5c <dwarf::elf::elf_loader<elf::elf>::load(dwarf::section_type, unsigned long*)+0x6e>
      __shared_ptr(const __shared_ptr&) noexcept = default;
   16e6c:	611c                	c.ld	a5,0(a0)
   16e6e:	f83e                	c.sdsp	a5,48(sp)
      : _M_pi(__r._M_pi)
   16e70:	6508                	c.ld	a0,8(a0)
   16e72:	fc2a                	c.sdsp	a0,56(sp)
	if (_M_pi != nullptr)
   16e74:	c519                	c.beqz	a0,16e82 <dwarf::elf::elf_loader<elf::elf>::load(dwarf::section_type, unsigned long*)+0x94>
    if (__is_single_threaded())
   16e76:	e181c783          	lbu	a5,-488(gp) # 39618 <__libc_single_threaded@GLIBC_2.32>
   16e7a:	c385                	c.beqz	a5,16e9a <dwarf::elf::elf_loader<elf::elf>::load(dwarf::section_type, unsigned long*)+0xac>
  { *__mem += __val; }
   16e7c:	591c                	c.lw	a5,48(a0)
   16e7e:	2785                	c.addiw	a5,1
   16e80:	d91c                	c.sw	a5,48(a0)
   16e82:	6542                	c.ldsp	a0,16(sp)
	if (!_M_is_local())
   16e84:	101c                	c.addi4spn	a5,sp,32
   16e86:	00f50463          	beq	a0,a5,16e8e <dwarf::elf::elf_loader<elf::elf>::load(dwarf::section_type, unsigned long*)+0xa0>
   16e8a:	e26ff0ef          	jal	ra,164b0 <operator delete(void*)@plt>
      get() const noexcept
      { return _M_ptr; }

      /// Return true if the stored pointer is not null.
      explicit operator bool() const noexcept
      { return _M_ptr != nullptr; }
   16e8e:	7442                	c.ldsp	s0,48(sp)
    if (!sec.valid())
   16e90:	c00d                	c.beqz	s0,16eb2 <dwarf::elf::elf_loader<elf::elf>::load(dwarf::section_type, unsigned long*)+0xc4>
      return nullptr;
    *size_out = sec.size();
   16e92:	1808                	c.addi4spn	a0,sp,48
   16e94:	7e4130ef          	jal	ra,2a678 <elf::section::size() const>
   16e98:	a039                	c.j	16ea6 <dwarf::elf::elf_loader<elf::elf>::load(dwarf::section_type, unsigned long*)+0xb8>
      __atomic_add(__mem, __val);
   16e9a:	4585                	c.li	a1,1
   16e9c:	03050513          	addi	a0,a0,48
   16ea0:	c60ff0ef          	jal	ra,16300 <__gnu_cxx::__atomic_add(int volatile*, int)@plt>
   16ea4:	bff9                	c.j	16e82 <dwarf::elf::elf_loader<elf::elf>::load(dwarf::section_type, unsigned long*)+0x94>
   16ea6:	00a93023          	sd	a0,0(s2)
    return sec.data();
   16eaa:	1808                	c.addi4spn	a0,sp,48
   16eac:	70c130ef          	jal	ra,2a5b8 <elf::section::data() const>
   16eb0:	842a                	c.mv	s0,a0
	if (_M_pi != nullptr)
   16eb2:	74e2                	c.ldsp	s1,56(sp)
   16eb4:	c899                	c.beqz	s1,16eca <dwarf::elf::elf_loader<elf::elf>::load(dwarf::section_type, unsigned long*)+0xdc>
    if (__is_single_threaded())
   16eb6:	e181c783          	lbu	a5,-488(gp) # 39618 <__libc_single_threaded@GLIBC_2.32>
   16eba:	c385                	c.beqz	a5,16eda <dwarf::elf::elf_loader<elf::elf>::load(dwarf::section_type, unsigned long*)+0xec>
    _Atomic_word __result = *__mem;
   16ebc:	5888                	c.lw	a0,48(s1)
    *__mem += __val;
   16ebe:	fff5079b          	addiw	a5,a0,-1
   16ec2:	d89c                	c.sw	a5,48(s1)
      if (__gnu_cxx::__exchange_and_add_dispatch(&_M_use_count, -1) == 1)
   16ec4:	4785                	c.li	a5,1
   16ec6:	02f50063          	beq	a0,a5,16ee6 <dwarf::elf::elf_loader<elf::elf>::load(dwarf::section_type, unsigned long*)+0xf8>
  }
   16eca:	8522                	c.mv	a0,s0
   16ecc:	70a6                	c.ldsp	ra,104(sp)
   16ece:	7406                	c.ldsp	s0,96(sp)
   16ed0:	64e6                	c.ldsp	s1,88(sp)
   16ed2:	6946                	c.ldsp	s2,80(sp)
   16ed4:	69a6                	c.ldsp	s3,72(sp)
   16ed6:	6165                	c.addi16sp	sp,112
   16ed8:	8082                	c.jr	ra
      return __exchange_and_add(__mem, __val);
   16eda:	55fd                	c.li	a1,-1
   16edc:	03048513          	addi	a0,s1,48
   16ee0:	c50ff0ef          	jal	ra,16330 <__gnu_cxx::__exchange_and_add(int volatile*, int)@plt>
   16ee4:	b7c5                	c.j	16ec4 <dwarf::elf::elf_loader<elf::elf>::load(dwarf::section_type, unsigned long*)+0xd6>
	_M_dispose();
   16ee6:	609c                	c.ld	a5,0(s1)
   16ee8:	6b9c                	c.ld	a5,16(a5)
   16eea:	8526                	c.mv	a0,s1
   16eec:	9782                	c.jalr	a5
	    __atomic_thread_fence (__ATOMIC_ACQ_REL);
   16eee:	0ff0000f          	fence	iorw,iorw
    if (__is_single_threaded())
   16ef2:	e181c783          	lbu	a5,-488(gp) # 39618 <__libc_single_threaded@GLIBC_2.32>
   16ef6:	cf89                	c.beqz	a5,16f10 <dwarf::elf::elf_loader<elf::elf>::load(dwarf::section_type, unsigned long*)+0x122>
    _Atomic_word __result = *__mem;
   16ef8:	58c8                	c.lw	a0,52(s1)
    *__mem += __val;
   16efa:	fff5079b          	addiw	a5,a0,-1
   16efe:	d8dc                	c.sw	a5,52(s1)
	if (__gnu_cxx::__exchange_and_add_dispatch(&_M_weak_count,
   16f00:	4785                	c.li	a5,1
   16f02:	fcf514e3          	bne	a0,a5,16eca <dwarf::elf::elf_loader<elf::elf>::load(dwarf::section_type, unsigned long*)+0xdc>
	    _M_destroy();
   16f06:	609c                	c.ld	a5,0(s1)
   16f08:	6f9c                	c.ld	a5,24(a5)
   16f0a:	8526                	c.mv	a0,s1
   16f0c:	9782                	c.jalr	a5
   16f0e:	bf75                	c.j	16eca <dwarf::elf::elf_loader<elf::elf>::load(dwarf::section_type, unsigned long*)+0xdc>
      return __exchange_and_add(__mem, __val);
   16f10:	55fd                	c.li	a1,-1
   16f12:	03448513          	addi	a0,s1,52
   16f16:	c1aff0ef          	jal	ra,16330 <__gnu_cxx::__exchange_and_add(int volatile*, int)@plt>
   16f1a:	b7dd                	c.j	16f00 <dwarf::elf::elf_loader<elf::elf>::load(dwarf::section_type, unsigned long*)+0x112>
      { return _M_dataplus._M_p; }
   16f1c:	842a                	c.mv	s0,a0
   16f1e:	6542                	c.ldsp	a0,16(sp)
	if (!_M_is_local())
   16f20:	101c                	c.addi4spn	a5,sp,32
   16f22:	00f50463          	beq	a0,a5,16f2a <dwarf::elf::elf_loader<elf::elf>::load(dwarf::section_type, unsigned long*)+0x13c>
   16f26:	d8aff0ef          	jal	ra,164b0 <operator delete(void*)@plt>
      ~__new_allocator() _GLIBCXX_USE_NOEXCEPT { }
   16f2a:	8522                	c.mv	a0,s0
   16f2c:	f64ff0ef          	jal	ra,16690 <_Unwind_Resume@plt>
	if (_M_pi != nullptr)
   16f30:	842a                	c.mv	s0,a0
   16f32:	7562                	c.ldsp	a0,56(sp)
   16f34:	c119                	c.beqz	a0,16f3a <dwarf::elf::elf_loader<elf::elf>::load(dwarf::section_type, unsigned long*)+0x14c>
	  _M_pi->_M_release();
   16f36:	e53ff0ef          	jal	ra,16d88 <std::_Sp_counted_base<(__gnu_cxx::_Lock_policy)1>::_M_release()>
   16f3a:	8522                	c.mv	a0,s0
   16f3c:	f54ff0ef          	jal	ra,16690 <_Unwind_Resume@plt>

0000000000016f40 <dwarf::small_vector<unsigned long, 6u>::~small_vector()>:
  ~small_vector() {
   16f40:	86aa                	c.mv	a3,a0
    for (T *p = base; p < end; ++p)
   16f42:	7908                	c.ld	a0,48(a0)
   16f44:	7e9c                	c.ld	a5,56(a3)
   16f46:	00f57763          	bgeu	a0,a5,16f54 <dwarf::small_vector<unsigned long, 6u>::~small_vector()+0x14>
   16f4a:	87aa                	c.mv	a5,a0
   16f4c:	07a1                	c.addi	a5,8
   16f4e:	7e98                	c.ld	a4,56(a3)
   16f50:	fee7eee3          	bltu	a5,a4,16f4c <dwarf::small_vector<unsigned long, 6u>::~small_vector()+0xc>
    end = base;
   16f54:	fe88                	c.sd	a0,56(a3)
    if ((char *)base != buf)
   16f56:	00a68a63          	beq	a3,a0,16f6a <dwarf::small_vector<unsigned long, 6u>::~small_vector()+0x2a>
      delete[] (char *)base;
   16f5a:	c901                	c.beqz	a0,16f6a <dwarf::small_vector<unsigned long, 6u>::~small_vector()+0x2a>
  ~small_vector() {
   16f5c:	1141                	c.addi	sp,-16
   16f5e:	e406                	c.sdsp	ra,8(sp)
      delete[] (char *)base;
   16f60:	e00ff0ef          	jal	ra,16560 <operator delete[](void*)@plt>
  }
   16f64:	60a2                	c.ldsp	ra,8(sp)
   16f66:	0141                	c.addi	sp,16
   16f68:	8082                	c.jr	ra
   16f6a:	8082                	c.jr	ra

0000000000016f6c <dwarf::dwarf::~dwarf()>:
    m->compilation_units.emplace_back(*this, infocur.get_section_offset());
    infocur.subsection();
  }
}

dwarf::~dwarf() {}
   16f6c:	1141                	c.addi	sp,-16
   16f6e:	e406                	c.sdsp	ra,8(sp)
   16f70:	e022                	c.sdsp	s0,0(sp)
	if (_M_pi != nullptr)
   16f72:	6500                	c.ld	s0,8(a0)
   16f74:	cc19                	c.beqz	s0,16f92 <dwarf::dwarf::~dwarf()+0x26>
    if (__is_single_threaded())
   16f76:	00022797          	auipc	a5,0x22
   16f7a:	5027b783          	ld	a5,1282(a5) # 39478 <__libc_single_threaded@GLIBC_2.32-0x1a0>
   16f7e:	0007c783          	lbu	a5,0(a5)
   16f82:	cf81                	c.beqz	a5,16f9a <dwarf::dwarf::~dwarf()+0x2e>
    _Atomic_word __result = *__mem;
   16f84:	5808                	c.lw	a0,48(s0)
    *__mem += __val;
   16f86:	fff5079b          	addiw	a5,a0,-1
   16f8a:	d81c                	c.sw	a5,48(s0)
      if (__gnu_cxx::__exchange_and_add_dispatch(&_M_use_count, -1) == 1)
   16f8c:	4785                	c.li	a5,1
   16f8e:	00f50c63          	beq	a0,a5,16fa6 <dwarf::dwarf::~dwarf()+0x3a>
   16f92:	60a2                	c.ldsp	ra,8(sp)
   16f94:	6402                	c.ldsp	s0,0(sp)
   16f96:	0141                	c.addi	sp,16
   16f98:	8082                	c.jr	ra
      return __exchange_and_add(__mem, __val);
   16f9a:	55fd                	c.li	a1,-1
   16f9c:	03040513          	addi	a0,s0,48
   16fa0:	b90ff0ef          	jal	ra,16330 <__gnu_cxx::__exchange_and_add(int volatile*, int)@plt>
   16fa4:	b7e5                	c.j	16f8c <dwarf::dwarf::~dwarf()+0x20>
	_M_dispose();
   16fa6:	601c                	c.ld	a5,0(s0)
   16fa8:	6b9c                	c.ld	a5,16(a5)
   16faa:	8522                	c.mv	a0,s0
   16fac:	9782                	c.jalr	a5
	    __atomic_thread_fence (__ATOMIC_ACQ_REL);
   16fae:	0ff0000f          	fence	iorw,iorw
    if (__is_single_threaded())
   16fb2:	00022797          	auipc	a5,0x22
   16fb6:	4c67b783          	ld	a5,1222(a5) # 39478 <__libc_single_threaded@GLIBC_2.32-0x1a0>
   16fba:	0007c783          	lbu	a5,0(a5)
   16fbe:	cf89                	c.beqz	a5,16fd8 <dwarf::dwarf::~dwarf()+0x6c>
    _Atomic_word __result = *__mem;
   16fc0:	5848                	c.lw	a0,52(s0)
    *__mem += __val;
   16fc2:	fff5079b          	addiw	a5,a0,-1
   16fc6:	d85c                	c.sw	a5,52(s0)
	if (__gnu_cxx::__exchange_and_add_dispatch(&_M_weak_count,
   16fc8:	4785                	c.li	a5,1
   16fca:	fcf514e3          	bne	a0,a5,16f92 <dwarf::dwarf::~dwarf()+0x26>
	    _M_destroy();
   16fce:	601c                	c.ld	a5,0(s0)
   16fd0:	6f9c                	c.ld	a5,24(a5)
   16fd2:	8522                	c.mv	a0,s0
   16fd4:	9782                	c.jalr	a5
   16fd6:	bf75                	c.j	16f92 <dwarf::dwarf::~dwarf()+0x26>
      return __exchange_and_add(__mem, __val);
   16fd8:	55fd                	c.li	a1,-1
   16fda:	03440513          	addi	a0,s0,52
   16fde:	b52ff0ef          	jal	ra,16330 <__gnu_cxx::__exchange_and_add(int volatile*, int)@plt>
   16fe2:	b7dd                	c.j	16fc8 <dwarf::dwarf::~dwarf()+0x5c>

0000000000016fe4 <dwarf::dwarf::compilation_units() const>:

const std::vector<compilation_unit> &dwarf::compilation_units() const {
   16fe4:	1141                	c.addi	sp,-16
   16fe6:	e406                	c.sdsp	ra,8(sp)
   16fe8:	e022                	c.sdsp	s0,0(sp)
   16fea:	842a                	c.mv	s0,a0
  static std::vector<compilation_unit> empty;
   16fec:	e3818513          	addi	a0,gp,-456 # 39638 <guard variable for dwarf::dwarf::compilation_units() const::empty>
   16ff0:	ef0ff0ef          	jal	ra,166e0 <__cxa_guard_acquire@plt>
   16ff4:	e909                	c.bnez	a0,17006 <dwarf::dwarf::compilation_units() const+0x22>
      { return _M_ptr != nullptr; }
   16ff6:	6008                	c.ld	a0,0(s0)
  if (!m)
   16ff8:	cd05                	c.beqz	a0,17030 <dwarf::dwarf::compilation_units() const+0x4c>
    return empty;
  return m->compilation_units;
   16ffa:	03050513          	addi	a0,a0,48
}
   16ffe:	60a2                	c.ldsp	ra,8(sp)
   17000:	6402                	c.ldsp	s0,0(sp)
   17002:	0141                	c.addi	sp,16
   17004:	8082                	c.jr	ra
	: _M_start(), _M_finish(), _M_end_of_storage()
   17006:	e2018593          	addi	a1,gp,-480 # 39620 <dwarf::dwarf::compilation_units() const::empty>
   1700a:	0005b023          	sd	zero,0(a1)
   1700e:	0005b423          	sd	zero,8(a1)
   17012:	0005b823          	sd	zero,16(a1)
  static std::vector<compilation_unit> empty;
   17016:	e0018613          	addi	a2,gp,-512 # 39600 <__dso_handle>
   1701a:	00022517          	auipc	a0,0x22
   1701e:	34e53503          	ld	a0,846(a0) # 39368 <std::vector<dwarf::compilation_unit, std::allocator<dwarf::compilation_unit> >::~vector()@@Base+0x1fc06>
   17022:	e9eff0ef          	jal	ra,166c0 <__cxa_atexit@plt>
   17026:	e3818513          	addi	a0,gp,-456 # 39638 <guard variable for dwarf::dwarf::compilation_units() const::empty>
   1702a:	c06ff0ef          	jal	ra,16430 <__cxa_guard_release@plt>
   1702e:	b7e1                	c.j	16ff6 <dwarf::dwarf::compilation_units() const+0x12>
    return empty;
   17030:	e2018513          	addi	a0,gp,-480 # 39620 <dwarf::dwarf::compilation_units() const::empty>
   17034:	b7e9                	c.j	16ffe <dwarf::dwarf::compilation_units() const+0x1a>

0000000000017036 <dwarf::unit::~unit()>:
        have_abbrevs(false) {}

  void force_abbrevs();
};

unit::~unit() {}
   17036:	1141                	c.addi	sp,-16
   17038:	e406                	c.sdsp	ra,8(sp)
   1703a:	e022                	c.sdsp	s0,0(sp)
   1703c:	00022797          	auipc	a5,0x22
   17040:	56c7b783          	ld	a5,1388(a5) # 395a8 <vtable for dwarf::unit@@Base+0xc3d8>
   17044:	07c1                	c.addi	a5,16
   17046:	e11c                	c.sd	a5,0(a0)
	if (_M_pi != nullptr)
   17048:	6900                	c.ld	s0,16(a0)
   1704a:	cc19                	c.beqz	s0,17068 <dwarf::unit::~unit()+0x32>
    if (__is_single_threaded())
   1704c:	00022797          	auipc	a5,0x22
   17050:	42c7b783          	ld	a5,1068(a5) # 39478 <__libc_single_threaded@GLIBC_2.32-0x1a0>
   17054:	0007c783          	lbu	a5,0(a5)
   17058:	cf81                	c.beqz	a5,17070 <dwarf::unit::~unit()+0x3a>
    _Atomic_word __result = *__mem;
   1705a:	5808                	c.lw	a0,48(s0)
    *__mem += __val;
   1705c:	fff5079b          	addiw	a5,a0,-1
   17060:	d81c                	c.sw	a5,48(s0)
      if (__gnu_cxx::__exchange_and_add_dispatch(&_M_use_count, -1) == 1)
   17062:	4785                	c.li	a5,1
   17064:	00f50c63          	beq	a0,a5,1707c <dwarf::unit::~unit()+0x46>
   17068:	60a2                	c.ldsp	ra,8(sp)
   1706a:	6402                	c.ldsp	s0,0(sp)
   1706c:	0141                	c.addi	sp,16
   1706e:	8082                	c.jr	ra
      return __exchange_and_add(__mem, __val);
   17070:	55fd                	c.li	a1,-1
   17072:	03040513          	addi	a0,s0,48
   17076:	abaff0ef          	jal	ra,16330 <__gnu_cxx::__exchange_and_add(int volatile*, int)@plt>
   1707a:	b7e5                	c.j	17062 <dwarf::unit::~unit()+0x2c>
	_M_dispose();
   1707c:	601c                	c.ld	a5,0(s0)
   1707e:	6b9c                	c.ld	a5,16(a5)
   17080:	8522                	c.mv	a0,s0
   17082:	9782                	c.jalr	a5
	    __atomic_thread_fence (__ATOMIC_ACQ_REL);
   17084:	0ff0000f          	fence	iorw,iorw
    if (__is_single_threaded())
   17088:	00022797          	auipc	a5,0x22
   1708c:	3f07b783          	ld	a5,1008(a5) # 39478 <__libc_single_threaded@GLIBC_2.32-0x1a0>
   17090:	0007c783          	lbu	a5,0(a5)
   17094:	cf89                	c.beqz	a5,170ae <dwarf::unit::~unit()+0x78>
    _Atomic_word __result = *__mem;
   17096:	5848                	c.lw	a0,52(s0)
    *__mem += __val;
   17098:	fff5079b          	addiw	a5,a0,-1
   1709c:	d85c                	c.sw	a5,52(s0)
	if (__gnu_cxx::__exchange_and_add_dispatch(&_M_weak_count,
   1709e:	4785                	c.li	a5,1
   170a0:	fcf514e3          	bne	a0,a5,17068 <dwarf::unit::~unit()+0x32>
	    _M_destroy();
   170a4:	601c                	c.ld	a5,0(s0)
   170a6:	6f9c                	c.ld	a5,24(a5)
   170a8:	8522                	c.mv	a0,s0
   170aa:	9782                	c.jalr	a5
   170ac:	bf75                	c.j	17068 <dwarf::unit::~unit()+0x32>
      return __exchange_and_add(__mem, __val);
   170ae:	55fd                	c.li	a1,-1
   170b0:	03440513          	addi	a0,s0,52
   170b4:	a7cff0ef          	jal	ra,16330 <__gnu_cxx::__exchange_and_add(int volatile*, int)@plt>
   170b8:	b7dd                	c.j	1709e <dwarf::unit::~unit()+0x68>

00000000000170ba <dwarf::unit::~unit()>:
   170ba:	1141                	c.addi	sp,-16
   170bc:	e406                	c.sdsp	ra,8(sp)
   170be:	e022                	c.sdsp	s0,0(sp)
   170c0:	842a                	c.mv	s0,a0
   170c2:	f75ff0ef          	jal	ra,17036 <dwarf::unit::~unit()>
   170c6:	8522                	c.mv	a0,s0
   170c8:	be8ff0ef          	jal	ra,164b0 <operator delete(void*)@plt>
   170cc:	60a2                	c.ldsp	ra,8(sp)
   170ce:	6402                	c.ldsp	s0,0(sp)
   170d0:	0141                	c.addi	sp,16
   170d2:	8082                	c.jr	ra

00000000000170d4 <dwarf::unit::get_dwarf() const>:

const dwarf &unit::get_dwarf() const { return m->file; }
   170d4:	6508                	c.ld	a0,8(a0)
   170d6:	8082                	c.jr	ra

00000000000170d8 <dwarf::unit::get_section_offset() const>:

section_offset unit::get_section_offset() const { return m->offset; }
   170d8:	651c                	c.ld	a5,8(a0)
   170da:	6b88                	c.ld	a0,16(a5)
   170dc:	8082                	c.jr	ra

00000000000170de <dwarf::unit::data() const>:
    m->root.read(m->root_offset);
  }
  return m->root;
}

const std::shared_ptr<section> &unit::data() const { return m->subsec; }
   170de:	6508                	c.ld	a0,8(a0)
   170e0:	0561                	c.addi	a0,24
   170e2:	8082                	c.jr	ra

00000000000170e4 <dwarf::type_unit::get_type_signature() const>:

  m = make_shared<impl>(file, offset, subsec, debug_abbrev_offset,
                        sub.get_section_offset(), type_signature, type_offset);
}

uint64_t type_unit::get_type_signature() const { return m->type_signature; }
   170e4:	651c                	c.ld	a5,8(a0)
   170e6:	7f88                	c.ld	a0,56(a5)
   170e8:	8082                	c.jr	ra

00000000000170ea <dwarf::dwarf::get_section(dwarf::section_type) const>:
std::shared_ptr<section> dwarf::get_section(section_type type) const {
   170ea:	7171                	c.addi16sp	sp,-176
   170ec:	f506                	c.sdsp	ra,168(sp)
   170ee:	f122                	c.sdsp	s0,160(sp)
   170f0:	ed26                	c.sdsp	s1,152(sp)
   170f2:	e94a                	c.sdsp	s2,144(sp)
   170f4:	e54e                	c.sdsp	s3,136(sp)
   170f6:	e152                	c.sdsp	s4,128(sp)
   170f8:	842a                	c.mv	s0,a0
   170fa:	84ae                	c.mv	s1,a1
   170fc:	c632                	c.swsp	a2,12(sp)
  if (type == section_type::info)
   170fe:	470d                	c.li	a4,3
   17100:	02e60d63          	beq	a2,a4,1713a <dwarf::dwarf::get_section(dwarf::section_type) const+0x50>
   17104:	87b2                	c.mv	a5,a2
  if (type == section_type::abbrev)
   17106:	e63d                	c.bnez	a2,17174 <dwarf::dwarf::get_section(dwarf::section_type) const+0x8a>
      { return _M_ptr; }
   17108:	619c                	c.ld	a5,0(a1)
      __shared_ptr(const __shared_ptr&) noexcept = default;
   1710a:	7398                	c.ld	a4,32(a5)
   1710c:	e118                	c.sd	a4,0(a0)
      : _M_pi(__r._M_pi)
   1710e:	7788                	c.ld	a0,40(a5)
   17110:	e408                	c.sd	a0,8(s0)
	if (_M_pi != nullptr)
   17112:	c919                	c.beqz	a0,17128 <dwarf::dwarf::get_section(dwarf::section_type) const+0x3e>
    if (__is_single_threaded())
   17114:	00022797          	auipc	a5,0x22
   17118:	3647b783          	ld	a5,868(a5) # 39478 <__libc_single_threaded@GLIBC_2.32-0x1a0>
   1711c:	0007c783          	lbu	a5,0(a5)
   17120:	c7a1                	c.beqz	a5,17168 <dwarf::dwarf::get_section(dwarf::section_type) const+0x7e>
  { *__mem += __val; }
   17122:	591c                	c.lw	a5,48(a0)
   17124:	2785                	c.addiw	a5,1
   17126:	d91c                	c.sw	a5,48(a0)
}
   17128:	8522                	c.mv	a0,s0
   1712a:	70aa                	c.ldsp	ra,168(sp)
   1712c:	740a                	c.ldsp	s0,160(sp)
   1712e:	64ea                	c.ldsp	s1,152(sp)
   17130:	694a                	c.ldsp	s2,144(sp)
   17132:	69aa                	c.ldsp	s3,136(sp)
   17134:	6a0a                	c.ldsp	s4,128(sp)
   17136:	614d                	c.addi16sp	sp,176
   17138:	8082                	c.jr	ra
      { return _M_ptr; }
   1713a:	619c                	c.ld	a5,0(a1)
      __shared_ptr(const __shared_ptr&) noexcept = default;
   1713c:	6b98                	c.ld	a4,16(a5)
   1713e:	e118                	c.sd	a4,0(a0)
      : _M_pi(__r._M_pi)
   17140:	6f88                	c.ld	a0,24(a5)
   17142:	e408                	c.sd	a0,8(s0)
	if (_M_pi != nullptr)
   17144:	d175                	c.beqz	a0,17128 <dwarf::dwarf::get_section(dwarf::section_type) const+0x3e>
    if (__is_single_threaded())
   17146:	00022797          	auipc	a5,0x22
   1714a:	3327b783          	ld	a5,818(a5) # 39478 <__libc_single_threaded@GLIBC_2.32-0x1a0>
   1714e:	0007c783          	lbu	a5,0(a5)
   17152:	c789                	c.beqz	a5,1715c <dwarf::dwarf::get_section(dwarf::section_type) const+0x72>
  { *__mem += __val; }
   17154:	591c                	c.lw	a5,48(a0)
   17156:	2785                	c.addiw	a5,1
   17158:	d91c                	c.sw	a5,48(a0)
   1715a:	b7f9                	c.j	17128 <dwarf::dwarf::get_section(dwarf::section_type) const+0x3e>
      __atomic_add(__mem, __val);
   1715c:	4585                	c.li	a1,1
   1715e:	03050513          	addi	a0,a0,48
   17162:	99eff0ef          	jal	ra,16300 <__gnu_cxx::__atomic_add(int volatile*, int)@plt>
   17166:	b7c9                	c.j	17128 <dwarf::dwarf::get_section(dwarf::section_type) const+0x3e>
   17168:	4585                	c.li	a1,1
   1716a:	03050513          	addi	a0,a0,48
   1716e:	992ff0ef          	jal	ra,16300 <__gnu_cxx::__atomic_add(int volatile*, int)@plt>
   17172:	bf5d                	c.j	17128 <dwarf::dwarf::get_section(dwarf::section_type) const+0x3e>
      { return _M_ptr; }
   17174:	618c                	c.ld	a1,0(a1)
      _M_rightmost() const _GLIBCXX_NOEXCEPT
      { return this->_M_impl._M_header._M_right; }

      _Link_type
      _M_mbegin() const _GLIBCXX_NOEXCEPT
      { return static_cast<_Link_type>(this->_M_impl._M_header._M_parent); }
   17176:	6dd8                	c.ld	a4,152(a1)
	  (this->_M_impl._M_header._M_parent);
      }

      _Base_ptr
      _M_end() _GLIBCXX_NOEXCEPT
      { return &this->_M_impl._M_header; }
   17178:	09058513          	addi	a0,a1,144
		      _Compare, _Alloc>::iterator
    _Rb_tree<_Key, _Val, _KeyOfValue, _Compare, _Alloc>::
    _M_lower_bound(_Link_type __x, _Base_ptr __y,
		   const _Key& __k)
    {
      while (__x != 0)
   1717c:	28070c63          	beq	a4,zero,17414 <dwarf::dwarf::get_section(dwarf::section_type) const+0x32a>
   17180:	862a                	c.mv	a2,a0
   17182:	a019                	c.j	17188 <dwarf::dwarf::get_section(dwarf::section_type) const+0x9e>
      { return static_cast<_Link_type>(__x->_M_right); }
   17184:	6f18                	c.ld	a4,24(a4)
      while (__x != 0)
   17186:	c719                	c.beqz	a4,17194 <dwarf::dwarf::get_section(dwarf::section_type) const+0xaa>
	if (!_M_impl._M_key_compare(_S_key(__x), __k))
   17188:	5314                	c.lw	a3,32(a4)
   1718a:	fef6cde3          	blt	a3,a5,17184 <dwarf::dwarf::get_section(dwarf::section_type) const+0x9a>
      _S_left(_Base_ptr __x) _GLIBCXX_NOEXCEPT
   1718e:	863a                	c.mv	a2,a4
	  __y = __x, __x = _S_left(__x);
   17190:	6b18                	c.ld	a4,16(a4)
   17192:	bfd5                	c.j	17186 <dwarf::dwarf::get_section(dwarf::section_type) const+0x9c>
    find(const _Key& __k)
    {
      iterator __j = _M_lower_bound(_M_begin(), _M_end(), __k);
      return (__j == end()
	      || _M_impl._M_key_compare(__k,
					_S_key(__j._M_node))) ? end() : __j;
   17194:	28c50063          	beq	a0,a2,17414 <dwarf::dwarf::get_section(dwarf::section_type) const+0x32a>
	      || _M_impl._M_key_compare(__k,
   17198:	5218                	c.lw	a4,32(a2)
   1719a:	26e7cd63          	blt	a5,a4,17414 <dwarf::dwarf::get_section(dwarf::section_type) const+0x32a>
      __shared_ptr(const __shared_ptr&) noexcept = default;
   1719e:	761c                	c.ld	a5,40(a2)
   171a0:	e01c                	c.sd	a5,0(s0)
      : _M_pi(__r._M_pi)
   171a2:	7a08                	c.ld	a0,48(a2)
   171a4:	e408                	c.sd	a0,8(s0)
	if (_M_pi != nullptr)
   171a6:	d149                	c.beqz	a0,17128 <dwarf::dwarf::get_section(dwarf::section_type) const+0x3e>
    if (__is_single_threaded())
   171a8:	00022797          	auipc	a5,0x22
   171ac:	2d07b783          	ld	a5,720(a5) # 39478 <__libc_single_threaded@GLIBC_2.32-0x1a0>
   171b0:	0007c783          	lbu	a5,0(a5)
   171b4:	c789                	c.beqz	a5,171be <dwarf::dwarf::get_section(dwarf::section_type) const+0xd4>
  { *__mem += __val; }
   171b6:	591c                	c.lw	a5,48(a0)
   171b8:	2785                	c.addiw	a5,1
   171ba:	d91c                	c.sw	a5,48(a0)
   171bc:	b7b5                	c.j	17128 <dwarf::dwarf::get_section(dwarf::section_type) const+0x3e>
      __atomic_add(__mem, __val);
   171be:	4585                	c.li	a1,1
   171c0:	03050513          	addi	a0,a0,48
   171c4:	93cff0ef          	jal	ra,16300 <__gnu_cxx::__atomic_add(int volatile*, int)@plt>
   171c8:	b785                	c.j	17128 <dwarf::dwarf::get_section(dwarf::section_type) const+0x3e>
                       " section missing");
   171ca:	4541                	c.li	a0,16
   171cc:	a04ff0ef          	jal	ra,163d0 <__cxa_allocate_exception@plt>
   171d0:	84aa                	c.mv	s1,a0
    throw format_error(std::string(elf::section_type_to_name(type)) +
   171d2:	4532                	c.lwsp	a0,12(sp)
   171d4:	74f0e0ef          	jal	ra,26122 <dwarf::elf::section_type_to_name(dwarf::section_type)>
   171d8:	85aa                	c.mv	a1,a0
   171da:	08b0                	c.addi4spn	a2,sp,88
   171dc:	0808                	c.addi4spn	a0,sp,16
   171de:	bb2ff0ef          	jal	ra,16590 <std::__cxx11::basic_string<char, std::char_traits<char>, std::allocator<char> >::basic_string(char const*, std::allocator<char> const&)@plt>
  template<typename _CharT, typename _Traits, typename _Alloc>
    _GLIBCXX20_CONSTEXPR
    inline basic_string<_CharT, _Traits, _Alloc>
    operator+(basic_string<_CharT, _Traits, _Alloc>&& __lhs,
	      const _CharT* __rhs)
    { return std::move(__lhs.append(__rhs)); }
   171e2:	00016597          	auipc	a1,0x16
   171e6:	0be58593          	addi	a1,a1,190 # 2d2a0 <std::_Sp_make_shared_tag::_S_ti()::__tag+0x30>
   171ea:	0808                	c.addi4spn	a0,sp,16
   171ec:	d54ff0ef          	jal	ra,16740 <std::__cxx11::basic_string<char, std::char_traits<char>, std::allocator<char> >::append(char const*)@plt>
   171f0:	85aa                	c.mv	a1,a0
   171f2:	1800                	c.addi4spn	s0,sp,48
   171f4:	8522                	c.mv	a0,s0
   171f6:	a1aff0ef          	jal	ra,16410 <std::__cxx11::basic_string<char, std::char_traits<char>, std::allocator<char> >::basic_string(std::__cxx11::basic_string<char, std::char_traits<char>, std::allocator<char> >&&)@plt>
      : std::runtime_error(what_arg) {}
   171fa:	85a2                	c.mv	a1,s0
   171fc:	8526                	c.mv	a0,s1
   171fe:	b42ff0ef          	jal	ra,16540 <std::runtime_error::runtime_error(std::__cxx11::basic_string<char, std::char_traits<char>, std::allocator<char> > const&)@plt>
   17202:	00022797          	auipc	a5,0x22
   17206:	34e7b783          	ld	a5,846(a5) # 39550 <vtable for dwarf::format_error@@Base+0xc20>
   1720a:	07c1                	c.addi	a5,16
   1720c:	e09c                	c.sd	a5,0(s1)
      { return _M_dataplus._M_p; }
   1720e:	7542                	c.ldsp	a0,48(sp)
	if (!_M_is_local())
   17210:	009c                	c.addi4spn	a5,sp,64
   17212:	00f50463          	beq	a0,a5,1721a <dwarf::dwarf::get_section(dwarf::section_type) const+0x130>
	_GLIBCXX_OPERATOR_DELETE(_GLIBCXX_SIZED_DEALLOC(__p, __n));
   17216:	a9aff0ef          	jal	ra,164b0 <operator delete(void*)@plt>
      { return _M_dataplus._M_p; }
   1721a:	6542                	c.ldsp	a0,16(sp)
	if (!_M_is_local())
   1721c:	101c                	c.addi4spn	a5,sp,32
   1721e:	00f50463          	beq	a0,a5,17226 <dwarf::dwarf::get_section(dwarf::section_type) const+0x13c>
   17222:	a8eff0ef          	jal	ra,164b0 <operator delete(void*)@plt>
                       " section missing");
   17226:	00022617          	auipc	a2,0x22
   1722a:	15263603          	ld	a2,338(a2) # 39378 <dwarf::format_error::~format_error()@@Base+0x1fc80>
   1722e:	00022597          	auipc	a1,0x22
   17232:	07a5b583          	ld	a1,122(a1) # 392a8 <typeinfo for dwarf::format_error@@Base+0x9f0>
   17236:	8526                	c.mv	a0,s1
   17238:	c28ff0ef          	jal	ra,16660 <__cxa_throw@plt>
      { return static_cast<_Link_type>(__x->_M_right); }
   1723c:	6f9c                	c.ld	a5,24(a5)
      while (__x != 0)
   1723e:	c799                	c.beqz	a5,1724c <dwarf::dwarf::get_section(dwarf::section_type) const+0x162>
	if (!_M_impl._M_key_compare(_S_key(__x), __k))
   17240:	5398                	c.lw	a4,32(a5)
   17242:	fed74de3          	blt	a4,a3,1723c <dwarf::dwarf::get_section(dwarf::section_type) const+0x152>
      _S_left(_Base_ptr __x) _GLIBCXX_NOEXCEPT
   17246:	893e                	c.mv	s2,a5
	  __y = __x, __x = _S_left(__x);
   17248:	6b9c                	c.ld	a5,16(a5)
   1724a:	bfd5                	c.j	1723e <dwarf::dwarf::get_section(dwarf::section_type) const+0x154>
	// concept requirements
	__glibcxx_function_requires(_DefaultConstructibleConcept<mapped_type>)

	iterator __i = lower_bound(__k);
	// __i->first is greater than or equivalent to __k.
	if (__i == end() || key_comp()(__k, (*__i).first))
   1724c:	0cc90963          	beq	s2,a2,1731e <dwarf::dwarf::get_section(dwarf::section_type) const+0x234>
   17250:	02092783          	lw	a5,32(s2)
   17254:	02f6d363          	bge	a3,a5,1727a <dwarf::dwarf::get_section(dwarf::section_type) const+0x190>
    {
      constexpr _Head_base()
      : _M_head_impl() { }

      constexpr _Head_base(const _Head& __h)
      : _M_head_impl(__h) { }
   17258:	007c                	c.addi4spn	a5,sp,12
   1725a:	f4be                	c.sdsp	a5,104(sp)
#if __cplusplus >= 201103L
	  __i = _M_t._M_emplace_hint_unique(__i, std::piecewise_construct,
   1725c:	1098                	c.addi4spn	a4,sp,96
   1725e:	10b4                	c.addi4spn	a3,sp,104
   17260:	00016617          	auipc	a2,0x16
   17264:	35060613          	addi	a2,a2,848 # 2d5b0 <std::piecewise_construct>
   17268:	85ca                	c.mv	a1,s2
   1726a:	08850513          	addi	a0,a0,136
   1726e:	00022317          	auipc	t1,0x22
   17272:	12a33303          	ld	t1,298(t1) # 39398 <std::_Rb_tree_iterator<std::pair<dwarf::section_type const, std::shared_ptr<dwarf::section> > > std::_Rb_tree<dwarf::section_type, std::pair<dwarf::section_type const, std::shared_ptr<dwarf::section> >, std::_Select1st<std::pair<dwarf::section_type const, std::shared_ptr<dwarf::section> > >, std::less<dwarf::section_type>, std::allocator<std::pair<dwarf::section_type const, std::shared_ptr<dwarf::section> > > >::_M_emplace_hint_unique<std::piecewise_construct_t const&, std::tuple<dwarf::section_type const&>, std::tuple<> >(std::_Rb_tree_const_iterator<std::pair<dwarf::section_type const, std::shared_ptr<dwarf::section> > >, std::piecewise_construct_t const&, std::tuple<dwarf::section_type const&>&&, std::tuple<>&&)@@Base+0x1efd2>
   17276:	9302                	c.jalr	t1
   17278:	892a                	c.mv	s2,a0
      { return _M_ptr; }
   1727a:	609c                	c.ld	a5,0(s1)
   1727c:	0107ba03          	ld	s4,16(a5)
	return static_cast<_Tp*>(_GLIBCXX_OPERATOR_NEW(__n * sizeof(_Tp)));
   17280:	06000513          	addi	a0,zero,96
   17284:	a3cff0ef          	jal	ra,164c0 <operator new(unsigned long)@plt>
   17288:	00052423          	sw	zero,8(a0)
   1728c:	00052623          	sw	zero,12(a0)
   17290:	00052823          	sw	zero,16(a0)
   17294:	00052a23          	sw	zero,20(a0)
   17298:	00052c23          	sw	zero,24(a0)
   1729c:	00052e23          	sw	zero,28(a0)
   172a0:	02053023          	sd	zero,32(a0)
   172a4:	02053423          	sd	zero,40(a0)
      : _M_use_count(1), _M_weak_count(1) { }
   172a8:	4785                	c.li	a5,1
   172aa:	d91c                	c.sw	a5,48(a0)
   172ac:	d95c                	c.sw	a5,52(a0)
	: _M_impl(__a)
   172ae:	00022797          	auipc	a5,0x22
   172b2:	30a7b783          	ld	a5,778(a5) # 395b8 <vtable for std::_Sp_counted_ptr_inplace<dwarf::section, std::allocator<void>, (__gnu_cxx::_Lock_policy)1>@@Base+0xc40>
   172b6:	07c1                	c.addi	a5,16
   172b8:	e11c                	c.sd	a5,0(a0)
      ::new((void*)__p) _Tp(std::forward<_Args>(__args)...);
   172ba:	01ca2703          	lw	a4,28(s4)
  const byte_order ord;
  unsigned addr_size;

  section(section_type type, const void *begin, section_length length,
          byte_order ord, format fmt = format::unknown, unsigned addr_size = 0)
      : type(type), begin((char *)begin), end((char *)begin + length), fmt(fmt),
   172be:	47a9                	c.li	a5,10
   172c0:	dd1c                	c.sw	a5,56(a0)
   172c2:	05353023          	sd	s3,64(a0)
   172c6:	67c6                	c.ldsp	a5,80(sp)
   172c8:	97ce                	c.add	a5,s3
   172ca:	e53c                	c.sd	a5,72(a0)
   172cc:	04052823          	sw	zero,80(a0)
        ord(ord), addr_size(addr_size) {}
   172d0:	c978                	c.sw	a4,84(a0)
   172d2:	04052c23          	sw	zero,88(a0)
   172d6:	03850793          	addi	a5,a0,56
      // concept requirements
      __glibcxx_function_requires(_SGIAssignableConcept<_Tp>)
#endif
      _Tp __tmp = _GLIBCXX_MOVE(__a);
      __a = _GLIBCXX_MOVE(__b);
      __b = _GLIBCXX_MOVE(__tmp);
   172da:	02f93423          	sd	a5,40(s2)
	_Sp_counted_base<_Lp>* __tmp = __r._M_pi;
   172de:	03093983          	ld	s3,48(s2)
	__r._M_pi = _M_pi;
   172e2:	02a93823          	sd	a0,48(s2)
	if (_M_pi != nullptr)
   172e6:	02098263          	beq	s3,zero,1730a <dwarf::dwarf::get_section(dwarf::section_type) const+0x220>
    if (__is_single_threaded())
   172ea:	00022797          	auipc	a5,0x22
   172ee:	18e7b783          	ld	a5,398(a5) # 39478 <__libc_single_threaded@GLIBC_2.32-0x1a0>
   172f2:	0007c783          	lbu	a5,0(a5)
   172f6:	c795                	c.beqz	a5,17322 <dwarf::dwarf::get_section(dwarf::section_type) const+0x238>
    _Atomic_word __result = *__mem;
   172f8:	0309a503          	lw	a0,48(s3)
    *__mem += __val;
   172fc:	fff5079b          	addiw	a5,a0,-1
   17300:	02f9a823          	sw	a5,48(s3)
      if (__gnu_cxx::__exchange_and_add_dispatch(&_M_use_count, -1) == 1)
   17304:	4785                	c.li	a5,1
   17306:	02f50463          	beq	a0,a5,1732e <dwarf::dwarf::get_section(dwarf::section_type) const+0x244>
      { return _M_ptr; }
   1730a:	6088                	c.ld	a0,0(s1)
      { return static_cast<_Link_type>(this->_M_impl._M_header._M_parent); }
   1730c:	6d5c                	c.ld	a5,152(a0)
      { return &this->_M_impl._M_header; }
   1730e:	09050613          	addi	a2,a0,144
      while (__x != 0)
   17312:	c3e1                	c.beqz	a5,173d2 <dwarf::dwarf::get_section(dwarf::section_type) const+0x2e8>
    struct less : public binary_function<_Tp, _Tp, bool>
    {
      _GLIBCXX14_CONSTEXPR
      bool
      operator()(const _Tp& __x, const _Tp& __y) const
      { return __x < __y; }
   17314:	46b2                	c.lwsp	a3,12(sp)
   17316:	85b2                	c.mv	a1,a2
   17318:	a08d                	c.j	1737a <dwarf::dwarf::get_section(dwarf::section_type) const+0x290>
   1731a:	8932                	c.mv	s2,a2
   1731c:	bf35                	c.j	17258 <dwarf::dwarf::get_section(dwarf::section_type) const+0x16e>
   1731e:	8932                	c.mv	s2,a2
   17320:	bf25                	c.j	17258 <dwarf::dwarf::get_section(dwarf::section_type) const+0x16e>
      return __exchange_and_add(__mem, __val);
   17322:	55fd                	c.li	a1,-1
   17324:	03098513          	addi	a0,s3,48
   17328:	808ff0ef          	jal	ra,16330 <__gnu_cxx::__exchange_and_add(int volatile*, int)@plt>
   1732c:	bfe1                	c.j	17304 <dwarf::dwarf::get_section(dwarf::section_type) const+0x21a>
	_M_dispose();
   1732e:	0009b783          	ld	a5,0(s3)
   17332:	6b9c                	c.ld	a5,16(a5)
   17334:	854e                	c.mv	a0,s3
   17336:	9782                	c.jalr	a5
	    __atomic_thread_fence (__ATOMIC_ACQ_REL);
   17338:	0ff0000f          	fence	iorw,iorw
    if (__is_single_threaded())
   1733c:	00022797          	auipc	a5,0x22
   17340:	13c7b783          	ld	a5,316(a5) # 39478 <__libc_single_threaded@GLIBC_2.32-0x1a0>
   17344:	0007c783          	lbu	a5,0(a5)
   17348:	c385                	c.beqz	a5,17368 <dwarf::dwarf::get_section(dwarf::section_type) const+0x27e>
    _Atomic_word __result = *__mem;
   1734a:	0349a783          	lw	a5,52(s3)
    *__mem += __val;
   1734e:	fff7871b          	addiw	a4,a5,-1
   17352:	02e9aa23          	sw	a4,52(s3)
	if (__gnu_cxx::__exchange_and_add_dispatch(&_M_weak_count,
   17356:	4705                	c.li	a4,1
   17358:	fae799e3          	bne	a5,a4,1730a <dwarf::dwarf::get_section(dwarf::section_type) const+0x220>
	    _M_destroy();
   1735c:	0009b783          	ld	a5,0(s3)
   17360:	6f9c                	c.ld	a5,24(a5)
   17362:	854e                	c.mv	a0,s3
   17364:	9782                	c.jalr	a5
   17366:	b755                	c.j	1730a <dwarf::dwarf::get_section(dwarf::section_type) const+0x220>
      return __exchange_and_add(__mem, __val);
   17368:	55fd                	c.li	a1,-1
   1736a:	03498513          	addi	a0,s3,52
   1736e:	fc3fe0ef          	jal	ra,16330 <__gnu_cxx::__exchange_and_add(int volatile*, int)@plt>
   17372:	87aa                	c.mv	a5,a0
   17374:	b7cd                	c.j	17356 <dwarf::dwarf::get_section(dwarf::section_type) const+0x26c>
      { return static_cast<_Link_type>(__x->_M_right); }
   17376:	6f9c                	c.ld	a5,24(a5)
      while (__x != 0)
   17378:	c799                	c.beqz	a5,17386 <dwarf::dwarf::get_section(dwarf::section_type) const+0x29c>
	if (!_M_impl._M_key_compare(_S_key(__x), __k))
   1737a:	5398                	c.lw	a4,32(a5)
   1737c:	fed74de3          	blt	a4,a3,17376 <dwarf::dwarf::get_section(dwarf::section_type) const+0x28c>
      _S_left(_Base_ptr __x) _GLIBCXX_NOEXCEPT
   17380:	85be                	c.mv	a1,a5
	  __y = __x, __x = _S_left(__x);
   17382:	6b9c                	c.ld	a5,16(a5)
   17384:	bfd5                	c.j	17378 <dwarf::dwarf::get_section(dwarf::section_type) const+0x28e>
	if (__i == end() || key_comp()(__k, (*__i).first))
   17386:	04c58863          	beq	a1,a2,173d6 <dwarf::dwarf::get_section(dwarf::section_type) const+0x2ec>
   1738a:	519c                	c.lw	a5,32(a1)
   1738c:	02f6d263          	bge	a3,a5,173b0 <dwarf::dwarf::get_section(dwarf::section_type) const+0x2c6>
   17390:	007c                	c.addi4spn	a5,sp,12
   17392:	fcbe                	c.sdsp	a5,120(sp)
	  __i = _M_t._M_emplace_hint_unique(__i, std::piecewise_construct,
   17394:	1898                	c.addi4spn	a4,sp,112
   17396:	18b4                	c.addi4spn	a3,sp,120
   17398:	00016617          	auipc	a2,0x16
   1739c:	21860613          	addi	a2,a2,536 # 2d5b0 <std::piecewise_construct>
   173a0:	08850513          	addi	a0,a0,136
   173a4:	00022317          	auipc	t1,0x22
   173a8:	ff433303          	ld	t1,-12(t1) # 39398 <std::_Rb_tree_iterator<std::pair<dwarf::section_type const, std::shared_ptr<dwarf::section> > > std::_Rb_tree<dwarf::section_type, std::pair<dwarf::section_type const, std::shared_ptr<dwarf::section> >, std::_Select1st<std::pair<dwarf::section_type const, std::shared_ptr<dwarf::section> > >, std::less<dwarf::section_type>, std::allocator<std::pair<dwarf::section_type const, std::shared_ptr<dwarf::section> > > >::_M_emplace_hint_unique<std::piecewise_construct_t const&, std::tuple<dwarf::section_type const&>, std::tuple<> >(std::_Rb_tree_const_iterator<std::pair<dwarf::section_type const, std::shared_ptr<dwarf::section> > >, std::piecewise_construct_t const&, std::tuple<dwarf::section_type const&>&&, std::tuple<>&&)@@Base+0x1efd2>
   173ac:	9302                	c.jalr	t1
   173ae:	85aa                	c.mv	a1,a0
      __shared_ptr(const __shared_ptr&) noexcept = default;
   173b0:	759c                	c.ld	a5,40(a1)
   173b2:	e01c                	c.sd	a5,0(s0)
      : _M_pi(__r._M_pi)
   173b4:	7988                	c.ld	a0,48(a1)
   173b6:	e408                	c.sd	a0,8(s0)
	if (_M_pi != nullptr)
   173b8:	d60508e3          	beq	a0,zero,17128 <dwarf::dwarf::get_section(dwarf::section_type) const+0x3e>
    if (__is_single_threaded())
   173bc:	00022797          	auipc	a5,0x22
   173c0:	0bc7b783          	ld	a5,188(a5) # 39478 <__libc_single_threaded@GLIBC_2.32-0x1a0>
   173c4:	0007c783          	lbu	a5,0(a5)
   173c8:	cb89                	c.beqz	a5,173da <dwarf::dwarf::get_section(dwarf::section_type) const+0x2f0>
  { *__mem += __val; }
   173ca:	591c                	c.lw	a5,48(a0)
   173cc:	2785                	c.addiw	a5,1
   173ce:	d91c                	c.sw	a5,48(a0)
   173d0:	bba1                	c.j	17128 <dwarf::dwarf::get_section(dwarf::section_type) const+0x3e>
      while (__x != 0)
   173d2:	85b2                	c.mv	a1,a2
   173d4:	bf75                	c.j	17390 <dwarf::dwarf::get_section(dwarf::section_type) const+0x2a6>
   173d6:	85b2                	c.mv	a1,a2
   173d8:	bf65                	c.j	17390 <dwarf::dwarf::get_section(dwarf::section_type) const+0x2a6>
      __atomic_add(__mem, __val);
   173da:	4585                	c.li	a1,1
   173dc:	03050513          	addi	a0,a0,48
   173e0:	f21fe0ef          	jal	ra,16300 <__gnu_cxx::__atomic_add(int volatile*, int)@plt>
   173e4:	b391                	c.j	17128 <dwarf::dwarf::get_section(dwarf::section_type) const+0x3e>
      { return _M_dataplus._M_p; }
   173e6:	842a                	c.mv	s0,a0
   173e8:	7542                	c.ldsp	a0,48(sp)
	if (!_M_is_local())
   173ea:	009c                	c.addi4spn	a5,sp,64
   173ec:	00f50463          	beq	a0,a5,173f4 <dwarf::dwarf::get_section(dwarf::section_type) const+0x30a>
	_GLIBCXX_OPERATOR_DELETE(_GLIBCXX_SIZED_DEALLOC(__p, __n));
   173f0:	8c0ff0ef          	jal	ra,164b0 <operator delete(void*)@plt>
      { return _M_dataplus._M_p; }
   173f4:	6542                	c.ldsp	a0,16(sp)
	if (!_M_is_local())
   173f6:	101c                	c.addi4spn	a5,sp,32
   173f8:	00f50463          	beq	a0,a5,17400 <dwarf::dwarf::get_section(dwarf::section_type) const+0x316>
   173fc:	8b4ff0ef          	jal	ra,164b0 <operator delete(void*)@plt>
   17400:	8526                	c.mv	a0,s1
   17402:	86eff0ef          	jal	ra,16470 <__cxa_free_exception@plt>
   17406:	8522                	c.mv	a0,s0
   17408:	a88ff0ef          	jal	ra,16690 <_Unwind_Resume@plt>
      { return _M_dataplus._M_p; }
   1740c:	842a                	c.mv	s0,a0
   1740e:	b7dd                	c.j	173f4 <dwarf::dwarf::get_section(dwarf::section_type) const+0x30a>
   17410:	842a                	c.mv	s0,a0
   17412:	b7fd                	c.j	17400 <dwarf::dwarf::get_section(dwarf::section_type) const+0x316>
      { return _M_ptr; }
   17414:	6188                	c.ld	a0,0(a1)
  const void *data = m->l->load(type, &size);
   17416:	6118                	c.ld	a4,0(a0)
   17418:	6b18                	c.ld	a4,16(a4)
   1741a:	0890                	c.addi4spn	a2,sp,80
   1741c:	85be                	c.mv	a1,a5
   1741e:	9702                	c.jalr	a4
   17420:	89aa                	c.mv	s3,a0
  if (!data)
   17422:	da0504e3          	beq	a0,zero,171ca <dwarf::dwarf::get_section(dwarf::section_type) const+0xe0>
   17426:	6088                	c.ld	a0,0(s1)
      { return static_cast<_Link_type>(this->_M_impl._M_header._M_parent); }
   17428:	6d5c                	c.ld	a5,152(a0)
      { return &this->_M_impl._M_header; }
   1742a:	09050613          	addi	a2,a0,144
      while (__x != 0)
   1742e:	ee0786e3          	beq	a5,zero,1731a <dwarf::dwarf::get_section(dwarf::section_type) const+0x230>
   17432:	46b2                	c.lwsp	a3,12(sp)
   17434:	8932                	c.mv	s2,a2
   17436:	b529                	c.j	17240 <dwarf::dwarf::get_section(dwarf::section_type) const+0x156>

0000000000017438 <dwarf::compilation_unit::compilation_unit(dwarf::dwarf const&, unsigned long)>:
compilation_unit::compilation_unit(const dwarf &file, section_offset offset) {
   17438:	7155                	c.addi16sp	sp,-208
   1743a:	e586                	c.sdsp	ra,200(sp)
   1743c:	e1a2                	c.sdsp	s0,192(sp)
   1743e:	fd26                	c.sdsp	s1,184(sp)
   17440:	f94a                	c.sdsp	s2,176(sp)
   17442:	f54e                	c.sdsp	s3,168(sp)
   17444:	f152                	c.sdsp	s4,160(sp)
   17446:	ed56                	c.sdsp	s5,152(sp)
   17448:	e95a                	c.sdsp	s6,144(sp)
   1744a:	84aa                	c.mv	s1,a0
   1744c:	892e                	c.mv	s2,a1
   1744e:	89b2                	c.mv	s3,a2
      : _M_ptr(0), _M_refcount()
   17450:	00053423          	sd	zero,8(a0)
      constexpr __shared_count() noexcept : _M_pi(0)
   17454:	00053823          	sd	zero,16(a0)
   17458:	00022797          	auipc	a5,0x22
   1745c:	e587b783          	ld	a5,-424(a5) # 392b0 <vtable for dwarf::compilation_unit@@Base+0xc0c0>
   17460:	07c1                	c.addi	a5,16
   17462:	e11c                	c.sd	a5,0(a0)
  cursor cur(file.get_section(section_type::info), offset);
   17464:	460d                	c.li	a2,3
   17466:	0108                	c.addi4spn	a0,sp,128
   17468:	c83ff0ef          	jal	ra,170ea <dwarf::dwarf::get_section(dwarf::section_type) const>
      __shared_ptr(const __shared_ptr&) noexcept = default;
   1746c:	678a                	c.ldsp	a5,128(sp)
   1746e:	e83e                	c.sdsp	a5,16(sp)
      : _M_pi(__r._M_pi)
   17470:	652a                	c.ldsp	a0,136(sp)
   17472:	ec2a                	c.sdsp	a0,24(sp)
	if (_M_pi != nullptr)
   17474:	c919                	c.beqz	a0,1748a <dwarf::compilation_unit::compilation_unit(dwarf::dwarf const&, unsigned long)+0x52>
    if (__is_single_threaded())
   17476:	00022797          	auipc	a5,0x22
   1747a:	0027b783          	ld	a5,2(a5) # 39478 <__libc_single_threaded@GLIBC_2.32-0x1a0>
   1747e:	0007c783          	lbu	a5,0(a5)
   17482:	cf8d                	c.beqz	a5,174bc <dwarf::compilation_unit::compilation_unit(dwarf::dwarf const&, unsigned long)+0x84>
  { *__mem += __val; }
   17484:	591c                	c.lw	a5,48(a0)
   17486:	2785                	c.addiw	a5,1
   17488:	d91c                	c.sw	a5,48(a0)
  std::shared_ptr<section> sec;
  const char *pos;

  cursor() : pos(nullptr) {}
  cursor(const std::shared_ptr<section> sec, section_offset offset = 0)
      : sec(sec), pos(sec->begin + offset) {}
   1748a:	678a                	c.ldsp	a5,128(sp)
   1748c:	679c                	c.ld	a5,8(a5)
   1748e:	97ce                	c.add	a5,s3
   17490:	f03e                	c.sdsp	a5,32(sp)
	if (_M_pi != nullptr)
   17492:	642a                	c.ldsp	s0,136(sp)
   17494:	cc19                	c.beqz	s0,174b2 <dwarf::compilation_unit::compilation_unit(dwarf::dwarf const&, unsigned long)+0x7a>
    if (__is_single_threaded())
   17496:	00022797          	auipc	a5,0x22
   1749a:	fe27b783          	ld	a5,-30(a5) # 39478 <__libc_single_threaded@GLIBC_2.32-0x1a0>
   1749e:	0007c783          	lbu	a5,0(a5)
   174a2:	c39d                	c.beqz	a5,174c8 <dwarf::compilation_unit::compilation_unit(dwarf::dwarf const&, unsigned long)+0x90>
    _Atomic_word __result = *__mem;
   174a4:	5808                	c.lw	a0,48(s0)
    *__mem += __val;
   174a6:	fff5079b          	addiw	a5,a0,-1
   174aa:	d81c                	c.sw	a5,48(s0)
      if (__gnu_cxx::__exchange_and_add_dispatch(&_M_use_count, -1) == 1)
   174ac:	4785                	c.li	a5,1
   174ae:	02f50363          	beq	a0,a5,174d4 <dwarf::compilation_unit::compilation_unit(dwarf::dwarf const&, unsigned long)+0x9c>
  std::shared_ptr<section> subsec = cur.subsection();
   174b2:	080c                	c.addi4spn	a1,sp,16
   174b4:	850a                	c.mv	a0,sp
   174b6:	313030ef          	jal	ra,1afc8 <dwarf::cursor::subsection()>
   174ba:	a8a1                	c.j	17512 <dwarf::compilation_unit::compilation_unit(dwarf::dwarf const&, unsigned long)+0xda>
      __atomic_add(__mem, __val);
   174bc:	4585                	c.li	a1,1
   174be:	03050513          	addi	a0,a0,48
   174c2:	e3ffe0ef          	jal	ra,16300 <__gnu_cxx::__atomic_add(int volatile*, int)@plt>
   174c6:	b7d1                	c.j	1748a <dwarf::compilation_unit::compilation_unit(dwarf::dwarf const&, unsigned long)+0x52>
      return __exchange_and_add(__mem, __val);
   174c8:	55fd                	c.li	a1,-1
   174ca:	03040513          	addi	a0,s0,48
   174ce:	e63fe0ef          	jal	ra,16330 <__gnu_cxx::__exchange_and_add(int volatile*, int)@plt>
   174d2:	bfe9                	c.j	174ac <dwarf::compilation_unit::compilation_unit(dwarf::dwarf const&, unsigned long)+0x74>
	_M_dispose();
   174d4:	601c                	c.ld	a5,0(s0)
   174d6:	6b9c                	c.ld	a5,16(a5)
   174d8:	8522                	c.mv	a0,s0
   174da:	9782                	c.jalr	a5
	    __atomic_thread_fence (__ATOMIC_ACQ_REL);
   174dc:	0ff0000f          	fence	iorw,iorw
    if (__is_single_threaded())
   174e0:	00022797          	auipc	a5,0x22
   174e4:	f987b783          	ld	a5,-104(a5) # 39478 <__libc_single_threaded@GLIBC_2.32-0x1a0>
   174e8:	0007c783          	lbu	a5,0(a5)
   174ec:	cf89                	c.beqz	a5,17506 <dwarf::compilation_unit::compilation_unit(dwarf::dwarf const&, unsigned long)+0xce>
    _Atomic_word __result = *__mem;
   174ee:	5848                	c.lw	a0,52(s0)
    *__mem += __val;
   174f0:	fff5079b          	addiw	a5,a0,-1
   174f4:	d85c                	c.sw	a5,52(s0)
	if (__gnu_cxx::__exchange_and_add_dispatch(&_M_weak_count,
   174f6:	4785                	c.li	a5,1
   174f8:	faf51de3          	bne	a0,a5,174b2 <dwarf::compilation_unit::compilation_unit(dwarf::dwarf const&, unsigned long)+0x7a>
	    _M_destroy();
   174fc:	601c                	c.ld	a5,0(s0)
   174fe:	6f9c                	c.ld	a5,24(a5)
   17500:	8522                	c.mv	a0,s0
   17502:	9782                	c.jalr	a5
   17504:	b77d                	c.j	174b2 <dwarf::compilation_unit::compilation_unit(dwarf::dwarf const&, unsigned long)+0x7a>
      return __exchange_and_add(__mem, __val);
   17506:	55fd                	c.li	a1,-1
   17508:	03440513          	addi	a0,s0,52
   1750c:	e25fe0ef          	jal	ra,16330 <__gnu_cxx::__exchange_and_add(int volatile*, int)@plt>
   17510:	b7dd                	c.j	174f6 <dwarf::compilation_unit::compilation_unit(dwarf::dwarf const&, unsigned long)+0xbe>
      __shared_ptr(const __shared_ptr&) noexcept = default;
   17512:	6a02                	c.ldsp	s4,0(sp)
      : _M_pi(__r._M_pi)
   17514:	6422                	c.ldsp	s0,8(sp)
	if (_M_pi != nullptr)
   17516:	50040d63          	beq	s0,zero,17a30 <dwarf::compilation_unit::compilation_unit(dwarf::dwarf const&, unsigned long)+0x5f8>
    if (__is_single_threaded())
   1751a:	00022797          	auipc	a5,0x22
   1751e:	f5e7b783          	ld	a5,-162(a5) # 39478 <__libc_single_threaded@GLIBC_2.32-0x1a0>
   17522:	0007c783          	lbu	a5,0(a5)
   17526:	cbb5                	c.beqz	a5,1759a <dwarf::compilation_unit::compilation_unit(dwarf::dwarf const&, unsigned long)+0x162>
  { *__mem += __val; }
   17528:	581c                	c.lw	a5,48(s0)
   1752a:	2785                	c.addiw	a5,1
   1752c:	d81c                	c.sw	a5,48(s0)
      __shared_ptr(const __shared_ptr&) noexcept = default;
   1752e:	f452                	c.sdsp	s4,40(sp)
      : _M_pi(__r._M_pi)
   17530:	f822                	c.sdsp	s0,48(sp)
    if (__is_single_threaded())
   17532:	00022797          	auipc	a5,0x22
   17536:	f467b783          	ld	a5,-186(a5) # 39478 <__libc_single_threaded@GLIBC_2.32-0x1a0>
   1753a:	0007c783          	lbu	a5,0(a5)
   1753e:	c7a5                	c.beqz	a5,175a6 <dwarf::compilation_unit::compilation_unit(dwarf::dwarf const&, unsigned long)+0x16e>
  { *__mem += __val; }
   17540:	581c                	c.lw	a5,48(s0)
   17542:	2785                	c.addiw	a5,1
   17544:	d81c                	c.sw	a5,48(s0)
   17546:	008a3783          	ld	a5,8(s4)
   1754a:	fc3e                	c.sdsp	a5,56(sp)
    if (__is_single_threaded())
   1754c:	00022797          	auipc	a5,0x22
   17550:	f2c7b783          	ld	a5,-212(a5) # 39478 <__libc_single_threaded@GLIBC_2.32-0x1a0>
   17554:	0007c783          	lbu	a5,0(a5)
   17558:	cfa9                	c.beqz	a5,175b2 <dwarf::compilation_unit::compilation_unit(dwarf::dwarf const&, unsigned long)+0x17a>
    _Atomic_word __result = *__mem;
   1755a:	5808                	c.lw	a0,48(s0)
    *__mem += __val;
   1755c:	fff5079b          	addiw	a5,a0,-1
   17560:	d81c                	c.sw	a5,48(s0)
      if (__gnu_cxx::__exchange_and_add_dispatch(&_M_use_count, -1) == 1)
   17562:	4785                	c.li	a5,1
   17564:	4cf51b63          	bne	a0,a5,17a3a <dwarf::compilation_unit::compilation_unit(dwarf::dwarf const&, unsigned long)+0x602>
	_M_dispose();
   17568:	601c                	c.ld	a5,0(s0)
   1756a:	6b9c                	c.ld	a5,16(a5)
   1756c:	8522                	c.mv	a0,s0
   1756e:	9782                	c.jalr	a5
	    __atomic_thread_fence (__ATOMIC_ACQ_REL);
   17570:	0ff0000f          	fence	iorw,iorw
    if (__is_single_threaded())
   17574:	00022797          	auipc	a5,0x22
   17578:	f047b783          	ld	a5,-252(a5) # 39478 <__libc_single_threaded@GLIBC_2.32-0x1a0>
   1757c:	0007c783          	lbu	a5,0(a5)
   17580:	cf9d                	c.beqz	a5,175be <dwarf::compilation_unit::compilation_unit(dwarf::dwarf const&, unsigned long)+0x186>
    _Atomic_word __result = *__mem;
   17582:	5848                	c.lw	a0,52(s0)
    *__mem += __val;
   17584:	fff5079b          	addiw	a5,a0,-1
   17588:	d85c                	c.sw	a5,52(s0)
	if (__gnu_cxx::__exchange_and_add_dispatch(&_M_weak_count,
   1758a:	4785                	c.li	a5,1
   1758c:	4af51763          	bne	a0,a5,17a3a <dwarf::compilation_unit::compilation_unit(dwarf::dwarf const&, unsigned long)+0x602>
	    _M_destroy();
   17590:	601c                	c.ld	a5,0(s0)
   17592:	6f9c                	c.ld	a5,24(a5)
   17594:	8522                	c.mv	a0,s0
   17596:	9782                	c.jalr	a5
   17598:	a14d                	c.j	17a3a <dwarf::compilation_unit::compilation_unit(dwarf::dwarf const&, unsigned long)+0x602>
      __atomic_add(__mem, __val);
   1759a:	4585                	c.li	a1,1
   1759c:	03040513          	addi	a0,s0,48
   175a0:	d61fe0ef          	jal	ra,16300 <__gnu_cxx::__atomic_add(int volatile*, int)@plt>
   175a4:	b769                	c.j	1752e <dwarf::compilation_unit::compilation_unit(dwarf::dwarf const&, unsigned long)+0xf6>
   175a6:	4585                	c.li	a1,1
   175a8:	03040513          	addi	a0,s0,48
   175ac:	d55fe0ef          	jal	ra,16300 <__gnu_cxx::__atomic_add(int volatile*, int)@plt>
   175b0:	bf59                	c.j	17546 <dwarf::compilation_unit::compilation_unit(dwarf::dwarf const&, unsigned long)+0x10e>
      return __exchange_and_add(__mem, __val);
   175b2:	55fd                	c.li	a1,-1
   175b4:	03040513          	addi	a0,s0,48
   175b8:	d79fe0ef          	jal	ra,16330 <__gnu_cxx::__exchange_and_add(int volatile*, int)@plt>
   175bc:	b75d                	c.j	17562 <dwarf::compilation_unit::compilation_unit(dwarf::dwarf const&, unsigned long)+0x12a>
   175be:	55fd                	c.li	a1,-1
   175c0:	03440513          	addi	a0,s0,52
   175c4:	d6dfe0ef          	jal	ra,16330 <__gnu_cxx::__exchange_and_add(int volatile*, int)@plt>
   175c8:	b7c9                	c.j	1758a <dwarf::compilation_unit::compilation_unit(dwarf::dwarf const&, unsigned long)+0x152>
  section_offset offset();
  void string(std::string &out);
  const char *cstr(size_t *size_out = nullptr);

  void ensure(section_offset bytes) {
    if ((section_offset)(sec->end - pos) < bytes || pos >= sec->end)
   175ca:	77a2                	c.ldsp	a5,40(sp)
   175cc:	6b98                	c.ld	a4,16(a5)
   175ce:	77e2                	c.ldsp	a5,56(sp)
   175d0:	40f70633          	sub	a2,a4,a5
   175d4:	4685                	c.li	a3,1
   175d6:	00c6f463          	bgeu	a3,a2,175de <dwarf::compilation_unit::compilation_unit(dwarf::dwarf const&, unsigned long)+0x1a6>
   175da:	00e7e563          	bltu	a5,a4,175e4 <dwarf::compilation_unit::compilation_unit(dwarf::dwarf const&, unsigned long)+0x1ac>
      underflow();
   175de:	1028                	c.addi4spn	a0,sp,40
   175e0:	658030ef          	jal	ra,1ac38 <dwarf::cursor::underflow()>

  template <typename T> T fixed() {
    ensure(sizeof(T));
    static_assert(sizeof(T) <= 8, "T too big");
    uint64_t val = 0;
    const unsigned char *p = (const unsigned char *)pos;
   175e4:	7762                	c.ldsp	a4,56(sp)
    if (sec->ord == byte_order::lsb) {
   175e6:	77a2                	c.ldsp	a5,40(sp)
   175e8:	4fdc                	c.lw	a5,28(a5)
   175ea:	e795                	c.bnez	a5,17616 <dwarf::compilation_unit::compilation_unit(dwarf::dwarf const&, unsigned long)+0x1de>
      for (unsigned i = 0; i < sizeof(T); i++)
        val |= ((uint64_t)p[i]) << (i * 8);
   175ec:	00174783          	lbu	a5,1(a4)
   175f0:	07a2                	c.slli	a5,0x8
   175f2:	00074683          	lbu	a3,0(a4)
   175f6:	8fd5                	c.or	a5,a3
    } else {
      for (unsigned i = 0; i < sizeof(T); i++)
        val = (val << 8) | (uint64_t)p[i];
    }
    pos += sizeof(T);
   175f8:	0709                	c.addi	a4,2
   175fa:	fc3a                	c.sdsp	a4,56(sp)
    return (T)val;
   175fc:	03079413          	slli	s0,a5,0x30
   17600:	9041                	c.srli	s0,0x30
  if (version < 2 || version > 4)
   17602:	37f9                	c.addiw	a5,-2
   17604:	17c2                	c.slli	a5,0x30
   17606:	93c1                	c.srli	a5,0x30
   17608:	4709                	c.li	a4,2
   1760a:	00f76d63          	bltu	a4,a5,17624 <dwarf::compilation_unit::compilation_unit(dwarf::dwarf const&, unsigned long)+0x1ec>
  section_offset debug_abbrev_offset = sub.offset();
   1760e:	1028                	c.addi4spn	a0,sp,40
   17610:	34f030ef          	jal	ra,1b15e <dwarf::cursor::offset()>
   17614:	a069                	c.j	1769e <dwarf::compilation_unit::compilation_unit(dwarf::dwarf const&, unsigned long)+0x266>
        val = (val << 8) | (uint64_t)p[i];
   17616:	00074783          	lbu	a5,0(a4)
   1761a:	07a2                	c.slli	a5,0x8
   1761c:	00174683          	lbu	a3,1(a4)
   17620:	8fd5                	c.or	a5,a3
      for (unsigned i = 0; i < sizeof(T); i++)
   17622:	bfd9                	c.j	175f8 <dwarf::compilation_unit::compilation_unit(dwarf::dwarf const&, unsigned long)+0x1c0>
                       std::to_string(version));
   17624:	4541                	c.li	a0,16
   17626:	dabfe0ef          	jal	ra,163d0 <__cxa_allocate_exception@plt>
   1762a:	892a                	c.mv	s2,a0
   1762c:	85a2                	c.mv	a1,s0
   1762e:	1080                	c.addi4spn	s0,sp,96
   17630:	8522                	c.mv	a0,s0
   17632:	00022317          	auipc	t1,0x22
   17636:	e5633303          	ld	t1,-426(t1) # 39488 <std::__cxx11::to_string(int)@@Base+0x1fbc8>
   1763a:	9302                	c.jalr	t1
    { return std::move(__rhs.insert(0, __lhs)); }
   1763c:	00016617          	auipc	a2,0x16
   17640:	c7c60613          	addi	a2,a2,-900 # 2d2b8 <std::_Sp_make_shared_tag::_S_ti()::__tag+0x48>
   17644:	4581                	c.li	a1,0
   17646:	8522                	c.mv	a0,s0
   17648:	cf9fe0ef          	jal	ra,16340 <std::__cxx11::basic_string<char, std::char_traits<char>, std::allocator<char> >::insert(unsigned long, char const*)@plt>
   1764c:	85aa                	c.mv	a1,a0
   1764e:	0080                	c.addi4spn	s0,sp,64
   17650:	8522                	c.mv	a0,s0
   17652:	dbffe0ef          	jal	ra,16410 <std::__cxx11::basic_string<char, std::char_traits<char>, std::allocator<char> >::basic_string(std::__cxx11::basic_string<char, std::char_traits<char>, std::allocator<char> >&&)@plt>
   17656:	85a2                	c.mv	a1,s0
   17658:	854a                	c.mv	a0,s2
   1765a:	ee7fe0ef          	jal	ra,16540 <std::runtime_error::runtime_error(std::__cxx11::basic_string<char, std::char_traits<char>, std::allocator<char> > const&)@plt>
   1765e:	00022797          	auipc	a5,0x22
   17662:	ef27b783          	ld	a5,-270(a5) # 39550 <vtable for dwarf::format_error@@Base+0xc20>
   17666:	07c1                	c.addi	a5,16
   17668:	00f93023          	sd	a5,0(s2)
      { return _M_dataplus._M_p; }
   1766c:	6506                	c.ldsp	a0,64(sp)
	if (!_M_is_local())
   1766e:	089c                	c.addi4spn	a5,sp,80
   17670:	00f50463          	beq	a0,a5,17678 <dwarf::compilation_unit::compilation_unit(dwarf::dwarf const&, unsigned long)+0x240>
   17674:	e3dfe0ef          	jal	ra,164b0 <operator delete(void*)@plt>
      { return _M_dataplus._M_p; }
   17678:	7506                	c.ldsp	a0,96(sp)
	if (!_M_is_local())
   1767a:	189c                	c.addi4spn	a5,sp,112
   1767c:	00f50463          	beq	a0,a5,17684 <dwarf::compilation_unit::compilation_unit(dwarf::dwarf const&, unsigned long)+0x24c>
   17680:	e31fe0ef          	jal	ra,164b0 <operator delete(void*)@plt>
   17684:	00022617          	auipc	a2,0x22
   17688:	cf463603          	ld	a2,-780(a2) # 39378 <dwarf::format_error::~format_error()@@Base+0x1fc80>
   1768c:	00022597          	auipc	a1,0x22
   17690:	c1c5b583          	ld	a1,-996(a1) # 392a8 <typeinfo for dwarf::format_error@@Base+0x9f0>
   17694:	854a                	c.mv	a0,s2
   17696:	fcbfe0ef          	jal	ra,16660 <__cxa_throw@plt>
	if (_M_pi != nullptr)
   1769a:	842a                	c.mv	s0,a0
   1769c:	ae1d                	c.j	179d2 <dwarf::compilation_unit::compilation_unit(dwarf::dwarf const&, unsigned long)+0x59a>
  section_offset debug_abbrev_offset = sub.offset();
   1769e:	8aaa                	c.mv	s5,a0
    if ((section_offset)(sec->end - pos) < bytes || pos >= sec->end)
   176a0:	77a2                	c.ldsp	a5,40(sp)
   176a2:	6b98                	c.ld	a4,16(a5)
   176a4:	77e2                	c.ldsp	a5,56(sp)
   176a6:	00e7e563          	bltu	a5,a4,176b0 <dwarf::compilation_unit::compilation_unit(dwarf::dwarf const&, unsigned long)+0x278>
      underflow();
   176aa:	1028                	c.addi4spn	a0,sp,40
   176ac:	58c030ef          	jal	ra,1ac38 <dwarf::cursor::underflow()>
    const unsigned char *p = (const unsigned char *)pos;
   176b0:	77e2                	c.ldsp	a5,56(sp)
      { return _M_ptr; }
   176b2:	7722                	c.ldsp	a4,40(sp)
    if (sec->ord == byte_order::lsb) {
   176b4:	4f54                	c.lw	a3,28(a4)
   176b6:	34068f63          	beq	a3,zero,17a14 <dwarf::compilation_unit::compilation_unit(dwarf::dwarf const&, unsigned long)+0x5dc>
        val = (val << 8) | (uint64_t)p[i];
   176ba:	0007c603          	lbu	a2,0(a5)
      for (unsigned i = 0; i < sizeof(T); i++)
   176be:	aea9                	c.j	17a18 <dwarf::compilation_unit::compilation_unit(dwarf::dwarf const&, unsigned long)+0x5e0>
	return static_cast<_Tp*>(_GLIBCXX_OPERATOR_NEW(__n * sizeof(_Tp)));
   176c0:	842a                	c.mv	s0,a0
   176c2:	00052423          	sw	zero,8(a0)
   176c6:	00052623          	sw	zero,12(a0)
   176ca:	00052823          	sw	zero,16(a0)
   176ce:	00052a23          	sw	zero,20(a0)
   176d2:	00052c23          	sw	zero,24(a0)
   176d6:	00052e23          	sw	zero,28(a0)
   176da:	02053023          	sd	zero,32(a0)
   176de:	02053423          	sd	zero,40(a0)
      : _M_use_count(1), _M_weak_count(1) { }
   176e2:	4785                	c.li	a5,1
   176e4:	d91c                	c.sw	a5,48(a0)
   176e6:	d95c                	c.sw	a5,52(a0)
	: _M_impl(__a)
   176e8:	00022797          	auipc	a5,0x22
   176ec:	d487b783          	ld	a5,-696(a5) # 39430 <vtable for std::_Sp_counted_ptr_inplace<dwarf::unit::impl, std::allocator<void>, (__gnu_cxx::_Lock_policy)1>@@Base+0xa48>
   176f0:	07c1                	c.addi	a5,16
   176f2:	e11c                	c.sd	a5,0(a0)
   176f4:	03850b13          	addi	s6,a0,56
      __shared_ptr(const __shared_ptr&) noexcept = default;
   176f8:	00093783          	ld	a5,0(s2)
   176fc:	fd1c                	c.sd	a5,56(a0)
      : _M_pi(__r._M_pi)
   176fe:	00893503          	ld	a0,8(s2)
   17702:	e028                	c.sd	a0,64(s0)
	if (_M_pi != nullptr)
   17704:	cd01                	c.beqz	a0,1771c <dwarf::compilation_unit::compilation_unit(dwarf::dwarf const&, unsigned long)+0x2e4>
    if (__is_single_threaded())
   17706:	00022797          	auipc	a5,0x22
   1770a:	d727b783          	ld	a5,-654(a5) # 39478 <__libc_single_threaded@GLIBC_2.32-0x1a0>
   1770e:	0007c783          	lbu	a5,0(a5)
   17712:	14078c63          	beq	a5,zero,1786a <dwarf::compilation_unit::compilation_unit(dwarf::dwarf const&, unsigned long)+0x432>
  { *__mem += __val; }
   17716:	591c                	c.lw	a5,48(a0)
   17718:	2785                	c.addiw	a5,1
   1771a:	d91c                	c.sw	a5,48(a0)
      : file(file), offset(offset), subsec(subsec),
   1771c:	05343423          	sd	s3,72(s0)
      __shared_ptr(const __shared_ptr&) noexcept = default;
   17720:	6782                	c.ldsp	a5,0(sp)
   17722:	e83c                	c.sd	a5,80(s0)
      : _M_pi(__r._M_pi)
   17724:	6522                	c.ldsp	a0,8(sp)
   17726:	ec28                	c.sd	a0,88(s0)
	if (_M_pi != nullptr)
   17728:	cd01                	c.beqz	a0,17740 <dwarf::compilation_unit::compilation_unit(dwarf::dwarf const&, unsigned long)+0x308>
    if (__is_single_threaded())
   1772a:	00022797          	auipc	a5,0x22
   1772e:	d4e7b783          	ld	a5,-690(a5) # 39478 <__libc_single_threaded@GLIBC_2.32-0x1a0>
   17732:	0007c783          	lbu	a5,0(a5)
   17736:	14078063          	beq	a5,zero,17876 <dwarf::compilation_unit::compilation_unit(dwarf::dwarf const&, unsigned long)+0x43e>
  { *__mem += __val; }
   1773a:	591c                	c.lw	a5,48(a0)
   1773c:	2785                	c.addiw	a5,1
   1773e:	d91c                	c.sw	a5,48(a0)
        debug_abbrev_offset(debug_abbrev_offset), root_offset(root_offset),
   17740:	07543023          	sd	s5,96(s0)
   17744:	07443423          	sd	s4,104(s0)
        type_signature(type_signature), type_offset(type_offset),
   17748:	06043823          	sd	zero,112(s0)
   1774c:	06043c23          	sd	zero,120(s0)
  die() : cu(nullptr), abbrev(nullptr) {}
   17750:	08043423          	sd	zero,136(s0)
   17754:	08043823          	sd	zero,144(s0)
  small_vector() : base((T *)buf), end(base), cap((T *)&buf[sizeof(T[Min])]) {}
   17758:	0a040793          	addi	a5,s0,160
   1775c:	e87c                	c.sd	a5,208(s0)
   1775e:	ec7c                	c.sd	a5,216(s0)
   17760:	0d040793          	addi	a5,s0,208
   17764:	f07c                	c.sd	a5,224(s0)
   17766:	0e043c23          	sd	zero,248(s0)
   1776a:	10043023          	sd	zero,256(s0)
   1776e:	11040793          	addi	a5,s0,272
   17772:	14f43023          	sd	a5,320(s0)
   17776:	14f43423          	sd	a5,328(s0)
   1777a:	14040793          	addi	a5,s0,320
   1777e:	14f43823          	sd	a5,336(s0)
      : _M_ptr(0), _M_refcount()
   17782:	16043023          	sd	zero,352(s0)
      constexpr __shared_count() noexcept : _M_pi(0)
   17786:	16043423          	sd	zero,360(s0)
        have_abbrevs(false) {}
   1778a:	16040823          	sb	zero,368(s0)
   1778e:	16043c23          	sd	zero,376(s0)
   17792:	18043023          	sd	zero,384(s0)
   17796:	18043423          	sd	zero,392(s0)
		   const _Hash&, const _Equal&, const allocator_type&,
		   false_type __uks);

    public:
      // Constructor, destructor, assignment, swap
      _Hashtable() = default;
   1779a:	1c040793          	addi	a5,s0,448
   1779e:	18f43823          	sd	a5,400(s0)
   177a2:	4785                	c.li	a5,1
   177a4:	18f43c23          	sd	a5,408(s0)
   */
  struct _Hash_node_base
  {
    _Hash_node_base* _M_nxt;

    _Hash_node_base() noexcept : _M_nxt() { }
   177a8:	1a043023          	sd	zero,416(s0)
   177ac:	1a043423          	sd	zero,424(s0)
  struct _Prime_rehash_policy
  {
    using __has_load_factor = true_type;

    _Prime_rehash_policy(float __z = 1.0) noexcept
    : _M_max_load_factor(__z), _M_next_resize(0) { }
   177b0:	00016797          	auipc	a5,0x16
   177b4:	df87a787          	flw	fa5,-520(a5) # 2d5a8 <std::__detail::__to_chars_10_impl<unsigned int>(char*, unsigned int, unsigned int)::__digits+0xf0>
   177b8:	1af42827          	fsw	fa5,432(s0)
   177bc:	1a043c23          	sd	zero,440(s0)
   177c0:	1c043023          	sd	zero,448(s0)
   177c4:	0164b423          	sd	s6,8(s1)
	_Sp_counted_base<_Lp>* __tmp = __r._M_pi;
   177c8:	0104b903          	ld	s2,16(s1)
	__r._M_pi = _M_pi;
   177cc:	e880                	c.sd	s0,16(s1)
	if (_M_pi != nullptr)
   177ce:	02090263          	beq	s2,zero,177f2 <dwarf::compilation_unit::compilation_unit(dwarf::dwarf const&, unsigned long)+0x3ba>
    if (__is_single_threaded())
   177d2:	00022797          	auipc	a5,0x22
   177d6:	ca67b783          	ld	a5,-858(a5) # 39478 <__libc_single_threaded@GLIBC_2.32-0x1a0>
   177da:	0007c783          	lbu	a5,0(a5)
   177de:	c3d5                	c.beqz	a5,17882 <dwarf::compilation_unit::compilation_unit(dwarf::dwarf const&, unsigned long)+0x44a>
    _Atomic_word __result = *__mem;
   177e0:	03092503          	lw	a0,48(s2)
    *__mem += __val;
   177e4:	fff5079b          	addiw	a5,a0,-1
   177e8:	02f92823          	sw	a5,48(s2)
      if (__gnu_cxx::__exchange_and_add_dispatch(&_M_use_count, -1) == 1)
   177ec:	4785                	c.li	a5,1
   177ee:	0af50063          	beq	a0,a5,1788e <dwarf::compilation_unit::compilation_unit(dwarf::dwarf const&, unsigned long)+0x456>
	if (_M_pi != nullptr)
   177f2:	7442                	c.ldsp	s0,48(sp)
   177f4:	cc19                	c.beqz	s0,17812 <dwarf::compilation_unit::compilation_unit(dwarf::dwarf const&, unsigned long)+0x3da>
    if (__is_single_threaded())
   177f6:	00022797          	auipc	a5,0x22
   177fa:	c827b783          	ld	a5,-894(a5) # 39478 <__libc_single_threaded@GLIBC_2.32-0x1a0>
   177fe:	0007c783          	lbu	a5,0(a5)
   17802:	cbe9                	c.beqz	a5,178d4 <dwarf::compilation_unit::compilation_unit(dwarf::dwarf const&, unsigned long)+0x49c>
    _Atomic_word __result = *__mem;
   17804:	5808                	c.lw	a0,48(s0)
    *__mem += __val;
   17806:	fff5079b          	addiw	a5,a0,-1
   1780a:	d81c                	c.sw	a5,48(s0)
      if (__gnu_cxx::__exchange_and_add_dispatch(&_M_use_count, -1) == 1)
   1780c:	4785                	c.li	a5,1
   1780e:	0cf50963          	beq	a0,a5,178e0 <dwarf::compilation_unit::compilation_unit(dwarf::dwarf const&, unsigned long)+0x4a8>
	if (_M_pi != nullptr)
   17812:	6422                	c.ldsp	s0,8(sp)
   17814:	c005                	c.beqz	s0,17834 <dwarf::compilation_unit::compilation_unit(dwarf::dwarf const&, unsigned long)+0x3fc>
    if (__is_single_threaded())
   17816:	00022797          	auipc	a5,0x22
   1781a:	c627b783          	ld	a5,-926(a5) # 39478 <__libc_single_threaded@GLIBC_2.32-0x1a0>
   1781e:	0007c783          	lbu	a5,0(a5)
   17822:	0e078e63          	beq	a5,zero,1791e <dwarf::compilation_unit::compilation_unit(dwarf::dwarf const&, unsigned long)+0x4e6>
    _Atomic_word __result = *__mem;
   17826:	5808                	c.lw	a0,48(s0)
    *__mem += __val;
   17828:	fff5079b          	addiw	a5,a0,-1
   1782c:	d81c                	c.sw	a5,48(s0)
      if (__gnu_cxx::__exchange_and_add_dispatch(&_M_use_count, -1) == 1)
   1782e:	4785                	c.li	a5,1
   17830:	0ef50d63          	beq	a0,a5,1792a <dwarf::compilation_unit::compilation_unit(dwarf::dwarf const&, unsigned long)+0x4f2>
	if (_M_pi != nullptr)
   17834:	6462                	c.ldsp	s0,24(sp)
   17836:	c005                	c.beqz	s0,17856 <dwarf::compilation_unit::compilation_unit(dwarf::dwarf const&, unsigned long)+0x41e>
    if (__is_single_threaded())
   17838:	00022797          	auipc	a5,0x22
   1783c:	c407b783          	ld	a5,-960(a5) # 39478 <__libc_single_threaded@GLIBC_2.32-0x1a0>
   17840:	0007c783          	lbu	a5,0(a5)
   17844:	12078263          	beq	a5,zero,17968 <dwarf::compilation_unit::compilation_unit(dwarf::dwarf const&, unsigned long)+0x530>
    _Atomic_word __result = *__mem;
   17848:	5808                	c.lw	a0,48(s0)
    *__mem += __val;
   1784a:	fff5079b          	addiw	a5,a0,-1
   1784e:	d81c                	c.sw	a5,48(s0)
      if (__gnu_cxx::__exchange_and_add_dispatch(&_M_use_count, -1) == 1)
   17850:	4785                	c.li	a5,1
   17852:	12f50163          	beq	a0,a5,17974 <dwarf::compilation_unit::compilation_unit(dwarf::dwarf const&, unsigned long)+0x53c>
}
   17856:	60ae                	c.ldsp	ra,200(sp)
   17858:	640e                	c.ldsp	s0,192(sp)
   1785a:	74ea                	c.ldsp	s1,184(sp)
   1785c:	794a                	c.ldsp	s2,176(sp)
   1785e:	79aa                	c.ldsp	s3,168(sp)
   17860:	7a0a                	c.ldsp	s4,160(sp)
   17862:	6aea                	c.ldsp	s5,152(sp)
   17864:	6b4a                	c.ldsp	s6,144(sp)
   17866:	6169                	c.addi16sp	sp,208
   17868:	8082                	c.jr	ra
      __atomic_add(__mem, __val);
   1786a:	4585                	c.li	a1,1
   1786c:	03050513          	addi	a0,a0,48
   17870:	a91fe0ef          	jal	ra,16300 <__gnu_cxx::__atomic_add(int volatile*, int)@plt>
   17874:	b565                	c.j	1771c <dwarf::compilation_unit::compilation_unit(dwarf::dwarf const&, unsigned long)+0x2e4>
   17876:	4585                	c.li	a1,1
   17878:	03050513          	addi	a0,a0,48
   1787c:	a85fe0ef          	jal	ra,16300 <__gnu_cxx::__atomic_add(int volatile*, int)@plt>
   17880:	b5c1                	c.j	17740 <dwarf::compilation_unit::compilation_unit(dwarf::dwarf const&, unsigned long)+0x308>
      return __exchange_and_add(__mem, __val);
   17882:	55fd                	c.li	a1,-1
   17884:	03090513          	addi	a0,s2,48
   17888:	aa9fe0ef          	jal	ra,16330 <__gnu_cxx::__exchange_and_add(int volatile*, int)@plt>
   1788c:	b785                	c.j	177ec <dwarf::compilation_unit::compilation_unit(dwarf::dwarf const&, unsigned long)+0x3b4>
	_M_dispose();
   1788e:	00093783          	ld	a5,0(s2)
   17892:	6b9c                	c.ld	a5,16(a5)
   17894:	854a                	c.mv	a0,s2
   17896:	9782                	c.jalr	a5
	    __atomic_thread_fence (__ATOMIC_ACQ_REL);
   17898:	0ff0000f          	fence	iorw,iorw
    if (__is_single_threaded())
   1789c:	00022797          	auipc	a5,0x22
   178a0:	bdc7b783          	ld	a5,-1060(a5) # 39478 <__libc_single_threaded@GLIBC_2.32-0x1a0>
   178a4:	0007c783          	lbu	a5,0(a5)
   178a8:	c385                	c.beqz	a5,178c8 <dwarf::compilation_unit::compilation_unit(dwarf::dwarf const&, unsigned long)+0x490>
    _Atomic_word __result = *__mem;
   178aa:	03492503          	lw	a0,52(s2)
    *__mem += __val;
   178ae:	fff5079b          	addiw	a5,a0,-1
   178b2:	02f92a23          	sw	a5,52(s2)
	if (__gnu_cxx::__exchange_and_add_dispatch(&_M_weak_count,
   178b6:	4785                	c.li	a5,1
   178b8:	f2f51de3          	bne	a0,a5,177f2 <dwarf::compilation_unit::compilation_unit(dwarf::dwarf const&, unsigned long)+0x3ba>
	    _M_destroy();
   178bc:	00093783          	ld	a5,0(s2)
   178c0:	6f9c                	c.ld	a5,24(a5)
   178c2:	854a                	c.mv	a0,s2
   178c4:	9782                	c.jalr	a5
   178c6:	b735                	c.j	177f2 <dwarf::compilation_unit::compilation_unit(dwarf::dwarf const&, unsigned long)+0x3ba>
      return __exchange_and_add(__mem, __val);
   178c8:	55fd                	c.li	a1,-1
   178ca:	03490513          	addi	a0,s2,52
   178ce:	a63fe0ef          	jal	ra,16330 <__gnu_cxx::__exchange_and_add(int volatile*, int)@plt>
   178d2:	b7d5                	c.j	178b6 <dwarf::compilation_unit::compilation_unit(dwarf::dwarf const&, unsigned long)+0x47e>
   178d4:	55fd                	c.li	a1,-1
   178d6:	03040513          	addi	a0,s0,48
   178da:	a57fe0ef          	jal	ra,16330 <__gnu_cxx::__exchange_and_add(int volatile*, int)@plt>
   178de:	b73d                	c.j	1780c <dwarf::compilation_unit::compilation_unit(dwarf::dwarf const&, unsigned long)+0x3d4>
	_M_dispose();
   178e0:	601c                	c.ld	a5,0(s0)
   178e2:	6b9c                	c.ld	a5,16(a5)
   178e4:	8522                	c.mv	a0,s0
   178e6:	9782                	c.jalr	a5
	    __atomic_thread_fence (__ATOMIC_ACQ_REL);
   178e8:	0ff0000f          	fence	iorw,iorw
    if (__is_single_threaded())
   178ec:	00022797          	auipc	a5,0x22
   178f0:	b8c7b783          	ld	a5,-1140(a5) # 39478 <__libc_single_threaded@GLIBC_2.32-0x1a0>
   178f4:	0007c783          	lbu	a5,0(a5)
   178f8:	cf89                	c.beqz	a5,17912 <dwarf::compilation_unit::compilation_unit(dwarf::dwarf const&, unsigned long)+0x4da>
    _Atomic_word __result = *__mem;
   178fa:	5848                	c.lw	a0,52(s0)
    *__mem += __val;
   178fc:	fff5079b          	addiw	a5,a0,-1
   17900:	d85c                	c.sw	a5,52(s0)
	if (__gnu_cxx::__exchange_and_add_dispatch(&_M_weak_count,
   17902:	4785                	c.li	a5,1
   17904:	f0f517e3          	bne	a0,a5,17812 <dwarf::compilation_unit::compilation_unit(dwarf::dwarf const&, unsigned long)+0x3da>
	    _M_destroy();
   17908:	601c                	c.ld	a5,0(s0)
   1790a:	6f9c                	c.ld	a5,24(a5)
   1790c:	8522                	c.mv	a0,s0
   1790e:	9782                	c.jalr	a5
   17910:	b709                	c.j	17812 <dwarf::compilation_unit::compilation_unit(dwarf::dwarf const&, unsigned long)+0x3da>
      return __exchange_and_add(__mem, __val);
   17912:	55fd                	c.li	a1,-1
   17914:	03440513          	addi	a0,s0,52
   17918:	a19fe0ef          	jal	ra,16330 <__gnu_cxx::__exchange_and_add(int volatile*, int)@plt>
   1791c:	b7dd                	c.j	17902 <dwarf::compilation_unit::compilation_unit(dwarf::dwarf const&, unsigned long)+0x4ca>
   1791e:	55fd                	c.li	a1,-1
   17920:	03040513          	addi	a0,s0,48
   17924:	a0dfe0ef          	jal	ra,16330 <__gnu_cxx::__exchange_and_add(int volatile*, int)@plt>
   17928:	b719                	c.j	1782e <dwarf::compilation_unit::compilation_unit(dwarf::dwarf const&, unsigned long)+0x3f6>
	_M_dispose();
   1792a:	601c                	c.ld	a5,0(s0)
   1792c:	6b9c                	c.ld	a5,16(a5)
   1792e:	8522                	c.mv	a0,s0
   17930:	9782                	c.jalr	a5
	    __atomic_thread_fence (__ATOMIC_ACQ_REL);
   17932:	0ff0000f          	fence	iorw,iorw
    if (__is_single_threaded())
   17936:	00022797          	auipc	a5,0x22
   1793a:	b427b783          	ld	a5,-1214(a5) # 39478 <__libc_single_threaded@GLIBC_2.32-0x1a0>
   1793e:	0007c783          	lbu	a5,0(a5)
   17942:	cf89                	c.beqz	a5,1795c <dwarf::compilation_unit::compilation_unit(dwarf::dwarf const&, unsigned long)+0x524>
    _Atomic_word __result = *__mem;
   17944:	5848                	c.lw	a0,52(s0)
    *__mem += __val;
   17946:	fff5079b          	addiw	a5,a0,-1
   1794a:	d85c                	c.sw	a5,52(s0)
	if (__gnu_cxx::__exchange_and_add_dispatch(&_M_weak_count,
   1794c:	4785                	c.li	a5,1
   1794e:	eef513e3          	bne	a0,a5,17834 <dwarf::compilation_unit::compilation_unit(dwarf::dwarf const&, unsigned long)+0x3fc>
	    _M_destroy();
   17952:	601c                	c.ld	a5,0(s0)
   17954:	6f9c                	c.ld	a5,24(a5)
   17956:	8522                	c.mv	a0,s0
   17958:	9782                	c.jalr	a5
   1795a:	bde9                	c.j	17834 <dwarf::compilation_unit::compilation_unit(dwarf::dwarf const&, unsigned long)+0x3fc>
      return __exchange_and_add(__mem, __val);
   1795c:	55fd                	c.li	a1,-1
   1795e:	03440513          	addi	a0,s0,52
   17962:	9cffe0ef          	jal	ra,16330 <__gnu_cxx::__exchange_and_add(int volatile*, int)@plt>
   17966:	b7dd                	c.j	1794c <dwarf::compilation_unit::compilation_unit(dwarf::dwarf const&, unsigned long)+0x514>
   17968:	55fd                	c.li	a1,-1
   1796a:	03040513          	addi	a0,s0,48
   1796e:	9c3fe0ef          	jal	ra,16330 <__gnu_cxx::__exchange_and_add(int volatile*, int)@plt>
   17972:	bdf9                	c.j	17850 <dwarf::compilation_unit::compilation_unit(dwarf::dwarf const&, unsigned long)+0x418>
	_M_dispose();
   17974:	601c                	c.ld	a5,0(s0)
   17976:	6b9c                	c.ld	a5,16(a5)
   17978:	8522                	c.mv	a0,s0
   1797a:	9782                	c.jalr	a5
	    __atomic_thread_fence (__ATOMIC_ACQ_REL);
   1797c:	0ff0000f          	fence	iorw,iorw
    if (__is_single_threaded())
   17980:	00022797          	auipc	a5,0x22
   17984:	af87b783          	ld	a5,-1288(a5) # 39478 <__libc_single_threaded@GLIBC_2.32-0x1a0>
   17988:	0007c783          	lbu	a5,0(a5)
   1798c:	cf89                	c.beqz	a5,179a6 <dwarf::compilation_unit::compilation_unit(dwarf::dwarf const&, unsigned long)+0x56e>
    _Atomic_word __result = *__mem;
   1798e:	5848                	c.lw	a0,52(s0)
    *__mem += __val;
   17990:	fff5079b          	addiw	a5,a0,-1
   17994:	d85c                	c.sw	a5,52(s0)
	if (__gnu_cxx::__exchange_and_add_dispatch(&_M_weak_count,
   17996:	4785                	c.li	a5,1
   17998:	eaf51fe3          	bne	a0,a5,17856 <dwarf::compilation_unit::compilation_unit(dwarf::dwarf const&, unsigned long)+0x41e>
	    _M_destroy();
   1799c:	601c                	c.ld	a5,0(s0)
   1799e:	6f9c                	c.ld	a5,24(a5)
   179a0:	8522                	c.mv	a0,s0
   179a2:	9782                	c.jalr	a5
   179a4:	bd4d                	c.j	17856 <dwarf::compilation_unit::compilation_unit(dwarf::dwarf const&, unsigned long)+0x41e>
      return __exchange_and_add(__mem, __val);
   179a6:	55fd                	c.li	a1,-1
   179a8:	03440513          	addi	a0,s0,52
   179ac:	985fe0ef          	jal	ra,16330 <__gnu_cxx::__exchange_and_add(int volatile*, int)@plt>
   179b0:	b7dd                	c.j	17996 <dwarf::compilation_unit::compilation_unit(dwarf::dwarf const&, unsigned long)+0x55e>
      { return _M_dataplus._M_p; }
   179b2:	842a                	c.mv	s0,a0
   179b4:	6506                	c.ldsp	a0,64(sp)
	if (!_M_is_local())
   179b6:	089c                	c.addi4spn	a5,sp,80
   179b8:	00f50463          	beq	a0,a5,179c0 <dwarf::compilation_unit::compilation_unit(dwarf::dwarf const&, unsigned long)+0x588>
	_GLIBCXX_OPERATOR_DELETE(_GLIBCXX_SIZED_DEALLOC(__p, __n));
   179bc:	af5fe0ef          	jal	ra,164b0 <operator delete(void*)@plt>
      { return _M_dataplus._M_p; }
   179c0:	7506                	c.ldsp	a0,96(sp)
	if (!_M_is_local())
   179c2:	189c                	c.addi4spn	a5,sp,112
   179c4:	00f50463          	beq	a0,a5,179cc <dwarf::compilation_unit::compilation_unit(dwarf::dwarf const&, unsigned long)+0x594>
   179c8:	ae9fe0ef          	jal	ra,164b0 <operator delete(void*)@plt>
                       std::to_string(version));
   179cc:	854a                	c.mv	a0,s2
   179ce:	aa3fe0ef          	jal	ra,16470 <__cxa_free_exception@plt>
	if (_M_pi != nullptr)
   179d2:	7542                	c.ldsp	a0,48(sp)
   179d4:	c511                	c.beqz	a0,179e0 <dwarf::compilation_unit::compilation_unit(dwarf::dwarf const&, unsigned long)+0x5a8>
	  _M_pi->_M_release();
   179d6:	00022317          	auipc	t1,0x22
   179da:	9ea33303          	ld	t1,-1558(t1) # 393c0 <std::_Sp_counted_base<(__gnu_cxx::_Lock_policy)1>::_M_release()@@Base+0x22638>
   179de:	9302                	c.jalr	t1
	if (_M_pi != nullptr)
   179e0:	6522                	c.ldsp	a0,8(sp)
   179e2:	c511                	c.beqz	a0,179ee <dwarf::compilation_unit::compilation_unit(dwarf::dwarf const&, unsigned long)+0x5b6>
	  _M_pi->_M_release();
   179e4:	00022317          	auipc	t1,0x22
   179e8:	9dc33303          	ld	t1,-1572(t1) # 393c0 <std::_Sp_counted_base<(__gnu_cxx::_Lock_policy)1>::_M_release()@@Base+0x22638>
   179ec:	9302                	c.jalr	t1
	if (_M_pi != nullptr)
   179ee:	6562                	c.ldsp	a0,24(sp)
   179f0:	c511                	c.beqz	a0,179fc <dwarf::compilation_unit::compilation_unit(dwarf::dwarf const&, unsigned long)+0x5c4>
	  _M_pi->_M_release();
   179f2:	00022317          	auipc	t1,0x22
   179f6:	9ce33303          	ld	t1,-1586(t1) # 393c0 <std::_Sp_counted_base<(__gnu_cxx::_Lock_policy)1>::_M_release()@@Base+0x22638>
   179fa:	9302                	c.jalr	t1
}
   179fc:	8526                	c.mv	a0,s1
   179fe:	e38ff0ef          	jal	ra,17036 <dwarf::unit::~unit()>
   17a02:	8522                	c.mv	a0,s0
   17a04:	c8dfe0ef          	jal	ra,16690 <_Unwind_Resume@plt>
      { return _M_dataplus._M_p; }
   17a08:	842a                	c.mv	s0,a0
   17a0a:	bf5d                	c.j	179c0 <dwarf::compilation_unit::compilation_unit(dwarf::dwarf const&, unsigned long)+0x588>
	if (_M_pi != nullptr)
   17a0c:	842a                	c.mv	s0,a0
   17a0e:	b7c5                	c.j	179ee <dwarf::compilation_unit::compilation_unit(dwarf::dwarf const&, unsigned long)+0x5b6>
   17a10:	842a                	c.mv	s0,a0
   17a12:	b7ed                	c.j	179fc <dwarf::compilation_unit::compilation_unit(dwarf::dwarf const&, unsigned long)+0x5c4>
        val |= ((uint64_t)p[i]) << (i * 8);
   17a14:	0007c603          	lbu	a2,0(a5)
    pos += sizeof(T);
   17a18:	0785                	c.addi	a5,1
   17a1a:	fc3e                	c.sdsp	a5,56(sp)
  subsec->addr_size = address_size;
   17a1c:	6682                	c.ldsp	a3,0(sp)
   17a1e:	d290                	c.sw	a2,32(a3)

  bool end() const { return pos >= sec->end; }

  bool valid() const { return !!pos; }

  section_offset get_section_offset() const { return pos - sec->begin; }
   17a20:	6718                	c.ld	a4,8(a4)
   17a22:	40e78a33          	sub	s4,a5,a4
	return static_cast<_Tp*>(_GLIBCXX_OPERATOR_NEW(__n * sizeof(_Tp)));
   17a26:	1c800513          	addi	a0,zero,456
   17a2a:	a97fe0ef          	jal	ra,164c0 <operator new(unsigned long)@plt>
   17a2e:	b949                	c.j	176c0 <dwarf::compilation_unit::compilation_unit(dwarf::dwarf const&, unsigned long)+0x288>
      __shared_ptr(const __shared_ptr&) noexcept = default;
   17a30:	f452                	c.sdsp	s4,40(sp)
      : _M_pi(__r._M_pi)
   17a32:	f802                	c.sdsp	zero,48(sp)
      : sec(sec), pos(sec->begin + offset) {}
   17a34:	008a3783          	ld	a5,8(s4)
   17a38:	fc3e                	c.sdsp	a5,56(sp)
  sub.skip_initial_length();
   17a3a:	1028                	c.addi4spn	a0,sp,40
   17a3c:	0e8030ef          	jal	ra,1ab24 <dwarf::cursor::skip_initial_length()>
   17a40:	b669                	c.j	175ca <dwarf::compilation_unit::compilation_unit(dwarf::dwarf const&, unsigned long)+0x192>

0000000000017a42 <dwarf::dwarf::dwarf(std::shared_ptr<dwarf::loader> const&)>:
dwarf::dwarf(const std::shared_ptr<loader> &l) : m(make_shared<impl>(l)) {
   17a42:	7135                	c.addi16sp	sp,-160
   17a44:	ed06                	c.sdsp	ra,152(sp)
   17a46:	e922                	c.sdsp	s0,144(sp)
   17a48:	e526                	c.sdsp	s1,136(sp)
   17a4a:	e14a                	c.sdsp	s2,128(sp)
   17a4c:	fcce                	c.sdsp	s3,120(sp)
   17a4e:	f8d2                	c.sdsp	s4,112(sp)
   17a50:	f4d6                	c.sdsp	s5,104(sp)
   17a52:	f0da                	c.sdsp	s6,96(sp)
   17a54:	ecde                	c.sdsp	s7,88(sp)
   17a56:	84aa                	c.mv	s1,a0
   17a58:	892e                	c.mv	s2,a1

    protected:
      // This constructor is non-standard, it is used by allocate_shared.
      template<typename _Alloc, typename... _Args>
	__shared_ptr(_Sp_alloc_shared_tag<_Alloc> __tag, _Args&&... __args)
	: _M_ptr(), _M_refcount(_M_ptr, __tag, std::forward<_Args>(__args)...)
   17a5a:	00053023          	sd	zero,0(a0)
   17a5e:	0f000513          	addi	a0,zero,240
   17a62:	a5ffe0ef          	jal	ra,164c0 <operator new(unsigned long)@plt>
   17a66:	842a                	c.mv	s0,a0
   17a68:	00052423          	sw	zero,8(a0)
   17a6c:	00052623          	sw	zero,12(a0)
   17a70:	00052823          	sw	zero,16(a0)
   17a74:	00052a23          	sw	zero,20(a0)
   17a78:	00052c23          	sw	zero,24(a0)
   17a7c:	00052e23          	sw	zero,28(a0)
   17a80:	02053023          	sd	zero,32(a0)
   17a84:	02053423          	sd	zero,40(a0)
      : _M_use_count(1), _M_weak_count(1) { }
   17a88:	4785                	c.li	a5,1
   17a8a:	d91c                	c.sw	a5,48(a0)
   17a8c:	d95c                	c.sw	a5,52(a0)
	: _M_impl(__a)
   17a8e:	00022797          	auipc	a5,0x22
   17a92:	a9a7b783          	ld	a5,-1382(a5) # 39528 <vtable for std::_Sp_counted_ptr_inplace<dwarf::dwarf::impl, std::allocator<void>, (__gnu_cxx::_Lock_policy)1>@@Base+0xb78>
   17a96:	07c1                	c.addi	a5,16
   17a98:	e11c                	c.sd	a5,0(a0)
   17a9a:	03850993          	addi	s3,a0,56
      __shared_ptr(const __shared_ptr&) noexcept = default;
   17a9e:	00093783          	ld	a5,0(s2)
   17aa2:	fd1c                	c.sd	a5,56(a0)
      : _M_pi(__r._M_pi)
   17aa4:	00893503          	ld	a0,8(s2)
   17aa8:	e028                	c.sd	a0,64(s0)
	if (_M_pi != nullptr)
   17aaa:	c919                	c.beqz	a0,17ac0 <dwarf::dwarf::dwarf(std::shared_ptr<dwarf::loader> const&)+0x7e>
    if (__is_single_threaded())
   17aac:	00022797          	auipc	a5,0x22
   17ab0:	9cc7b783          	ld	a5,-1588(a5) # 39478 <__libc_single_threaded@GLIBC_2.32-0x1a0>
   17ab4:	0007c783          	lbu	a5,0(a5)
   17ab8:	cfa5                	c.beqz	a5,17b30 <dwarf::dwarf::dwarf(std::shared_ptr<dwarf::loader> const&)+0xee>
  { *__mem += __val; }
   17aba:	591c                	c.lw	a5,48(a0)
   17abc:	2785                	c.addiw	a5,1
   17abe:	d91c                	c.sw	a5,48(a0)
      : _M_ptr(0), _M_refcount()
   17ac0:	04043423          	sd	zero,72(s0)
      constexpr __shared_count() noexcept : _M_pi(0)
   17ac4:	04043823          	sd	zero,80(s0)
      : _M_ptr(0), _M_refcount()
   17ac8:	04043c23          	sd	zero,88(s0)
      constexpr __shared_count() noexcept : _M_pi(0)
   17acc:	06043023          	sd	zero,96(s0)
   17ad0:	06043423          	sd	zero,104(s0)
   17ad4:	06043823          	sd	zero,112(s0)
   17ad8:	06043c23          	sd	zero,120(s0)
   17adc:	0b040793          	addi	a5,s0,176
   17ae0:	e05c                	c.sd	a5,128(s0)
   17ae2:	4785                	c.li	a5,1
   17ae4:	e45c                	c.sd	a5,136(s0)
    _Hash_node_base() noexcept : _M_nxt() { }
   17ae6:	08043823          	sd	zero,144(s0)
   17aea:	08043c23          	sd	zero,152(s0)
    : _M_max_load_factor(__z), _M_next_resize(0) { }
   17aee:	00016797          	auipc	a5,0x16
   17af2:	aba7a787          	flw	fa5,-1350(a5) # 2d5a8 <std::__detail::__to_chars_10_impl<unsigned int>(char*, unsigned int, unsigned int)::__digits+0xf0>
   17af6:	0af42027          	fsw	fa5,160(s0)
   17afa:	0a043423          	sd	zero,168(s0)
   17afe:	0a043823          	sd	zero,176(s0)
  impl(const std::shared_ptr<loader> &l) : l(l), have_type_units(false) {}
   17b02:	0a040c23          	sb	zero,184(s0)
      _M_header._M_color = _S_red;
   17b06:	0c042423          	sw	zero,200(s0)
      _M_header._M_parent = 0;
   17b0a:	0c043823          	sd	zero,208(s0)
      _M_header._M_left = &_M_header;
   17b0e:	0c840793          	addi	a5,s0,200
   17b12:	ec7c                	c.sd	a5,216(s0)
      _M_header._M_right = &_M_header;
   17b14:	f07c                	c.sd	a5,224(s0)
      _M_node_count = 0;
   17b16:	0e043423          	sd	zero,232(s0)
	  _M_pi = __pi;
   17b1a:	e480                	c.sd	s0,8(s1)
	  __p = __pi->_M_ptr();
   17b1c:	0134b023          	sd	s3,0(s1)
      { return _M_ptr; }
   17b20:	00093503          	ld	a0,0(s2)
  data = l->load(section_type::info, &size);
   17b24:	611c                	c.ld	a5,0(a0)
   17b26:	6b9c                	c.ld	a5,16(a5)
   17b28:	860a                	c.mv	a2,sp
   17b2a:	458d                	c.li	a1,3
   17b2c:	9782                	c.jalr	a5
   17b2e:	a039                	c.j	17b3c <dwarf::dwarf::dwarf(std::shared_ptr<dwarf::loader> const&)+0xfa>
      __atomic_add(__mem, __val);
   17b30:	4585                	c.li	a1,1
   17b32:	03050513          	addi	a0,a0,48
   17b36:	fcafe0ef          	jal	ra,16300 <__gnu_cxx::__atomic_add(int volatile*, int)@plt>
   17b3a:	b759                	c.j	17ac0 <dwarf::dwarf::dwarf(std::shared_ptr<dwarf::loader> const&)+0x7e>
   17b3c:	842a                	c.mv	s0,a0
  if (!data)
   17b3e:	c901                	c.beqz	a0,17b4e <dwarf::dwarf::dwarf(std::shared_ptr<dwarf::loader> const&)+0x10c>
   17b40:	0004ba03          	ld	s4,0(s1)
   17b44:	06000513          	addi	a0,zero,96
   17b48:	979fe0ef          	jal	ra,164c0 <operator new(unsigned long)@plt>
   17b4c:	a83d                	c.j	17b8a <dwarf::dwarf::dwarf(std::shared_ptr<dwarf::loader> const&)+0x148>
    throw format_error("required .debug_info section missing");
   17b4e:	4541                	c.li	a0,16
   17b50:	881fe0ef          	jal	ra,163d0 <__cxa_allocate_exception@plt>
   17b54:	892a                	c.mv	s2,a0
  explicit format_error(const char *what_arg) : std::runtime_error(what_arg) {}
   17b56:	00015597          	auipc	a1,0x15
   17b5a:	78a58593          	addi	a1,a1,1930 # 2d2e0 <std::_Sp_make_shared_tag::_S_ti()::__tag+0x70>
   17b5e:	bb3fe0ef          	jal	ra,16710 <std::runtime_error::runtime_error(char const*)@plt>
   17b62:	00022797          	auipc	a5,0x22
   17b66:	9ee7b783          	ld	a5,-1554(a5) # 39550 <vtable for dwarf::format_error@@Base+0xc20>
   17b6a:	07c1                	c.addi	a5,16
   17b6c:	00f93023          	sd	a5,0(s2)
   17b70:	00022617          	auipc	a2,0x22
   17b74:	80863603          	ld	a2,-2040(a2) # 39378 <dwarf::format_error::~format_error()@@Base+0x1fc80>
   17b78:	00021597          	auipc	a1,0x21
   17b7c:	7305b583          	ld	a1,1840(a1) # 392a8 <typeinfo for dwarf::format_error@@Base+0x9f0>
   17b80:	854a                	c.mv	a0,s2
   17b82:	adffe0ef          	jal	ra,16660 <__cxa_throw@plt>
	if (_M_pi != nullptr)
   17b86:	842a                	c.mv	s0,a0
   17b88:	adc1                	c.j	18258 <dwarf::dwarf::dwarf(std::shared_ptr<dwarf::loader> const&)+0x816>
   17b8a:	00052423          	sw	zero,8(a0)
   17b8e:	00052623          	sw	zero,12(a0)
   17b92:	00052823          	sw	zero,16(a0)
   17b96:	00052a23          	sw	zero,20(a0)
   17b9a:	00052c23          	sw	zero,24(a0)
   17b9e:	00052e23          	sw	zero,28(a0)
   17ba2:	02053023          	sd	zero,32(a0)
   17ba6:	02053423          	sd	zero,40(a0)
      : _M_use_count(1), _M_weak_count(1) { }
   17baa:	4785                	c.li	a5,1
   17bac:	d91c                	c.sw	a5,48(a0)
   17bae:	d95c                	c.sw	a5,52(a0)
	: _M_impl(__a)
   17bb0:	00022797          	auipc	a5,0x22
   17bb4:	a087b783          	ld	a5,-1528(a5) # 395b8 <vtable for std::_Sp_counted_ptr_inplace<dwarf::section, std::allocator<void>, (__gnu_cxx::_Lock_policy)1>@@Base+0xc40>
   17bb8:	07c1                	c.addi	a5,16
   17bba:	e11c                	c.sd	a5,0(a0)
      : type(type), begin((char *)begin), end((char *)begin + length), fmt(fmt),
   17bbc:	478d                	c.li	a5,3
   17bbe:	dd1c                	c.sw	a5,56(a0)
   17bc0:	e120                	c.sd	s0,64(a0)
   17bc2:	6782                	c.ldsp	a5,0(sp)
   17bc4:	97a2                	c.add	a5,s0
   17bc6:	e53c                	c.sd	a5,72(a0)
   17bc8:	04052823          	sw	zero,80(a0)
        ord(ord), addr_size(addr_size) {}
   17bcc:	04052a23          	sw	zero,84(a0)
   17bd0:	04052c23          	sw	zero,88(a0)
   17bd4:	03850793          	addi	a5,a0,56
   17bd8:	00fa3823          	sd	a5,16(s4)
	_Sp_counted_base<_Lp>* __tmp = __r._M_pi;
   17bdc:	018a3983          	ld	s3,24(s4)
	__r._M_pi = _M_pi;
   17be0:	00aa3c23          	sd	a0,24(s4)
	if (_M_pi != nullptr)
   17be4:	02098263          	beq	s3,zero,17c08 <dwarf::dwarf::dwarf(std::shared_ptr<dwarf::loader> const&)+0x1c6>
    if (__is_single_threaded())
   17be8:	00022797          	auipc	a5,0x22
   17bec:	8907b783          	ld	a5,-1904(a5) # 39478 <__libc_single_threaded@GLIBC_2.32-0x1a0>
   17bf0:	0007c783          	lbu	a5,0(a5)
   17bf4:	cbdd                	c.beqz	a5,17caa <dwarf::dwarf::dwarf(std::shared_ptr<dwarf::loader> const&)+0x268>
    _Atomic_word __result = *__mem;
   17bf6:	0309a503          	lw	a0,48(s3)
    *__mem += __val;
   17bfa:	fff5079b          	addiw	a5,a0,-1
   17bfe:	02f9a823          	sw	a5,48(s3)
      if (__gnu_cxx::__exchange_and_add_dispatch(&_M_use_count, -1) == 1)
   17c02:	4785                	c.li	a5,1
   17c04:	0af50963          	beq	a0,a5,17cb6 <dwarf::dwarf::dwarf(std::shared_ptr<dwarf::loader> const&)+0x274>
      { return _M_ptr; }
   17c08:	609c                	c.ld	a5,0(s1)
      __shared_ptr(const __shared_ptr&) noexcept = default;
   17c0a:	0107ba03          	ld	s4,16(a5)
      : _M_pi(__r._M_pi)
   17c0e:	0187b983          	ld	s3,24(a5)
	if (_M_pi != nullptr)
   17c12:	68098d63          	beq	s3,zero,182ac <dwarf::dwarf::dwarf(std::shared_ptr<dwarf::loader> const&)+0x86a>
    if (__is_single_threaded())
   17c16:	00022797          	auipc	a5,0x22
   17c1a:	8627b783          	ld	a5,-1950(a5) # 39478 <__libc_single_threaded@GLIBC_2.32-0x1a0>
   17c1e:	0007c783          	lbu	a5,0(a5)
   17c22:	cfe9                	c.beqz	a5,17cfc <dwarf::dwarf::dwarf(std::shared_ptr<dwarf::loader> const&)+0x2ba>
  { *__mem += __val; }
   17c24:	0309a783          	lw	a5,48(s3)
   17c28:	2785                	c.addiw	a5,1
   17c2a:	02f9a823          	sw	a5,48(s3)
      __shared_ptr(const __shared_ptr&) noexcept = default;
   17c2e:	e452                	c.sdsp	s4,8(sp)
      : _M_pi(__r._M_pi)
   17c30:	e84e                	c.sdsp	s3,16(sp)
    if (__is_single_threaded())
   17c32:	00022797          	auipc	a5,0x22
   17c36:	8467b783          	ld	a5,-1978(a5) # 39478 <__libc_single_threaded@GLIBC_2.32-0x1a0>
   17c3a:	0007c783          	lbu	a5,0(a5)
   17c3e:	c7e9                	c.beqz	a5,17d08 <dwarf::dwarf::dwarf(std::shared_ptr<dwarf::loader> const&)+0x2c6>
  { *__mem += __val; }
   17c40:	0309a783          	lw	a5,48(s3)
   17c44:	2785                	c.addiw	a5,1
   17c46:	02f9a823          	sw	a5,48(s3)
      : sec(sec), pos(sec->begin + offset) {}
   17c4a:	008a3783          	ld	a5,8(s4)
   17c4e:	ec3e                	c.sdsp	a5,24(sp)
    if (__is_single_threaded())
   17c50:	00022797          	auipc	a5,0x22
   17c54:	8287b783          	ld	a5,-2008(a5) # 39478 <__libc_single_threaded@GLIBC_2.32-0x1a0>
   17c58:	0007c783          	lbu	a5,0(a5)
   17c5c:	cfc5                	c.beqz	a5,17d14 <dwarf::dwarf::dwarf(std::shared_ptr<dwarf::loader> const&)+0x2d2>
    _Atomic_word __result = *__mem;
   17c5e:	0309a503          	lw	a0,48(s3)
    *__mem += __val;
   17c62:	fff5079b          	addiw	a5,a0,-1
   17c66:	02f9a823          	sw	a5,48(s3)
      if (__gnu_cxx::__exchange_and_add_dispatch(&_M_use_count, -1) == 1)
   17c6a:	4785                	c.li	a5,1
   17c6c:	64f51563          	bne	a0,a5,182b6 <dwarf::dwarf::dwarf(std::shared_ptr<dwarf::loader> const&)+0x874>
	_M_dispose();
   17c70:	0009b783          	ld	a5,0(s3)
   17c74:	6b9c                	c.ld	a5,16(a5)
   17c76:	854e                	c.mv	a0,s3
   17c78:	9782                	c.jalr	a5
	    __atomic_thread_fence (__ATOMIC_ACQ_REL);
   17c7a:	0ff0000f          	fence	iorw,iorw
    if (__is_single_threaded())
   17c7e:	00021797          	auipc	a5,0x21
   17c82:	7fa7b783          	ld	a5,2042(a5) # 39478 <__libc_single_threaded@GLIBC_2.32-0x1a0>
   17c86:	0007c783          	lbu	a5,0(a5)
   17c8a:	cbd9                	c.beqz	a5,17d20 <dwarf::dwarf::dwarf(std::shared_ptr<dwarf::loader> const&)+0x2de>
    _Atomic_word __result = *__mem;
   17c8c:	0349a503          	lw	a0,52(s3)
    *__mem += __val;
   17c90:	fff5079b          	addiw	a5,a0,-1
   17c94:	02f9aa23          	sw	a5,52(s3)
	if (__gnu_cxx::__exchange_and_add_dispatch(&_M_weak_count,
   17c98:	4785                	c.li	a5,1
   17c9a:	60f51e63          	bne	a0,a5,182b6 <dwarf::dwarf::dwarf(std::shared_ptr<dwarf::loader> const&)+0x874>
	    _M_destroy();
   17c9e:	0009b783          	ld	a5,0(s3)
   17ca2:	6f9c                	c.ld	a5,24(a5)
   17ca4:	854e                	c.mv	a0,s3
   17ca6:	9782                	c.jalr	a5
   17ca8:	a539                	c.j	182b6 <dwarf::dwarf::dwarf(std::shared_ptr<dwarf::loader> const&)+0x874>
      return __exchange_and_add(__mem, __val);
   17caa:	55fd                	c.li	a1,-1
   17cac:	03098513          	addi	a0,s3,48
   17cb0:	e80fe0ef          	jal	ra,16330 <__gnu_cxx::__exchange_and_add(int volatile*, int)@plt>
   17cb4:	b7b9                	c.j	17c02 <dwarf::dwarf::dwarf(std::shared_ptr<dwarf::loader> const&)+0x1c0>
	_M_dispose();
   17cb6:	0009b783          	ld	a5,0(s3)
   17cba:	6b9c                	c.ld	a5,16(a5)
   17cbc:	854e                	c.mv	a0,s3
   17cbe:	9782                	c.jalr	a5
	    __atomic_thread_fence (__ATOMIC_ACQ_REL);
   17cc0:	0ff0000f          	fence	iorw,iorw
    if (__is_single_threaded())
   17cc4:	00021797          	auipc	a5,0x21
   17cc8:	7b47b783          	ld	a5,1972(a5) # 39478 <__libc_single_threaded@GLIBC_2.32-0x1a0>
   17ccc:	0007c783          	lbu	a5,0(a5)
   17cd0:	c385                	c.beqz	a5,17cf0 <dwarf::dwarf::dwarf(std::shared_ptr<dwarf::loader> const&)+0x2ae>
    _Atomic_word __result = *__mem;
   17cd2:	0349a503          	lw	a0,52(s3)
    *__mem += __val;
   17cd6:	fff5079b          	addiw	a5,a0,-1
   17cda:	02f9aa23          	sw	a5,52(s3)
	if (__gnu_cxx::__exchange_and_add_dispatch(&_M_weak_count,
   17cde:	4785                	c.li	a5,1
   17ce0:	f2f514e3          	bne	a0,a5,17c08 <dwarf::dwarf::dwarf(std::shared_ptr<dwarf::loader> const&)+0x1c6>
	    _M_destroy();
   17ce4:	0009b783          	ld	a5,0(s3)
   17ce8:	6f9c                	c.ld	a5,24(a5)
   17cea:	854e                	c.mv	a0,s3
   17cec:	9782                	c.jalr	a5
   17cee:	bf29                	c.j	17c08 <dwarf::dwarf::dwarf(std::shared_ptr<dwarf::loader> const&)+0x1c6>
      return __exchange_and_add(__mem, __val);
   17cf0:	55fd                	c.li	a1,-1
   17cf2:	03498513          	addi	a0,s3,52
   17cf6:	e3afe0ef          	jal	ra,16330 <__gnu_cxx::__exchange_and_add(int volatile*, int)@plt>
   17cfa:	b7d5                	c.j	17cde <dwarf::dwarf::dwarf(std::shared_ptr<dwarf::loader> const&)+0x29c>
      __atomic_add(__mem, __val);
   17cfc:	4585                	c.li	a1,1
   17cfe:	03098513          	addi	a0,s3,48
   17d02:	dfefe0ef          	jal	ra,16300 <__gnu_cxx::__atomic_add(int volatile*, int)@plt>
   17d06:	b725                	c.j	17c2e <dwarf::dwarf::dwarf(std::shared_ptr<dwarf::loader> const&)+0x1ec>
   17d08:	4585                	c.li	a1,1
   17d0a:	03098513          	addi	a0,s3,48
   17d0e:	df2fe0ef          	jal	ra,16300 <__gnu_cxx::__atomic_add(int volatile*, int)@plt>
   17d12:	bf25                	c.j	17c4a <dwarf::dwarf::dwarf(std::shared_ptr<dwarf::loader> const&)+0x208>
      return __exchange_and_add(__mem, __val);
   17d14:	55fd                	c.li	a1,-1
   17d16:	03098513          	addi	a0,s3,48
   17d1a:	e16fe0ef          	jal	ra,16330 <__gnu_cxx::__exchange_and_add(int volatile*, int)@plt>
   17d1e:	b7b1                	c.j	17c6a <dwarf::dwarf::dwarf(std::shared_ptr<dwarf::loader> const&)+0x228>
   17d20:	55fd                	c.li	a1,-1
   17d22:	03498513          	addi	a0,s3,52
   17d26:	e0afe0ef          	jal	ra,16330 <__gnu_cxx::__exchange_and_add(int volatile*, int)@plt>
   17d2a:	b7bd                	c.j	17c98 <dwarf::dwarf::dwarf(std::shared_ptr<dwarf::loader> const&)+0x256>
    const unsigned char *p = (const unsigned char *)pos;
   17d2c:	65e2                	c.ldsp	a1,24(sp)
      { return _M_ptr; }
   17d2e:	6822                	c.ldsp	a6,8(sp)
    if (sec->ord == byte_order::lsb) {
   17d30:	01c82783          	lw	a5,28(a6)
   17d34:	e3b1                	c.bnez	a5,17d78 <dwarf::dwarf::dwarf(std::shared_ptr<dwarf::loader> const&)+0x336>
   17d36:	862e                	c.mv	a2,a1
   17d38:	4701                	c.li	a4,0
      for (unsigned i = 0; i < sizeof(T); i++)
   17d3a:	02000513          	addi	a0,zero,32
        val |= ((uint64_t)p[i]) << (i * 8);
   17d3e:	00064683          	lbu	a3,0(a2)
   17d42:	00e696b3          	sll	a3,a3,a4
   17d46:	8fd5                	c.or	a5,a3
      for (unsigned i = 0; i < sizeof(T); i++)
   17d48:	0605                	c.addi	a2,1
   17d4a:	2721                	c.addiw	a4,8
   17d4c:	fea719e3          	bne	a4,a0,17d3e <dwarf::dwarf::dwarf(std::shared_ptr<dwarf::loader> const&)+0x2fc>
    pos += sizeof(T);
   17d50:	0591                	c.addi	a1,4
   17d52:	ec2e                	c.sdsp	a1,24(sp)
  if (length == 0xffffffff)
   17d54:	2781                	c.addiw	a5,0
   17d56:	577d                	c.li	a4,-1
   17d58:	02e78c63          	beq	a5,a4,17d90 <dwarf::dwarf::dwarf(std::shared_ptr<dwarf::loader> const&)+0x34e>
    if ((section_offset)(sec->end - pos) < bytes || pos >= sec->end)
   17d5c:	67a2                	c.ldsp	a5,8(sp)
   17d5e:	6b98                	c.ld	a4,16(a5)
   17d60:	67e2                	c.ldsp	a5,24(sp)
   17d62:	40f70633          	sub	a2,a4,a5
   17d66:	4685                	c.li	a3,1
   17d68:	00c6f463          	bgeu	a3,a2,17d70 <dwarf::dwarf::dwarf(std::shared_ptr<dwarf::loader> const&)+0x32e>
   17d6c:	04e7e263          	bltu	a5,a4,17db0 <dwarf::dwarf::dwarf(std::shared_ptr<dwarf::loader> const&)+0x36e>
      underflow();
   17d70:	0028                	c.addi4spn	a0,sp,8
   17d72:	6c7020ef          	jal	ra,1ac38 <dwarf::cursor::underflow()>
   17d76:	a82d                	c.j	17db0 <dwarf::dwarf::dwarf(std::shared_ptr<dwarf::loader> const&)+0x36e>
   17d78:	872e                	c.mv	a4,a1
   17d7a:	00458613          	addi	a2,a1,4
    uint64_t val = 0;
   17d7e:	4781                	c.li	a5,0
        val = (val << 8) | (uint64_t)p[i];
   17d80:	07a2                	c.slli	a5,0x8
   17d82:	00074683          	lbu	a3,0(a4)
   17d86:	8fd5                	c.or	a5,a3
      for (unsigned i = 0; i < sizeof(T); i++)
   17d88:	0705                	c.addi	a4,1
   17d8a:	fec71be3          	bne	a4,a2,17d80 <dwarf::dwarf::dwarf(std::shared_ptr<dwarf::loader> const&)+0x33e>
   17d8e:	b7c9                	c.j	17d50 <dwarf::dwarf::dwarf(std::shared_ptr<dwarf::loader> const&)+0x30e>
    if ((section_offset)(sec->end - pos) < bytes || pos >= sec->end)
   17d90:	01083783          	ld	a5,16(a6)
   17d94:	40b786b3          	sub	a3,a5,a1
   17d98:	471d                	c.li	a4,7
   17d9a:	00d77463          	bgeu	a4,a3,17da2 <dwarf::dwarf::dwarf(std::shared_ptr<dwarf::loader> const&)+0x360>
   17d9e:	00f5e563          	bltu	a1,a5,17da8 <dwarf::dwarf::dwarf(std::shared_ptr<dwarf::loader> const&)+0x366>
      underflow();
   17da2:	0028                	c.addi4spn	a0,sp,8
   17da4:	695020ef          	jal	ra,1ac38 <dwarf::cursor::underflow()>
    pos += sizeof(T);
   17da8:	67e2                	c.ldsp	a5,24(sp)
   17daa:	07a1                	c.addi	a5,8
   17dac:	ec3e                	c.sdsp	a5,24(sp)
    return (T)val;
   17dae:	b77d                	c.j	17d5c <dwarf::dwarf::dwarf(std::shared_ptr<dwarf::loader> const&)+0x31a>
    const unsigned char *p = (const unsigned char *)pos;
   17db0:	6762                	c.ldsp	a4,24(sp)
    if (sec->ord == byte_order::lsb) {
   17db2:	67a2                	c.ldsp	a5,8(sp)
   17db4:	4fdc                	c.lw	a5,28(a5)
   17db6:	ef85                	c.bnez	a5,17dee <dwarf::dwarf::dwarf(std::shared_ptr<dwarf::loader> const&)+0x3ac>
        val |= ((uint64_t)p[i]) << (i * 8);
   17db8:	00174783          	lbu	a5,1(a4)
   17dbc:	07a2                	c.slli	a5,0x8
   17dbe:	00074683          	lbu	a3,0(a4)
   17dc2:	8fd5                	c.or	a5,a3
    pos += sizeof(T);
   17dc4:	0709                	c.addi	a4,2
   17dc6:	ec3a                	c.sdsp	a4,24(sp)
    return (T)val;
   17dc8:	17c2                	c.slli	a5,0x30
   17dca:	93c1                	c.srli	a5,0x30
  uhalf versionbe = (version >> 8) | ((version & 0xFF) << 8);
   17dcc:	0087d71b          	srliw	a4,a5,0x8
   17dd0:	0087969b          	slliw	a3,a5,0x8
   17dd4:	8f55                	c.or	a4,a3
  if (versionbe < version) {
   17dd6:	1742                	c.slli	a4,0x30
   17dd8:	9341                	c.srli	a4,0x30
   17dda:	02f76163          	bltu	a4,a5,17dfc <dwarf::dwarf::dwarf(std::shared_ptr<dwarf::loader> const&)+0x3ba>
   17dde:	00093503          	ld	a0,0(s2)
  data = l->load(section_type::abbrev, &size);
   17de2:	611c                	c.ld	a5,0(a0)
   17de4:	6b9c                	c.ld	a5,16(a5)
   17de6:	860a                	c.mv	a2,sp
   17de8:	4581                	c.li	a1,0
   17dea:	9782                	c.jalr	a5
   17dec:	a8f9                	c.j	17eca <dwarf::dwarf::dwarf(std::shared_ptr<dwarf::loader> const&)+0x488>
        val = (val << 8) | (uint64_t)p[i];
   17dee:	00074783          	lbu	a5,0(a4)
   17df2:	07a2                	c.slli	a5,0x8
   17df4:	00174683          	lbu	a3,1(a4)
   17df8:	8fd5                	c.or	a5,a3
      for (unsigned i = 0; i < sizeof(T); i++)
   17dfa:	b7e9                	c.j	17dc4 <dwarf::dwarf::dwarf(std::shared_ptr<dwarf::loader> const&)+0x382>
   17dfc:	0004b983          	ld	s3,0(s1)
   17e00:	06000513          	addi	a0,zero,96
   17e04:	ebcfe0ef          	jal	ra,164c0 <operator new(unsigned long)@plt>
   17e08:	00052423          	sw	zero,8(a0)
   17e0c:	00052623          	sw	zero,12(a0)
   17e10:	00052823          	sw	zero,16(a0)
   17e14:	00052a23          	sw	zero,20(a0)
   17e18:	00052c23          	sw	zero,24(a0)
   17e1c:	00052e23          	sw	zero,28(a0)
   17e20:	02053023          	sd	zero,32(a0)
   17e24:	02053423          	sd	zero,40(a0)
      : _M_use_count(1), _M_weak_count(1) { }
   17e28:	4785                	c.li	a5,1
   17e2a:	d91c                	c.sw	a5,48(a0)
   17e2c:	d95c                	c.sw	a5,52(a0)
	: _M_impl(__a)
   17e2e:	00021717          	auipc	a4,0x21
   17e32:	78a73703          	ld	a4,1930(a4) # 395b8 <vtable for std::_Sp_counted_ptr_inplace<dwarf::section, std::allocator<void>, (__gnu_cxx::_Lock_policy)1>@@Base+0xc40>
   17e36:	0741                	c.addi	a4,16
   17e38:	e118                	c.sd	a4,0(a0)
      : type(type), begin((char *)begin), end((char *)begin + length), fmt(fmt),
   17e3a:	470d                	c.li	a4,3
   17e3c:	dd18                	c.sw	a4,56(a0)
   17e3e:	e120                	c.sd	s0,64(a0)
   17e40:	6702                	c.ldsp	a4,0(sp)
   17e42:	9722                	c.add	a4,s0
   17e44:	e538                	c.sd	a4,72(a0)
   17e46:	04052823          	sw	zero,80(a0)
        ord(ord), addr_size(addr_size) {}
   17e4a:	c97c                	c.sw	a5,84(a0)
   17e4c:	04052c23          	sw	zero,88(a0)
   17e50:	03850793          	addi	a5,a0,56
   17e54:	00f9b823          	sd	a5,16(s3)
	_Sp_counted_base<_Lp>* __tmp = __r._M_pi;
   17e58:	0189b403          	ld	s0,24(s3)
	__r._M_pi = _M_pi;
   17e5c:	00a9bc23          	sd	a0,24(s3)
	if (_M_pi != nullptr)
   17e60:	dc3d                	c.beqz	s0,17dde <dwarf::dwarf::dwarf(std::shared_ptr<dwarf::loader> const&)+0x39c>
    if (__is_single_threaded())
   17e62:	00021797          	auipc	a5,0x21
   17e66:	6167b783          	ld	a5,1558(a5) # 39478 <__libc_single_threaded@GLIBC_2.32-0x1a0>
   17e6a:	0007c783          	lbu	a5,0(a5)
   17e6e:	c3a9                	c.beqz	a5,17eb0 <dwarf::dwarf::dwarf(std::shared_ptr<dwarf::loader> const&)+0x46e>
    _Atomic_word __result = *__mem;
   17e70:	5808                	c.lw	a0,48(s0)
    *__mem += __val;
   17e72:	fff5079b          	addiw	a5,a0,-1
   17e76:	d81c                	c.sw	a5,48(s0)
      if (__gnu_cxx::__exchange_and_add_dispatch(&_M_use_count, -1) == 1)
   17e78:	4785                	c.li	a5,1
   17e7a:	f6f512e3          	bne	a0,a5,17dde <dwarf::dwarf::dwarf(std::shared_ptr<dwarf::loader> const&)+0x39c>
	_M_dispose();
   17e7e:	601c                	c.ld	a5,0(s0)
   17e80:	6b9c                	c.ld	a5,16(a5)
   17e82:	8522                	c.mv	a0,s0
   17e84:	9782                	c.jalr	a5
	    __atomic_thread_fence (__ATOMIC_ACQ_REL);
   17e86:	0ff0000f          	fence	iorw,iorw
    if (__is_single_threaded())
   17e8a:	00021797          	auipc	a5,0x21
   17e8e:	5ee7b783          	ld	a5,1518(a5) # 39478 <__libc_single_threaded@GLIBC_2.32-0x1a0>
   17e92:	0007c783          	lbu	a5,0(a5)
   17e96:	c39d                	c.beqz	a5,17ebc <dwarf::dwarf::dwarf(std::shared_ptr<dwarf::loader> const&)+0x47a>
    _Atomic_word __result = *__mem;
   17e98:	585c                	c.lw	a5,52(s0)
    *__mem += __val;
   17e9a:	fff7871b          	addiw	a4,a5,-1
   17e9e:	d858                	c.sw	a4,52(s0)
	if (__gnu_cxx::__exchange_and_add_dispatch(&_M_weak_count,
   17ea0:	4705                	c.li	a4,1
   17ea2:	f2e79ee3          	bne	a5,a4,17dde <dwarf::dwarf::dwarf(std::shared_ptr<dwarf::loader> const&)+0x39c>
	    _M_destroy();
   17ea6:	601c                	c.ld	a5,0(s0)
   17ea8:	6f9c                	c.ld	a5,24(a5)
   17eaa:	8522                	c.mv	a0,s0
   17eac:	9782                	c.jalr	a5
   17eae:	bf05                	c.j	17dde <dwarf::dwarf::dwarf(std::shared_ptr<dwarf::loader> const&)+0x39c>
      return __exchange_and_add(__mem, __val);
   17eb0:	55fd                	c.li	a1,-1
   17eb2:	03040513          	addi	a0,s0,48
   17eb6:	c7afe0ef          	jal	ra,16330 <__gnu_cxx::__exchange_and_add(int volatile*, int)@plt>
   17eba:	bf7d                	c.j	17e78 <dwarf::dwarf::dwarf(std::shared_ptr<dwarf::loader> const&)+0x436>
   17ebc:	55fd                	c.li	a1,-1
   17ebe:	03440513          	addi	a0,s0,52
   17ec2:	c6efe0ef          	jal	ra,16330 <__gnu_cxx::__exchange_and_add(int volatile*, int)@plt>
   17ec6:	87aa                	c.mv	a5,a0
   17ec8:	bfe1                	c.j	17ea0 <dwarf::dwarf::dwarf(std::shared_ptr<dwarf::loader> const&)+0x45e>
   17eca:	842a                	c.mv	s0,a0
  if (!data)
   17ecc:	c911                	c.beqz	a0,17ee0 <dwarf::dwarf::dwarf(std::shared_ptr<dwarf::loader> const&)+0x49e>
      { return _M_ptr; }
   17ece:	0004b903          	ld	s2,0(s1)
   17ed2:	01093983          	ld	s3,16(s2)
   17ed6:	06000513          	addi	a0,zero,96
   17eda:	de6fe0ef          	jal	ra,164c0 <operator new(unsigned long)@plt>
   17ede:	a83d                	c.j	17f1c <dwarf::dwarf::dwarf(std::shared_ptr<dwarf::loader> const&)+0x4da>
    throw format_error("required .debug_abbrev section missing");
   17ee0:	4541                	c.li	a0,16
   17ee2:	ceefe0ef          	jal	ra,163d0 <__cxa_allocate_exception@plt>
   17ee6:	892a                	c.mv	s2,a0
   17ee8:	00015597          	auipc	a1,0x15
   17eec:	42058593          	addi	a1,a1,1056 # 2d308 <std::_Sp_make_shared_tag::_S_ti()::__tag+0x98>
   17ef0:	821fe0ef          	jal	ra,16710 <std::runtime_error::runtime_error(char const*)@plt>
   17ef4:	00021797          	auipc	a5,0x21
   17ef8:	65c7b783          	ld	a5,1628(a5) # 39550 <vtable for dwarf::format_error@@Base+0xc20>
   17efc:	07c1                	c.addi	a5,16
   17efe:	00f93023          	sd	a5,0(s2)
   17f02:	00021617          	auipc	a2,0x21
   17f06:	47663603          	ld	a2,1142(a2) # 39378 <dwarf::format_error::~format_error()@@Base+0x1fc80>
   17f0a:	00021597          	auipc	a1,0x21
   17f0e:	39e5b583          	ld	a1,926(a1) # 392a8 <typeinfo for dwarf::format_error@@Base+0x9f0>
   17f12:	854a                	c.mv	a0,s2
   17f14:	f4cfe0ef          	jal	ra,16660 <__cxa_throw@plt>
	if (_M_pi != nullptr)
   17f18:	842a                	c.mv	s0,a0
   17f1a:	aea9                	c.j	18274 <dwarf::dwarf::dwarf(std::shared_ptr<dwarf::loader> const&)+0x832>
   17f1c:	00052423          	sw	zero,8(a0)
   17f20:	00052623          	sw	zero,12(a0)
   17f24:	00052823          	sw	zero,16(a0)
   17f28:	00052a23          	sw	zero,20(a0)
   17f2c:	00052c23          	sw	zero,24(a0)
   17f30:	00052e23          	sw	zero,28(a0)
   17f34:	02053023          	sd	zero,32(a0)
   17f38:	02053423          	sd	zero,40(a0)
      : _M_use_count(1), _M_weak_count(1) { }
   17f3c:	4785                	c.li	a5,1
   17f3e:	d91c                	c.sw	a5,48(a0)
   17f40:	d95c                	c.sw	a5,52(a0)
	: _M_impl(__a)
   17f42:	00021797          	auipc	a5,0x21
   17f46:	6767b783          	ld	a5,1654(a5) # 395b8 <vtable for std::_Sp_counted_ptr_inplace<dwarf::section, std::allocator<void>, (__gnu_cxx::_Lock_policy)1>@@Base+0xc40>
   17f4a:	07c1                	c.addi	a5,16
   17f4c:	e11c                	c.sd	a5,0(a0)
   17f4e:	01c9a783          	lw	a5,28(s3)
      : type(type), begin((char *)begin), end((char *)begin + length), fmt(fmt),
   17f52:	02052c23          	sw	zero,56(a0)
   17f56:	e120                	c.sd	s0,64(a0)
   17f58:	6702                	c.ldsp	a4,0(sp)
   17f5a:	943a                	c.add	s0,a4
   17f5c:	e520                	c.sd	s0,72(a0)
   17f5e:	04052823          	sw	zero,80(a0)
        ord(ord), addr_size(addr_size) {}
   17f62:	c97c                	c.sw	a5,84(a0)
   17f64:	04052c23          	sw	zero,88(a0)
   17f68:	03850793          	addi	a5,a0,56
   17f6c:	02f93023          	sd	a5,32(s2)
	_Sp_counted_base<_Lp>* __tmp = __r._M_pi;
   17f70:	02893403          	ld	s0,40(s2)
	__r._M_pi = _M_pi;
   17f74:	02a93423          	sd	a0,40(s2)
	if (_M_pi != nullptr)
   17f78:	cc19                	c.beqz	s0,17f96 <dwarf::dwarf::dwarf(std::shared_ptr<dwarf::loader> const&)+0x554>
    if (__is_single_threaded())
   17f7a:	00021797          	auipc	a5,0x21
   17f7e:	4fe7b783          	ld	a5,1278(a5) # 39478 <__libc_single_threaded@GLIBC_2.32-0x1a0>
   17f82:	0007c783          	lbu	a5,0(a5)
   17f86:	cbd1                	c.beqz	a5,1801a <dwarf::dwarf::dwarf(std::shared_ptr<dwarf::loader> const&)+0x5d8>
    _Atomic_word __result = *__mem;
   17f88:	5808                	c.lw	a0,48(s0)
    *__mem += __val;
   17f8a:	fff5079b          	addiw	a5,a0,-1
   17f8e:	d81c                	c.sw	a5,48(s0)
      if (__gnu_cxx::__exchange_and_add_dispatch(&_M_use_count, -1) == 1)
   17f90:	4785                	c.li	a5,1
   17f92:	08f50a63          	beq	a0,a5,18026 <dwarf::dwarf::dwarf(std::shared_ptr<dwarf::loader> const&)+0x5e4>
      { return _M_ptr; }
   17f96:	609c                	c.ld	a5,0(s1)
      __shared_ptr(const __shared_ptr&) noexcept = default;
   17f98:	0107b903          	ld	s2,16(a5)
      : _M_pi(__r._M_pi)
   17f9c:	6f80                	c.ld	s0,24(a5)
	if (_M_pi != nullptr)
   17f9e:	2e040c63          	beq	s0,zero,18296 <dwarf::dwarf::dwarf(std::shared_ptr<dwarf::loader> const&)+0x854>
    if (__is_single_threaded())
   17fa2:	00021797          	auipc	a5,0x21
   17fa6:	4d67b783          	ld	a5,1238(a5) # 39478 <__libc_single_threaded@GLIBC_2.32-0x1a0>
   17faa:	0007c783          	lbu	a5,0(a5)
   17fae:	cbdd                	c.beqz	a5,18064 <dwarf::dwarf::dwarf(std::shared_ptr<dwarf::loader> const&)+0x622>
  { *__mem += __val; }
   17fb0:	581c                	c.lw	a5,48(s0)
   17fb2:	2785                	c.addiw	a5,1
   17fb4:	d81c                	c.sw	a5,48(s0)
      __shared_ptr(const __shared_ptr&) noexcept = default;
   17fb6:	f04a                	c.sdsp	s2,32(sp)
      : _M_pi(__r._M_pi)
   17fb8:	f422                	c.sdsp	s0,40(sp)
    if (__is_single_threaded())
   17fba:	00021797          	auipc	a5,0x21
   17fbe:	4be7b783          	ld	a5,1214(a5) # 39478 <__libc_single_threaded@GLIBC_2.32-0x1a0>
   17fc2:	0007c783          	lbu	a5,0(a5)
   17fc6:	c7cd                	c.beqz	a5,18070 <dwarf::dwarf::dwarf(std::shared_ptr<dwarf::loader> const&)+0x62e>
  { *__mem += __val; }
   17fc8:	581c                	c.lw	a5,48(s0)
   17fca:	2785                	c.addiw	a5,1
   17fcc:	d81c                	c.sw	a5,48(s0)
      : sec(sec), pos(sec->begin + offset) {}
   17fce:	00893783          	ld	a5,8(s2)
   17fd2:	f83e                	c.sdsp	a5,48(sp)
    if (__is_single_threaded())
   17fd4:	00021797          	auipc	a5,0x21
   17fd8:	4a47b783          	ld	a5,1188(a5) # 39478 <__libc_single_threaded@GLIBC_2.32-0x1a0>
   17fdc:	0007c783          	lbu	a5,0(a5)
   17fe0:	cfd1                	c.beqz	a5,1807c <dwarf::dwarf::dwarf(std::shared_ptr<dwarf::loader> const&)+0x63a>
    _Atomic_word __result = *__mem;
   17fe2:	5808                	c.lw	a0,48(s0)
    *__mem += __val;
   17fe4:	fff5079b          	addiw	a5,a0,-1
   17fe8:	d81c                	c.sw	a5,48(s0)
      if (__gnu_cxx::__exchange_and_add_dispatch(&_M_use_count, -1) == 1)
   17fea:	4785                	c.li	a5,1
   17fec:	08f50e63          	beq	a0,a5,18088 <dwarf::dwarf::dwarf(std::shared_ptr<dwarf::loader> const&)+0x646>
  bool end() const { return pos >= sec->end; }
   17ff0:	7642                	c.ldsp	a2,48(sp)
      { return _M_ptr; }
   17ff2:	7782                	c.ldsp	a5,32(sp)
  while (!infocur.end()) {
   17ff4:	6b98                	c.ld	a4,16(a5)
   17ff6:	16e67863          	bgeu	a2,a4,18166 <dwarf::dwarf::dwarf(std::shared_ptr<dwarf::loader> const&)+0x724>
				     std::forward<_Args>(__args)...);
	    ++this->_M_impl._M_finish;
	    _GLIBCXX_ASAN_ANNOTATE_GREW(1);
	  }
	else
	  _M_realloc_insert(end(), std::forward<_Args>(__args)...);
   17ffa:	03810b13          	addi	s6,sp,56
   17ffe:	00021b97          	auipc	s7,0x21
   18002:	2e2bbb83          	ld	s7,738(s7) # 392e0 <void std::vector<dwarf::compilation_unit, std::allocator<dwarf::compilation_unit> >::_M_realloc_insert<dwarf::dwarf&, unsigned long>(__gnu_cxx::__normal_iterator<dwarf::compilation_unit*, std::vector<dwarf::compilation_unit, std::allocator<dwarf::compilation_unit> > >, dwarf::dwarf&, unsigned long&&)@@Base+0x1ee8e>
    infocur.subsection();
   18006:	04010913          	addi	s2,sp,64
   1800a:	02010993          	addi	s3,sp,32
    return ::__libc_single_threaded;
   1800e:	00021a17          	auipc	s4,0x21
   18012:	46aa3a03          	ld	s4,1130(s4) # 39478 <__libc_single_threaded@GLIBC_2.32-0x1a0>
      if (__gnu_cxx::__exchange_and_add_dispatch(&_M_use_count, -1) == 1)
   18016:	4a85                	c.li	s5,1
   18018:	a0f5                	c.j	18104 <dwarf::dwarf::dwarf(std::shared_ptr<dwarf::loader> const&)+0x6c2>
      return __exchange_and_add(__mem, __val);
   1801a:	55fd                	c.li	a1,-1
   1801c:	03040513          	addi	a0,s0,48
   18020:	b10fe0ef          	jal	ra,16330 <__gnu_cxx::__exchange_and_add(int volatile*, int)@plt>
   18024:	b7b5                	c.j	17f90 <dwarf::dwarf::dwarf(std::shared_ptr<dwarf::loader> const&)+0x54e>
	_M_dispose();
   18026:	601c                	c.ld	a5,0(s0)
   18028:	6b9c                	c.ld	a5,16(a5)
   1802a:	8522                	c.mv	a0,s0
   1802c:	9782                	c.jalr	a5
	    __atomic_thread_fence (__ATOMIC_ACQ_REL);
   1802e:	0ff0000f          	fence	iorw,iorw
    if (__is_single_threaded())
   18032:	00021797          	auipc	a5,0x21
   18036:	4467b783          	ld	a5,1094(a5) # 39478 <__libc_single_threaded@GLIBC_2.32-0x1a0>
   1803a:	0007c783          	lbu	a5,0(a5)
   1803e:	cf89                	c.beqz	a5,18058 <dwarf::dwarf::dwarf(std::shared_ptr<dwarf::loader> const&)+0x616>
    _Atomic_word __result = *__mem;
   18040:	5848                	c.lw	a0,52(s0)
    *__mem += __val;
   18042:	fff5079b          	addiw	a5,a0,-1
   18046:	d85c                	c.sw	a5,52(s0)
	if (__gnu_cxx::__exchange_and_add_dispatch(&_M_weak_count,
   18048:	4785                	c.li	a5,1
   1804a:	f4f516e3          	bne	a0,a5,17f96 <dwarf::dwarf::dwarf(std::shared_ptr<dwarf::loader> const&)+0x554>
	    _M_destroy();
   1804e:	601c                	c.ld	a5,0(s0)
   18050:	6f9c                	c.ld	a5,24(a5)
   18052:	8522                	c.mv	a0,s0
   18054:	9782                	c.jalr	a5
   18056:	b781                	c.j	17f96 <dwarf::dwarf::dwarf(std::shared_ptr<dwarf::loader> const&)+0x554>
      return __exchange_and_add(__mem, __val);
   18058:	55fd                	c.li	a1,-1
   1805a:	03440513          	addi	a0,s0,52
   1805e:	ad2fe0ef          	jal	ra,16330 <__gnu_cxx::__exchange_and_add(int volatile*, int)@plt>
   18062:	b7dd                	c.j	18048 <dwarf::dwarf::dwarf(std::shared_ptr<dwarf::loader> const&)+0x606>
      __atomic_add(__mem, __val);
   18064:	4585                	c.li	a1,1
   18066:	03040513          	addi	a0,s0,48
   1806a:	a96fe0ef          	jal	ra,16300 <__gnu_cxx::__atomic_add(int volatile*, int)@plt>
   1806e:	b7a1                	c.j	17fb6 <dwarf::dwarf::dwarf(std::shared_ptr<dwarf::loader> const&)+0x574>
   18070:	4585                	c.li	a1,1
   18072:	03040513          	addi	a0,s0,48
   18076:	a8afe0ef          	jal	ra,16300 <__gnu_cxx::__atomic_add(int volatile*, int)@plt>
   1807a:	bf91                	c.j	17fce <dwarf::dwarf::dwarf(std::shared_ptr<dwarf::loader> const&)+0x58c>
      return __exchange_and_add(__mem, __val);
   1807c:	55fd                	c.li	a1,-1
   1807e:	03040513          	addi	a0,s0,48
   18082:	aaefe0ef          	jal	ra,16330 <__gnu_cxx::__exchange_and_add(int volatile*, int)@plt>
   18086:	b795                	c.j	17fea <dwarf::dwarf::dwarf(std::shared_ptr<dwarf::loader> const&)+0x5a8>
	_M_dispose();
   18088:	601c                	c.ld	a5,0(s0)
   1808a:	6b9c                	c.ld	a5,16(a5)
   1808c:	8522                	c.mv	a0,s0
   1808e:	9782                	c.jalr	a5
	    __atomic_thread_fence (__ATOMIC_ACQ_REL);
   18090:	0ff0000f          	fence	iorw,iorw
    if (__is_single_threaded())
   18094:	00021797          	auipc	a5,0x21
   18098:	3e47b783          	ld	a5,996(a5) # 39478 <__libc_single_threaded@GLIBC_2.32-0x1a0>
   1809c:	0007c783          	lbu	a5,0(a5)
   180a0:	cf89                	c.beqz	a5,180ba <dwarf::dwarf::dwarf(std::shared_ptr<dwarf::loader> const&)+0x678>
    _Atomic_word __result = *__mem;
   180a2:	5848                	c.lw	a0,52(s0)
    *__mem += __val;
   180a4:	fff5079b          	addiw	a5,a0,-1
   180a8:	d85c                	c.sw	a5,52(s0)
	if (__gnu_cxx::__exchange_and_add_dispatch(&_M_weak_count,
   180aa:	4785                	c.li	a5,1
   180ac:	f4f512e3          	bne	a0,a5,17ff0 <dwarf::dwarf::dwarf(std::shared_ptr<dwarf::loader> const&)+0x5ae>
	    _M_destroy();
   180b0:	601c                	c.ld	a5,0(s0)
   180b2:	6f9c                	c.ld	a5,24(a5)
   180b4:	8522                	c.mv	a0,s0
   180b6:	9782                	c.jalr	a5
   180b8:	bf25                	c.j	17ff0 <dwarf::dwarf::dwarf(std::shared_ptr<dwarf::loader> const&)+0x5ae>
      return __exchange_and_add(__mem, __val);
   180ba:	55fd                	c.li	a1,-1
   180bc:	03440513          	addi	a0,s0,52
   180c0:	a70fe0ef          	jal	ra,16330 <__gnu_cxx::__exchange_and_add(int volatile*, int)@plt>
   180c4:	b7dd                	c.j	180aa <dwarf::dwarf::dwarf(std::shared_ptr<dwarf::loader> const&)+0x668>
	    ++this->_M_impl._M_finish;
   180c6:	7c1c                	c.ld	a5,56(s0)
   180c8:	07e1                	c.addi	a5,24
   180ca:	fc1c                	c.sd	a5,56(s0)
   180cc:	85ce                	c.mv	a1,s3
   180ce:	854a                	c.mv	a0,s2
   180d0:	6f9020ef          	jal	ra,1afc8 <dwarf::cursor::subsection()>
   180d4:	a801                	c.j	180e4 <dwarf::dwarf::dwarf(std::shared_ptr<dwarf::loader> const&)+0x6a2>
	  _M_realloc_insert(end(), std::forward<_Args>(__args)...);
   180d6:	86da                	c.mv	a3,s6
   180d8:	8626                	c.mv	a2,s1
   180da:	85aa                	c.mv	a1,a0
   180dc:	03040513          	addi	a0,s0,48
   180e0:	9b82                	c.jalr	s7
   180e2:	b7ed                	c.j	180cc <dwarf::dwarf::dwarf(std::shared_ptr<dwarf::loader> const&)+0x68a>
	if (_M_pi != nullptr)
   180e4:	6426                	c.ldsp	s0,72(sp)
   180e6:	c811                	c.beqz	s0,180fa <dwarf::dwarf::dwarf(std::shared_ptr<dwarf::loader> const&)+0x6b8>
    if (__is_single_threaded())
   180e8:	000a4783          	lbu	a5,0(s4)
   180ec:	cb85                	c.beqz	a5,1811c <dwarf::dwarf::dwarf(std::shared_ptr<dwarf::loader> const&)+0x6da>
    _Atomic_word __result = *__mem;
   180ee:	5808                	c.lw	a0,48(s0)
    *__mem += __val;
   180f0:	fff5079b          	addiw	a5,a0,-1
   180f4:	d81c                	c.sw	a5,48(s0)
      if (__gnu_cxx::__exchange_and_add_dispatch(&_M_use_count, -1) == 1)
   180f6:	03550963          	beq	a0,s5,18128 <dwarf::dwarf::dwarf(std::shared_ptr<dwarf::loader> const&)+0x6e6>
   180fa:	7642                	c.ldsp	a2,48(sp)
      { return _M_ptr; }
   180fc:	7782                	c.ldsp	a5,32(sp)
  while (!infocur.end()) {
   180fe:	6b98                	c.ld	a4,16(a5)
   18100:	06e67363          	bgeu	a2,a4,18166 <dwarf::dwarf::dwarf(std::shared_ptr<dwarf::loader> const&)+0x724>
   18104:	6080                	c.ld	s0,0(s1)
  section_offset get_section_offset() const { return pos - sec->begin; }
   18106:	679c                	c.ld	a5,8(a5)
   18108:	8e1d                	c.sub	a2,a5
    m->compilation_units.emplace_back(*this, infocur.get_section_offset());
   1810a:	fc32                	c.sdsp	a2,56(sp)
	if (this->_M_impl._M_finish != this->_M_impl._M_end_of_storage)
   1810c:	7c08                	c.ld	a0,56(s0)
   1810e:	603c                	c.ld	a5,64(s0)
   18110:	fcf503e3          	beq	a0,a5,180d6 <dwarf::dwarf::dwarf(std::shared_ptr<dwarf::loader> const&)+0x694>
#if __cplusplus >= 201103L
      template<typename _Up, typename... _Args>
	void
	construct(_Up* __p, _Args&&... __args)
	noexcept(std::is_nothrow_constructible<_Up, _Args...>::value)
	{ ::new((void *)__p) _Up(std::forward<_Args>(__args)...); }
   18114:	85a6                	c.mv	a1,s1
   18116:	b22ff0ef          	jal	ra,17438 <dwarf::compilation_unit::compilation_unit(dwarf::dwarf const&, unsigned long)>
   1811a:	b775                	c.j	180c6 <dwarf::dwarf::dwarf(std::shared_ptr<dwarf::loader> const&)+0x684>
      return __exchange_and_add(__mem, __val);
   1811c:	55fd                	c.li	a1,-1
   1811e:	03040513          	addi	a0,s0,48
   18122:	a0efe0ef          	jal	ra,16330 <__gnu_cxx::__exchange_and_add(int volatile*, int)@plt>
   18126:	bfc1                	c.j	180f6 <dwarf::dwarf::dwarf(std::shared_ptr<dwarf::loader> const&)+0x6b4>
	_M_dispose();
   18128:	601c                	c.ld	a5,0(s0)
   1812a:	6b9c                	c.ld	a5,16(a5)
   1812c:	8522                	c.mv	a0,s0
   1812e:	9782                	c.jalr	a5
	    __atomic_thread_fence (__ATOMIC_ACQ_REL);
   18130:	0ff0000f          	fence	iorw,iorw
    if (__is_single_threaded())
   18134:	00021797          	auipc	a5,0x21
   18138:	3447b783          	ld	a5,836(a5) # 39478 <__libc_single_threaded@GLIBC_2.32-0x1a0>
   1813c:	0007c783          	lbu	a5,0(a5)
   18140:	cf89                	c.beqz	a5,1815a <dwarf::dwarf::dwarf(std::shared_ptr<dwarf::loader> const&)+0x718>
    _Atomic_word __result = *__mem;
   18142:	5848                	c.lw	a0,52(s0)
    *__mem += __val;
   18144:	fff5079b          	addiw	a5,a0,-1
   18148:	d85c                	c.sw	a5,52(s0)
	if (__gnu_cxx::__exchange_and_add_dispatch(&_M_weak_count,
   1814a:	4785                	c.li	a5,1
   1814c:	faf517e3          	bne	a0,a5,180fa <dwarf::dwarf::dwarf(std::shared_ptr<dwarf::loader> const&)+0x6b8>
	    _M_destroy();
   18150:	601c                	c.ld	a5,0(s0)
   18152:	6f9c                	c.ld	a5,24(a5)
   18154:	8522                	c.mv	a0,s0
   18156:	9782                	c.jalr	a5
   18158:	b74d                	c.j	180fa <dwarf::dwarf::dwarf(std::shared_ptr<dwarf::loader> const&)+0x6b8>
      return __exchange_and_add(__mem, __val);
   1815a:	55fd                	c.li	a1,-1
   1815c:	03440513          	addi	a0,s0,52
   18160:	9d0fe0ef          	jal	ra,16330 <__gnu_cxx::__exchange_and_add(int volatile*, int)@plt>
   18164:	b7dd                	c.j	1814a <dwarf::dwarf::dwarf(std::shared_ptr<dwarf::loader> const&)+0x708>
	if (_M_pi != nullptr)
   18166:	7422                	c.ldsp	s0,40(sp)
   18168:	cc19                	c.beqz	s0,18186 <dwarf::dwarf::dwarf(std::shared_ptr<dwarf::loader> const&)+0x744>
    if (__is_single_threaded())
   1816a:	00021797          	auipc	a5,0x21
   1816e:	30e7b783          	ld	a5,782(a5) # 39478 <__libc_single_threaded@GLIBC_2.32-0x1a0>
   18172:	0007c783          	lbu	a5,0(a5)
   18176:	c3b9                	c.beqz	a5,181bc <dwarf::dwarf::dwarf(std::shared_ptr<dwarf::loader> const&)+0x77a>
    _Atomic_word __result = *__mem;
   18178:	5808                	c.lw	a0,48(s0)
    *__mem += __val;
   1817a:	fff5079b          	addiw	a5,a0,-1
   1817e:	d81c                	c.sw	a5,48(s0)
      if (__gnu_cxx::__exchange_and_add_dispatch(&_M_use_count, -1) == 1)
   18180:	4785                	c.li	a5,1
   18182:	04f50363          	beq	a0,a5,181c8 <dwarf::dwarf::dwarf(std::shared_ptr<dwarf::loader> const&)+0x786>
	if (_M_pi != nullptr)
   18186:	6442                	c.ldsp	s0,16(sp)
   18188:	cc19                	c.beqz	s0,181a6 <dwarf::dwarf::dwarf(std::shared_ptr<dwarf::loader> const&)+0x764>
    if (__is_single_threaded())
   1818a:	00021797          	auipc	a5,0x21
   1818e:	2ee7b783          	ld	a5,750(a5) # 39478 <__libc_single_threaded@GLIBC_2.32-0x1a0>
   18192:	0007c783          	lbu	a5,0(a5)
   18196:	cba5                	c.beqz	a5,18206 <dwarf::dwarf::dwarf(std::shared_ptr<dwarf::loader> const&)+0x7c4>
    _Atomic_word __result = *__mem;
   18198:	5808                	c.lw	a0,48(s0)
    *__mem += __val;
   1819a:	fff5079b          	addiw	a5,a0,-1
   1819e:	d81c                	c.sw	a5,48(s0)
      if (__gnu_cxx::__exchange_and_add_dispatch(&_M_use_count, -1) == 1)
   181a0:	4785                	c.li	a5,1
   181a2:	06f50863          	beq	a0,a5,18212 <dwarf::dwarf::dwarf(std::shared_ptr<dwarf::loader> const&)+0x7d0>
}
   181a6:	60ea                	c.ldsp	ra,152(sp)
   181a8:	644a                	c.ldsp	s0,144(sp)
   181aa:	64aa                	c.ldsp	s1,136(sp)
   181ac:	690a                	c.ldsp	s2,128(sp)
   181ae:	79e6                	c.ldsp	s3,120(sp)
   181b0:	7a46                	c.ldsp	s4,112(sp)
   181b2:	7aa6                	c.ldsp	s5,104(sp)
   181b4:	7b06                	c.ldsp	s6,96(sp)
   181b6:	6be6                	c.ldsp	s7,88(sp)
   181b8:	610d                	c.addi16sp	sp,160
   181ba:	8082                	c.jr	ra
      return __exchange_and_add(__mem, __val);
   181bc:	55fd                	c.li	a1,-1
   181be:	03040513          	addi	a0,s0,48
   181c2:	96efe0ef          	jal	ra,16330 <__gnu_cxx::__exchange_and_add(int volatile*, int)@plt>
   181c6:	bf6d                	c.j	18180 <dwarf::dwarf::dwarf(std::shared_ptr<dwarf::loader> const&)+0x73e>
	_M_dispose();
   181c8:	601c                	c.ld	a5,0(s0)
   181ca:	6b9c                	c.ld	a5,16(a5)
   181cc:	8522                	c.mv	a0,s0
   181ce:	9782                	c.jalr	a5
	    __atomic_thread_fence (__ATOMIC_ACQ_REL);
   181d0:	0ff0000f          	fence	iorw,iorw
    if (__is_single_threaded())
   181d4:	00021797          	auipc	a5,0x21
   181d8:	2a47b783          	ld	a5,676(a5) # 39478 <__libc_single_threaded@GLIBC_2.32-0x1a0>
   181dc:	0007c783          	lbu	a5,0(a5)
   181e0:	cf89                	c.beqz	a5,181fa <dwarf::dwarf::dwarf(std::shared_ptr<dwarf::loader> const&)+0x7b8>
    _Atomic_word __result = *__mem;
   181e2:	5848                	c.lw	a0,52(s0)
    *__mem += __val;
   181e4:	fff5079b          	addiw	a5,a0,-1
   181e8:	d85c                	c.sw	a5,52(s0)
	if (__gnu_cxx::__exchange_and_add_dispatch(&_M_weak_count,
   181ea:	4785                	c.li	a5,1
   181ec:	f8f51de3          	bne	a0,a5,18186 <dwarf::dwarf::dwarf(std::shared_ptr<dwarf::loader> const&)+0x744>
	    _M_destroy();
   181f0:	601c                	c.ld	a5,0(s0)
   181f2:	6f9c                	c.ld	a5,24(a5)
   181f4:	8522                	c.mv	a0,s0
   181f6:	9782                	c.jalr	a5
   181f8:	b779                	c.j	18186 <dwarf::dwarf::dwarf(std::shared_ptr<dwarf::loader> const&)+0x744>
      return __exchange_and_add(__mem, __val);
   181fa:	55fd                	c.li	a1,-1
   181fc:	03440513          	addi	a0,s0,52
   18200:	930fe0ef          	jal	ra,16330 <__gnu_cxx::__exchange_and_add(int volatile*, int)@plt>
   18204:	b7dd                	c.j	181ea <dwarf::dwarf::dwarf(std::shared_ptr<dwarf::loader> const&)+0x7a8>
   18206:	55fd                	c.li	a1,-1
   18208:	03040513          	addi	a0,s0,48
   1820c:	924fe0ef          	jal	ra,16330 <__gnu_cxx::__exchange_and_add(int volatile*, int)@plt>
   18210:	bf41                	c.j	181a0 <dwarf::dwarf::dwarf(std::shared_ptr<dwarf::loader> const&)+0x75e>
	_M_dispose();
   18212:	601c                	c.ld	a5,0(s0)
   18214:	6b9c                	c.ld	a5,16(a5)
   18216:	8522                	c.mv	a0,s0
   18218:	9782                	c.jalr	a5
	    __atomic_thread_fence (__ATOMIC_ACQ_REL);
   1821a:	0ff0000f          	fence	iorw,iorw
    if (__is_single_threaded())
   1821e:	00021797          	auipc	a5,0x21
   18222:	25a7b783          	ld	a5,602(a5) # 39478 <__libc_single_threaded@GLIBC_2.32-0x1a0>
   18226:	0007c783          	lbu	a5,0(a5)
   1822a:	cf89                	c.beqz	a5,18244 <dwarf::dwarf::dwarf(std::shared_ptr<dwarf::loader> const&)+0x802>
    _Atomic_word __result = *__mem;
   1822c:	5848                	c.lw	a0,52(s0)
    *__mem += __val;
   1822e:	fff5079b          	addiw	a5,a0,-1
   18232:	d85c                	c.sw	a5,52(s0)
	if (__gnu_cxx::__exchange_and_add_dispatch(&_M_weak_count,
   18234:	4785                	c.li	a5,1
   18236:	f6f518e3          	bne	a0,a5,181a6 <dwarf::dwarf::dwarf(std::shared_ptr<dwarf::loader> const&)+0x764>
	    _M_destroy();
   1823a:	601c                	c.ld	a5,0(s0)
   1823c:	6f9c                	c.ld	a5,24(a5)
   1823e:	8522                	c.mv	a0,s0
   18240:	9782                	c.jalr	a5
   18242:	b795                	c.j	181a6 <dwarf::dwarf::dwarf(std::shared_ptr<dwarf::loader> const&)+0x764>
      return __exchange_and_add(__mem, __val);
   18244:	55fd                	c.li	a1,-1
   18246:	03440513          	addi	a0,s0,52
   1824a:	8e6fe0ef          	jal	ra,16330 <__gnu_cxx::__exchange_and_add(int volatile*, int)@plt>
   1824e:	b7dd                	c.j	18234 <dwarf::dwarf::dwarf(std::shared_ptr<dwarf::loader> const&)+0x7f2>
    throw format_error("required .debug_info section missing");
   18250:	842a                	c.mv	s0,a0
   18252:	854a                	c.mv	a0,s2
   18254:	a1cfe0ef          	jal	ra,16470 <__cxa_free_exception@plt>
	if (_M_pi != nullptr)
   18258:	6488                	c.ld	a0,8(s1)
   1825a:	c511                	c.beqz	a0,18266 <dwarf::dwarf::dwarf(std::shared_ptr<dwarf::loader> const&)+0x824>
	  _M_pi->_M_release();
   1825c:	00021317          	auipc	t1,0x21
   18260:	16433303          	ld	t1,356(t1) # 393c0 <std::_Sp_counted_base<(__gnu_cxx::_Lock_policy)1>::_M_release()@@Base+0x22638>
   18264:	9302                	c.jalr	t1
   18266:	8522                	c.mv	a0,s0
   18268:	c28fe0ef          	jal	ra,16690 <_Unwind_Resume@plt>
    throw format_error("required .debug_abbrev section missing");
   1826c:	842a                	c.mv	s0,a0
   1826e:	854a                	c.mv	a0,s2
   18270:	a00fe0ef          	jal	ra,16470 <__cxa_free_exception@plt>
	if (_M_pi != nullptr)
   18274:	6542                	c.ldsp	a0,16(sp)
   18276:	d16d                	c.beqz	a0,18258 <dwarf::dwarf::dwarf(std::shared_ptr<dwarf::loader> const&)+0x816>
	  _M_pi->_M_release();
   18278:	00021317          	auipc	t1,0x21
   1827c:	14833303          	ld	t1,328(t1) # 393c0 <std::_Sp_counted_base<(__gnu_cxx::_Lock_policy)1>::_M_release()@@Base+0x22638>
   18280:	9302                	c.jalr	t1
   18282:	bfd9                	c.j	18258 <dwarf::dwarf::dwarf(std::shared_ptr<dwarf::loader> const&)+0x816>
	if (_M_pi != nullptr)
   18284:	842a                	c.mv	s0,a0
   18286:	7522                	c.ldsp	a0,40(sp)
   18288:	d575                	c.beqz	a0,18274 <dwarf::dwarf::dwarf(std::shared_ptr<dwarf::loader> const&)+0x832>
	  _M_pi->_M_release();
   1828a:	00021317          	auipc	t1,0x21
   1828e:	13633303          	ld	t1,310(t1) # 393c0 <std::_Sp_counted_base<(__gnu_cxx::_Lock_policy)1>::_M_release()@@Base+0x22638>
   18292:	9302                	c.jalr	t1
   18294:	b7c5                	c.j	18274 <dwarf::dwarf::dwarf(std::shared_ptr<dwarf::loader> const&)+0x832>
      __shared_ptr(const __shared_ptr&) noexcept = default;
   18296:	f04a                	c.sdsp	s2,32(sp)
      : _M_pi(__r._M_pi)
   18298:	f402                	c.sdsp	zero,40(sp)
      : sec(sec), pos(sec->begin + offset) {}
   1829a:	00893603          	ld	a2,8(s2)
   1829e:	f832                	c.sdsp	a2,48(sp)
      { return _M_ptr; }
   182a0:	87ca                	c.mv	a5,s2
  while (!infocur.end()) {
   182a2:	01093703          	ld	a4,16(s2)
   182a6:	d4e66ae3          	bltu	a2,a4,17ffa <dwarf::dwarf::dwarf(std::shared_ptr<dwarf::loader> const&)+0x5b8>
   182aa:	bdf1                	c.j	18186 <dwarf::dwarf::dwarf(std::shared_ptr<dwarf::loader> const&)+0x744>
      __shared_ptr(const __shared_ptr&) noexcept = default;
   182ac:	e452                	c.sdsp	s4,8(sp)
      : _M_pi(__r._M_pi)
   182ae:	e802                	c.sdsp	zero,16(sp)
   182b0:	008a3783          	ld	a5,8(s4)
   182b4:	ec3e                	c.sdsp	a5,24(sp)
    if ((section_offset)(sec->end - pos) < bytes || pos >= sec->end)
   182b6:	67a2                	c.ldsp	a5,8(sp)
   182b8:	6b98                	c.ld	a4,16(a5)
   182ba:	67e2                	c.ldsp	a5,24(sp)
   182bc:	40f70633          	sub	a2,a4,a5
   182c0:	468d                	c.li	a3,3
   182c2:	00c6f463          	bgeu	a3,a2,182ca <dwarf::dwarf::dwarf(std::shared_ptr<dwarf::loader> const&)+0x888>
   182c6:	a6e7e3e3          	bltu	a5,a4,17d2c <dwarf::dwarf::dwarf(std::shared_ptr<dwarf::loader> const&)+0x2ea>
      underflow();
   182ca:	0028                	c.addi4spn	a0,sp,8
   182cc:	16d020ef          	jal	ra,1ac38 <dwarf::cursor::underflow()>
   182d0:	bcb1                	c.j	17d2c <dwarf::dwarf::dwarf(std::shared_ptr<dwarf::loader> const&)+0x2ea>

00000000000182d2 <dwarf::type_unit::type_unit(dwarf::dwarf const&, unsigned long)>:
type_unit::type_unit(const dwarf &file, section_offset offset) {
   182d2:	7115                	c.addi16sp	sp,-224
   182d4:	ed86                	c.sdsp	ra,216(sp)
   182d6:	e9a2                	c.sdsp	s0,208(sp)
   182d8:	e5a6                	c.sdsp	s1,200(sp)
   182da:	e1ca                	c.sdsp	s2,192(sp)
   182dc:	fd4e                	c.sdsp	s3,184(sp)
   182de:	f952                	c.sdsp	s4,176(sp)
   182e0:	f556                	c.sdsp	s5,168(sp)
   182e2:	f15a                	c.sdsp	s6,160(sp)
   182e4:	ed5e                	c.sdsp	s7,152(sp)
   182e6:	e962                	c.sdsp	s8,144(sp)
   182e8:	892a                	c.mv	s2,a0
   182ea:	89ae                	c.mv	s3,a1
   182ec:	8a32                	c.mv	s4,a2
      : _M_ptr(0), _M_refcount()
   182ee:	00053423          	sd	zero,8(a0)
      constexpr __shared_count() noexcept : _M_pi(0)
   182f2:	00053823          	sd	zero,16(a0)
   182f6:	00021797          	auipc	a5,0x21
   182fa:	05a7b783          	ld	a5,90(a5) # 39350 <vtable for dwarf::type_unit@@Base+0x9f8>
   182fe:	07c1                	c.addi	a5,16
   18300:	e11c                	c.sd	a5,0(a0)
  cursor cur(file.get_section(section_type::types), offset);
   18302:	462d                	c.li	a2,11
   18304:	0108                	c.addi4spn	a0,sp,128
   18306:	de5fe0ef          	jal	ra,170ea <dwarf::dwarf::get_section(dwarf::section_type) const>
      __shared_ptr(const __shared_ptr&) noexcept = default;
   1830a:	678a                	c.ldsp	a5,128(sp)
   1830c:	e83e                	c.sdsp	a5,16(sp)
      : _M_pi(__r._M_pi)
   1830e:	652a                	c.ldsp	a0,136(sp)
   18310:	ec2a                	c.sdsp	a0,24(sp)
	if (_M_pi != nullptr)
   18312:	c919                	c.beqz	a0,18328 <dwarf::type_unit::type_unit(dwarf::dwarf const&, unsigned long)+0x56>
    if (__is_single_threaded())
   18314:	00021797          	auipc	a5,0x21
   18318:	1647b783          	ld	a5,356(a5) # 39478 <__libc_single_threaded@GLIBC_2.32-0x1a0>
   1831c:	0007c783          	lbu	a5,0(a5)
   18320:	cf8d                	c.beqz	a5,1835a <dwarf::type_unit::type_unit(dwarf::dwarf const&, unsigned long)+0x88>
  { *__mem += __val; }
   18322:	591c                	c.lw	a5,48(a0)
   18324:	2785                	c.addiw	a5,1
   18326:	d91c                	c.sw	a5,48(a0)
      : sec(sec), pos(sec->begin + offset) {}
   18328:	678a                	c.ldsp	a5,128(sp)
   1832a:	679c                	c.ld	a5,8(a5)
   1832c:	97d2                	c.add	a5,s4
   1832e:	f03e                	c.sdsp	a5,32(sp)
	if (_M_pi != nullptr)
   18330:	642a                	c.ldsp	s0,136(sp)
   18332:	cc19                	c.beqz	s0,18350 <dwarf::type_unit::type_unit(dwarf::dwarf const&, unsigned long)+0x7e>
    if (__is_single_threaded())
   18334:	00021797          	auipc	a5,0x21
   18338:	1447b783          	ld	a5,324(a5) # 39478 <__libc_single_threaded@GLIBC_2.32-0x1a0>
   1833c:	0007c783          	lbu	a5,0(a5)
   18340:	c39d                	c.beqz	a5,18366 <dwarf::type_unit::type_unit(dwarf::dwarf const&, unsigned long)+0x94>
    _Atomic_word __result = *__mem;
   18342:	5808                	c.lw	a0,48(s0)
    *__mem += __val;
   18344:	fff5079b          	addiw	a5,a0,-1
   18348:	d81c                	c.sw	a5,48(s0)
      if (__gnu_cxx::__exchange_and_add_dispatch(&_M_use_count, -1) == 1)
   1834a:	4785                	c.li	a5,1
   1834c:	02f50363          	beq	a0,a5,18372 <dwarf::type_unit::type_unit(dwarf::dwarf const&, unsigned long)+0xa0>
  std::shared_ptr<section> subsec = cur.subsection();
   18350:	080c                	c.addi4spn	a1,sp,16
   18352:	850a                	c.mv	a0,sp
   18354:	475020ef          	jal	ra,1afc8 <dwarf::cursor::subsection()>
   18358:	a8a1                	c.j	183b0 <dwarf::type_unit::type_unit(dwarf::dwarf const&, unsigned long)+0xde>
      __atomic_add(__mem, __val);
   1835a:	4585                	c.li	a1,1
   1835c:	03050513          	addi	a0,a0,48
   18360:	fa1fd0ef          	jal	ra,16300 <__gnu_cxx::__atomic_add(int volatile*, int)@plt>
   18364:	b7d1                	c.j	18328 <dwarf::type_unit::type_unit(dwarf::dwarf const&, unsigned long)+0x56>
      return __exchange_and_add(__mem, __val);
   18366:	55fd                	c.li	a1,-1
   18368:	03040513          	addi	a0,s0,48
   1836c:	fc5fd0ef          	jal	ra,16330 <__gnu_cxx::__exchange_and_add(int volatile*, int)@plt>
   18370:	bfe9                	c.j	1834a <dwarf::type_unit::type_unit(dwarf::dwarf const&, unsigned long)+0x78>
	_M_dispose();
   18372:	601c                	c.ld	a5,0(s0)
   18374:	6b9c                	c.ld	a5,16(a5)
   18376:	8522                	c.mv	a0,s0
   18378:	9782                	c.jalr	a5
	    __atomic_thread_fence (__ATOMIC_ACQ_REL);
   1837a:	0ff0000f          	fence	iorw,iorw
    if (__is_single_threaded())
   1837e:	00021797          	auipc	a5,0x21
   18382:	0fa7b783          	ld	a5,250(a5) # 39478 <__libc_single_threaded@GLIBC_2.32-0x1a0>
   18386:	0007c783          	lbu	a5,0(a5)
   1838a:	cf89                	c.beqz	a5,183a4 <dwarf::type_unit::type_unit(dwarf::dwarf const&, unsigned long)+0xd2>
    _Atomic_word __result = *__mem;
   1838c:	5848                	c.lw	a0,52(s0)
    *__mem += __val;
   1838e:	fff5079b          	addiw	a5,a0,-1
   18392:	d85c                	c.sw	a5,52(s0)
	if (__gnu_cxx::__exchange_and_add_dispatch(&_M_weak_count,
   18394:	4785                	c.li	a5,1
   18396:	faf51de3          	bne	a0,a5,18350 <dwarf::type_unit::type_unit(dwarf::dwarf const&, unsigned long)+0x7e>
	    _M_destroy();
   1839a:	601c                	c.ld	a5,0(s0)
   1839c:	6f9c                	c.ld	a5,24(a5)
   1839e:	8522                	c.mv	a0,s0
   183a0:	9782                	c.jalr	a5
   183a2:	b77d                	c.j	18350 <dwarf::type_unit::type_unit(dwarf::dwarf const&, unsigned long)+0x7e>
      return __exchange_and_add(__mem, __val);
   183a4:	55fd                	c.li	a1,-1
   183a6:	03440513          	addi	a0,s0,52
   183aa:	f87fd0ef          	jal	ra,16330 <__gnu_cxx::__exchange_and_add(int volatile*, int)@plt>
   183ae:	b7dd                	c.j	18394 <dwarf::type_unit::type_unit(dwarf::dwarf const&, unsigned long)+0xc2>
      __shared_ptr(const __shared_ptr&) noexcept = default;
   183b0:	6482                	c.ldsp	s1,0(sp)
      : _M_pi(__r._M_pi)
   183b2:	6422                	c.ldsp	s0,8(sp)
	if (_M_pi != nullptr)
   183b4:	56040463          	beq	s0,zero,1891c <dwarf::type_unit::type_unit(dwarf::dwarf const&, unsigned long)+0x64a>
    if (__is_single_threaded())
   183b8:	00021797          	auipc	a5,0x21
   183bc:	0c07b783          	ld	a5,192(a5) # 39478 <__libc_single_threaded@GLIBC_2.32-0x1a0>
   183c0:	0007c783          	lbu	a5,0(a5)
   183c4:	cbad                	c.beqz	a5,18436 <dwarf::type_unit::type_unit(dwarf::dwarf const&, unsigned long)+0x164>
  { *__mem += __val; }
   183c6:	581c                	c.lw	a5,48(s0)
   183c8:	2785                	c.addiw	a5,1
   183ca:	d81c                	c.sw	a5,48(s0)
      __shared_ptr(const __shared_ptr&) noexcept = default;
   183cc:	f426                	c.sdsp	s1,40(sp)
      : _M_pi(__r._M_pi)
   183ce:	f822                	c.sdsp	s0,48(sp)
    if (__is_single_threaded())
   183d0:	00021797          	auipc	a5,0x21
   183d4:	0a87b783          	ld	a5,168(a5) # 39478 <__libc_single_threaded@GLIBC_2.32-0x1a0>
   183d8:	0007c783          	lbu	a5,0(a5)
   183dc:	c3bd                	c.beqz	a5,18442 <dwarf::type_unit::type_unit(dwarf::dwarf const&, unsigned long)+0x170>
  { *__mem += __val; }
   183de:	581c                	c.lw	a5,48(s0)
   183e0:	2785                	c.addiw	a5,1
   183e2:	d81c                	c.sw	a5,48(s0)
   183e4:	649c                	c.ld	a5,8(s1)
   183e6:	fc3e                	c.sdsp	a5,56(sp)
    if (__is_single_threaded())
   183e8:	00021797          	auipc	a5,0x21
   183ec:	0907b783          	ld	a5,144(a5) # 39478 <__libc_single_threaded@GLIBC_2.32-0x1a0>
   183f0:	0007c783          	lbu	a5,0(a5)
   183f4:	cfa9                	c.beqz	a5,1844e <dwarf::type_unit::type_unit(dwarf::dwarf const&, unsigned long)+0x17c>
    _Atomic_word __result = *__mem;
   183f6:	5808                	c.lw	a0,48(s0)
    *__mem += __val;
   183f8:	fff5079b          	addiw	a5,a0,-1
   183fc:	d81c                	c.sw	a5,48(s0)
      if (__gnu_cxx::__exchange_and_add_dispatch(&_M_use_count, -1) == 1)
   183fe:	4785                	c.li	a5,1
   18400:	52f51263          	bne	a0,a5,18924 <dwarf::type_unit::type_unit(dwarf::dwarf const&, unsigned long)+0x652>
	_M_dispose();
   18404:	601c                	c.ld	a5,0(s0)
   18406:	6b9c                	c.ld	a5,16(a5)
   18408:	8522                	c.mv	a0,s0
   1840a:	9782                	c.jalr	a5
	    __atomic_thread_fence (__ATOMIC_ACQ_REL);
   1840c:	0ff0000f          	fence	iorw,iorw
    if (__is_single_threaded())
   18410:	00021797          	auipc	a5,0x21
   18414:	0687b783          	ld	a5,104(a5) # 39478 <__libc_single_threaded@GLIBC_2.32-0x1a0>
   18418:	0007c783          	lbu	a5,0(a5)
   1841c:	cf9d                	c.beqz	a5,1845a <dwarf::type_unit::type_unit(dwarf::dwarf const&, unsigned long)+0x188>
    _Atomic_word __result = *__mem;
   1841e:	5848                	c.lw	a0,52(s0)
    *__mem += __val;
   18420:	fff5079b          	addiw	a5,a0,-1
   18424:	d85c                	c.sw	a5,52(s0)
	if (__gnu_cxx::__exchange_and_add_dispatch(&_M_weak_count,
   18426:	4785                	c.li	a5,1
   18428:	4ef51e63          	bne	a0,a5,18924 <dwarf::type_unit::type_unit(dwarf::dwarf const&, unsigned long)+0x652>
	    _M_destroy();
   1842c:	601c                	c.ld	a5,0(s0)
   1842e:	6f9c                	c.ld	a5,24(a5)
   18430:	8522                	c.mv	a0,s0
   18432:	9782                	c.jalr	a5
   18434:	a9c5                	c.j	18924 <dwarf::type_unit::type_unit(dwarf::dwarf const&, unsigned long)+0x652>
      __atomic_add(__mem, __val);
   18436:	4585                	c.li	a1,1
   18438:	03040513          	addi	a0,s0,48
   1843c:	ec5fd0ef          	jal	ra,16300 <__gnu_cxx::__atomic_add(int volatile*, int)@plt>
   18440:	b771                	c.j	183cc <dwarf::type_unit::type_unit(dwarf::dwarf const&, unsigned long)+0xfa>
   18442:	4585                	c.li	a1,1
   18444:	03040513          	addi	a0,s0,48
   18448:	eb9fd0ef          	jal	ra,16300 <__gnu_cxx::__atomic_add(int volatile*, int)@plt>
   1844c:	bf61                	c.j	183e4 <dwarf::type_unit::type_unit(dwarf::dwarf const&, unsigned long)+0x112>
      return __exchange_and_add(__mem, __val);
   1844e:	55fd                	c.li	a1,-1
   18450:	03040513          	addi	a0,s0,48
   18454:	eddfd0ef          	jal	ra,16330 <__gnu_cxx::__exchange_and_add(int volatile*, int)@plt>
   18458:	b75d                	c.j	183fe <dwarf::type_unit::type_unit(dwarf::dwarf const&, unsigned long)+0x12c>
   1845a:	55fd                	c.li	a1,-1
   1845c:	03440513          	addi	a0,s0,52
   18460:	ed1fd0ef          	jal	ra,16330 <__gnu_cxx::__exchange_and_add(int volatile*, int)@plt>
   18464:	b7c9                	c.j	18426 <dwarf::type_unit::type_unit(dwarf::dwarf const&, unsigned long)+0x154>
    if ((section_offset)(sec->end - pos) < bytes || pos >= sec->end)
   18466:	77a2                	c.ldsp	a5,40(sp)
   18468:	6b98                	c.ld	a4,16(a5)
   1846a:	77e2                	c.ldsp	a5,56(sp)
   1846c:	40f70633          	sub	a2,a4,a5
   18470:	4685                	c.li	a3,1
   18472:	00c6f463          	bgeu	a3,a2,1847a <dwarf::type_unit::type_unit(dwarf::dwarf const&, unsigned long)+0x1a8>
   18476:	00e7e563          	bltu	a5,a4,18480 <dwarf::type_unit::type_unit(dwarf::dwarf const&, unsigned long)+0x1ae>
      underflow();
   1847a:	1028                	c.addi4spn	a0,sp,40
   1847c:	7bc020ef          	jal	ra,1ac38 <dwarf::cursor::underflow()>
    const unsigned char *p = (const unsigned char *)pos;
   18480:	7762                	c.ldsp	a4,56(sp)
    if (sec->ord == byte_order::lsb) {
   18482:	77a2                	c.ldsp	a5,40(sp)
   18484:	4fdc                	c.lw	a5,28(a5)
   18486:	e39d                	c.bnez	a5,184ac <dwarf::type_unit::type_unit(dwarf::dwarf const&, unsigned long)+0x1da>
        val |= ((uint64_t)p[i]) << (i * 8);
   18488:	00174783          	lbu	a5,1(a4)
   1848c:	07a2                	c.slli	a5,0x8
   1848e:	00074683          	lbu	a3,0(a4)
   18492:	8fd5                	c.or	a5,a3
    pos += sizeof(T);
   18494:	0709                	c.addi	a4,2
   18496:	fc3a                	c.sdsp	a4,56(sp)
    return (T)val;
   18498:	03079413          	slli	s0,a5,0x30
   1849c:	9041                	c.srli	s0,0x30
  if (version != 4)
   1849e:	4711                	c.li	a4,4
   184a0:	00e79d63          	bne	a5,a4,184ba <dwarf::type_unit::type_unit(dwarf::dwarf const&, unsigned long)+0x1e8>
  section_offset debug_abbrev_offset = sub.offset();
   184a4:	1028                	c.addi4spn	a0,sp,40
   184a6:	4b9020ef          	jal	ra,1b15e <dwarf::cursor::offset()>
   184aa:	a061                	c.j	18532 <dwarf::type_unit::type_unit(dwarf::dwarf const&, unsigned long)+0x260>
        val = (val << 8) | (uint64_t)p[i];
   184ac:	00074783          	lbu	a5,0(a4)
   184b0:	07a2                	c.slli	a5,0x8
   184b2:	00174683          	lbu	a3,1(a4)
   184b6:	8fd5                	c.or	a5,a3
      for (unsigned i = 0; i < sizeof(T); i++)
   184b8:	bff1                	c.j	18494 <dwarf::type_unit::type_unit(dwarf::dwarf const&, unsigned long)+0x1c2>
    throw format_error("unknown type unit version " + std::to_string(version));
   184ba:	4541                	c.li	a0,16
   184bc:	f15fd0ef          	jal	ra,163d0 <__cxa_allocate_exception@plt>
   184c0:	84aa                	c.mv	s1,a0
   184c2:	85a2                	c.mv	a1,s0
   184c4:	1080                	c.addi4spn	s0,sp,96
   184c6:	8522                	c.mv	a0,s0
   184c8:	00021317          	auipc	t1,0x21
   184cc:	fc033303          	ld	t1,-64(t1) # 39488 <std::__cxx11::to_string(int)@@Base+0x1fbc8>
   184d0:	9302                	c.jalr	t1
    { return std::move(__rhs.insert(0, __lhs)); }
   184d2:	00015617          	auipc	a2,0x15
   184d6:	e5e60613          	addi	a2,a2,-418 # 2d330 <std::_Sp_make_shared_tag::_S_ti()::__tag+0xc0>
   184da:	4581                	c.li	a1,0
   184dc:	8522                	c.mv	a0,s0
   184de:	e63fd0ef          	jal	ra,16340 <std::__cxx11::basic_string<char, std::char_traits<char>, std::allocator<char> >::insert(unsigned long, char const*)@plt>
   184e2:	85aa                	c.mv	a1,a0
   184e4:	0080                	c.addi4spn	s0,sp,64
   184e6:	8522                	c.mv	a0,s0
   184e8:	f29fd0ef          	jal	ra,16410 <std::__cxx11::basic_string<char, std::char_traits<char>, std::allocator<char> >::basic_string(std::__cxx11::basic_string<char, std::char_traits<char>, std::allocator<char> >&&)@plt>
      : std::runtime_error(what_arg) {}
   184ec:	85a2                	c.mv	a1,s0
   184ee:	8526                	c.mv	a0,s1
   184f0:	850fe0ef          	jal	ra,16540 <std::runtime_error::runtime_error(std::__cxx11::basic_string<char, std::char_traits<char>, std::allocator<char> > const&)@plt>
   184f4:	00021797          	auipc	a5,0x21
   184f8:	05c7b783          	ld	a5,92(a5) # 39550 <vtable for dwarf::format_error@@Base+0xc20>
   184fc:	07c1                	c.addi	a5,16
   184fe:	e09c                	c.sd	a5,0(s1)
      { return _M_dataplus._M_p; }
   18500:	6506                	c.ldsp	a0,64(sp)
	if (!_M_is_local())
   18502:	089c                	c.addi4spn	a5,sp,80
   18504:	00f50463          	beq	a0,a5,1850c <dwarf::type_unit::type_unit(dwarf::dwarf const&, unsigned long)+0x23a>
	_GLIBCXX_OPERATOR_DELETE(_GLIBCXX_SIZED_DEALLOC(__p, __n));
   18508:	fa9fd0ef          	jal	ra,164b0 <operator delete(void*)@plt>
      { return _M_dataplus._M_p; }
   1850c:	7506                	c.ldsp	a0,96(sp)
	if (!_M_is_local())
   1850e:	189c                	c.addi4spn	a5,sp,112
   18510:	00f50463          	beq	a0,a5,18518 <dwarf::type_unit::type_unit(dwarf::dwarf const&, unsigned long)+0x246>
   18514:	f9dfd0ef          	jal	ra,164b0 <operator delete(void*)@plt>
   18518:	00021617          	auipc	a2,0x21
   1851c:	e6063603          	ld	a2,-416(a2) # 39378 <dwarf::format_error::~format_error()@@Base+0x1fc80>
   18520:	00021597          	auipc	a1,0x21
   18524:	d885b583          	ld	a1,-632(a1) # 392a8 <typeinfo for dwarf::format_error@@Base+0x9f0>
   18528:	8526                	c.mv	a0,s1
   1852a:	936fe0ef          	jal	ra,16660 <__cxa_throw@plt>
	if (_M_pi != nullptr)
   1852e:	842a                	c.mv	s0,a0
   18530:	a659                	c.j	188b6 <dwarf::type_unit::type_unit(dwarf::dwarf const&, unsigned long)+0x5e4>
  section_offset debug_abbrev_offset = sub.offset();
   18532:	8aaa                	c.mv	s5,a0
    if ((section_offset)(sec->end - pos) < bytes || pos >= sec->end)
   18534:	77a2                	c.ldsp	a5,40(sp)
   18536:	6b98                	c.ld	a4,16(a5)
   18538:	77e2                	c.ldsp	a5,56(sp)
   1853a:	00e7e563          	bltu	a5,a4,18544 <dwarf::type_unit::type_unit(dwarf::dwarf const&, unsigned long)+0x272>
      underflow();
   1853e:	1028                	c.addi4spn	a0,sp,40
   18540:	6f8020ef          	jal	ra,1ac38 <dwarf::cursor::underflow()>
    const unsigned char *p = (const unsigned char *)pos;
   18544:	77e2                	c.ldsp	a5,56(sp)
      { return _M_ptr; }
   18546:	7722                	c.ldsp	a4,40(sp)
    if (sec->ord == byte_order::lsb) {
   18548:	4f54                	c.lw	a3,28(a4)
   1854a:	3a068763          	beq	a3,zero,188f8 <dwarf::type_unit::type_unit(dwarf::dwarf const&, unsigned long)+0x626>
        val = (val << 8) | (uint64_t)p[i];
   1854e:	0007c603          	lbu	a2,0(a5)
      for (unsigned i = 0; i < sizeof(T); i++)
   18552:	a66d                	c.j	188fc <dwarf::type_unit::type_unit(dwarf::dwarf const&, unsigned long)+0x62a>
    const unsigned char *p = (const unsigned char *)pos;
   18554:	7662                	c.ldsp	a2,56(sp)
    if (sec->ord == byte_order::lsb) {
   18556:	77a2                	c.ldsp	a5,40(sp)
   18558:	4fdc                	c.lw	a5,28(a5)
   1855a:	e785                	c.bnez	a5,18582 <dwarf::type_unit::type_unit(dwarf::dwarf const&, unsigned long)+0x2b0>
   1855c:	86b2                	c.mv	a3,a2
    uint64_t val = 0;
   1855e:	4481                	c.li	s1,0
      for (unsigned i = 0; i < sizeof(T); i++)
   18560:	04000593          	addi	a1,zero,64
        val |= ((uint64_t)p[i]) << (i * 8);
   18564:	0006c703          	lbu	a4,0(a3)
   18568:	00f71733          	sll	a4,a4,a5
   1856c:	8cd9                	c.or	s1,a4
      for (unsigned i = 0; i < sizeof(T); i++)
   1856e:	0685                	c.addi	a3,1
   18570:	27a1                	c.addiw	a5,8
   18572:	feb799e3          	bne	a5,a1,18564 <dwarf::type_unit::type_unit(dwarf::dwarf const&, unsigned long)+0x292>
    pos += sizeof(T);
   18576:	0621                	c.addi	a2,8
   18578:	fc32                	c.sdsp	a2,56(sp)
  section_offset type_offset = sub.offset();
   1857a:	1028                	c.addi4spn	a0,sp,40
   1857c:	3e3020ef          	jal	ra,1b15e <dwarf::cursor::offset()>
   18580:	a829                	c.j	1859a <dwarf::type_unit::type_unit(dwarf::dwarf const&, unsigned long)+0x2c8>
   18582:	87b2                	c.mv	a5,a2
   18584:	00860693          	addi	a3,a2,8
    uint64_t val = 0;
   18588:	4481                	c.li	s1,0
        val = (val << 8) | (uint64_t)p[i];
   1858a:	04a2                	c.slli	s1,0x8
   1858c:	0007c703          	lbu	a4,0(a5)
   18590:	8cd9                	c.or	s1,a4
      for (unsigned i = 0; i < sizeof(T); i++)
   18592:	0785                	c.addi	a5,1
   18594:	fef69be3          	bne	a3,a5,1858a <dwarf::type_unit::type_unit(dwarf::dwarf const&, unsigned long)+0x2b8>
   18598:	bff9                	c.j	18576 <dwarf::type_unit::type_unit(dwarf::dwarf const&, unsigned long)+0x2a4>
   1859a:	8b2a                	c.mv	s6,a0
  section_offset get_section_offset() const { return pos - sec->begin; }
   1859c:	77a2                	c.ldsp	a5,40(sp)
   1859e:	679c                	c.ld	a5,8(a5)
   185a0:	7be2                	c.ldsp	s7,56(sp)
   185a2:	40fb8bb3          	sub	s7,s7,a5
	return static_cast<_Tp*>(_GLIBCXX_OPERATOR_NEW(__n * sizeof(_Tp)));
   185a6:	1c800513          	addi	a0,zero,456
   185aa:	f17fd0ef          	jal	ra,164c0 <operator new(unsigned long)@plt>
   185ae:	842a                	c.mv	s0,a0
   185b0:	00052423          	sw	zero,8(a0)
   185b4:	00052623          	sw	zero,12(a0)
   185b8:	00052823          	sw	zero,16(a0)
   185bc:	00052a23          	sw	zero,20(a0)
   185c0:	00052c23          	sw	zero,24(a0)
   185c4:	00052e23          	sw	zero,28(a0)
   185c8:	02053023          	sd	zero,32(a0)
   185cc:	02053423          	sd	zero,40(a0)
      : _M_use_count(1), _M_weak_count(1) { }
   185d0:	4785                	c.li	a5,1
   185d2:	d91c                	c.sw	a5,48(a0)
   185d4:	d95c                	c.sw	a5,52(a0)
	: _M_impl(__a)
   185d6:	00021797          	auipc	a5,0x21
   185da:	e5a7b783          	ld	a5,-422(a5) # 39430 <vtable for std::_Sp_counted_ptr_inplace<dwarf::unit::impl, std::allocator<void>, (__gnu_cxx::_Lock_policy)1>@@Base+0xa48>
   185de:	07c1                	c.addi	a5,16
   185e0:	e11c                	c.sd	a5,0(a0)
   185e2:	03850c13          	addi	s8,a0,56
      __shared_ptr(const __shared_ptr&) noexcept = default;
   185e6:	0009b783          	ld	a5,0(s3)
   185ea:	fd1c                	c.sd	a5,56(a0)
      : _M_pi(__r._M_pi)
   185ec:	0089b503          	ld	a0,8(s3)
   185f0:	e028                	c.sd	a0,64(s0)
	if (_M_pi != nullptr)
   185f2:	cd01                	c.beqz	a0,1860a <dwarf::type_unit::type_unit(dwarf::dwarf const&, unsigned long)+0x338>
    if (__is_single_threaded())
   185f4:	00021797          	auipc	a5,0x21
   185f8:	e847b783          	ld	a5,-380(a5) # 39478 <__libc_single_threaded@GLIBC_2.32-0x1a0>
   185fc:	0007c783          	lbu	a5,0(a5)
   18600:	14078b63          	beq	a5,zero,18756 <dwarf::type_unit::type_unit(dwarf::dwarf const&, unsigned long)+0x484>
  { *__mem += __val; }
   18604:	591c                	c.lw	a5,48(a0)
   18606:	2785                	c.addiw	a5,1
   18608:	d91c                	c.sw	a5,48(a0)
      : file(file), offset(offset), subsec(subsec),
   1860a:	05443423          	sd	s4,72(s0)
      __shared_ptr(const __shared_ptr&) noexcept = default;
   1860e:	6782                	c.ldsp	a5,0(sp)
   18610:	e83c                	c.sd	a5,80(s0)
      : _M_pi(__r._M_pi)
   18612:	6522                	c.ldsp	a0,8(sp)
   18614:	ec28                	c.sd	a0,88(s0)
	if (_M_pi != nullptr)
   18616:	cd01                	c.beqz	a0,1862e <dwarf::type_unit::type_unit(dwarf::dwarf const&, unsigned long)+0x35c>
    if (__is_single_threaded())
   18618:	00021797          	auipc	a5,0x21
   1861c:	e607b783          	ld	a5,-416(a5) # 39478 <__libc_single_threaded@GLIBC_2.32-0x1a0>
   18620:	0007c783          	lbu	a5,0(a5)
   18624:	12078f63          	beq	a5,zero,18762 <dwarf::type_unit::type_unit(dwarf::dwarf const&, unsigned long)+0x490>
  { *__mem += __val; }
   18628:	591c                	c.lw	a5,48(a0)
   1862a:	2785                	c.addiw	a5,1
   1862c:	d91c                	c.sw	a5,48(a0)
        debug_abbrev_offset(debug_abbrev_offset), root_offset(root_offset),
   1862e:	07543023          	sd	s5,96(s0)
   18632:	07743423          	sd	s7,104(s0)
        type_signature(type_signature), type_offset(type_offset),
   18636:	f824                	c.sd	s1,112(s0)
   18638:	07643c23          	sd	s6,120(s0)
  die() : cu(nullptr), abbrev(nullptr) {}
   1863c:	08043423          	sd	zero,136(s0)
   18640:	08043823          	sd	zero,144(s0)
   18644:	0a040793          	addi	a5,s0,160
   18648:	e87c                	c.sd	a5,208(s0)
   1864a:	ec7c                	c.sd	a5,216(s0)
   1864c:	0d040793          	addi	a5,s0,208
   18650:	f07c                	c.sd	a5,224(s0)
   18652:	0e043c23          	sd	zero,248(s0)
   18656:	10043023          	sd	zero,256(s0)
   1865a:	11040793          	addi	a5,s0,272
   1865e:	14f43023          	sd	a5,320(s0)
   18662:	14f43423          	sd	a5,328(s0)
   18666:	14040793          	addi	a5,s0,320
   1866a:	14f43823          	sd	a5,336(s0)
      : _M_ptr(0), _M_refcount()
   1866e:	16043023          	sd	zero,352(s0)
      constexpr __shared_count() noexcept : _M_pi(0)
   18672:	16043423          	sd	zero,360(s0)
        have_abbrevs(false) {}
   18676:	16040823          	sb	zero,368(s0)
   1867a:	16043c23          	sd	zero,376(s0)
   1867e:	18043023          	sd	zero,384(s0)
   18682:	18043423          	sd	zero,392(s0)
   18686:	1c040793          	addi	a5,s0,448
   1868a:	18f43823          	sd	a5,400(s0)
   1868e:	4785                	c.li	a5,1
   18690:	18f43c23          	sd	a5,408(s0)
    _Hash_node_base() noexcept : _M_nxt() { }
   18694:	1a043023          	sd	zero,416(s0)
   18698:	1a043423          	sd	zero,424(s0)
    : _M_max_load_factor(__z), _M_next_resize(0) { }
   1869c:	00015797          	auipc	a5,0x15
   186a0:	f0c7a787          	flw	fa5,-244(a5) # 2d5a8 <std::__detail::__to_chars_10_impl<unsigned int>(char*, unsigned int, unsigned int)::__digits+0xf0>
   186a4:	1af42827          	fsw	fa5,432(s0)
   186a8:	1a043c23          	sd	zero,440(s0)
   186ac:	1c043023          	sd	zero,448(s0)
   186b0:	01893423          	sd	s8,8(s2)
	_Sp_counted_base<_Lp>* __tmp = __r._M_pi;
   186b4:	01093483          	ld	s1,16(s2)
	__r._M_pi = _M_pi;
   186b8:	00893823          	sd	s0,16(s2)
	if (_M_pi != nullptr)
   186bc:	cc99                	c.beqz	s1,186da <dwarf::type_unit::type_unit(dwarf::dwarf const&, unsigned long)+0x408>
    if (__is_single_threaded())
   186be:	00021797          	auipc	a5,0x21
   186c2:	dba7b783          	ld	a5,-582(a5) # 39478 <__libc_single_threaded@GLIBC_2.32-0x1a0>
   186c6:	0007c783          	lbu	a5,0(a5)
   186ca:	c3d5                	c.beqz	a5,1876e <dwarf::type_unit::type_unit(dwarf::dwarf const&, unsigned long)+0x49c>
    _Atomic_word __result = *__mem;
   186cc:	5888                	c.lw	a0,48(s1)
    *__mem += __val;
   186ce:	fff5079b          	addiw	a5,a0,-1
   186d2:	d89c                	c.sw	a5,48(s1)
      if (__gnu_cxx::__exchange_and_add_dispatch(&_M_use_count, -1) == 1)
   186d4:	4785                	c.li	a5,1
   186d6:	0af50263          	beq	a0,a5,1877a <dwarf::type_unit::type_unit(dwarf::dwarf const&, unsigned long)+0x4a8>
	if (_M_pi != nullptr)
   186da:	7442                	c.ldsp	s0,48(sp)
   186dc:	cc19                	c.beqz	s0,186fa <dwarf::type_unit::type_unit(dwarf::dwarf const&, unsigned long)+0x428>
    if (__is_single_threaded())
   186de:	00021797          	auipc	a5,0x21
   186e2:	d9a7b783          	ld	a5,-614(a5) # 39478 <__libc_single_threaded@GLIBC_2.32-0x1a0>
   186e6:	0007c783          	lbu	a5,0(a5)
   186ea:	c7f9                	c.beqz	a5,187b8 <dwarf::type_unit::type_unit(dwarf::dwarf const&, unsigned long)+0x4e6>
    _Atomic_word __result = *__mem;
   186ec:	5808                	c.lw	a0,48(s0)
    *__mem += __val;
   186ee:	fff5079b          	addiw	a5,a0,-1
   186f2:	d81c                	c.sw	a5,48(s0)
      if (__gnu_cxx::__exchange_and_add_dispatch(&_M_use_count, -1) == 1)
   186f4:	4785                	c.li	a5,1
   186f6:	0cf50763          	beq	a0,a5,187c4 <dwarf::type_unit::type_unit(dwarf::dwarf const&, unsigned long)+0x4f2>
	if (_M_pi != nullptr)
   186fa:	6422                	c.ldsp	s0,8(sp)
   186fc:	c005                	c.beqz	s0,1871c <dwarf::type_unit::type_unit(dwarf::dwarf const&, unsigned long)+0x44a>
    if (__is_single_threaded())
   186fe:	00021797          	auipc	a5,0x21
   18702:	d7a7b783          	ld	a5,-646(a5) # 39478 <__libc_single_threaded@GLIBC_2.32-0x1a0>
   18706:	0007c783          	lbu	a5,0(a5)
   1870a:	0e078c63          	beq	a5,zero,18802 <dwarf::type_unit::type_unit(dwarf::dwarf const&, unsigned long)+0x530>
    _Atomic_word __result = *__mem;
   1870e:	5808                	c.lw	a0,48(s0)
    *__mem += __val;
   18710:	fff5079b          	addiw	a5,a0,-1
   18714:	d81c                	c.sw	a5,48(s0)
      if (__gnu_cxx::__exchange_and_add_dispatch(&_M_use_count, -1) == 1)
   18716:	4785                	c.li	a5,1
   18718:	0ef50b63          	beq	a0,a5,1880e <dwarf::type_unit::type_unit(dwarf::dwarf const&, unsigned long)+0x53c>
	if (_M_pi != nullptr)
   1871c:	6462                	c.ldsp	s0,24(sp)
   1871e:	c005                	c.beqz	s0,1873e <dwarf::type_unit::type_unit(dwarf::dwarf const&, unsigned long)+0x46c>
    if (__is_single_threaded())
   18720:	00021797          	auipc	a5,0x21
   18724:	d587b783          	ld	a5,-680(a5) # 39478 <__libc_single_threaded@GLIBC_2.32-0x1a0>
   18728:	0007c783          	lbu	a5,0(a5)
   1872c:	12078063          	beq	a5,zero,1884c <dwarf::type_unit::type_unit(dwarf::dwarf const&, unsigned long)+0x57a>
    _Atomic_word __result = *__mem;
   18730:	5808                	c.lw	a0,48(s0)
    *__mem += __val;
   18732:	fff5079b          	addiw	a5,a0,-1
   18736:	d81c                	c.sw	a5,48(s0)
      if (__gnu_cxx::__exchange_and_add_dispatch(&_M_use_count, -1) == 1)
   18738:	4785                	c.li	a5,1
   1873a:	10f50f63          	beq	a0,a5,18858 <dwarf::type_unit::type_unit(dwarf::dwarf const&, unsigned long)+0x586>
}
   1873e:	60ee                	c.ldsp	ra,216(sp)
   18740:	644e                	c.ldsp	s0,208(sp)
   18742:	64ae                	c.ldsp	s1,200(sp)
   18744:	690e                	c.ldsp	s2,192(sp)
   18746:	79ea                	c.ldsp	s3,184(sp)
   18748:	7a4a                	c.ldsp	s4,176(sp)
   1874a:	7aaa                	c.ldsp	s5,168(sp)
   1874c:	7b0a                	c.ldsp	s6,160(sp)
   1874e:	6bea                	c.ldsp	s7,152(sp)
   18750:	6c4a                	c.ldsp	s8,144(sp)
   18752:	612d                	c.addi16sp	sp,224
   18754:	8082                	c.jr	ra
      __atomic_add(__mem, __val);
   18756:	4585                	c.li	a1,1
   18758:	03050513          	addi	a0,a0,48
   1875c:	ba5fd0ef          	jal	ra,16300 <__gnu_cxx::__atomic_add(int volatile*, int)@plt>
   18760:	b56d                	c.j	1860a <dwarf::type_unit::type_unit(dwarf::dwarf const&, unsigned long)+0x338>
   18762:	4585                	c.li	a1,1
   18764:	03050513          	addi	a0,a0,48
   18768:	b99fd0ef          	jal	ra,16300 <__gnu_cxx::__atomic_add(int volatile*, int)@plt>
   1876c:	b5c9                	c.j	1862e <dwarf::type_unit::type_unit(dwarf::dwarf const&, unsigned long)+0x35c>
      return __exchange_and_add(__mem, __val);
   1876e:	55fd                	c.li	a1,-1
   18770:	03048513          	addi	a0,s1,48
   18774:	bbdfd0ef          	jal	ra,16330 <__gnu_cxx::__exchange_and_add(int volatile*, int)@plt>
   18778:	bfb1                	c.j	186d4 <dwarf::type_unit::type_unit(dwarf::dwarf const&, unsigned long)+0x402>
	_M_dispose();
   1877a:	609c                	c.ld	a5,0(s1)
   1877c:	6b9c                	c.ld	a5,16(a5)
   1877e:	8526                	c.mv	a0,s1
   18780:	9782                	c.jalr	a5
	    __atomic_thread_fence (__ATOMIC_ACQ_REL);
   18782:	0ff0000f          	fence	iorw,iorw
    if (__is_single_threaded())
   18786:	00021797          	auipc	a5,0x21
   1878a:	cf27b783          	ld	a5,-782(a5) # 39478 <__libc_single_threaded@GLIBC_2.32-0x1a0>
   1878e:	0007c783          	lbu	a5,0(a5)
   18792:	cf89                	c.beqz	a5,187ac <dwarf::type_unit::type_unit(dwarf::dwarf const&, unsigned long)+0x4da>
    _Atomic_word __result = *__mem;
   18794:	58c8                	c.lw	a0,52(s1)
    *__mem += __val;
   18796:	fff5079b          	addiw	a5,a0,-1
   1879a:	d8dc                	c.sw	a5,52(s1)
	if (__gnu_cxx::__exchange_and_add_dispatch(&_M_weak_count,
   1879c:	4785                	c.li	a5,1
   1879e:	f2f51ee3          	bne	a0,a5,186da <dwarf::type_unit::type_unit(dwarf::dwarf const&, unsigned long)+0x408>
	    _M_destroy();
   187a2:	609c                	c.ld	a5,0(s1)
   187a4:	6f9c                	c.ld	a5,24(a5)
   187a6:	8526                	c.mv	a0,s1
   187a8:	9782                	c.jalr	a5
   187aa:	bf05                	c.j	186da <dwarf::type_unit::type_unit(dwarf::dwarf const&, unsigned long)+0x408>
      return __exchange_and_add(__mem, __val);
   187ac:	55fd                	c.li	a1,-1
   187ae:	03448513          	addi	a0,s1,52
   187b2:	b7ffd0ef          	jal	ra,16330 <__gnu_cxx::__exchange_and_add(int volatile*, int)@plt>
   187b6:	b7dd                	c.j	1879c <dwarf::type_unit::type_unit(dwarf::dwarf const&, unsigned long)+0x4ca>
   187b8:	55fd                	c.li	a1,-1
   187ba:	03040513          	addi	a0,s0,48
   187be:	b73fd0ef          	jal	ra,16330 <__gnu_cxx::__exchange_and_add(int volatile*, int)@plt>
   187c2:	bf0d                	c.j	186f4 <dwarf::type_unit::type_unit(dwarf::dwarf const&, unsigned long)+0x422>
	_M_dispose();
   187c4:	601c                	c.ld	a5,0(s0)
   187c6:	6b9c                	c.ld	a5,16(a5)
   187c8:	8522                	c.mv	a0,s0
   187ca:	9782                	c.jalr	a5
	    __atomic_thread_fence (__ATOMIC_ACQ_REL);
   187cc:	0ff0000f          	fence	iorw,iorw
    if (__is_single_threaded())
   187d0:	00021797          	auipc	a5,0x21
   187d4:	ca87b783          	ld	a5,-856(a5) # 39478 <__libc_single_threaded@GLIBC_2.32-0x1a0>
   187d8:	0007c783          	lbu	a5,0(a5)
   187dc:	cf89                	c.beqz	a5,187f6 <dwarf::type_unit::type_unit(dwarf::dwarf const&, unsigned long)+0x524>
    _Atomic_word __result = *__mem;
   187de:	5848                	c.lw	a0,52(s0)
    *__mem += __val;
   187e0:	fff5079b          	addiw	a5,a0,-1
   187e4:	d85c                	c.sw	a5,52(s0)
	if (__gnu_cxx::__exchange_and_add_dispatch(&_M_weak_count,
   187e6:	4785                	c.li	a5,1
   187e8:	f0f519e3          	bne	a0,a5,186fa <dwarf::type_unit::type_unit(dwarf::dwarf const&, unsigned long)+0x428>
	    _M_destroy();
   187ec:	601c                	c.ld	a5,0(s0)
