
find-pc:     file format elf64-littleriscv


Disassembly of section .plt:

0000000000016570 <_PROCEDURE_LINKAGE_TABLE_>:
   16570:	97 43 02 00 33 03 c3 41 03 be 03 aa 13 03 43 fd     .C..3..A......C.
   16580:	93 82 03 aa 13 53 13 00 83 b2 82 00 67 00 0e 00     .....S......g...

0000000000016590 <operator new[](unsigned long)@plt>:
   16590:	00024e17          	auipc	t3,0x24
   16594:	a90e3e03          	ld	t3,-1392(t3) # 3a020 <operator new[](unsigned long)@GLIBCXX_3.4>
   16598:	000e0367          	jalr	t1,0(t3)
   1659c:	00000013          	addi	zero,zero,0

00000000000165a0 <std::_Rb_tree_insert_and_rebalance(bool, std::_Rb_tree_node_base*, std::_Rb_tree_node_base*, std::_Rb_tree_node_base&)@plt>:
   165a0:	00024e17          	auipc	t3,0x24
   165a4:	a88e3e03          	ld	t3,-1400(t3) # 3a028 <std::_Rb_tree_insert_and_rebalance(bool, std::_Rb_tree_node_base*, std::_Rb_tree_node_base*, std::_Rb_tree_node_base&)@GLIBCXX_3.4>
   165a8:	000e0367          	jalr	t1,0(t3)
   165ac:	00000013          	addi	zero,zero,0

00000000000165b0 <__gnu_cxx::__atomic_add(int volatile*, int)@plt>:
   165b0:	00024e17          	auipc	t3,0x24
   165b4:	a80e3e03          	ld	t3,-1408(t3) # 3a030 <__gnu_cxx::__atomic_add(int volatile*, int)@GLIBCXX_3.4>
   165b8:	000e0367          	jalr	t1,0(t3)
   165bc:	00000013          	addi	zero,zero,0

00000000000165c0 <exit@plt>:
   165c0:	00024e17          	auipc	t3,0x24
   165c4:	a78e3e03          	ld	t3,-1416(t3) # 3a038 <exit@GLIBC_2.27>
   165c8:	000e0367          	jalr	t1,0(t3)
   165cc:	00000013          	addi	zero,zero,0

00000000000165d0 <strcmp@plt>:
   165d0:	00024e17          	auipc	t3,0x24
   165d4:	a70e3e03          	ld	t3,-1424(t3) # 3a040 <strcmp@GLIBC_2.27>
   165d8:	000e0367          	jalr	t1,0(t3)
   165dc:	00000013          	addi	zero,zero,0

00000000000165e0 <__bswapsi2@plt>:
   165e0:	00024e17          	auipc	t3,0x24
   165e4:	a68e3e03          	ld	t3,-1432(t3) # 3a048 <__bswapsi2@GCC_4.3.0>
   165e8:	000e0367          	jalr	t1,0(t3)
   165ec:	00000013          	addi	zero,zero,0

00000000000165f0 <__gnu_cxx::__exchange_and_add(int volatile*, int)@plt>:
   165f0:	00024e17          	auipc	t3,0x24
   165f4:	a60e3e03          	ld	t3,-1440(t3) # 3a050 <__gnu_cxx::__exchange_and_add(int volatile*, int)@GLIBCXX_3.4>
   165f8:	000e0367          	jalr	t1,0(t3)
   165fc:	00000013          	addi	zero,zero,0

0000000000016600 <std::__cxx11::basic_string<char, std::char_traits<char>, std::allocator<char> >::insert(unsigned long, char const*)@plt>:
   16600:	00024e17          	auipc	t3,0x24
   16604:	a58e3e03          	ld	t3,-1448(t3) # 3a058 <std::__cxx11::basic_string<char, std::char_traits<char>, std::allocator<char> >::insert(unsigned long, char const*)@GLIBCXX_3.4.21>
   16608:	000e0367          	jalr	t1,0(t3)
   1660c:	00000013          	addi	zero,zero,0

0000000000016610 <std::__cxx11::basic_string<char, std::char_traits<char>, std::allocator<char> >::compare(char const*) const@plt>:
   16610:	00024e17          	auipc	t3,0x24
   16614:	a50e3e03          	ld	t3,-1456(t3) # 3a060 <std::__cxx11::basic_string<char, std::char_traits<char>, std::allocator<char> >::compare(char const*) const@GLIBCXX_3.4.21>
   16618:	000e0367          	jalr	t1,0(t3)
   1661c:	00000013          	addi	zero,zero,0

0000000000016620 <std::__cxx11::basic_string<char, std::char_traits<char>, std::allocator<char> >::resize(unsigned long, char)@plt>:
   16620:	00024e17          	auipc	t3,0x24
   16624:	a48e3e03          	ld	t3,-1464(t3) # 3a068 <std::__cxx11::basic_string<char, std::char_traits<char>, std::allocator<char> >::resize(unsigned long, char)@GLIBCXX_3.4.21>
   16628:	000e0367          	jalr	t1,0(t3)
   1662c:	00000013          	addi	zero,zero,0

0000000000016630 <std::__cxx11::basic_string<char, std::char_traits<char>, std::allocator<char> >::_M_append(char const*, unsigned long)@plt>:
   16630:	00024e17          	auipc	t3,0x24
   16634:	a40e3e03          	ld	t3,-1472(t3) # 3a070 <std::__cxx11::basic_string<char, std::char_traits<char>, std::allocator<char> >::_M_append(char const*, unsigned long)@GLIBCXX_3.4.21>
   16638:	000e0367          	jalr	t1,0(t3)
   1663c:	00000013          	addi	zero,zero,0

0000000000016640 <__libc_start_main@plt>:
   16640:	00024e17          	auipc	t3,0x24
   16644:	a38e3e03          	ld	t3,-1480(t3) # 3a078 <__libc_start_main@GLIBC_2.27>
   16648:	000e0367          	jalr	t1,0(t3)
   1664c:	00000013          	addi	zero,zero,0

0000000000016650 <std::__throw_bad_alloc()@plt>:
   16650:	00024e17          	auipc	t3,0x24
   16654:	a30e3e03          	ld	t3,-1488(t3) # 3a080 <std::__throw_bad_alloc()@GLIBCXX_3.4>
   16658:	000e0367          	jalr	t1,0(t3)
   1665c:	00000013          	addi	zero,zero,0

0000000000016660 <std::runtime_error::runtime_error(char const*)@plt>:
   16660:	00024e17          	auipc	t3,0x24
   16664:	a28e3e03          	ld	t3,-1496(t3) # 3a088 <std::runtime_error::runtime_error(char const*)@GLIBCXX_3.4.21>
   16668:	000e0367          	jalr	t1,0(t3)
   1666c:	00000013          	addi	zero,zero,0

0000000000016670 <__cxa_begin_catch@plt>:
   16670:	00024e17          	auipc	t3,0x24
   16674:	a20e3e03          	ld	t3,-1504(t3) # 3a090 <__cxa_begin_catch@CXXABI_1.3>
   16678:	000e0367          	jalr	t1,0(t3)
   1667c:	00000013          	addi	zero,zero,0

0000000000016680 <strlen@plt>:
   16680:	00024e17          	auipc	t3,0x24
   16684:	a18e3e03          	ld	t3,-1512(t3) # 3a098 <strlen@GLIBC_2.27>
   16688:	000e0367          	jalr	t1,0(t3)
   1668c:	00000013          	addi	zero,zero,0

0000000000016690 <__cxa_allocate_exception@plt>:
   16690:	00024e17          	auipc	t3,0x24
   16694:	a10e3e03          	ld	t3,-1520(t3) # 3a0a0 <__cxa_allocate_exception@CXXABI_1.3>
   16698:	000e0367          	jalr	t1,0(t3)
   1669c:	00000013          	addi	zero,zero,0

00000000000166a0 <std::__throw_length_error(char const*)@plt>:
   166a0:	00024e17          	auipc	t3,0x24
   166a4:	a08e3e03          	ld	t3,-1528(t3) # 3a0a8 <std::__throw_length_error(char const*)@GLIBCXX_3.4>
   166a8:	000e0367          	jalr	t1,0(t3)
   166ac:	00000013          	addi	zero,zero,0

00000000000166b0 <std::__cxx11::basic_string<char, std::char_traits<char>, std::allocator<char> >::_M_assign(std::__cxx11::basic_string<char, std::char_traits<char>, std::allocator<char> > const&)@plt>:
   166b0:	00024e17          	auipc	t3,0x24
   166b4:	a00e3e03          	ld	t3,-1536(t3) # 3a0b0 <std::__cxx11::basic_string<char, std::char_traits<char>, std::allocator<char> >::_M_assign(std::__cxx11::basic_string<char, std::char_traits<char>, std::allocator<char> > const&)@GLIBCXX_3.4.21>
   166b8:	000e0367          	jalr	t1,0(t3)
   166bc:	00000013          	addi	zero,zero,0

00000000000166c0 <std::_V2::system_category()@plt>:
   166c0:	00024e17          	auipc	t3,0x24
   166c4:	9f8e3e03          	ld	t3,-1544(t3) # 3a0b8 <std::_V2::system_category()@GLIBCXX_3.4.21>
   166c8:	000e0367          	jalr	t1,0(t3)
   166cc:	00000013          	addi	zero,zero,0

00000000000166d0 <std::__cxx11::basic_string<char, std::char_traits<char>, std::allocator<char> >::basic_string(std::__cxx11::basic_string<char, std::char_traits<char>, std::allocator<char> >&&)@plt>:
   166d0:	00024e17          	auipc	t3,0x24
   166d4:	9f0e3e03          	ld	t3,-1552(t3) # 3a0c0 <std::__cxx11::basic_string<char, std::char_traits<char>, std::allocator<char> >::basic_string(std::__cxx11::basic_string<char, std::char_traits<char>, std::allocator<char> >&&)@GLIBCXX_3.4.21>
   166d8:	000e0367          	jalr	t1,0(t3)
   166dc:	00000013          	addi	zero,zero,0

00000000000166e0 <open@plt>:
   166e0:	00024e17          	auipc	t3,0x24
   166e4:	9e8e3e03          	ld	t3,-1560(t3) # 3a0c8 <open@GLIBC_2.27>
   166e8:	000e0367          	jalr	t1,0(t3)
   166ec:	00000013          	addi	zero,zero,0

00000000000166f0 <std::__throw_invalid_argument(char const*)@plt>:
   166f0:	00024e17          	auipc	t3,0x24
   166f4:	9e0e3e03          	ld	t3,-1568(t3) # 3a0d0 <std::__throw_invalid_argument(char const*)@GLIBCXX_3.4>
   166f8:	000e0367          	jalr	t1,0(t3)
   166fc:	00000013          	addi	zero,zero,0

0000000000016700 <__cxa_guard_release@plt>:
   16700:	00024e17          	auipc	t3,0x24
   16704:	9d8e3e03          	ld	t3,-1576(t3) # 3a0d8 <__cxa_guard_release@CXXABI_1.3>
   16708:	000e0367          	jalr	t1,0(t3)
   1670c:	00000013          	addi	zero,zero,0

0000000000016710 <strtoll@plt>:
   16710:	00024e17          	auipc	t3,0x24
   16714:	9d0e3e03          	ld	t3,-1584(t3) # 3a0e0 <strtoll@GLIBC_2.27>
   16718:	000e0367          	jalr	t1,0(t3)
   1671c:	00000013          	addi	zero,zero,0

0000000000016720 <mmap@plt>:
   16720:	00024e17          	auipc	t3,0x24
   16724:	9c8e3e03          	ld	t3,-1592(t3) # 3a0e8 <mmap@GLIBC_2.27>
   16728:	000e0367          	jalr	t1,0(t3)
   1672c:	00000013          	addi	zero,zero,0

0000000000016730 <std::_Rb_tree_increment(std::_Rb_tree_node_base*)@plt>:
   16730:	00024e17          	auipc	t3,0x24
   16734:	9c0e3e03          	ld	t3,-1600(t3) # 3a0f0 <std::_Rb_tree_increment(std::_Rb_tree_node_base*)@GLIBCXX_3.4>
   16738:	000e0367          	jalr	t1,0(t3)
   1673c:	00000013          	addi	zero,zero,0

0000000000016740 <std::__throw_logic_error(char const*)@plt>:
   16740:	00024e17          	auipc	t3,0x24
   16744:	9b8e3e03          	ld	t3,-1608(t3) # 3a0f8 <std::__throw_logic_error(char const*)@GLIBCXX_3.4>
   16748:	000e0367          	jalr	t1,0(t3)
   1674c:	00000013          	addi	zero,zero,0

0000000000016750 <__cxa_free_exception@plt>:
   16750:	00024e17          	auipc	t3,0x24
   16754:	9b0e3e03          	ld	t3,-1616(t3) # 3a100 <__cxa_free_exception@CXXABI_1.3>
   16758:	000e0367          	jalr	t1,0(t3)
   1675c:	00000013          	addi	zero,zero,0

0000000000016760 <puts@plt>:
   16760:	00024e17          	auipc	t3,0x24
   16764:	9a8e3e03          	ld	t3,-1624(t3) # 3a108 <puts@GLIBC_2.27>
   16768:	000e0367          	jalr	t1,0(t3)
   1676c:	00000013          	addi	zero,zero,0

0000000000016770 <munmap@plt>:
   16770:	00024e17          	auipc	t3,0x24
   16774:	9a0e3e03          	ld	t3,-1632(t3) # 3a110 <munmap@GLIBC_2.27>
   16778:	000e0367          	jalr	t1,0(t3)
   1677c:	00000013          	addi	zero,zero,0

0000000000016780 <std::__throw_bad_array_new_length()@plt>:
   16780:	00024e17          	auipc	t3,0x24
   16784:	998e3e03          	ld	t3,-1640(t3) # 3a118 <std::__throw_bad_array_new_length()@GLIBCXX_3.4.29>
   16788:	000e0367          	jalr	t1,0(t3)
   1678c:	00000013          	addi	zero,zero,0

0000000000016790 <__assert_fail@plt>:
   16790:	00024e17          	auipc	t3,0x24
   16794:	990e3e03          	ld	t3,-1648(t3) # 3a120 <__assert_fail@GLIBC_2.27>
   16798:	000e0367          	jalr	t1,0(t3)
   1679c:	00000013          	addi	zero,zero,0

00000000000167a0 <operator delete(void*)@plt>:
   167a0:	00024e17          	auipc	t3,0x24
   167a4:	988e3e03          	ld	t3,-1656(t3) # 3a128 <operator delete(void*)@GLIBCXX_3.4>
   167a8:	000e0367          	jalr	t1,0(t3)
   167ac:	00000013          	addi	zero,zero,0

00000000000167b0 <operator new(unsigned long)@plt>:
   167b0:	00024e17          	auipc	t3,0x24
   167b4:	980e3e03          	ld	t3,-1664(t3) # 3a130 <operator new(unsigned long)@GLIBCXX_3.4>
   167b8:	000e0367          	jalr	t1,0(t3)
   167bc:	00000013          	addi	zero,zero,0

00000000000167c0 <std::_Rb_tree_decrement(std::_Rb_tree_node_base*)@plt>:
   167c0:	00024e17          	auipc	t3,0x24
   167c4:	978e3e03          	ld	t3,-1672(t3) # 3a138 <std::_Rb_tree_decrement(std::_Rb_tree_node_base*)@GLIBCXX_3.4>
   167c8:	000e0367          	jalr	t1,0(t3)
   167cc:	00000013          	addi	zero,zero,0

00000000000167d0 <std::runtime_error::~runtime_error()@plt>:
   167d0:	00024e17          	auipc	t3,0x24
   167d4:	970e3e03          	ld	t3,-1680(t3) # 3a140 <std::runtime_error::~runtime_error()@GLIBCXX_3.4>
   167d8:	000e0367          	jalr	t1,0(t3)
   167dc:	00000013          	addi	zero,zero,0

00000000000167e0 <__bswapdi2@plt>:
   167e0:	00024e17          	auipc	t3,0x24
   167e4:	968e3e03          	ld	t3,-1688(t3) # 3a148 <__bswapdi2@GCC_4.3.0>
   167e8:	000e0367          	jalr	t1,0(t3)
   167ec:	00000013          	addi	zero,zero,0

00000000000167f0 <__dynamic_cast@plt>:
   167f0:	00024e17          	auipc	t3,0x24
   167f4:	960e3e03          	ld	t3,-1696(t3) # 3a150 <__dynamic_cast@CXXABI_1.3>
   167f8:	000e0367          	jalr	t1,0(t3)
   167fc:	00000013          	addi	zero,zero,0

0000000000016800 <std::__cxx11::basic_string<char, std::char_traits<char>, std::allocator<char> >::_M_construct(unsigned long, char)@plt>:
   16800:	00024e17          	auipc	t3,0x24
   16804:	958e3e03          	ld	t3,-1704(t3) # 3a158 <std::__cxx11::basic_string<char, std::char_traits<char>, std::allocator<char> >::_M_construct(unsigned long, char)@GLIBCXX_3.4.21>
   16808:	000e0367          	jalr	t1,0(t3)
   1680c:	00000013          	addi	zero,zero,0

0000000000016810 <std::logic_error::logic_error(char const*)@plt>:
   16810:	00024e17          	auipc	t3,0x24
   16814:	950e3e03          	ld	t3,-1712(t3) # 3a160 <std::logic_error::logic_error(char const*)@GLIBCXX_3.4.21>
   16818:	000e0367          	jalr	t1,0(t3)
   1681c:	00000013          	addi	zero,zero,0

0000000000016820 <strerror@plt>:
   16820:	00024e17          	auipc	t3,0x24
   16824:	948e3e03          	ld	t3,-1720(t3) # 3a168 <strerror@GLIBC_2.27>
   16828:	000e0367          	jalr	t1,0(t3)
   1682c:	00000013          	addi	zero,zero,0

0000000000016830 <std::runtime_error::runtime_error(std::__cxx11::basic_string<char, std::char_traits<char>, std::allocator<char> > const&)@plt>:
   16830:	00024e17          	auipc	t3,0x24
   16834:	940e3e03          	ld	t3,-1728(t3) # 3a170 <std::runtime_error::runtime_error(std::__cxx11::basic_string<char, std::char_traits<char>, std::allocator<char> > const&)@GLIBCXX_3.4.21>
   16838:	000e0367          	jalr	t1,0(t3)
   1683c:	00000013          	addi	zero,zero,0

0000000000016840 <memcpy@plt>:
   16840:	00024e17          	auipc	t3,0x24
   16844:	938e3e03          	ld	t3,-1736(t3) # 3a178 <memcpy@GLIBC_2.27>
   16848:	000e0367          	jalr	t1,0(t3)
   1684c:	00000013          	addi	zero,zero,0

0000000000016850 <operator delete[](void*)@plt>:
   16850:	00024e17          	auipc	t3,0x24
   16854:	930e3e03          	ld	t3,-1744(t3) # 3a180 <operator delete[](void*)@GLIBCXX_3.4>
   16858:	000e0367          	jalr	t1,0(t3)
   1685c:	00000013          	addi	zero,zero,0

0000000000016860 <std::__detail::_Prime_rehash_policy::_M_need_rehash(unsigned long, unsigned long, unsigned long) const@plt>:
   16860:	00024e17          	auipc	t3,0x24
   16864:	928e3e03          	ld	t3,-1752(t3) # 3a188 <std::__detail::_Prime_rehash_policy::_M_need_rehash(unsigned long, unsigned long, unsigned long) const@GLIBCXX_3.4.18>
   16868:	000e0367          	jalr	t1,0(t3)
   1686c:	00000013          	addi	zero,zero,0

0000000000016870 <memset@plt>:
   16870:	00024e17          	auipc	t3,0x24
   16874:	920e3e03          	ld	t3,-1760(t3) # 3a190 <memset@GLIBC_2.27>
   16878:	000e0367          	jalr	t1,0(t3)
   1687c:	00000013          	addi	zero,zero,0

0000000000016880 <std::__cxx11::basic_string<char, std::char_traits<char>, std::allocator<char> >::basic_string(char const*, std::allocator<char> const&)@plt>:
   16880:	00024e17          	auipc	t3,0x24
   16884:	918e3e03          	ld	t3,-1768(t3) # 3a198 <std::__cxx11::basic_string<char, std::char_traits<char>, std::allocator<char> >::basic_string(char const*, std::allocator<char> const&)@GLIBCXX_3.4.21>
   16888:	000e0367          	jalr	t1,0(t3)
   1688c:	00000013          	addi	zero,zero,0

0000000000016890 <std::runtime_error::what() const@plt>:
   16890:	00024e17          	auipc	t3,0x24
   16894:	910e3e03          	ld	t3,-1776(t3) # 3a1a0 <std::runtime_error::what() const@GLIBCXX_3.4>
   16898:	000e0367          	jalr	t1,0(t3)
   1689c:	00000013          	addi	zero,zero,0

00000000000168a0 <std::logic_error::logic_error(char const*)@plt>:
   168a0:	00024e17          	auipc	t3,0x24
   168a4:	908e3e03          	ld	t3,-1784(t3) # 3a1a8 <std::logic_error::logic_error(char const*)@GLIBCXX_3.4.21>
   168a8:	000e0367          	jalr	t1,0(t3)
   168ac:	00000013          	addi	zero,zero,0

00000000000168b0 <std::__throw_out_of_range(char const*)@plt>:
   168b0:	00024e17          	auipc	t3,0x24
   168b4:	900e3e03          	ld	t3,-1792(t3) # 3a1b0 <std::__throw_out_of_range(char const*)@GLIBCXX_3.4>
   168b8:	000e0367          	jalr	t1,0(t3)
   168bc:	00000013          	addi	zero,zero,0

00000000000168c0 <__cxa_rethrow@plt>:
   168c0:	00024e17          	auipc	t3,0x24
   168c4:	8f8e3e03          	ld	t3,-1800(t3) # 3a1b8 <__cxa_rethrow@CXXABI_1.3>
   168c8:	000e0367          	jalr	t1,0(t3)
   168cc:	00000013          	addi	zero,zero,0

00000000000168d0 <std::logic_error::what() const@plt>:
   168d0:	00024e17          	auipc	t3,0x24
   168d4:	8f0e3e03          	ld	t3,-1808(t3) # 3a1c0 <std::logic_error::what() const@GLIBCXX_3.4>
   168d8:	000e0367          	jalr	t1,0(t3)
   168dc:	00000013          	addi	zero,zero,0

00000000000168e0 <std::__throw_out_of_range_fmt(char const*, ...)@plt>:
   168e0:	00024e17          	auipc	t3,0x24
   168e4:	8e8e3e03          	ld	t3,-1816(t3) # 3a1c8 <std::__throw_out_of_range_fmt(char const*, ...)@GLIBCXX_3.4.20>
   168e8:	000e0367          	jalr	t1,0(t3)
   168ec:	00000013          	addi	zero,zero,0

00000000000168f0 <std::out_of_range::out_of_range(std::__cxx11::basic_string<char, std::char_traits<char>, std::allocator<char> > const&)@plt>:
   168f0:	00024e17          	auipc	t3,0x24
   168f4:	8e0e3e03          	ld	t3,-1824(t3) # 3a1d0 <std::out_of_range::out_of_range(std::__cxx11::basic_string<char, std::char_traits<char>, std::allocator<char> > const&)@GLIBCXX_3.4.21>
   168f8:	000e0367          	jalr	t1,0(t3)
   168fc:	00000013          	addi	zero,zero,0

0000000000016900 <std::__cxx11::basic_string<char, std::char_traits<char>, std::allocator<char> >::_M_replace(unsigned long, unsigned long, char const*, unsigned long)@plt>:
   16900:	00024e17          	auipc	t3,0x24
   16904:	8d8e3e03          	ld	t3,-1832(t3) # 3a1d8 <std::__cxx11::basic_string<char, std::char_traits<char>, std::allocator<char> >::_M_replace(unsigned long, unsigned long, char const*, unsigned long)@GLIBCXX_3.4.21>
   16908:	000e0367          	jalr	t1,0(t3)
   1690c:	00000013          	addi	zero,zero,0

0000000000016910 <lseek@plt>:
   16910:	00024e17          	auipc	t3,0x24
   16914:	8d0e3e03          	ld	t3,-1840(t3) # 3a1e0 <lseek@GLIBC_2.27>
   16918:	000e0367          	jalr	t1,0(t3)
   1691c:	00000013          	addi	zero,zero,0

0000000000016920 <std::runtime_error::runtime_error(std::__cxx11::basic_string<char, std::char_traits<char>, std::allocator<char> > const&)@plt>:
   16920:	00024e17          	auipc	t3,0x24
   16924:	8c8e3e03          	ld	t3,-1848(t3) # 3a1e8 <std::runtime_error::runtime_error(std::__cxx11::basic_string<char, std::char_traits<char>, std::allocator<char> > const&)@GLIBCXX_3.4.21>
   16928:	000e0367          	jalr	t1,0(t3)
   1692c:	00000013          	addi	zero,zero,0

0000000000016930 <__cxa_end_catch@plt>:
   16930:	00024e17          	auipc	t3,0x24
   16934:	8c0e3e03          	ld	t3,-1856(t3) # 3a1f0 <__cxa_end_catch@CXXABI_1.3>
   16938:	000e0367          	jalr	t1,0(t3)
   1693c:	00000013          	addi	zero,zero,0

0000000000016940 <__gxx_personality_v0@plt>:
   16940:	00024e17          	auipc	t3,0x24
   16944:	8b8e3e03          	ld	t3,-1864(t3) # 3a1f8 <__gxx_personality_v0@CXXABI_1.3>
   16948:	000e0367          	jalr	t1,0(t3)
   1694c:	00000013          	addi	zero,zero,0

0000000000016950 <strncmp@plt>:
   16950:	00024e17          	auipc	t3,0x24
   16954:	8b0e3e03          	ld	t3,-1872(t3) # 3a200 <strncmp@GLIBC_2.27>
   16958:	000e0367          	jalr	t1,0(t3)
   1695c:	00000013          	addi	zero,zero,0

0000000000016960 <__cxa_throw@plt>:
   16960:	00024e17          	auipc	t3,0x24
   16964:	8a8e3e03          	ld	t3,-1880(t3) # 3a208 <__cxa_throw@CXXABI_1.3>
   16968:	000e0367          	jalr	t1,0(t3)
   1696c:	00000013          	addi	zero,zero,0

0000000000016970 <std::range_error::range_error(char const*)@plt>:
   16970:	00024e17          	auipc	t3,0x24
   16974:	8a0e3e03          	ld	t3,-1888(t3) # 3a210 <std::range_error::range_error(char const*)@GLIBCXX_3.4.21>
   16978:	000e0367          	jalr	t1,0(t3)
   1697c:	00000013          	addi	zero,zero,0

0000000000016980 <fprintf@plt>:
   16980:	00024e17          	auipc	t3,0x24
   16984:	898e3e03          	ld	t3,-1896(t3) # 3a218 <fprintf@GLIBC_2.27>
   16988:	000e0367          	jalr	t1,0(t3)
   1698c:	00000013          	addi	zero,zero,0

0000000000016990 <_Unwind_Resume@plt>:
   16990:	00024e17          	auipc	t3,0x24
   16994:	890e3e03          	ld	t3,-1904(t3) # 3a220 <_Unwind_Resume@GCC_3.0>
   16998:	000e0367          	jalr	t1,0(t3)
   1699c:	00000013          	addi	zero,zero,0

00000000000169a0 <std::logic_error::~logic_error()@plt>:
   169a0:	00024e17          	auipc	t3,0x24
   169a4:	888e3e03          	ld	t3,-1912(t3) # 3a228 <std::logic_error::~logic_error()@GLIBCXX_3.4>
   169a8:	000e0367          	jalr	t1,0(t3)
   169ac:	00000013          	addi	zero,zero,0

00000000000169b0 <std::__cxx11::basic_string<char, std::char_traits<char>, std::allocator<char> >::_M_create(unsigned long&, unsigned long)@plt>:
   169b0:	00024e17          	auipc	t3,0x24
   169b4:	880e3e03          	ld	t3,-1920(t3) # 3a230 <std::__cxx11::basic_string<char, std::char_traits<char>, std::allocator<char> >::_M_create(unsigned long&, unsigned long)@GLIBCXX_3.4.21>
   169b8:	000e0367          	jalr	t1,0(t3)
   169bc:	00000013          	addi	zero,zero,0

00000000000169c0 <__cxa_atexit@plt>:
   169c0:	00024e17          	auipc	t3,0x24
   169c4:	878e3e03          	ld	t3,-1928(t3) # 3a238 <__cxa_atexit@GLIBC_2.27>
   169c8:	000e0367          	jalr	t1,0(t3)
   169cc:	00000013          	addi	zero,zero,0

00000000000169d0 <std::__cxx11::basic_string<char, std::char_traits<char>, std::allocator<char> >::_M_mutate(unsigned long, unsigned long, char const*, unsigned long)@plt>:
   169d0:	00024e17          	auipc	t3,0x24
   169d4:	870e3e03          	ld	t3,-1936(t3) # 3a240 <std::__cxx11::basic_string<char, std::char_traits<char>, std::allocator<char> >::_M_mutate(unsigned long, unsigned long, char const*, unsigned long)@GLIBCXX_3.4.21>
   169d8:	000e0367          	jalr	t1,0(t3)
   169dc:	00000013          	addi	zero,zero,0

00000000000169e0 <__cxa_guard_acquire@plt>:
   169e0:	00024e17          	auipc	t3,0x24
   169e4:	868e3e03          	ld	t3,-1944(t3) # 3a248 <__cxa_guard_acquire@CXXABI_1.3>
   169e8:	000e0367          	jalr	t1,0(t3)
   169ec:	00000013          	addi	zero,zero,0

00000000000169f0 <std::__cxx11::basic_string<char, std::char_traits<char>, std::allocator<char> >::_M_replace_aux(unsigned long, unsigned long, unsigned long, char)@plt>:
   169f0:	00024e17          	auipc	t3,0x24
   169f4:	860e3e03          	ld	t3,-1952(t3) # 3a250 <std::__cxx11::basic_string<char, std::char_traits<char>, std::allocator<char> >::_M_replace_aux(unsigned long, unsigned long, unsigned long, char)@GLIBCXX_3.4.21>
   169f8:	000e0367          	jalr	t1,0(t3)
   169fc:	00000013          	addi	zero,zero,0

0000000000016a00 <printf@plt>:
   16a00:	00024e17          	auipc	t3,0x24
   16a04:	858e3e03          	ld	t3,-1960(t3) # 3a258 <printf@GLIBC_2.27>
   16a08:	000e0367          	jalr	t1,0(t3)
   16a0c:	00000013          	addi	zero,zero,0

0000000000016a10 <std::runtime_error::runtime_error(char const*)@plt>:
   16a10:	00024e17          	auipc	t3,0x24
   16a14:	850e3e03          	ld	t3,-1968(t3) # 3a260 <std::runtime_error::runtime_error(char const*)@GLIBCXX_3.4.21>
   16a18:	000e0367          	jalr	t1,0(t3)
   16a1c:	00000013          	addi	zero,zero,0

0000000000016a20 <memmove@plt>:
   16a20:	00024e17          	auipc	t3,0x24
   16a24:	848e3e03          	ld	t3,-1976(t3) # 3a268 <memmove@GLIBC_2.27>
   16a28:	000e0367          	jalr	t1,0(t3)
   16a2c:	00000013          	addi	zero,zero,0

0000000000016a30 <__cxa_pure_virtual@plt>:
   16a30:	00024e17          	auipc	t3,0x24
   16a34:	840e3e03          	ld	t3,-1984(t3) # 3a270 <__cxa_pure_virtual@CXXABI_1.3>
   16a38:	000e0367          	jalr	t1,0(t3)
   16a3c:	00000013          	addi	zero,zero,0

0000000000016a40 <std::__cxx11::basic_string<char, std::char_traits<char>, std::allocator<char> >::append(char const*)@plt>:
   16a40:	00024e17          	auipc	t3,0x24
   16a44:	838e3e03          	ld	t3,-1992(t3) # 3a278 <std::__cxx11::basic_string<char, std::char_traits<char>, std::allocator<char> >::append(char const*)@GLIBCXX_3.4.21>
   16a48:	000e0367          	jalr	t1,0(t3)
   16a4c:	00000013          	addi	zero,zero,0

0000000000016a50 <std::range_error::range_error(std::__cxx11::basic_string<char, std::char_traits<char>, std::allocator<char> > const&)@plt>:
   16a50:	00024e17          	auipc	t3,0x24
   16a54:	830e3e03          	ld	t3,-2000(t3) # 3a280 <std::range_error::range_error(std::__cxx11::basic_string<char, std::char_traits<char>, std::allocator<char> > const&)@GLIBCXX_3.4.21>
   16a58:	000e0367          	jalr	t1,0(t3)
   16a5c:	00000013          	addi	zero,zero,0

0000000000016a60 <__errno_location@plt>:
   16a60:	00024e17          	auipc	t3,0x24
   16a64:	828e3e03          	ld	t3,-2008(t3) # 3a288 <__errno_location@GLIBC_2.27>
   16a68:	000e0367          	jalr	t1,0(t3)
   16a6c:	00000013          	addi	zero,zero,0

0000000000016a70 <close@plt>:
   16a70:	00024e17          	auipc	t3,0x24
   16a74:	820e3e03          	ld	t3,-2016(t3) # 3a290 <close@GLIBC_2.27>
   16a78:	000e0367          	jalr	t1,0(t3)
   16a7c:	00000013          	addi	zero,zero,0

0000000000016a80 <std::underflow_error::underflow_error(char const*)@plt>:
   16a80:	00024e17          	auipc	t3,0x24
   16a84:	818e3e03          	ld	t3,-2024(t3) # 3a298 <std::underflow_error::underflow_error(char const*)@GLIBCXX_3.4.21>
   16a88:	000e0367          	jalr	t1,0(t3)
   16a8c:	00000013          	addi	zero,zero,0

0000000000016a90 <std::logic_error::logic_error(std::__cxx11::basic_string<char, std::char_traits<char>, std::allocator<char> > const&)@plt>:
   16a90:	00024e17          	auipc	t3,0x24
   16a94:	810e3e03          	ld	t3,-2032(t3) # 3a2a0 <std::logic_error::logic_error(std::__cxx11::basic_string<char, std::char_traits<char>, std::allocator<char> > const&)@GLIBCXX_3.4.21>
   16a98:	000e0367          	jalr	t1,0(t3)
   16a9c:	00000013          	addi	zero,zero,0

Disassembly of section .text:

0000000000016aa0 <_start>:
ENTRY (ENTRY_POINT)
	/* Terminate call stack by noting ra is undefined.  Use a dummy
	   .cfi_label to force starting the FDE.  */
	.cfi_label .Ldummy
	cfi_undefined (ra)
	call  load_gp
   16aa0:	02e000ef          	jal	ra,16ace <load_gp>
	mv    a5, a0  /* rtld_fini.  */
   16aa4:	87aa                	c.mv	a5,a0
	/* main may be in a shared library.  */
	la   a0, main
   16aa6:	00000517          	auipc	a0,0x0
   16aaa:	43850513          	addi	a0,a0,1080 # 16ede <main>
	REG_L a1, 0(sp)      /* argc.  */
   16aae:	6582                	c.ldsp	a1,0(sp)
	addi  a2, sp, SZREG  /* argv.  */
   16ab0:	0030                	c.addi4spn	a2,sp,8
	andi  sp, sp, ALMASK /* Align stack. */
   16ab2:	ff017113          	andi	sp,sp,-16
	lla   a3, __libc_csu_init
   16ab6:	00017697          	auipc	a3,0x17
   16aba:	ea468693          	addi	a3,a3,-348 # 2d95a <__libc_csu_init>
	lla   a4, __libc_csu_fini
   16abe:	00017717          	auipc	a4,0x17
   16ac2:	ef470713          	addi	a4,a4,-268 # 2d9b2 <__libc_csu_fini>
	mv    a6, sp  /* stack_end.  */
   16ac6:	880a                	c.mv	a6,sp

	call  __libc_start_main@plt
   16ac8:	b79ff0ef          	jal	ra,16640 <__libc_start_main@plt>
	ebreak
   16acc:	9002                	c.ebreak

0000000000016ace <load_gp>:
   So we redundantly initialize it at the beginning of _start.  */

load_gp:
.option push
.option norelax
	lla   gp, __global_pointer$
   16ace:	00024197          	auipc	gp,0x24
   16ad2:	d3218193          	addi	gp,gp,-718 # 3a800 <__global_pointer$>
.option pop
	ret
   16ad6:	8082                	c.jr	ra
	...

0000000000016ada <deregister_tm_clones>:
   16ada:	81018793          	addi	a5,gp,-2032 # 3a010 <__TMC_END__>
   16ade:	81018713          	addi	a4,gp,-2032 # 3a010 <__TMC_END__>
   16ae2:	00f70863          	beq	a4,a5,16af2 <deregister_tm_clones+0x18>
   16ae6:	00000793          	addi	a5,zero,0
   16aea:	c781                	c.beqz	a5,16af2 <deregister_tm_clones+0x18>
   16aec:	81018513          	addi	a0,gp,-2032 # 3a010 <__TMC_END__>
   16af0:	8782                	c.jr	a5
   16af2:	8082                	c.jr	ra

0000000000016af4 <register_tm_clones>:
   16af4:	81018793          	addi	a5,gp,-2032 # 3a010 <__TMC_END__>
   16af8:	81018593          	addi	a1,gp,-2032 # 3a010 <__TMC_END__>
   16afc:	8d9d                	c.sub	a1,a5
   16afe:	4035d793          	srai	a5,a1,0x3
   16b02:	91fd                	c.srli	a1,0x3f
   16b04:	95be                	c.add	a1,a5
   16b06:	8585                	c.srai	a1,0x1
   16b08:	c599                	c.beqz	a1,16b16 <register_tm_clones+0x22>
   16b0a:	00000793          	addi	a5,zero,0
   16b0e:	c781                	c.beqz	a5,16b16 <register_tm_clones+0x22>
   16b10:	81018513          	addi	a0,gp,-2032 # 3a010 <__TMC_END__>
   16b14:	8782                	c.jr	a5
   16b16:	8082                	c.jr	ra

0000000000016b18 <__do_global_dtors_aux>:
   16b18:	1141                	c.addi	sp,-16
   16b1a:	e022                	c.sdsp	s0,0(sp)
   16b1c:	e611c783          	lbu	a5,-415(gp) # 3a661 <completed.0>
   16b20:	e406                	c.sdsp	ra,8(sp)
   16b22:	e791                	c.bnez	a5,16b2e <__do_global_dtors_aux+0x16>
   16b24:	fb7ff0ef          	jal	ra,16ada <deregister_tm_clones>
   16b28:	4785                	c.li	a5,1
   16b2a:	e6f180a3          	sb	a5,-415(gp) # 3a661 <completed.0>
   16b2e:	60a2                	c.ldsp	ra,8(sp)
   16b30:	6402                	c.ldsp	s0,0(sp)
   16b32:	0141                	c.addi	sp,16
   16b34:	8082                	c.jr	ra

0000000000016b36 <frame_dummy>:
   16b36:	bf7d                	c.j	16af4 <register_tm_clones>

0000000000016b38 <usage(char const*)>:
#include <inttypes.h>
#include <string>

using namespace std;

void usage(const char *cmd) {
   16b38:	1141                	c.addi	sp,-16
   16b3a:	e406                	c.sdsp	ra,8(sp)
   16b3c:	862a                	c.mv	a2,a0
  fprintf(stderr, "usage: %s elf-file pc\n", cmd);
   16b3e:	0002e5b7          	lui	a1,0x2e
   16b42:	9f058593          	addi	a1,a1,-1552 # 2d9f0 <__libc_csu_fini+0x3e>
   16b46:	e581b503          	ld	a0,-424(gp) # 3a658 <stderr@GLIBC_2.27>
   16b4a:	e37ff0ef          	jal	ra,16980 <fprintf@plt>
  exit(2);
   16b4e:	4509                	c.li	a0,2
   16b50:	a71ff0ef          	jal	ra,165c0 <exit@plt>

0000000000016b54 <dump_die(dwarf::die const&)>:
    break;
  }
  return found;
}

void dump_die(const dwarf::die &node) {
   16b54:	7135                	c.addi16sp	sp,-160
   16b56:	ed06                	c.sdsp	ra,152(sp)
   16b58:	e922                	c.sdsp	s0,144(sp)
   16b5a:	e526                	c.sdsp	s1,136(sp)
   16b5c:	e14a                	c.sdsp	s2,128(sp)
   16b5e:	fcce                	c.sdsp	s3,120(sp)
   16b60:	f8d2                	c.sdsp	s4,112(sp)
   16b62:	f4d6                	c.sdsp	s5,104(sp)
   16b64:	842a                	c.mv	s0,a0
  printf("<%" PRIx64 "> %s\n", node.get_section_offset(),
   16b66:	1bc050ef          	jal	ra,1bd22 <dwarf::die::get_section_offset() const>
   16b6a:	84aa                	c.mv	s1,a0
         to_string(node.tag).c_str());
   16b6c:	400c                	c.lw	a1,0(s0)
   16b6e:	1028                	c.addi4spn	a0,sp,40
   16b70:	1ae120ef          	jal	ra,28d1e <dwarf::to_string[abi:cxx11](dwarf::DW_TAG)>
  printf("<%" PRIx64 "> %s\n", node.get_section_offset(),
   16b74:	7622                	c.ldsp	a2,40(sp)
   16b76:	85a6                	c.mv	a1,s1
   16b78:	0002e537          	lui	a0,0x2e
   16b7c:	a0850513          	addi	a0,a0,-1528 # 2da08 <__libc_csu_fini+0x56>
   16b80:	e81ff0ef          	jal	ra,16a00 <printf@plt>
      { _M_string_length = __length; }

      _GLIBCXX20_CONSTEXPR
      pointer
      _M_data() const
      { return _M_dataplus._M_p; }
   16b84:	7522                	c.ldsp	a0,40(sp)

      _GLIBCXX20_CONSTEXPR
      void
      _M_dispose()
      {
	if (!_M_is_local())
   16b86:	183c                	c.addi4spn	a5,sp,56
   16b88:	00f50463          	beq	a0,a5,16b90 <dump_die(dwarf::die const&)+0x3c>
	    _GLIBCXX_OPERATOR_DELETE(_GLIBCXX_SIZED_DEALLOC(__p, __n),
				     std::align_val_t(alignof(_Tp)));
	    return;
	  }
#endif
	_GLIBCXX_OPERATOR_DELETE(_GLIBCXX_SIZED_DEALLOC(__p, __n));
   16b8c:	c15ff0ef          	jal	ra,167a0 <operator delete(void*)@plt>
  for (auto &attr : node.attributes())
   16b90:	85a2                	c.mv	a1,s0
   16b92:	00a8                	c.addi4spn	a0,sp,72
   16b94:	28d050ef          	jal	ra,1c620 <dwarf::die::attributes() const>
      _GLIBCXX_CONSTEXPR __normal_iterator() _GLIBCXX_NOEXCEPT
      : _M_current(_Iterator()) { }

      explicit _GLIBCXX20_CONSTEXPR
      __normal_iterator(const _Iterator& __i) _GLIBCXX_NOEXCEPT
      : _M_current(__i) { }
   16b98:	6426                	c.ldsp	s0,72(sp)
   16b9a:	6946                	c.ldsp	s2,80(sp)
   16b9c:	05240863          	beq	s0,s2,16bec <dump_die(dwarf::die const&)+0x98>
    printf("      %s %s\n", to_string(attr.first).c_str(),
   16ba0:	0002eab7          	lui	s5,0x2e
   16ba4:	03810a13          	addi	s4,sp,56
   16ba8:	01810993          	addi	s3,sp,24
   16bac:	a81d                	c.j	16be2 <dump_die(dwarf::die const&)+0x8e>
      { return _M_dataplus._M_p; }
   16bae:	64a2                	c.ldsp	s1,8(sp)
           to_string(attr.second).c_str());
   16bb0:	00840593          	addi	a1,s0,8
   16bb4:	1028                	c.addi4spn	a0,sp,40
   16bb6:	3dc080ef          	jal	ra,1ef92 <dwarf::to_string[abi:cxx11](dwarf::value const&)>
    printf("      %s %s\n", to_string(attr.first).c_str(),
   16bba:	7622                	c.ldsp	a2,40(sp)
   16bbc:	85a6                	c.mv	a1,s1
   16bbe:	a18a8513          	addi	a0,s5,-1512 # 2da18 <__libc_csu_fini+0x66>
   16bc2:	e3fff0ef          	jal	ra,16a00 <printf@plt>
   16bc6:	7522                	c.ldsp	a0,40(sp)
	if (!_M_is_local())
   16bc8:	01450463          	beq	a0,s4,16bd0 <dump_die(dwarf::die const&)+0x7c>
   16bcc:	bd5ff0ef          	jal	ra,167a0 <operator delete(void*)@plt>
      { return _M_dataplus._M_p; }
   16bd0:	6522                	c.ldsp	a0,8(sp)
	if (!_M_is_local())
   16bd2:	01350463          	beq	a0,s3,16bda <dump_die(dwarf::die const&)+0x86>
   16bd6:	bcbff0ef          	jal	ra,167a0 <operator delete(void*)@plt>
  for (auto &attr : node.attributes())
   16bda:	02040413          	addi	s0,s0,32
   16bde:	00890763          	beq	s2,s0,16bec <dump_die(dwarf::die const&)+0x98>
    printf("      %s %s\n", to_string(attr.first).c_str(),
   16be2:	400c                	c.lw	a1,0(s0)
   16be4:	0028                	c.addi4spn	a0,sp,8
   16be6:	424130ef          	jal	ra,2a00a <dwarf::to_string[abi:cxx11](dwarf::DW_AT)>
   16bea:	b7d1                	c.j	16bae <dump_die(dwarf::die const&)+0x5a>
       *  responsibility.
       */
      _GLIBCXX20_CONSTEXPR
      ~vector() _GLIBCXX_NOEXCEPT
      {
	std::_Destroy(this->_M_impl._M_start, this->_M_impl._M_finish,
   16bec:	6526                	c.ldsp	a0,72(sp)
	if (__p)
   16bee:	c119                	c.beqz	a0,16bf4 <dump_die(dwarf::die const&)+0xa0>
   16bf0:	bb1ff0ef          	jal	ra,167a0 <operator delete(void*)@plt>
}
   16bf4:	60ea                	c.ldsp	ra,152(sp)
   16bf6:	644a                	c.ldsp	s0,144(sp)
   16bf8:	64aa                	c.ldsp	s1,136(sp)
   16bfa:	690a                	c.ldsp	s2,128(sp)
   16bfc:	79e6                	c.ldsp	s3,120(sp)
   16bfe:	7a46                	c.ldsp	s4,112(sp)
   16c00:	7aa6                	c.ldsp	s5,104(sp)
   16c02:	610d                	c.addi16sp	sp,160
   16c04:	8082                	c.jr	ra
      { return _M_dataplus._M_p; }
   16c06:	842a                	c.mv	s0,a0
   16c08:	7522                	c.ldsp	a0,40(sp)
	if (!_M_is_local())
   16c0a:	183c                	c.addi4spn	a5,sp,56
   16c0c:	00f50463          	beq	a0,a5,16c14 <dump_die(dwarf::die const&)+0xc0>
   16c10:	b91ff0ef          	jal	ra,167a0 <operator delete(void*)@plt>
      ~__new_allocator() _GLIBCXX_USE_NOEXCEPT { }
   16c14:	8522                	c.mv	a0,s0
   16c16:	d7bff0ef          	jal	ra,16990 <_Unwind_Resume@plt>
      { return _M_dataplus._M_p; }
   16c1a:	842a                	c.mv	s0,a0
   16c1c:	7522                	c.ldsp	a0,40(sp)
	if (!_M_is_local())
   16c1e:	183c                	c.addi4spn	a5,sp,56
   16c20:	00f50463          	beq	a0,a5,16c28 <dump_die(dwarf::die const&)+0xd4>
	_GLIBCXX_OPERATOR_DELETE(_GLIBCXX_SIZED_DEALLOC(__p, __n));
   16c24:	b7dff0ef          	jal	ra,167a0 <operator delete(void*)@plt>
      { return _M_dataplus._M_p; }
   16c28:	6522                	c.ldsp	a0,8(sp)
	if (!_M_is_local())
   16c2a:	083c                	c.addi4spn	a5,sp,24
   16c2c:	00f50463          	beq	a0,a5,16c34 <dump_die(dwarf::die const&)+0xe0>
   16c30:	b71ff0ef          	jal	ra,167a0 <operator delete(void*)@plt>
	std::_Destroy(this->_M_impl._M_start, this->_M_impl._M_finish,
   16c34:	6526                	c.ldsp	a0,72(sp)
	if (__p)
   16c36:	c119                	c.beqz	a0,16c3c <dump_die(dwarf::die const&)+0xe8>
   16c38:	b69ff0ef          	jal	ra,167a0 <operator delete(void*)@plt>
      ~__new_allocator() _GLIBCXX_USE_NOEXCEPT { }
   16c3c:	8522                	c.mv	a0,s0
   16c3e:	d53ff0ef          	jal	ra,16990 <_Unwind_Resume@plt>
      { return _M_dataplus._M_p; }
   16c42:	842a                	c.mv	s0,a0
   16c44:	b7d5                	c.j	16c28 <dump_die(dwarf::die const&)+0xd4>
	std::_Destroy(this->_M_impl._M_start, this->_M_impl._M_finish,
   16c46:	842a                	c.mv	s0,a0
   16c48:	b7f5                	c.j	16c34 <dump_die(dwarf::die const&)+0xe0>

0000000000016c4a <find_pc(dwarf::die const&, unsigned long, std::vector<dwarf::die, std::allocator<dwarf::die> >*)>:
bool find_pc(const dwarf::die &d, dwarf::taddr pc, vector<dwarf::die> *stack) {
   16c4a:	7169                	c.addi16sp	sp,-304
   16c4c:	f606                	c.sdsp	ra,296(sp)
   16c4e:	f222                	c.sdsp	s0,288(sp)
   16c50:	ee26                	c.sdsp	s1,280(sp)
   16c52:	ea4a                	c.sdsp	s2,272(sp)
   16c54:	e64e                	c.sdsp	s3,264(sp)
   16c56:	e252                	c.sdsp	s4,256(sp)
   16c58:	fdd6                	c.sdsp	s5,248(sp)
   16c5a:	f9da                	c.sdsp	s6,240(sp)
   16c5c:	f5de                	c.sdsp	s7,232(sp)
   16c5e:	f1e2                	c.sdsp	s8,224(sp)
   16c60:	842a                	c.mv	s0,a0
   16c62:	89ae                	c.mv	s3,a1
   16c64:	8932                	c.mv	s2,a2
  for (auto &child : d) {
   16c66:	85aa                	c.mv	a1,a0
   16c68:	850a                	c.mv	a0,sp
   16c6a:	5d2050ef          	jal	ra,1c23c <dwarf::die::begin() const>
  iterator(const unit *cu, section_offset off);

  die d;
};

inline die::iterator die::end() const { return iterator(); }
   16c6e:	f882                	c.sdsp	zero,112(sp)
   16c70:	fc82                	c.sdsp	zero,120(sp)
   16c72:	e102                	c.sdsp	zero,128(sp)
   16c74:	e502                	c.sdsp	zero,136(sp)
   16c76:	e902                	c.sdsp	zero,144(sp)
   16c78:	ed02                	c.sdsp	zero,152(sp)
   16c7a:	f102                	c.sdsp	zero,160(sp)
   16c7c:	f502                	c.sdsp	zero,168(sp)
   16c7e:	f902                	c.sdsp	zero,176(sp)
   16c80:	fd02                	c.sdsp	zero,184(sp)
   16c82:	ed82                	c.sdsp	zero,216(sp)
  typedef T value_type;
  typedef value_type &reference;
  typedef const value_type &const_reference;
  typedef size_t size_type;

  small_vector() : base((T *)buf), end(base), cap((T *)&buf[sizeof(T[Min])]) {}
   16c84:	091c                	c.addi4spn	a5,sp,144
   16c86:	e1be                	c.sdsp	a5,192(sp)
   16c88:	e5be                	c.sdsp	a5,200(sp)
   16c8a:	019c                	c.addi4spn	a5,sp,192
   16c8c:	e9be                	c.sdsp	a5,208(sp)
    if (d.abbrev != o.d.abbrev)
   16c8e:	67c2                	c.ldsp	a5,16(sp)
   16c90:	670a                	c.ldsp	a4,128(sp)
   16c92:	00e78d63          	beq	a5,a4,16cac <find_pc(dwarf::die const&, unsigned long, std::vector<dwarf::die, std::allocator<dwarf::die> >*)+0x62>
    if ((found = find_pc(child, pc, stack)))
   16c96:	864a                	c.mv	a2,s2
   16c98:	85ce                	c.mv	a1,s3
   16c9a:	850a                	c.mv	a0,sp
   16c9c:	fafff0ef          	jal	ra,16c4a <find_pc(dwarf::die const&, unsigned long, std::vector<dwarf::die, std::allocator<dwarf::die> >*)>
   16ca0:	84aa                	c.mv	s1,a0
   16ca2:	e10d                	c.bnez	a0,16cc4 <find_pc(dwarf::die const&, unsigned long, std::vector<dwarf::die, std::allocator<dwarf::die> >*)+0x7a>
  for (auto &child : d) {
   16ca4:	850a                	c.mv	a0,sp
   16ca6:	7e2050ef          	jal	ra,1c488 <dwarf::die::iterator::operator++()>
   16caa:	b7d5                	c.j	16c8e <find_pc(dwarf::die const&, unsigned long, std::vector<dwarf::die, std::allocator<dwarf::die> >*)+0x44>
    if (d.abbrev == nullptr)
   16cac:	cb99                	c.beqz	a5,16cc2 <find_pc(dwarf::die const&, unsigned long, std::vector<dwarf::die, std::allocator<dwarf::die> >*)+0x78>
    return d.next != o.d.next || d.cu != o.d.cu;
   16cae:	7726                	c.ldsp	a4,104(sp)
   16cb0:	67ee                	c.ldsp	a5,216(sp)
   16cb2:	fef712e3          	bne	a4,a5,16c96 <find_pc(dwarf::die const&, unsigned long, std::vector<dwarf::die, std::allocator<dwarf::die> >*)+0x4c>
   16cb6:	6722                	c.ldsp	a4,8(sp)
   16cb8:	77e6                	c.ldsp	a5,120(sp)
   16cba:	fcf71ee3          	bne	a4,a5,16c96 <find_pc(dwarf::die const&, unsigned long, std::vector<dwarf::die, std::allocator<dwarf::die> >*)+0x4c>
   16cbe:	4481                	c.li	s1,0
   16cc0:	a011                	c.j	16cc4 <find_pc(dwarf::die const&, unsigned long, std::vector<dwarf::die, std::allocator<dwarf::die> >*)+0x7a>
   16cc2:	4481                	c.li	s1,0
    end--;
    end->~T();
  }

  void clear() {
    for (T *p = base; p < end; ++p)
   16cc4:	650e                	c.ldsp	a0,192(sp)
   16cc6:	67ae                	c.ldsp	a5,200(sp)
   16cc8:	00f57763          	bgeu	a0,a5,16cd6 <find_pc(dwarf::die const&, unsigned long, std::vector<dwarf::die, std::allocator<dwarf::die> >*)+0x8c>
   16ccc:	87aa                	c.mv	a5,a0
   16cce:	07a1                	c.addi	a5,8
   16cd0:	672e                	c.ldsp	a4,200(sp)
   16cd2:	fee7eee3          	bltu	a5,a4,16cce <find_pc(dwarf::die const&, unsigned long, std::vector<dwarf::die, std::allocator<dwarf::die> >*)+0x84>
      p->~T();
    end = base;
   16cd6:	e5aa                	c.sdsp	a0,200(sp)
    if ((char *)base != buf)
   16cd8:	091c                	c.addi4spn	a5,sp,144
   16cda:	00f50563          	beq	a0,a5,16ce4 <find_pc(dwarf::die const&, unsigned long, std::vector<dwarf::die, std::allocator<dwarf::die> >*)+0x9a>
      delete[] (char *)base;
   16cde:	c119                	c.beqz	a0,16ce4 <find_pc(dwarf::die const&, unsigned long, std::vector<dwarf::die, std::allocator<dwarf::die> >*)+0x9a>
   16ce0:	b71ff0ef          	jal	ra,16850 <operator delete[](void*)@plt>
    for (T *p = base; p < end; ++p)
   16ce4:	6546                	c.ldsp	a0,80(sp)
   16ce6:	67e6                	c.ldsp	a5,88(sp)
   16ce8:	00f57763          	bgeu	a0,a5,16cf6 <find_pc(dwarf::die const&, unsigned long, std::vector<dwarf::die, std::allocator<dwarf::die> >*)+0xac>
   16cec:	87aa                	c.mv	a5,a0
   16cee:	07a1                	c.addi	a5,8
   16cf0:	6766                	c.ldsp	a4,88(sp)
   16cf2:	fee7eee3          	bltu	a5,a4,16cee <find_pc(dwarf::die const&, unsigned long, std::vector<dwarf::die, std::allocator<dwarf::die> >*)+0xa4>
    end = base;
   16cf6:	ecaa                	c.sdsp	a0,88(sp)
    if ((char *)base != buf)
   16cf8:	101c                	c.addi4spn	a5,sp,32
   16cfa:	00f50563          	beq	a0,a5,16d04 <find_pc(dwarf::die const&, unsigned long, std::vector<dwarf::die, std::allocator<dwarf::die> >*)+0xba>
      delete[] (char *)base;
   16cfe:	c119                	c.beqz	a0,16d04 <find_pc(dwarf::die const&, unsigned long, std::vector<dwarf::die, std::allocator<dwarf::die> >*)+0xba>
   16d00:	b51ff0ef          	jal	ra,16850 <operator delete[](void*)@plt>
  switch (d.tag) {
   16d04:	401c                	c.lw	a5,0(s0)
   16d06:	4775                	c.li	a4,29
   16d08:	02e78363          	beq	a5,a4,16d2e <find_pc(dwarf::die const&, unsigned long, std::vector<dwarf::die, std::allocator<dwarf::die> >*)+0xe4>
   16d0c:	02e00713          	addi	a4,zero,46
   16d10:	00e78f63          	beq	a5,a4,16d2e <find_pc(dwarf::die const&, unsigned long, std::vector<dwarf::die, std::allocator<dwarf::die> >*)+0xe4>
}
   16d14:	8526                	c.mv	a0,s1
   16d16:	70b2                	c.ldsp	ra,296(sp)
   16d18:	7412                	c.ldsp	s0,288(sp)
   16d1a:	64f2                	c.ldsp	s1,280(sp)
   16d1c:	6952                	c.ldsp	s2,272(sp)
   16d1e:	69b2                	c.ldsp	s3,264(sp)
   16d20:	6a12                	c.ldsp	s4,256(sp)
   16d22:	7aee                	c.ldsp	s5,248(sp)
   16d24:	7b4e                	c.ldsp	s6,240(sp)
   16d26:	7bae                	c.ldsp	s7,232(sp)
   16d28:	7c0e                	c.ldsp	s8,224(sp)
   16d2a:	6155                	c.addi16sp	sp,304
   16d2c:	8082                	c.jr	ra
      if (found || die_pc_range(d).contains(pc)) {
   16d2e:	c0ad                	c.beqz	s1,16d90 <find_pc(dwarf::die const&, unsigned long, std::vector<dwarf::die, std::allocator<dwarf::die> >*)+0x146>
       */
      _GLIBCXX20_CONSTEXPR
      void
      push_back(const value_type& __x)
      {
	if (this->_M_impl._M_finish != this->_M_impl._M_end_of_storage)
   16d30:	00893483          	ld	s1,8(s2)
   16d34:	01093783          	ld	a5,16(s2)
   16d38:	14f48a63          	beq	s1,a5,16e8c <find_pc(dwarf::die const&, unsigned long, std::vector<dwarf::die, std::allocator<dwarf::die> >*)+0x242>
  die(const die &o) = default;
   16d3c:	401c                	c.lw	a5,0(s0)
   16d3e:	c09c                	c.sw	a5,0(s1)
   16d40:	641c                	c.ld	a5,8(s0)
   16d42:	e49c                	c.sd	a5,8(s1)
   16d44:	681c                	c.ld	a5,16(s0)
   16d46:	e89c                	c.sd	a5,16(s1)
   16d48:	6c1c                	c.ld	a5,24(s0)
   16d4a:	ec9c                	c.sd	a5,24(s1)
   16d4c:	02048b93          	addi	s7,s1,32
      : base((T *)buf), end(base), cap((T *)&buf[sizeof(T[Min])]) {
   16d50:	0574b823          	sd	s7,80(s1)
   16d54:	0574bc23          	sd	s7,88(s1)
   16d58:	05048793          	addi	a5,s1,80
   16d5c:	f0bc                	c.sd	a5,96(s1)
  size_type size() const { return end - base; }
   16d5e:	05843a03          	ld	s4,88(s0)
   16d62:	6838                	c.ld	a4,80(s0)
   16d64:	40ea0a33          	sub	s4,s4,a4
   16d68:	403a5993          	srai	s3,s4,0x3
    if (n <= (size_type)(cap - base))
   16d6c:	417787b3          	sub	a5,a5,s7
   16d70:	0d47f763          	bgeu	a5,s4,16e3e <find_pc(dwarf::die const&, unsigned long, std::vector<dwarf::die, std::allocator<dwarf::die> >*)+0x1f4>
   16d74:	878d                	c.srai	a5,0x3
   16d76:	e391                	c.bnez	a5,16d7a <find_pc(dwarf::die const&, unsigned long, std::vector<dwarf::die, std::allocator<dwarf::die> >*)+0x130>
   16d78:	4785                	c.li	a5,1
    while (target < n)
   16d7a:	0137f563          	bgeu	a5,s3,16d84 <find_pc(dwarf::die const&, unsigned long, std::vector<dwarf::die, std::allocator<dwarf::die> >*)+0x13a>
      target <<= 1;
   16d7e:	0786                	c.slli	a5,0x1
    while (target < n)
   16d80:	ff37efe3          	bltu	a5,s3,16d7e <find_pc(dwarf::die const&, unsigned long, std::vector<dwarf::die, std::allocator<dwarf::die> >*)+0x134>
    char *newbuf = new char[sizeof(T[target])];
   16d84:	00379a93          	slli	s5,a5,0x3
   16d88:	8556                	c.mv	a0,s5
   16d8a:	807ff0ef          	jal	ra,16590 <operator new[](unsigned long)@plt>
   16d8e:	a041                	c.j	16e0e <find_pc(dwarf::die const&, unsigned long, std::vector<dwarf::die, std::allocator<dwarf::die> >*)+0x1c4>
   16d90:	85a2                	c.mv	a1,s0
   16d92:	1888                	c.addi4spn	a0,sp,112
   16d94:	5790f0ef          	jal	ra,26b0c <dwarf::die_pc_range(dwarf::die const&)>
   16d98:	85ce                	c.mv	a1,s3
   16d9a:	1888                	c.addi4spn	a0,sp,112
   16d9c:	1a30b0ef          	jal	ra,2273e <dwarf::rangelist::contains(unsigned long) const>
   16da0:	89aa                	c.mv	s3,a0
      explicit
      __shared_count(const __weak_count<_Lp>& __r, std::nothrow_t) noexcept;

      ~__shared_count() noexcept
      {
	if (_M_pi != nullptr)
   16da2:	64ca                	c.ldsp	s1,144(sp)
   16da4:	c899                	c.beqz	s1,16dba <find_pc(dwarf::die const&, unsigned long, std::vector<dwarf::die, std::allocator<dwarf::die> >*)+0x170>

  inline _Atomic_word
  __attribute__ ((__always_inline__))
  __exchange_and_add_dispatch(_Atomic_word* __mem, int __val)
  {
    if (__is_single_threaded())
   16da6:	e601c783          	lbu	a5,-416(gp) # 3a660 <__libc_single_threaded@GLIBC_2.32>
   16daa:	c385                	c.beqz	a5,16dca <find_pc(dwarf::die const&, unsigned long, std::vector<dwarf::die, std::allocator<dwarf::die> >*)+0x180>
    _Atomic_word __result = *__mem;
   16dac:	5888                	c.lw	a0,48(s1)
    *__mem += __val;
   16dae:	fff5079b          	addiw	a5,a0,-1
   16db2:	d89c                	c.sw	a5,48(s1)
      if (__gnu_cxx::__exchange_and_add_dispatch(&_M_use_count, -1) == 1)
   16db4:	4785                	c.li	a5,1
   16db6:	02f50063          	beq	a0,a5,16dd6 <find_pc(dwarf::die const&, unsigned long, std::vector<dwarf::die, std::allocator<dwarf::die> >*)+0x18c>
	std::_Destroy(this->_M_impl._M_start, this->_M_impl._M_finish,
   16dba:	7546                	c.ldsp	a0,112(sp)
	if (__p)
   16dbc:	c119                	c.beqz	a0,16dc2 <find_pc(dwarf::die const&, unsigned long, std::vector<dwarf::die, std::allocator<dwarf::die> >*)+0x178>
	_GLIBCXX_OPERATOR_DELETE(_GLIBCXX_SIZED_DEALLOC(__p, __n));
   16dbe:	9e3ff0ef          	jal	ra,167a0 <operator delete(void*)@plt>
      ~__new_allocator() _GLIBCXX_USE_NOEXCEPT { }
   16dc2:	84ce                	c.mv	s1,s3
   16dc4:	f40988e3          	beq	s3,zero,16d14 <find_pc(dwarf::die const&, unsigned long, std::vector<dwarf::die, std::allocator<dwarf::die> >*)+0xca>
   16dc8:	b7a5                	c.j	16d30 <find_pc(dwarf::die const&, unsigned long, std::vector<dwarf::die, std::allocator<dwarf::die> >*)+0xe6>
      return __exchange_and_add_single(__mem, __val);
    else
      return __exchange_and_add(__mem, __val);
   16dca:	55fd                	c.li	a1,-1
   16dcc:	03048513          	addi	a0,s1,48
   16dd0:	821ff0ef          	jal	ra,165f0 <__gnu_cxx::__exchange_and_add(int volatile*, int)@plt>
   16dd4:	b7c5                	c.j	16db4 <find_pc(dwarf::die const&, unsigned long, std::vector<dwarf::die, std::allocator<dwarf::die> >*)+0x16a>
	_M_dispose();
   16dd6:	609c                	c.ld	a5,0(s1)
   16dd8:	6b9c                	c.ld	a5,16(a5)
   16dda:	8526                	c.mv	a0,s1
   16ddc:	9782                	c.jalr	a5
	    __atomic_thread_fence (__ATOMIC_ACQ_REL);
   16dde:	0ff0000f          	fence	iorw,iorw
    if (__is_single_threaded())
   16de2:	e601c783          	lbu	a5,-416(gp) # 3a660 <__libc_single_threaded@GLIBC_2.32>
   16de6:	cf89                	c.beqz	a5,16e00 <find_pc(dwarf::die const&, unsigned long, std::vector<dwarf::die, std::allocator<dwarf::die> >*)+0x1b6>
    _Atomic_word __result = *__mem;
   16de8:	58dc                	c.lw	a5,52(s1)
    *__mem += __val;
   16dea:	fff7871b          	addiw	a4,a5,-1
   16dee:	d8d8                	c.sw	a4,52(s1)
	if (__gnu_cxx::__exchange_and_add_dispatch(&_M_weak_count,
   16df0:	4705                	c.li	a4,1
   16df2:	fce794e3          	bne	a5,a4,16dba <find_pc(dwarf::die const&, unsigned long, std::vector<dwarf::die, std::allocator<dwarf::die> >*)+0x170>
	    _M_destroy();
   16df6:	609c                	c.ld	a5,0(s1)
   16df8:	6f9c                	c.ld	a5,24(a5)
   16dfa:	8526                	c.mv	a0,s1
   16dfc:	9782                	c.jalr	a5
   16dfe:	bf75                	c.j	16dba <find_pc(dwarf::die const&, unsigned long, std::vector<dwarf::die, std::allocator<dwarf::die> >*)+0x170>
      return __exchange_and_add(__mem, __val);
   16e00:	55fd                	c.li	a1,-1
   16e02:	03448513          	addi	a0,s1,52
   16e06:	feaff0ef          	jal	ra,165f0 <__gnu_cxx::__exchange_and_add(int volatile*, int)@plt>
   16e0a:	87aa                	c.mv	a5,a0
   16e0c:	b7d5                	c.j	16df0 <find_pc(dwarf::die const&, unsigned long, std::vector<dwarf::die, std::allocator<dwarf::die> >*)+0x1a6>
   16e0e:	8c2a                	c.mv	s8,a0
    T *src = base, *dest = (T *)newbuf;
   16e10:	68a8                	c.ld	a0,80(s1)
    for (; src < end; src++, dest++) {
   16e12:	6cbc                	c.ld	a5,88(s1)
   16e14:	06f57a63          	bgeu	a0,a5,16e88 <find_pc(dwarf::die const&, unsigned long, std::vector<dwarf::die, std::allocator<dwarf::die> >*)+0x23e>
    T *src = base, *dest = (T *)newbuf;
   16e18:	87aa                	c.mv	a5,a0
   16e1a:	8b62                	c.mv	s6,s8
    for (; src < end; src++, dest++) {
   16e1c:	07a1                	c.addi	a5,8
   16e1e:	0b21                	c.addi	s6,8
   16e20:	6cb8                	c.ld	a4,88(s1)
   16e22:	fee7ede3          	bltu	a5,a4,16e1c <find_pc(dwarf::die const&, unsigned long, std::vector<dwarf::die, std::allocator<dwarf::die> >*)+0x1d2>
    if ((char *)base != buf)
   16e26:	00ab8563          	beq	s7,a0,16e30 <find_pc(dwarf::die const&, unsigned long, std::vector<dwarf::die, std::allocator<dwarf::die> >*)+0x1e6>
      delete[] (char *)base;
   16e2a:	c119                	c.beqz	a0,16e30 <find_pc(dwarf::die const&, unsigned long, std::vector<dwarf::die, std::allocator<dwarf::die> >*)+0x1e6>
   16e2c:	a25ff0ef          	jal	ra,16850 <operator delete[](void*)@plt>
    base = (T *)newbuf;
   16e30:	0584b823          	sd	s8,80(s1)
    end = dest;
   16e34:	0564bc23          	sd	s6,88(s1)
    cap = base + target;
   16e38:	015c0533          	add	a0,s8,s5
   16e3c:	f0a8                	c.sd	a0,96(s1)
    for (size_type i = 0; i < osize; i++)
   16e3e:	4781                	c.li	a5,0
   16e40:	00098d63          	beq	s3,zero,16e5a <find_pc(dwarf::die const&, unsigned long, std::vector<dwarf::die, std::allocator<dwarf::die> >*)+0x210>
   16e44:	00379693          	slli	a3,a5,0x3
      new (&base[i]) T(o[i]);
   16e48:	6838                	c.ld	a4,80(s0)
   16e4a:	9736                	c.add	a4,a3
   16e4c:	6310                	c.ld	a2,0(a4)
   16e4e:	68b8                	c.ld	a4,80(s1)
   16e50:	9736                	c.add	a4,a3
   16e52:	e310                	c.sd	a2,0(a4)
    for (size_type i = 0; i < osize; i++)
   16e54:	0785                	c.addi	a5,1
   16e56:	fef997e3          	bne	s3,a5,16e44 <find_pc(dwarf::die const&, unsigned long, std::vector<dwarf::die, std::allocator<dwarf::die> >*)+0x1fa>
    end = base + osize;
   16e5a:	68bc                	c.ld	a5,80(s1)
   16e5c:	97d2                	c.add	a5,s4
   16e5e:	ecbc                	c.sd	a5,88(s1)
   16e60:	743c                	c.ld	a5,104(s0)
   16e62:	f4bc                	c.sd	a5,104(s1)
	  {
	    _GLIBCXX_ASAN_ANNOTATE_GROW(1);
	    _Alloc_traits::construct(this->_M_impl, this->_M_impl._M_finish,
				     __x);
	    ++this->_M_impl._M_finish;
   16e64:	00893783          	ld	a5,8(s2)
   16e68:	07078793          	addi	a5,a5,112
   16e6c:	00f93423          	sd	a5,8(s2)
        found = true;
   16e70:	4485                	c.li	s1,1
   16e72:	b54d                	c.j	16d14 <find_pc(dwarf::die const&, unsigned long, std::vector<dwarf::die, std::allocator<dwarf::die> >*)+0xca>
      if (found || die_pc_range(d).contains(pc)) {
   16e74:	87ae                	c.mv	a5,a1
   16e76:	4485                	c.li	s1,1
    } catch (out_of_range &e) {
   16e78:	4705                	c.li	a4,1
   16e7a:	04e78863          	beq	a5,a4,16eca <find_pc(dwarf::die const&, unsigned long, std::vector<dwarf::die, std::allocator<dwarf::die> >*)+0x280>
   16e7e:	4709                	c.li	a4,2
   16e80:	04e78a63          	beq	a5,a4,16ed4 <find_pc(dwarf::die const&, unsigned long, std::vector<dwarf::die, std::allocator<dwarf::die> >*)+0x28a>
   16e84:	b0dff0ef          	jal	ra,16990 <_Unwind_Resume@plt>
    T *src = base, *dest = (T *)newbuf;
   16e88:	8b62                	c.mv	s6,s8
   16e8a:	bf71                	c.j	16e26 <find_pc(dwarf::die const&, unsigned long, std::vector<dwarf::die, std::allocator<dwarf::die> >*)+0x1dc>
	    _GLIBCXX_ASAN_ANNOTATE_GREW(1);
	  }
	else
	  _M_realloc_insert(end(), __x);
   16e8c:	8622                	c.mv	a2,s0
   16e8e:	85a6                	c.mv	a1,s1
   16e90:	854a                	c.mv	a0,s2
   16e92:	115000ef          	jal	ra,177a6 <void std::vector<dwarf::die, std::allocator<dwarf::die> >::_M_realloc_insert<dwarf::die const&>(__gnu_cxx::__normal_iterator<dwarf::die*, std::vector<dwarf::die, std::allocator<dwarf::die> > >, dwarf::die const&)>
   16e96:	a021                	c.j	16e9e <find_pc(dwarf::die const&, unsigned long, std::vector<dwarf::die, std::allocator<dwarf::die> >*)+0x254>
      if (found || die_pc_range(d).contains(pc)) {
   16e98:	87ae                	c.mv	a5,a1
   16e9a:	4485                	c.li	s1,1
   16e9c:	bff1                	c.j	16e78 <find_pc(dwarf::die const&, unsigned long, std::vector<dwarf::die, std::allocator<dwarf::die> >*)+0x22e>
        found = true;
   16e9e:	4485                	c.li	s1,1
   16ea0:	bd95                	c.j	16d14 <find_pc(dwarf::die const&, unsigned long, std::vector<dwarf::die, std::allocator<dwarf::die> >*)+0xca>
class die {
   16ea2:	842a                	c.mv	s0,a0
   16ea4:	0908                	c.addi4spn	a0,sp,144
   16ea6:	746000ef          	jal	ra,175ec <dwarf::small_vector<unsigned long, 6u>::~small_vector()>
   16eaa:	1008                	c.addi4spn	a0,sp,32
   16eac:	740000ef          	jal	ra,175ec <dwarf::small_vector<unsigned long, 6u>::~small_vector()>
   16eb0:	8522                	c.mv	a0,s0
   16eb2:	adfff0ef          	jal	ra,16990 <_Unwind_Resume@plt>
      if (found || die_pc_range(d).contains(pc)) {
   16eb6:	892a                	c.mv	s2,a0
   16eb8:	842e                	c.mv	s0,a1
   16eba:	1888                	c.addi4spn	a0,sp,112
   16ebc:	6ba000ef          	jal	ra,17576 <dwarf::rangelist::~rangelist()>
   16ec0:	854a                	c.mv	a0,s2
   16ec2:	87a2                	c.mv	a5,s0
   16ec4:	bf55                	c.j	16e78 <find_pc(dwarf::die const&, unsigned long, std::vector<dwarf::die, std::allocator<dwarf::die> >*)+0x22e>
    } catch (out_of_range &e) {
   16ec6:	87ae                	c.mv	a5,a1
   16ec8:	bf45                	c.j	16e78 <find_pc(dwarf::die const&, unsigned long, std::vector<dwarf::die, std::allocator<dwarf::die> >*)+0x22e>
   16eca:	fa6ff0ef          	jal	ra,16670 <__cxa_begin_catch@plt>
    } catch (value_type_mismatch &e) {
   16ece:	a63ff0ef          	jal	ra,16930 <__cxa_end_catch@plt>
   16ed2:	b589                	c.j	16d14 <find_pc(dwarf::die const&, unsigned long, std::vector<dwarf::die, std::allocator<dwarf::die> >*)+0xca>
   16ed4:	f9cff0ef          	jal	ra,16670 <__cxa_begin_catch@plt>
    }
   16ed8:	a59ff0ef          	jal	ra,16930 <__cxa_end_catch@plt>
  return found;
   16edc:	bd25                	c.j	16d14 <find_pc(dwarf::die const&, unsigned long, std::vector<dwarf::die, std::allocator<dwarf::die> >*)+0xca>

0000000000016ede <main>:

int main(int argc, char **argv) {
   16ede:	7125                	c.addi16sp	sp,-416
   16ee0:	ef06                	c.sdsp	ra,408(sp)
   16ee2:	eb22                	c.sdsp	s0,400(sp)
   16ee4:	e726                	c.sdsp	s1,392(sp)
   16ee6:	e34a                	c.sdsp	s2,384(sp)
   16ee8:	fece                	c.sdsp	s3,376(sp)
   16eea:	fad2                	c.sdsp	s4,368(sp)
   16eec:	f6d6                	c.sdsp	s5,360(sp)
   16eee:	f2da                	c.sdsp	s6,352(sp)
   16ef0:	eede                	c.sdsp	s7,344(sp)
   16ef2:	84ae                	c.mv	s1,a1
  if (argc != 3)
   16ef4:	478d                	c.li	a5,3
   16ef6:	00f51863          	bne	a0,a5,16f06 <main+0x28>
    usage(argv[0]);

  dwarf::taddr pc;
  try {
    pc = stoll(argv[2], nullptr, 0);
   16efa:	1230                	c.addi4spn	a2,sp,296
   16efc:	698c                	c.ld	a1,16(a1)
   16efe:	0128                	c.addi4spn	a0,sp,136
   16f00:	981ff0ef          	jal	ra,16880 <std::__cxx11::basic_string<char, std::char_traits<char>, std::allocator<char> >::basic_string(char const*, std::allocator<char> const&)@plt>
   16f04:	a021                	c.j	16f0c <main+0x2e>
    usage(argv[0]);
   16f06:	6188                	c.ld	a0,0(a1)
   16f08:	c31ff0ef          	jal	ra,16b38 <usage(char const*)>
   16f0c:	692a                	c.ldsp	s2,136(sp)
      _Ret __ret;

      _CharT* __endptr;

      struct _Save_errno {
	_Save_errno() : _M_errno(errno) { errno = 0; }
   16f0e:	b53ff0ef          	jal	ra,16a60 <__errno_location@plt>
   16f12:	842a                	c.mv	s0,a0
   16f14:	00052a03          	lw	s4,0(a0)
   16f18:	00052023          	sw	zero,0(a0)
	    return __val < _TRet(__numeric_traits<int>::__min)
	      || __val > _TRet(__numeric_traits<int>::__max);
	  }
      };

      const _TRet __tmp = __convf(__str, &__endptr, __base...);
   16f1c:	4601                	c.li	a2,0
   16f1e:	002c                	c.addi4spn	a1,sp,8
   16f20:	854a                	c.mv	a0,s2
   16f22:	feeff0ef          	jal	ra,16710 <strtoll@plt>
   16f26:	89aa                	c.mv	s3,a0

      if (__endptr == __str)
   16f28:	67a2                	c.ldsp	a5,8(sp)
   16f2a:	02f90f63          	beq	s2,a5,16f68 <main+0x8a>
	std::__throw_invalid_argument(__name);
      else if (errno == ERANGE
   16f2e:	401c                	c.lw	a5,0(s0)
	  || _Range_chk::_S_chk(__tmp, std::is_same<_Ret, int>{}))
   16f30:	02200713          	addi	a4,zero,34
   16f34:	06e78663          	beq	a5,a4,16fa0 <main+0xc2>
	~_Save_errno() { if (errno == 0) errno = _M_errno; }
   16f38:	e399                	c.bnez	a5,16f3e <main+0x60>
   16f3a:	01442023          	sw	s4,0(s0)
   16f3e:	652a                	c.ldsp	a0,136(sp)
	if (!_M_is_local())
   16f40:	093c                	c.addi4spn	a5,sp,152
   16f42:	00f50463          	beq	a0,a5,16f4a <main+0x6c>
	_GLIBCXX_OPERATOR_DELETE(_GLIBCXX_SIZED_DEALLOC(__p, __n));
   16f46:	85bff0ef          	jal	ra,167a0 <operator delete(void*)@plt>
    usage(argv[0]);
  } catch (out_of_range &e) {
    usage(argv[0]);
  }

  int fd = open(argv[1], O_RDONLY);
   16f4a:	4581                	c.li	a1,0
   16f4c:	6488                	c.ld	a0,8(s1)
   16f4e:	f92ff0ef          	jal	ra,166e0 <open@plt>
   16f52:	85aa                	c.mv	a1,a0
  if (fd < 0) {
   16f54:	04054c63          	blt	a0,zero,16fac <main+0xce>
    fprintf(stderr, "%s: %s\n", argv[1], strerror(errno));
    return 1;
  }

  elf::elf ef(elf::create_mmap_loader(fd));
   16f58:	1a08                	c.addi4spn	a0,sp,304
   16f5a:	654160ef          	jal	ra,2d5ae <elf::create_mmap_loader(int)>
   16f5e:	1a0c                	c.addi4spn	a1,sp,304
   16f60:	0a28                	c.addi4spn	a0,sp,280
   16f62:	7c7140ef          	jal	ra,2bf28 <elf::elf::elf(std::shared_ptr<elf::loader> const&)>
   16f66:	a0a5                	c.j	16fce <main+0xf0>
	std::__throw_invalid_argument(__name);
   16f68:	0002e537          	lui	a0,0x2e
   16f6c:	a2850513          	addi	a0,a0,-1496 # 2da28 <__libc_csu_fini+0x76>
   16f70:	f80ff0ef          	jal	ra,166f0 <std::__throw_invalid_argument(char const*)@plt>
	~_Save_errno() { if (errno == 0) errno = _M_errno; }
   16f74:	89aa                	c.mv	s3,a0
   16f76:	892e                	c.mv	s2,a1
   16f78:	401c                	c.lw	a5,0(s0)
   16f7a:	e399                	c.bnez	a5,16f80 <main+0xa2>
   16f7c:	01442023          	sw	s4,0(s0)
      { return _M_dataplus._M_p; }
   16f80:	652a                	c.ldsp	a0,136(sp)
	if (!_M_is_local())
   16f82:	093c                	c.addi4spn	a5,sp,152
   16f84:	00f50463          	beq	a0,a5,16f8c <main+0xae>
   16f88:	819ff0ef          	jal	ra,167a0 <operator delete(void*)@plt>
      ~__new_allocator() _GLIBCXX_USE_NOEXCEPT { }
   16f8c:	854e                	c.mv	a0,s3
   16f8e:	87ca                	c.mv	a5,s2
  } catch (invalid_argument &e) {
   16f90:	4705                	c.li	a4,1
   16f92:	22e78863          	beq	a5,a4,171c2 <main+0x2e4>
   16f96:	4709                	c.li	a4,2
   16f98:	24e78063          	beq	a5,a4,171d8 <main+0x2fa>
   16f9c:	9f5ff0ef          	jal	ra,16990 <_Unwind_Resume@plt>
	std::__throw_out_of_range(__name);
   16fa0:	0002e537          	lui	a0,0x2e
   16fa4:	a2850513          	addi	a0,a0,-1496 # 2da28 <__libc_csu_fini+0x76>
   16fa8:	909ff0ef          	jal	ra,168b0 <std::__throw_out_of_range(char const*)@plt>
    fprintf(stderr, "%s: %s\n", argv[1], strerror(errno));
   16fac:	e581b903          	ld	s2,-424(gp) # 3a658 <stderr@GLIBC_2.27>
   16fb0:	6484                	c.ld	s1,8(s1)
   16fb2:	4008                	c.lw	a0,0(s0)
   16fb4:	86dff0ef          	jal	ra,16820 <strerror@plt>
   16fb8:	86aa                	c.mv	a3,a0
   16fba:	8626                	c.mv	a2,s1
   16fbc:	0002e5b7          	lui	a1,0x2e
   16fc0:	a3058593          	addi	a1,a1,-1488 # 2da30 <__libc_csu_fini+0x7e>
   16fc4:	854a                	c.mv	a0,s2
   16fc6:	9bbff0ef          	jal	ra,16980 <fprintf@plt>
    return 1;
   16fca:	4505                	c.li	a0,1
   16fcc:	aaf1                	c.j	171a8 <main+0x2ca>
	if (_M_pi != nullptr)
   16fce:	7572                	c.ldsp	a0,312(sp)
   16fd0:	c119                	c.beqz	a0,16fd6 <main+0xf8>
	  _M_pi->_M_release();
   16fd2:	3ec000ef          	jal	ra,173be <std::_Sp_counted_base<(__gnu_cxx::_Lock_policy)1>::_M_release()>
	return static_cast<_Tp*>(_GLIBCXX_OPERATOR_NEW(__n * sizeof(_Tp)));
   16fd6:	05000513          	addi	a0,zero,80
   16fda:	fd6ff0ef          	jal	ra,167b0 <operator new(unsigned long)@plt>
   16fde:	842a                	c.mv	s0,a0
    __mutex(const __mutex&);
    __mutex& operator=(const __mutex&);

  public:
    __mutex() 
    { 
   16fe0:	00052423          	sw	zero,8(a0)
   16fe4:	00052623          	sw	zero,12(a0)
   16fe8:	00052823          	sw	zero,16(a0)
   16fec:	00052a23          	sw	zero,20(a0)
   16ff0:	00052c23          	sw	zero,24(a0)
   16ff4:	00052e23          	sw	zero,28(a0)
   16ff8:	02053023          	sd	zero,32(a0)
   16ffc:	02053423          	sd	zero,40(a0)
      : _M_use_count(1), _M_weak_count(1) { }
   17000:	4785                	c.li	a5,1
   17002:	d91c                	c.sw	a5,48(a0)
   17004:	d95c                	c.sw	a5,52(a0)
	: _M_impl(__a)
   17006:	0002e7b7          	lui	a5,0x2e
   1700a:	ca878793          	addi	a5,a5,-856 # 2dca8 <vtable for std::_Sp_counted_ptr_inplace<dwarf::elf::elf_loader<elf::elf>, std::allocator<void>, (__gnu_cxx::_Lock_policy)1>+0x10>
   1700e:	e11c                	c.sd	a5,0(a0)
      __aligned_buffer(std::nullptr_t) { }

      void*
      _M_addr() noexcept
      {
        return static_cast<void*>(&_M_storage);
   17010:	03850493          	addi	s1,a0,56

template <typename Elf> class elf_loader : public loader {
  Elf f;

public:
  elf_loader(const Elf &file) : f(file) {}
   17014:	0002e7b7          	lui	a5,0x2e
   17018:	c8078793          	addi	a5,a5,-896 # 2dc80 <vtable for dwarf::elf::elf_loader<elf::elf>+0x10>
   1701c:	fd1c                	c.sd	a5,56(a0)
	{
	  _M_refcount._M_swap(__r._M_refcount);
	  __r._M_ptr = nullptr;
	}

      __shared_ptr(const __shared_ptr&) noexcept = default;
   1701e:	67f2                	c.ldsp	a5,280(sp)
   17020:	e13c                	c.sd	a5,64(a0)
      : _M_pi(__r._M_pi)
   17022:	7512                	c.ldsp	a0,288(sp)
   17024:	e428                	c.sd	a0,72(s0)
	if (_M_pi != nullptr)
   17026:	c519                	c.beqz	a0,17034 <main+0x156>

  inline void
  __attribute__ ((__always_inline__))
  __atomic_add_dispatch(_Atomic_word* __mem, int __val)
  {
    if (__is_single_threaded())
   17028:	e601c783          	lbu	a5,-416(gp) # 3a660 <__libc_single_threaded@GLIBC_2.32>
   1702c:	cb99                	c.beqz	a5,17042 <main+0x164>
  { *__mem += __val; }
   1702e:	591c                	c.lw	a5,48(a0)
   17030:	2785                	c.addiw	a5,1
   17032:	d91c                	c.sw	a5,48(a0)
	__r._M_ptr = nullptr;
      }

      template<typename _Yp, typename = _Compatible<_Yp>>
	__shared_ptr(__shared_ptr<_Yp, _Lp>&& __r) noexcept
	: _M_ptr(__r._M_ptr), _M_refcount()
   17034:	e2a6                	c.sdsp	s1,320(sp)
	_M_pi = __tmp;
   17036:	e6a2                	c.sdsp	s0,328(sp)
  dwarf::dwarf dw(dwarf::elf::create_loader(ef));
   17038:	028c                	c.addi4spn	a1,sp,320
   1703a:	0228                	c.addi4spn	a0,sp,264
   1703c:	460010ef          	jal	ra,1849c <dwarf::dwarf::dwarf(std::shared_ptr<dwarf::loader> const&)>
   17040:	a039                	c.j	1704e <main+0x170>
      __atomic_add_single(__mem, __val);
    else
      __atomic_add(__mem, __val);
   17042:	4585                	c.li	a1,1
   17044:	03050513          	addi	a0,a0,48
   17048:	d68ff0ef          	jal	ra,165b0 <__gnu_cxx::__atomic_add(int volatile*, int)@plt>
   1704c:	b7e5                	c.j	17034 <main+0x156>
	if (_M_pi != nullptr)
   1704e:	6536                	c.ldsp	a0,328(sp)
   17050:	c119                	c.beqz	a0,17056 <main+0x178>
	  _M_pi->_M_release();
   17052:	36c000ef          	jal	ra,173be <std::_Sp_counted_base<(__gnu_cxx::_Lock_policy)1>::_M_release()>

  // Find the CU containing pc
  // XXX Use .debug_aranges
  for (auto &cu : dw.compilation_units()) {
   17056:	0228                	c.addi4spn	a0,sp,264
   17058:	1e7000ef          	jal	ra,17a3e <dwarf::dwarf::compilation_units() const>
   1705c:	6100                	c.ld	s0,0(a0)
   1705e:	00853a03          	ld	s4,8(a0)
   17062:	13440b63          	beq	s0,s4,17198 <main+0x2ba>
      if (__gnu_cxx::__exchange_and_add_dispatch(&_M_use_count, -1) == 1)
   17066:	4b85                	c.li	s7,1
   17068:	a081                	c.j	170a8 <main+0x1ca>
    if (die_pc_range(cu.root()).contains(pc)) {
   1706a:	85aa                	c.mv	a1,a0
   1706c:	0128                	c.addi4spn	a0,sp,136
   1706e:	29f0f0ef          	jal	ra,26b0c <dwarf::die_pc_range(dwarf::die const&)>
   17072:	85ce                	c.mv	a1,s3
   17074:	0128                	c.addi4spn	a0,sp,136
   17076:	6c80b0ef          	jal	ra,2273e <dwarf::rangelist::contains(unsigned long) const>
   1707a:	84aa                	c.mv	s1,a0
	if (_M_pi != nullptr)
   1707c:	792a                	c.ldsp	s2,168(sp)
   1707e:	00090d63          	beq	s2,zero,17098 <main+0x1ba>
    if (__is_single_threaded())
   17082:	e601c783          	lbu	a5,-416(gp) # 3a660 <__libc_single_threaded@GLIBC_2.32>
   17086:	c795                	c.beqz	a5,170b2 <main+0x1d4>
    _Atomic_word __result = *__mem;
   17088:	03092503          	lw	a0,48(s2)
    *__mem += __val;
   1708c:	fff5079b          	addiw	a5,a0,-1
   17090:	02f92823          	sw	a5,48(s2)
      if (__gnu_cxx::__exchange_and_add_dispatch(&_M_use_count, -1) == 1)
   17094:	03750563          	beq	a0,s7,170be <main+0x1e0>
	std::_Destroy(this->_M_impl._M_start, this->_M_impl._M_finish,
   17098:	652a                	c.ldsp	a0,136(sp)
	if (__p)
   1709a:	c119                	c.beqz	a0,170a0 <main+0x1c2>
	_GLIBCXX_OPERATOR_DELETE(_GLIBCXX_SIZED_DEALLOC(__p, __n));
   1709c:	f04ff0ef          	jal	ra,167a0 <operator delete(void*)@plt>
   170a0:	eca9                	c.bnez	s1,170fa <main+0x21c>
  for (auto &cu : dw.compilation_units()) {
   170a2:	0461                	c.addi	s0,24
   170a4:	0e8a0a63          	beq	s4,s0,17198 <main+0x2ba>
   170a8:	8aa2                	c.mv	s5,s0
    if (die_pc_range(cu.root()).contains(pc)) {
   170aa:	8522                	c.mv	a0,s0
   170ac:	159020ef          	jal	ra,19a04 <dwarf::unit::root() const>
   170b0:	bf6d                	c.j	1706a <main+0x18c>
      return __exchange_and_add(__mem, __val);
   170b2:	55fd                	c.li	a1,-1
   170b4:	03090513          	addi	a0,s2,48
   170b8:	d38ff0ef          	jal	ra,165f0 <__gnu_cxx::__exchange_and_add(int volatile*, int)@plt>
   170bc:	bfe1                	c.j	17094 <main+0x1b6>
	_M_dispose();
   170be:	00093783          	ld	a5,0(s2)
   170c2:	6b9c                	c.ld	a5,16(a5)
   170c4:	854a                	c.mv	a0,s2
   170c6:	9782                	c.jalr	a5
	    __atomic_thread_fence (__ATOMIC_ACQ_REL);
   170c8:	0ff0000f          	fence	iorw,iorw
    if (__is_single_threaded())
   170cc:	e601c783          	lbu	a5,-416(gp) # 3a660 <__libc_single_threaded@GLIBC_2.32>
   170d0:	cf99                	c.beqz	a5,170ee <main+0x210>
    _Atomic_word __result = *__mem;
   170d2:	03492503          	lw	a0,52(s2)
    *__mem += __val;
   170d6:	fff5079b          	addiw	a5,a0,-1
   170da:	02f92a23          	sw	a5,52(s2)
	if (__gnu_cxx::__exchange_and_add_dispatch(&_M_weak_count,
   170de:	fb751de3          	bne	a0,s7,17098 <main+0x1ba>
	    _M_destroy();
   170e2:	00093783          	ld	a5,0(s2)
   170e6:	6f9c                	c.ld	a5,24(a5)
   170e8:	854a                	c.mv	a0,s2
   170ea:	9782                	c.jalr	a5
   170ec:	b775                	c.j	17098 <main+0x1ba>
      return __exchange_and_add(__mem, __val);
   170ee:	55fd                	c.li	a1,-1
   170f0:	03490513          	addi	a0,s2,52
   170f4:	cfcff0ef          	jal	ra,165f0 <__gnu_cxx::__exchange_and_add(int volatile*, int)@plt>
   170f8:	b7dd                	c.j	170de <main+0x200>
      // Map PC to a line
      auto &lt = cu.get_line_table();
   170fa:	8556                	c.mv	a0,s5
   170fc:	23d020ef          	jal	ra,19b38 <dwarf::compilation_unit::get_line_table() const>
   17100:	842a                	c.mv	s0,a0
      auto it = lt.find_address(pc);
   17102:	864e                	c.mv	a2,s3
   17104:	85aa                	c.mv	a1,a0
   17106:	0028                	c.addi4spn	a0,sp,8
   17108:	7480d0ef          	jal	ra,24850 <dwarf::line_table::find_address(unsigned long) const>
      if (it == lt.end())
   1710c:	85a2                	c.mv	a1,s0
   1710e:	0128                	c.addi4spn	a0,sp,136
   17110:	7140d0ef          	jal	ra,24824 <dwarf::line_table::end() const>
    return o.pos == pos && o.table == table;
   17114:	670a                	c.ldsp	a4,128(sp)
   17116:	6792                	c.ldsp	a5,256(sp)
   17118:	00f70763          	beq	a4,a5,17126 <main+0x248>
        printf("UNKNOWN\n");
      else
        printf("%s\n", it->get_description().c_str());
   1711c:	080c                	c.addi4spn	a1,sp,16
   1711e:	0128                	c.addi4spn	a0,sp,136
   17120:	4910b0ef          	jal	ra,22db0 <dwarf::line_table::entry::get_description[abi:cxx11]() const>
   17124:	a821                	c.j	1713c <main+0x25e>
   17126:	672a                	c.ldsp	a4,136(sp)
   17128:	67a2                	c.ldsp	a5,8(sp)
   1712a:	fef719e3          	bne	a4,a5,1711c <main+0x23e>
        printf("UNKNOWN\n");
   1712e:	0002e537          	lui	a0,0x2e
   17132:	a3850513          	addi	a0,a0,-1480 # 2da38 <__libc_csu_fini+0x86>
   17136:	e2aff0ef          	jal	ra,16760 <puts@plt>
   1713a:	a811                	c.j	1714e <main+0x270>
        printf("%s\n", it->get_description().c_str());
   1713c:	652a                	c.ldsp	a0,136(sp)
   1713e:	e22ff0ef          	jal	ra,16760 <puts@plt>
      { return _M_dataplus._M_p; }
   17142:	652a                	c.ldsp	a0,136(sp)
	if (!_M_is_local())
   17144:	093c                	c.addi4spn	a5,sp,152
   17146:	00f50463          	beq	a0,a5,1714e <main+0x270>
   1714a:	e56ff0ef          	jal	ra,167a0 <operator delete(void*)@plt>
	: _M_start(), _M_finish(), _M_end_of_storage()
   1714e:	e502                	c.sdsp	zero,136(sp)
   17150:	e902                	c.sdsp	zero,144(sp)
   17152:	ed02                	c.sdsp	zero,152(sp)

      // Map PC to an object
      // XXX Index/helper/something for looking up PCs
      // XXX DW_AT_specification and DW_AT_abstract_origin
      vector<dwarf::die> stack;
      if (find_pc(cu.root(), pc, &stack)) {
   17154:	8556                	c.mv	a0,s5
   17156:	0af020ef          	jal	ra,19a04 <dwarf::unit::root() const>
   1715a:	0130                	c.addi4spn	a2,sp,136
   1715c:	85ce                	c.mv	a1,s3
   1715e:	aedff0ef          	jal	ra,16c4a <find_pc(dwarf::die const&, unsigned long, std::vector<dwarf::die, std::allocator<dwarf::die> >*)>
   17162:	c905                	c.beqz	a0,17192 <main+0x2b4>
   17164:	642a                	c.ldsp	s0,136(sp)
   17166:	694a                	c.ldsp	s2,144(sp)
        bool first = true;
        for (auto &d : stack) {
   17168:	02890563          	beq	s2,s0,17192 <main+0x2b4>
          if (!first)
            printf("\nInlined in:\n");
   1716c:	0002ea37          	lui	s4,0x2e
          first = false;
   17170:	4981                	c.li	s3,0
   17172:	a809                	c.j	17184 <main+0x2a6>
          dump_die(d);
   17174:	8526                	c.mv	a0,s1
   17176:	9dfff0ef          	jal	ra,16b54 <dump_die(dwarf::die const&)>
        for (auto &d : stack) {
   1717a:	07040413          	addi	s0,s0,112
          first = false;
   1717e:	854e                	c.mv	a0,s3
        for (auto &d : stack) {
   17180:	00890963          	beq	s2,s0,17192 <main+0x2b4>
   17184:	84a2                	c.mv	s1,s0
          if (!first)
   17186:	f57d                	c.bnez	a0,17174 <main+0x296>
            printf("\nInlined in:\n");
   17188:	a40a0513          	addi	a0,s4,-1472 # 2da40 <__libc_csu_fini+0x8e>
   1718c:	dd4ff0ef          	jal	ra,16760 <puts@plt>
   17190:	b7d5                	c.j	17174 <main+0x296>
        }
      }
      break;
    }
   17192:	0128                	c.addi4spn	a0,sp,136
   17194:	484000ef          	jal	ra,17618 <std::vector<dwarf::die, std::allocator<dwarf::die> >::~vector()>
  }

  return 0;
}
   17198:	0228                	c.addi4spn	a0,sp,264
   1719a:	02d000ef          	jal	ra,179c6 <dwarf::dwarf::~dwarf()>
	if (_M_pi != nullptr)
   1719e:	7512                	c.ldsp	a0,288(sp)
   171a0:	c119                	c.beqz	a0,171a6 <main+0x2c8>
	  _M_pi->_M_release();
   171a2:	21c000ef          	jal	ra,173be <std::_Sp_counted_base<(__gnu_cxx::_Lock_policy)1>::_M_release()>
  return 0;
   171a6:	4501                	c.li	a0,0
}
   171a8:	60fa                	c.ldsp	ra,408(sp)
   171aa:	645a                	c.ldsp	s0,400(sp)
   171ac:	64ba                	c.ldsp	s1,392(sp)
   171ae:	691a                	c.ldsp	s2,384(sp)
   171b0:	79f6                	c.ldsp	s3,376(sp)
   171b2:	7a56                	c.ldsp	s4,368(sp)
   171b4:	7ab6                	c.ldsp	s5,360(sp)
   171b6:	7b16                	c.ldsp	s6,352(sp)
   171b8:	6bf6                	c.ldsp	s7,344(sp)
   171ba:	611d                	c.addi16sp	sp,416
   171bc:	8082                	c.jr	ra
  } catch (invalid_argument &e) {
   171be:	87ae                	c.mv	a5,a1
   171c0:	bbc1                	c.j	16f90 <main+0xb2>
   171c2:	caeff0ef          	jal	ra,16670 <__cxa_begin_catch@plt>
    usage(argv[0]);
   171c6:	6088                	c.ld	a0,0(s1)
   171c8:	971ff0ef          	jal	ra,16b38 <usage(char const*)>
  } catch (out_of_range &e) {
   171cc:	842a                	c.mv	s0,a0
   171ce:	f62ff0ef          	jal	ra,16930 <__cxa_end_catch@plt>
   171d2:	8522                	c.mv	a0,s0
   171d4:	fbcff0ef          	jal	ra,16990 <_Unwind_Resume@plt>
   171d8:	c98ff0ef          	jal	ra,16670 <__cxa_begin_catch@plt>
    usage(argv[0]);
   171dc:	6088                	c.ld	a0,0(s1)
   171de:	95bff0ef          	jal	ra,16b38 <usage(char const*)>
  }
   171e2:	842a                	c.mv	s0,a0
   171e4:	f4cff0ef          	jal	ra,16930 <__cxa_end_catch@plt>
   171e8:	8522                	c.mv	a0,s0
   171ea:	fa6ff0ef          	jal	ra,16990 <_Unwind_Resume@plt>
	if (_M_pi != nullptr)
   171ee:	842a                	c.mv	s0,a0
   171f0:	7572                	c.ldsp	a0,312(sp)
   171f2:	c119                	c.beqz	a0,171f8 <main+0x31a>
	  _M_pi->_M_release();
   171f4:	1ca000ef          	jal	ra,173be <std::_Sp_counted_base<(__gnu_cxx::_Lock_policy)1>::_M_release()>
   171f8:	8522                	c.mv	a0,s0
   171fa:	f96ff0ef          	jal	ra,16990 <_Unwind_Resume@plt>
	if (_M_pi != nullptr)
   171fe:	842a                	c.mv	s0,a0
   17200:	6536                	c.ldsp	a0,328(sp)
   17202:	c119                	c.beqz	a0,17208 <main+0x32a>
	  _M_pi->_M_release();
   17204:	1ba000ef          	jal	ra,173be <std::_Sp_counted_base<(__gnu_cxx::_Lock_policy)1>::_M_release()>
	if (_M_pi != nullptr)
   17208:	7512                	c.ldsp	a0,288(sp)
   1720a:	c119                	c.beqz	a0,17210 <main+0x332>
	  _M_pi->_M_release();
   1720c:	1b2000ef          	jal	ra,173be <std::_Sp_counted_base<(__gnu_cxx::_Lock_policy)1>::_M_release()>
   17210:	8522                	c.mv	a0,s0
   17212:	f7eff0ef          	jal	ra,16990 <_Unwind_Resume@plt>
    if (die_pc_range(cu.root()).contains(pc)) {
   17216:	842a                	c.mv	s0,a0
   17218:	0128                	c.addi4spn	a0,sp,136
   1721a:	35c000ef          	jal	ra,17576 <dwarf::rangelist::~rangelist()>
}
   1721e:	0228                	c.addi4spn	a0,sp,264
   17220:	7a6000ef          	jal	ra,179c6 <dwarf::dwarf::~dwarf()>
   17224:	b7d5                	c.j	17208 <main+0x32a>
      { return _M_dataplus._M_p; }
   17226:	842a                	c.mv	s0,a0
   17228:	652a                	c.ldsp	a0,136(sp)
	if (!_M_is_local())
   1722a:	093c                	c.addi4spn	a5,sp,152
   1722c:	fef509e3          	beq	a0,a5,1721e <main+0x340>
   17230:	d70ff0ef          	jal	ra,167a0 <operator delete(void*)@plt>
      }

      _GLIBCXX20_CONSTEXPR
      void
      _M_destroy(size_type __size) throw()
      { _Alloc_traits::deallocate(_M_get_allocator(), _M_data(), __size + 1); }
   17234:	b7ed                	c.j	1721e <main+0x340>
    }
   17236:	842a                	c.mv	s0,a0
   17238:	0128                	c.addi4spn	a0,sp,136
   1723a:	3de000ef          	jal	ra,17618 <std::vector<dwarf::die, std::allocator<dwarf::die> >::~vector()>
   1723e:	b7c5                	c.j	1721e <main+0x340>
}
   17240:	842a                	c.mv	s0,a0
   17242:	bff1                	c.j	1721e <main+0x340>
	if (_M_pi != nullptr)
   17244:	842a                	c.mv	s0,a0
   17246:	b7c9                	c.j	17208 <main+0x32a>

0000000000017248 <std::_Sp_counted_ptr_inplace<dwarf::elf::elf_loader<elf::elf>, std::allocator<void>, (__gnu_cxx::_Lock_policy)1>::~_Sp_counted_ptr_inplace()>:
      ~_Sp_counted_ptr_inplace() noexcept { }
   17248:	8082                	c.jr	ra

000000000001724a <std::_Sp_counted_ptr_inplace<dwarf::elf::elf_loader<elf::elf>, std::allocator<void>, (__gnu_cxx::_Lock_policy)1>::_M_dispose()>:
      _M_dispose() noexcept
   1724a:	1141                	c.addi	sp,-16
   1724c:	e406                	c.sdsp	ra,8(sp)
    _Destroy(_Tp* __pointer)
    {
#if __cplusplus > 201703L
      std::destroy_at(__pointer);
#else
      __pointer->~_Tp();
   1724e:	7d1c                	c.ld	a5,56(a0)
   17250:	639c                	c.ld	a5,0(a5)
   17252:	03850513          	addi	a0,a0,56
   17256:	9782                	c.jalr	a5
      }
   17258:	60a2                	c.ldsp	ra,8(sp)
   1725a:	0141                	c.addi	sp,16
   1725c:	8082                	c.jr	ra

000000000001725e <std::_Sp_counted_ptr_inplace<dwarf::elf::elf_loader<elf::elf>, std::allocator<void>, (__gnu_cxx::_Lock_policy)1>::~_Sp_counted_ptr_inplace()>:
      ~_Sp_counted_ptr_inplace() noexcept { }
   1725e:	1141                	c.addi	sp,-16
   17260:	e406                	c.sdsp	ra,8(sp)
   17262:	d3eff0ef          	jal	ra,167a0 <operator delete(void*)@plt>
   17266:	60a2                	c.ldsp	ra,8(sp)
   17268:	0141                	c.addi	sp,16
   1726a:	8082                	c.jr	ra

000000000001726c <std::_Sp_counted_ptr_inplace<dwarf::elf::elf_loader<elf::elf>, std::allocator<void>, (__gnu_cxx::_Lock_policy)1>::_M_destroy()>:
      _M_destroy() noexcept
   1726c:	1141                	c.addi	sp,-16
   1726e:	e406                	c.sdsp	ra,8(sp)
   17270:	d30ff0ef          	jal	ra,167a0 <operator delete(void*)@plt>
      }
   17274:	60a2                	c.ldsp	ra,8(sp)
   17276:	0141                	c.addi	sp,16
   17278:	8082                	c.jr	ra

000000000001727a <std::_Sp_counted_ptr_inplace<dwarf::elf::elf_loader<elf::elf>, std::allocator<void>, (__gnu_cxx::_Lock_policy)1>::_M_get_deleter(std::type_info const&)>:
      _M_get_deleter(const std::type_info& __ti) noexcept override
   1727a:	1141                	c.addi	sp,-16
   1727c:	e406                	c.sdsp	ra,8(sp)
   1727e:	e022                	c.sdsp	s0,0(sp)
   17280:	03850413          	addi	s0,a0,56
	    ||
   17284:	0002e7b7          	lui	a5,0x2e
   17288:	cd078793          	addi	a5,a5,-816 # 2dcd0 <std::_Sp_make_shared_tag::_S_ti()::__tag>
   1728c:	02f58a63          	beq	a1,a5,172c0 <std::_Sp_counted_ptr_inplace<dwarf::elf::elf_loader<elf::elf>, std::allocator<void>, (__gnu_cxx::_Lock_policy)1>::_M_get_deleter(std::type_info const&)+0x46>
  type_info::operator==(const type_info& __arg) const _GLIBCXX_NOEXCEPT
  {
    if (std::__is_constant_evaluated())
      return this == &__arg;

    if (__name == __arg.__name)
   17290:	6588                	c.ld	a0,8(a1)
   17292:	0002e7b7          	lui	a5,0x2e
   17296:	ae078793          	addi	a5,a5,-1312 # 2dae0 <typeinfo name for std::_Sp_make_shared_tag>
   1729a:	02f50363          	beq	a0,a5,172c0 <std::_Sp_counted_ptr_inplace<dwarf::elf::elf_loader<elf::elf>, std::allocator<void>, (__gnu_cxx::_Lock_policy)1>::_M_get_deleter(std::type_info const&)+0x46>
#if !__GXX_TYPEINFO_EQUALITY_INLINE
    // ABI requires comparisons to be non-inline.
    return __equal(__arg);
#elif !__GXX_MERGED_TYPEINFO_NAMES
    // Need to do string comparison.
    return __name[0] != '*' && __builtin_strcmp (__name, __arg.name()) == 0;
   1729e:	00054703          	lbu	a4,0(a0)
   172a2:	02a00793          	addi	a5,zero,42
   172a6:	02f70263          	beq	a4,a5,172ca <std::_Sp_counted_ptr_inplace<dwarf::elf::elf_loader<elf::elf>, std::allocator<void>, (__gnu_cxx::_Lock_policy)1>::_M_get_deleter(std::type_info const&)+0x50>
   172aa:	0002e5b7          	lui	a1,0x2e
   172ae:	ae058593          	addi	a1,a1,-1312 # 2dae0 <typeinfo name for std::_Sp_make_shared_tag>
   172b2:	b1eff0ef          	jal	ra,165d0 <strcmp@plt>
	return nullptr;
   172b6:	00153513          	sltiu	a0,a0,1
   172ba:	40a00533          	sub	a0,zero,a0
   172be:	8c69                	c.and	s0,a0
      }
   172c0:	8522                	c.mv	a0,s0
   172c2:	60a2                	c.ldsp	ra,8(sp)
   172c4:	6402                	c.ldsp	s0,0(sp)
   172c6:	0141                	c.addi	sp,16
   172c8:	8082                	c.jr	ra
	return nullptr;
   172ca:	4401                	c.li	s0,0
   172cc:	bfd5                	c.j	172c0 <std::_Sp_counted_ptr_inplace<dwarf::elf::elf_loader<elf::elf>, std::allocator<void>, (__gnu_cxx::_Lock_policy)1>::_M_get_deleter(std::type_info const&)+0x46>

00000000000172ce <dwarf::elf::elf_loader<elf::elf>::~elf_loader()>:
template <typename Elf> class elf_loader : public loader {
   172ce:	1141                	c.addi	sp,-16
   172d0:	e406                	c.sdsp	ra,8(sp)
   172d2:	e022                	c.sdsp	s0,0(sp)
   172d4:	0002e7b7          	lui	a5,0x2e
   172d8:	c8078793          	addi	a5,a5,-896 # 2dc80 <vtable for dwarf::elf::elf_loader<elf::elf>+0x10>
   172dc:	e11c                	c.sd	a5,0(a0)
	if (_M_pi != nullptr)
   172de:	6900                	c.ld	s0,16(a0)
   172e0:	c819                	c.beqz	s0,172f6 <dwarf::elf::elf_loader<elf::elf>::~elf_loader()+0x28>
    if (__is_single_threaded())
   172e2:	e601c783          	lbu	a5,-416(gp) # 3a660 <__libc_single_threaded@GLIBC_2.32>
   172e6:	cf81                	c.beqz	a5,172fe <dwarf::elf::elf_loader<elf::elf>::~elf_loader()+0x30>
    _Atomic_word __result = *__mem;
   172e8:	5808                	c.lw	a0,48(s0)
    *__mem += __val;
   172ea:	fff5079b          	addiw	a5,a0,-1
   172ee:	d81c                	c.sw	a5,48(s0)
      if (__gnu_cxx::__exchange_and_add_dispatch(&_M_use_count, -1) == 1)
   172f0:	4785                	c.li	a5,1
   172f2:	00f50c63          	beq	a0,a5,1730a <dwarf::elf::elf_loader<elf::elf>::~elf_loader()+0x3c>
   172f6:	60a2                	c.ldsp	ra,8(sp)
   172f8:	6402                	c.ldsp	s0,0(sp)
   172fa:	0141                	c.addi	sp,16
   172fc:	8082                	c.jr	ra
      return __exchange_and_add(__mem, __val);
   172fe:	55fd                	c.li	a1,-1
   17300:	03040513          	addi	a0,s0,48
   17304:	aecff0ef          	jal	ra,165f0 <__gnu_cxx::__exchange_and_add(int volatile*, int)@plt>
   17308:	b7e5                	c.j	172f0 <dwarf::elf::elf_loader<elf::elf>::~elf_loader()+0x22>
	_M_dispose();
   1730a:	601c                	c.ld	a5,0(s0)
   1730c:	6b9c                	c.ld	a5,16(a5)
   1730e:	8522                	c.mv	a0,s0
   17310:	9782                	c.jalr	a5
	    __atomic_thread_fence (__ATOMIC_ACQ_REL);
   17312:	0ff0000f          	fence	iorw,iorw
    if (__is_single_threaded())
   17316:	e601c783          	lbu	a5,-416(gp) # 3a660 <__libc_single_threaded@GLIBC_2.32>
   1731a:	cf89                	c.beqz	a5,17334 <dwarf::elf::elf_loader<elf::elf>::~elf_loader()+0x66>
    _Atomic_word __result = *__mem;
   1731c:	5848                	c.lw	a0,52(s0)
    *__mem += __val;
   1731e:	fff5079b          	addiw	a5,a0,-1
   17322:	d85c                	c.sw	a5,52(s0)
	if (__gnu_cxx::__exchange_and_add_dispatch(&_M_weak_count,
   17324:	4785                	c.li	a5,1
   17326:	fcf518e3          	bne	a0,a5,172f6 <dwarf::elf::elf_loader<elf::elf>::~elf_loader()+0x28>
	    _M_destroy();
   1732a:	601c                	c.ld	a5,0(s0)
   1732c:	6f9c                	c.ld	a5,24(a5)
   1732e:	8522                	c.mv	a0,s0
   17330:	9782                	c.jalr	a5
   17332:	b7d1                	c.j	172f6 <dwarf::elf::elf_loader<elf::elf>::~elf_loader()+0x28>
      return __exchange_and_add(__mem, __val);
   17334:	55fd                	c.li	a1,-1
   17336:	03440513          	addi	a0,s0,52
   1733a:	ab6ff0ef          	jal	ra,165f0 <__gnu_cxx::__exchange_and_add(int volatile*, int)@plt>
   1733e:	b7dd                	c.j	17324 <dwarf::elf::elf_loader<elf::elf>::~elf_loader()+0x56>

0000000000017340 <dwarf::elf::elf_loader<elf::elf>::~elf_loader()>:
   17340:	1101                	c.addi	sp,-32
   17342:	ec06                	c.sdsp	ra,24(sp)
   17344:	e822                	c.sdsp	s0,16(sp)
   17346:	e426                	c.sdsp	s1,8(sp)
   17348:	842a                	c.mv	s0,a0
   1734a:	0002e7b7          	lui	a5,0x2e
   1734e:	c8078793          	addi	a5,a5,-896 # 2dc80 <vtable for dwarf::elf::elf_loader<elf::elf>+0x10>
   17352:	e11c                	c.sd	a5,0(a0)
	if (_M_pi != nullptr)
   17354:	6904                	c.ld	s1,16(a0)
   17356:	c899                	c.beqz	s1,1736c <dwarf::elf::elf_loader<elf::elf>::~elf_loader()+0x2c>
    if (__is_single_threaded())
   17358:	e601c783          	lbu	a5,-416(gp) # 3a660 <__libc_single_threaded@GLIBC_2.32>
   1735c:	c385                	c.beqz	a5,1737c <dwarf::elf::elf_loader<elf::elf>::~elf_loader()+0x3c>
    _Atomic_word __result = *__mem;
   1735e:	5888                	c.lw	a0,48(s1)
    *__mem += __val;
   17360:	fff5079b          	addiw	a5,a0,-1
   17364:	d89c                	c.sw	a5,48(s1)
      if (__gnu_cxx::__exchange_and_add_dispatch(&_M_use_count, -1) == 1)
   17366:	4785                	c.li	a5,1
   17368:	02f50063          	beq	a0,a5,17388 <dwarf::elf::elf_loader<elf::elf>::~elf_loader()+0x48>
   1736c:	8522                	c.mv	a0,s0
   1736e:	c32ff0ef          	jal	ra,167a0 <operator delete(void*)@plt>
   17372:	60e2                	c.ldsp	ra,24(sp)
   17374:	6442                	c.ldsp	s0,16(sp)
   17376:	64a2                	c.ldsp	s1,8(sp)
   17378:	6105                	c.addi16sp	sp,32
   1737a:	8082                	c.jr	ra
      return __exchange_and_add(__mem, __val);
   1737c:	55fd                	c.li	a1,-1
   1737e:	03048513          	addi	a0,s1,48
   17382:	a6eff0ef          	jal	ra,165f0 <__gnu_cxx::__exchange_and_add(int volatile*, int)@plt>
   17386:	b7c5                	c.j	17366 <dwarf::elf::elf_loader<elf::elf>::~elf_loader()+0x26>
	_M_dispose();
   17388:	609c                	c.ld	a5,0(s1)
   1738a:	6b9c                	c.ld	a5,16(a5)
   1738c:	8526                	c.mv	a0,s1
   1738e:	9782                	c.jalr	a5
	    __atomic_thread_fence (__ATOMIC_ACQ_REL);
   17390:	0ff0000f          	fence	iorw,iorw
    if (__is_single_threaded())
   17394:	e601c783          	lbu	a5,-416(gp) # 3a660 <__libc_single_threaded@GLIBC_2.32>
   17398:	cf89                	c.beqz	a5,173b2 <dwarf::elf::elf_loader<elf::elf>::~elf_loader()+0x72>
    _Atomic_word __result = *__mem;
   1739a:	58c8                	c.lw	a0,52(s1)
    *__mem += __val;
   1739c:	fff5079b          	addiw	a5,a0,-1
   173a0:	d8dc                	c.sw	a5,52(s1)
	if (__gnu_cxx::__exchange_and_add_dispatch(&_M_weak_count,
   173a2:	4785                	c.li	a5,1
   173a4:	fcf514e3          	bne	a0,a5,1736c <dwarf::elf::elf_loader<elf::elf>::~elf_loader()+0x2c>
	    _M_destroy();
   173a8:	609c                	c.ld	a5,0(s1)
   173aa:	6f9c                	c.ld	a5,24(a5)
   173ac:	8526                	c.mv	a0,s1
   173ae:	9782                	c.jalr	a5
   173b0:	bf75                	c.j	1736c <dwarf::elf::elf_loader<elf::elf>::~elf_loader()+0x2c>
      return __exchange_and_add(__mem, __val);
   173b2:	55fd                	c.li	a1,-1
   173b4:	03448513          	addi	a0,s1,52
   173b8:	a38ff0ef          	jal	ra,165f0 <__gnu_cxx::__exchange_and_add(int volatile*, int)@plt>
   173bc:	b7dd                	c.j	173a2 <dwarf::elf::elf_loader<elf::elf>::~elf_loader()+0x62>

00000000000173be <std::_Sp_counted_base<(__gnu_cxx::_Lock_policy)1>::_M_release()>:
    {
   173be:	1141                	c.addi	sp,-16
   173c0:	e406                	c.sdsp	ra,8(sp)
   173c2:	e022                	c.sdsp	s0,0(sp)
   173c4:	842a                	c.mv	s0,a0
    if (__is_single_threaded())
   173c6:	e601c783          	lbu	a5,-416(gp) # 3a660 <__libc_single_threaded@GLIBC_2.32>
   173ca:	cf81                	c.beqz	a5,173e2 <std::_Sp_counted_base<(__gnu_cxx::_Lock_policy)1>::_M_release()+0x24>
    _Atomic_word __result = *__mem;
   173cc:	5908                	c.lw	a0,48(a0)
    *__mem += __val;
   173ce:	fff5079b          	addiw	a5,a0,-1
   173d2:	d81c                	c.sw	a5,48(s0)
      if (__gnu_cxx::__exchange_and_add_dispatch(&_M_use_count, -1) == 1)
   173d4:	4785                	c.li	a5,1
   173d6:	00f50c63          	beq	a0,a5,173ee <std::_Sp_counted_base<(__gnu_cxx::_Lock_policy)1>::_M_release()+0x30>
    }
   173da:	60a2                	c.ldsp	ra,8(sp)
   173dc:	6402                	c.ldsp	s0,0(sp)
   173de:	0141                	c.addi	sp,16
   173e0:	8082                	c.jr	ra
      return __exchange_and_add(__mem, __val);
   173e2:	55fd                	c.li	a1,-1
   173e4:	03050513          	addi	a0,a0,48
   173e8:	a08ff0ef          	jal	ra,165f0 <__gnu_cxx::__exchange_and_add(int volatile*, int)@plt>
   173ec:	b7e5                	c.j	173d4 <std::_Sp_counted_base<(__gnu_cxx::_Lock_policy)1>::_M_release()+0x16>
	_M_dispose();
   173ee:	601c                	c.ld	a5,0(s0)
   173f0:	6b9c                	c.ld	a5,16(a5)
   173f2:	8522                	c.mv	a0,s0
   173f4:	9782                	c.jalr	a5
	    __atomic_thread_fence (__ATOMIC_ACQ_REL);
   173f6:	0ff0000f          	fence	iorw,iorw
    if (__is_single_threaded())
   173fa:	e601c783          	lbu	a5,-416(gp) # 3a660 <__libc_single_threaded@GLIBC_2.32>
   173fe:	cf89                	c.beqz	a5,17418 <std::_Sp_counted_base<(__gnu_cxx::_Lock_policy)1>::_M_release()+0x5a>
    _Atomic_word __result = *__mem;
   17400:	5848                	c.lw	a0,52(s0)
    *__mem += __val;
   17402:	fff5079b          	addiw	a5,a0,-1
   17406:	d85c                	c.sw	a5,52(s0)
	if (__gnu_cxx::__exchange_and_add_dispatch(&_M_weak_count,
   17408:	4785                	c.li	a5,1
   1740a:	fcf518e3          	bne	a0,a5,173da <std::_Sp_counted_base<(__gnu_cxx::_Lock_policy)1>::_M_release()+0x1c>
	    _M_destroy();
   1740e:	601c                	c.ld	a5,0(s0)
   17410:	6f9c                	c.ld	a5,24(a5)
   17412:	8522                	c.mv	a0,s0
   17414:	9782                	c.jalr	a5
    }
   17416:	b7d1                	c.j	173da <std::_Sp_counted_base<(__gnu_cxx::_Lock_policy)1>::_M_release()+0x1c>
      return __exchange_and_add(__mem, __val);
   17418:	55fd                	c.li	a1,-1
   1741a:	03440513          	addi	a0,s0,52
   1741e:	9d2ff0ef          	jal	ra,165f0 <__gnu_cxx::__exchange_and_add(int volatile*, int)@plt>
   17422:	b7dd                	c.j	17408 <std::_Sp_counted_base<(__gnu_cxx::_Lock_policy)1>::_M_release()+0x4a>

0000000000017424 <dwarf::elf::elf_loader<elf::elf>::load(dwarf::section_type, unsigned long*)>:

  const void *load(section_type section, size_t *size_out) {
   17424:	7159                	c.addi16sp	sp,-112
   17426:	f486                	c.sdsp	ra,104(sp)
   17428:	f0a2                	c.sdsp	s0,96(sp)
   1742a:	eca6                	c.sdsp	s1,88(sp)
   1742c:	e8ca                	c.sdsp	s2,80(sp)
   1742e:	e4ce                	c.sdsp	s3,72(sp)
   17430:	8932                	c.mv	s2,a2
    auto sec = f.get_section(section_type_to_name(section));
   17432:	00850993          	addi	s3,a0,8
   17436:	852e                	c.mv	a0,a1
   17438:	7840f0ef          	jal	ra,26bbc <dwarf::elf::section_type_to_name(dwarf::section_type)>
	: allocator_type(__a), _M_p(__dat) { }
   1743c:	101c                	c.addi4spn	a5,sp,32
   1743e:	e83e                	c.sdsp	a5,16(sp)
      _GLIBCXX20_CONSTEXPR
      basic_string(const _CharT* __s, const _Alloc& __a = _Alloc())
      : _M_dataplus(_M_local_data(), __a)
      {
	// NB: Not required, but considered best practice.
	if (__s == 0)
   17440:	c91d                	c.beqz	a0,17476 <dwarf::elf::elf_loader<elf::elf>::load(dwarf::section_type, unsigned long*)+0x52>
   17442:	84aa                	c.mv	s1,a0
      {
#if __cplusplus >= 201703L
	if (std::__is_constant_evaluated())
	  return __gnu_cxx::char_traits<char_type>::length(__s);
#endif
	return __builtin_strlen(__s);
   17444:	a3cff0ef          	jal	ra,16680 <strlen@plt>
   17448:	842a                	c.mv	s0,a0
      void
      basic_string<_CharT, _Traits, _Alloc>::
      _M_construct(_InIterator __beg, _InIterator __end,
		   std::forward_iterator_tag)
      {
	size_type __dnew = static_cast<size_type>(std::distance(__beg, __end));
   1744a:	e42a                	c.sdsp	a0,8(sp)

	if (__dnew > size_type(_S_local_capacity))
   1744c:	47bd                	c.li	a5,15
   1744e:	02a7ea63          	bltu	a5,a0,17482 <dwarf::elf::elf_loader<elf::elf>::load(dwarf::section_type, unsigned long*)+0x5e>
	if (__n == 1)
   17452:	4785                	c.li	a5,1
   17454:	04f51463          	bne	a0,a5,1749c <dwarf::elf::elf_loader<elf::elf>::load(dwarf::section_type, unsigned long*)+0x78>
	__c1 = __c2;
   17458:	0004c783          	lbu	a5,0(s1)
   1745c:	02f10023          	sb	a5,32(sp)

	this->_S_copy_chars(_M_data(), __beg, __end);

	__guard._M_guarded = 0;

	_M_set_length(__dnew);
   17460:	6722                	c.ldsp	a4,8(sp)
      { _M_string_length = __length; }
   17462:	ec3a                	c.sdsp	a4,24(sp)
   17464:	67c2                	c.ldsp	a5,16(sp)
   17466:	97ba                	c.add	a5,a4
   17468:	00078023          	sb	zero,0(a5)
   1746c:	080c                	c.addi4spn	a1,sp,16
   1746e:	854e                	c.mv	a0,s3
   17470:	170140ef          	jal	ra,2b5e0 <elf::elf::get_section(std::__cxx11::basic_string<char, std::char_traits<char>, std::allocator<char> > const&) const>
   17474:	a03d                	c.j	174a2 <dwarf::elf::elf_loader<elf::elf>::load(dwarf::section_type, unsigned long*)+0x7e>
	  std::__throw_logic_error(__N("basic_string: "
   17476:	0002e537          	lui	a0,0x2e
   1747a:	9b850513          	addi	a0,a0,-1608 # 2d9b8 <__libc_csu_fini+0x6>
   1747e:	ac2ff0ef          	jal	ra,16740 <std::__throw_logic_error(char const*)@plt>
	    _M_data(_M_create(__dnew, size_type(0)));
   17482:	4601                	c.li	a2,0
   17484:	002c                	c.addi4spn	a1,sp,8
   17486:	0808                	c.addi4spn	a0,sp,16
   17488:	d28ff0ef          	jal	ra,169b0 <std::__cxx11::basic_string<char, std::char_traits<char>, std::allocator<char> >::_M_create(unsigned long&, unsigned long)@plt>
      { _M_dataplus._M_p = __p; }
   1748c:	e82a                	c.sdsp	a0,16(sp)
      { _M_allocated_capacity = __capacity; }
   1748e:	67a2                	c.ldsp	a5,8(sp)
   17490:	f03e                	c.sdsp	a5,32(sp)
	  return __s1;
#if __cplusplus >= 202002L
	if (std::__is_constant_evaluated())
	  return __gnu_cxx::char_traits<char_type>::copy(__s1, __s2, __n);
#endif
	return static_cast<char_type*>(__builtin_memcpy(__s1, __s2, __n));
   17492:	8622                	c.mv	a2,s0
   17494:	85a6                	c.mv	a1,s1
   17496:	baaff0ef          	jal	ra,16840 <memcpy@plt>
   1749a:	b7d9                	c.j	17460 <dwarf::elf::elf_loader<elf::elf>::load(dwarf::section_type, unsigned long*)+0x3c>
	if (__n == 0)
   1749c:	d171                	c.beqz	a0,17460 <dwarf::elf::elf_loader<elf::elf>::load(dwarf::section_type, unsigned long*)+0x3c>
      { return _M_dataplus._M_p; }
   1749e:	1008                	c.addi4spn	a0,sp,32
   174a0:	bfcd                	c.j	17492 <dwarf::elf::elf_loader<elf::elf>::load(dwarf::section_type, unsigned long*)+0x6e>
      __shared_ptr(const __shared_ptr&) noexcept = default;
   174a2:	611c                	c.ld	a5,0(a0)
   174a4:	f83e                	c.sdsp	a5,48(sp)
      : _M_pi(__r._M_pi)
   174a6:	6508                	c.ld	a0,8(a0)
   174a8:	fc2a                	c.sdsp	a0,56(sp)
	if (_M_pi != nullptr)
   174aa:	c519                	c.beqz	a0,174b8 <dwarf::elf::elf_loader<elf::elf>::load(dwarf::section_type, unsigned long*)+0x94>
    if (__is_single_threaded())
   174ac:	e601c783          	lbu	a5,-416(gp) # 3a660 <__libc_single_threaded@GLIBC_2.32>
   174b0:	c385                	c.beqz	a5,174d0 <dwarf::elf::elf_loader<elf::elf>::load(dwarf::section_type, unsigned long*)+0xac>
  { *__mem += __val; }
   174b2:	591c                	c.lw	a5,48(a0)
   174b4:	2785                	c.addiw	a5,1
   174b6:	d91c                	c.sw	a5,48(a0)
   174b8:	6542                	c.ldsp	a0,16(sp)
	if (!_M_is_local())
   174ba:	101c                	c.addi4spn	a5,sp,32
   174bc:	00f50463          	beq	a0,a5,174c4 <dwarf::elf::elf_loader<elf::elf>::load(dwarf::section_type, unsigned long*)+0xa0>
   174c0:	ae0ff0ef          	jal	ra,167a0 <operator delete(void*)@plt>
      get() const noexcept
      { return _M_ptr; }

      /// Return true if the stored pointer is not null.
      explicit operator bool() const noexcept
      { return _M_ptr != nullptr; }
   174c4:	7442                	c.ldsp	s0,48(sp)
    if (!sec.valid())
   174c6:	c00d                	c.beqz	s0,174e8 <dwarf::elf::elf_loader<elf::elf>::load(dwarf::section_type, unsigned long*)+0xc4>
      return nullptr;
    *size_out = sec.size();
   174c8:	1808                	c.addi4spn	a0,sp,48
   174ca:	449130ef          	jal	ra,2b112 <elf::section::size() const>
   174ce:	a039                	c.j	174dc <dwarf::elf::elf_loader<elf::elf>::load(dwarf::section_type, unsigned long*)+0xb8>
      __atomic_add(__mem, __val);
   174d0:	4585                	c.li	a1,1
   174d2:	03050513          	addi	a0,a0,48
   174d6:	8daff0ef          	jal	ra,165b0 <__gnu_cxx::__atomic_add(int volatile*, int)@plt>
   174da:	bff9                	c.j	174b8 <dwarf::elf::elf_loader<elf::elf>::load(dwarf::section_type, unsigned long*)+0x94>
   174dc:	00a93023          	sd	a0,0(s2)
    return sec.data();
   174e0:	1808                	c.addi4spn	a0,sp,48
   174e2:	371130ef          	jal	ra,2b052 <elf::section::data() const>
   174e6:	842a                	c.mv	s0,a0
	if (_M_pi != nullptr)
   174e8:	74e2                	c.ldsp	s1,56(sp)
   174ea:	c899                	c.beqz	s1,17500 <dwarf::elf::elf_loader<elf::elf>::load(dwarf::section_type, unsigned long*)+0xdc>
    if (__is_single_threaded())
   174ec:	e601c783          	lbu	a5,-416(gp) # 3a660 <__libc_single_threaded@GLIBC_2.32>
   174f0:	c385                	c.beqz	a5,17510 <dwarf::elf::elf_loader<elf::elf>::load(dwarf::section_type, unsigned long*)+0xec>
    _Atomic_word __result = *__mem;
   174f2:	5888                	c.lw	a0,48(s1)
    *__mem += __val;
   174f4:	fff5079b          	addiw	a5,a0,-1
   174f8:	d89c                	c.sw	a5,48(s1)
      if (__gnu_cxx::__exchange_and_add_dispatch(&_M_use_count, -1) == 1)
   174fa:	4785                	c.li	a5,1
   174fc:	02f50063          	beq	a0,a5,1751c <dwarf::elf::elf_loader<elf::elf>::load(dwarf::section_type, unsigned long*)+0xf8>
  }
   17500:	8522                	c.mv	a0,s0
   17502:	70a6                	c.ldsp	ra,104(sp)
   17504:	7406                	c.ldsp	s0,96(sp)
   17506:	64e6                	c.ldsp	s1,88(sp)
   17508:	6946                	c.ldsp	s2,80(sp)
   1750a:	69a6                	c.ldsp	s3,72(sp)
   1750c:	6165                	c.addi16sp	sp,112
   1750e:	8082                	c.jr	ra
      return __exchange_and_add(__mem, __val);
   17510:	55fd                	c.li	a1,-1
   17512:	03048513          	addi	a0,s1,48
   17516:	8daff0ef          	jal	ra,165f0 <__gnu_cxx::__exchange_and_add(int volatile*, int)@plt>
   1751a:	b7c5                	c.j	174fa <dwarf::elf::elf_loader<elf::elf>::load(dwarf::section_type, unsigned long*)+0xd6>
	_M_dispose();
   1751c:	609c                	c.ld	a5,0(s1)
   1751e:	6b9c                	c.ld	a5,16(a5)
   17520:	8526                	c.mv	a0,s1
   17522:	9782                	c.jalr	a5
	    __atomic_thread_fence (__ATOMIC_ACQ_REL);
   17524:	0ff0000f          	fence	iorw,iorw
    if (__is_single_threaded())
   17528:	e601c783          	lbu	a5,-416(gp) # 3a660 <__libc_single_threaded@GLIBC_2.32>
   1752c:	cf89                	c.beqz	a5,17546 <dwarf::elf::elf_loader<elf::elf>::load(dwarf::section_type, unsigned long*)+0x122>
    _Atomic_word __result = *__mem;
   1752e:	58c8                	c.lw	a0,52(s1)
    *__mem += __val;
   17530:	fff5079b          	addiw	a5,a0,-1
   17534:	d8dc                	c.sw	a5,52(s1)
	if (__gnu_cxx::__exchange_and_add_dispatch(&_M_weak_count,
   17536:	4785                	c.li	a5,1
   17538:	fcf514e3          	bne	a0,a5,17500 <dwarf::elf::elf_loader<elf::elf>::load(dwarf::section_type, unsigned long*)+0xdc>
	    _M_destroy();
   1753c:	609c                	c.ld	a5,0(s1)
   1753e:	6f9c                	c.ld	a5,24(a5)
   17540:	8526                	c.mv	a0,s1
   17542:	9782                	c.jalr	a5
   17544:	bf75                	c.j	17500 <dwarf::elf::elf_loader<elf::elf>::load(dwarf::section_type, unsigned long*)+0xdc>
      return __exchange_and_add(__mem, __val);
   17546:	55fd                	c.li	a1,-1
   17548:	03448513          	addi	a0,s1,52
   1754c:	8a4ff0ef          	jal	ra,165f0 <__gnu_cxx::__exchange_and_add(int volatile*, int)@plt>
   17550:	b7dd                	c.j	17536 <dwarf::elf::elf_loader<elf::elf>::load(dwarf::section_type, unsigned long*)+0x112>
      { return _M_dataplus._M_p; }
   17552:	842a                	c.mv	s0,a0
   17554:	6542                	c.ldsp	a0,16(sp)
	if (!_M_is_local())
   17556:	101c                	c.addi4spn	a5,sp,32
   17558:	00f50463          	beq	a0,a5,17560 <dwarf::elf::elf_loader<elf::elf>::load(dwarf::section_type, unsigned long*)+0x13c>
   1755c:	a44ff0ef          	jal	ra,167a0 <operator delete(void*)@plt>
      ~__new_allocator() _GLIBCXX_USE_NOEXCEPT { }
   17560:	8522                	c.mv	a0,s0
   17562:	c2eff0ef          	jal	ra,16990 <_Unwind_Resume@plt>
	if (_M_pi != nullptr)
   17566:	842a                	c.mv	s0,a0
   17568:	7562                	c.ldsp	a0,56(sp)
   1756a:	c119                	c.beqz	a0,17570 <dwarf::elf::elf_loader<elf::elf>::load(dwarf::section_type, unsigned long*)+0x14c>
	  _M_pi->_M_release();
   1756c:	e53ff0ef          	jal	ra,173be <std::_Sp_counted_base<(__gnu_cxx::_Lock_policy)1>::_M_release()>
   17570:	8522                	c.mv	a0,s0
   17572:	c1eff0ef          	jal	ra,16990 <_Unwind_Resume@plt>

0000000000017576 <dwarf::rangelist::~rangelist()>:
class rangelist {
   17576:	1101                	c.addi	sp,-32
   17578:	ec06                	c.sdsp	ra,24(sp)
   1757a:	e822                	c.sdsp	s0,16(sp)
   1757c:	e426                	c.sdsp	s1,8(sp)
   1757e:	842a                	c.mv	s0,a0
	if (_M_pi != nullptr)
   17580:	7104                	c.ld	s1,32(a0)
   17582:	c899                	c.beqz	s1,17598 <dwarf::rangelist::~rangelist()+0x22>
    if (__is_single_threaded())
   17584:	e601c783          	lbu	a5,-416(gp) # 3a660 <__libc_single_threaded@GLIBC_2.32>
   17588:	c38d                	c.beqz	a5,175aa <dwarf::rangelist::~rangelist()+0x34>
    _Atomic_word __result = *__mem;
   1758a:	5888                	c.lw	a0,48(s1)
    *__mem += __val;
   1758c:	fff5079b          	addiw	a5,a0,-1
   17590:	d89c                	c.sw	a5,48(s1)
      if (__gnu_cxx::__exchange_and_add_dispatch(&_M_use_count, -1) == 1)
   17592:	4785                	c.li	a5,1
   17594:	02f50163          	beq	a0,a5,175b6 <dwarf::rangelist::~rangelist()+0x40>
	std::_Destroy(this->_M_impl._M_start, this->_M_impl._M_finish,
   17598:	6008                	c.ld	a0,0(s0)
	if (__p)
   1759a:	c119                	c.beqz	a0,175a0 <dwarf::rangelist::~rangelist()+0x2a>
	_GLIBCXX_OPERATOR_DELETE(_GLIBCXX_SIZED_DEALLOC(__p, __n));
   1759c:	a04ff0ef          	jal	ra,167a0 <operator delete(void*)@plt>
   175a0:	60e2                	c.ldsp	ra,24(sp)
   175a2:	6442                	c.ldsp	s0,16(sp)
   175a4:	64a2                	c.ldsp	s1,8(sp)
   175a6:	6105                	c.addi16sp	sp,32
   175a8:	8082                	c.jr	ra
      return __exchange_and_add(__mem, __val);
   175aa:	55fd                	c.li	a1,-1
   175ac:	03048513          	addi	a0,s1,48
   175b0:	840ff0ef          	jal	ra,165f0 <__gnu_cxx::__exchange_and_add(int volatile*, int)@plt>
   175b4:	bff9                	c.j	17592 <dwarf::rangelist::~rangelist()+0x1c>
	_M_dispose();
   175b6:	609c                	c.ld	a5,0(s1)
   175b8:	6b9c                	c.ld	a5,16(a5)
   175ba:	8526                	c.mv	a0,s1
   175bc:	9782                	c.jalr	a5
	    __atomic_thread_fence (__ATOMIC_ACQ_REL);
   175be:	0ff0000f          	fence	iorw,iorw
    if (__is_single_threaded())
   175c2:	e601c783          	lbu	a5,-416(gp) # 3a660 <__libc_single_threaded@GLIBC_2.32>
   175c6:	cf89                	c.beqz	a5,175e0 <dwarf::rangelist::~rangelist()+0x6a>
    _Atomic_word __result = *__mem;
   175c8:	58c8                	c.lw	a0,52(s1)
    *__mem += __val;
   175ca:	fff5079b          	addiw	a5,a0,-1
   175ce:	d8dc                	c.sw	a5,52(s1)
	if (__gnu_cxx::__exchange_and_add_dispatch(&_M_weak_count,
   175d0:	4785                	c.li	a5,1
   175d2:	fcf513e3          	bne	a0,a5,17598 <dwarf::rangelist::~rangelist()+0x22>
	    _M_destroy();
   175d6:	609c                	c.ld	a5,0(s1)
   175d8:	6f9c                	c.ld	a5,24(a5)
   175da:	8526                	c.mv	a0,s1
   175dc:	9782                	c.jalr	a5
   175de:	bf6d                	c.j	17598 <dwarf::rangelist::~rangelist()+0x22>
      return __exchange_and_add(__mem, __val);
   175e0:	55fd                	c.li	a1,-1
   175e2:	03448513          	addi	a0,s1,52
   175e6:	80aff0ef          	jal	ra,165f0 <__gnu_cxx::__exchange_and_add(int volatile*, int)@plt>
   175ea:	b7dd                	c.j	175d0 <dwarf::rangelist::~rangelist()+0x5a>

00000000000175ec <dwarf::small_vector<unsigned long, 6u>::~small_vector()>:
  ~small_vector() {
   175ec:	86aa                	c.mv	a3,a0
    for (T *p = base; p < end; ++p)
   175ee:	7908                	c.ld	a0,48(a0)
   175f0:	7e9c                	c.ld	a5,56(a3)
   175f2:	00f57763          	bgeu	a0,a5,17600 <dwarf::small_vector<unsigned long, 6u>::~small_vector()+0x14>
   175f6:	87aa                	c.mv	a5,a0
   175f8:	07a1                	c.addi	a5,8
   175fa:	7e98                	c.ld	a4,56(a3)
   175fc:	fee7eee3          	bltu	a5,a4,175f8 <dwarf::small_vector<unsigned long, 6u>::~small_vector()+0xc>
    end = base;
   17600:	fe88                	c.sd	a0,56(a3)
    if ((char *)base != buf)
   17602:	00a68a63          	beq	a3,a0,17616 <dwarf::small_vector<unsigned long, 6u>::~small_vector()+0x2a>
      delete[] (char *)base;
   17606:	c901                	c.beqz	a0,17616 <dwarf::small_vector<unsigned long, 6u>::~small_vector()+0x2a>
  ~small_vector() {
   17608:	1141                	c.addi	sp,-16
   1760a:	e406                	c.sdsp	ra,8(sp)
      delete[] (char *)base;
   1760c:	a44ff0ef          	jal	ra,16850 <operator delete[](void*)@plt>
  }
   17610:	60a2                	c.ldsp	ra,8(sp)
   17612:	0141                	c.addi	sp,16
   17614:	8082                	c.jr	ra
   17616:	8082                	c.jr	ra

0000000000017618 <std::vector<dwarf::die, std::allocator<dwarf::die> >::~vector()>:
      ~vector() _GLIBCXX_NOEXCEPT
   17618:	1101                	c.addi	sp,-32
   1761a:	ec06                	c.sdsp	ra,24(sp)
   1761c:	e822                	c.sdsp	s0,16(sp)
   1761e:	e426                	c.sdsp	s1,8(sp)
   17620:	e04a                	c.sdsp	s2,0(sp)
   17622:	892a                	c.mv	s2,a0
	std::_Destroy(this->_M_impl._M_start, this->_M_impl._M_finish,
   17624:	6100                	c.ld	s0,0(a0)
   17626:	6504                	c.ld	s1,8(a0)
    {
      template<typename _ForwardIterator>
	static _GLIBCXX20_CONSTEXPR void
	__destroy(_ForwardIterator __first, _ForwardIterator __last)
	{
	  for (; __first != __last; ++__first)
   17628:	02941363          	bne	s0,s1,1764e <std::vector<dwarf::die, std::allocator<dwarf::die> >::~vector()+0x36>
	_M_deallocate(_M_impl._M_start,
   1762c:	00093503          	ld	a0,0(s2)
	if (__p)
   17630:	c119                	c.beqz	a0,17636 <std::vector<dwarf::die, std::allocator<dwarf::die> >::~vector()+0x1e>
   17632:	96eff0ef          	jal	ra,167a0 <operator delete(void*)@plt>
      }
   17636:	60e2                	c.ldsp	ra,24(sp)
   17638:	6442                	c.ldsp	s0,16(sp)
   1763a:	64a2                	c.ldsp	s1,8(sp)
   1763c:	6902                	c.ldsp	s2,0(sp)
   1763e:	6105                	c.addi16sp	sp,32
   17640:	8082                	c.jr	ra
      delete[] (char *)base;
   17642:	a0eff0ef          	jal	ra,16850 <operator delete[](void*)@plt>
   17646:	07040413          	addi	s0,s0,112
   1764a:	fe8481e3          	beq	s1,s0,1762c <std::vector<dwarf::die, std::allocator<dwarf::die> >::~vector()+0x14>
    for (T *p = base; p < end; ++p)
   1764e:	6828                	c.ld	a0,80(s0)
   17650:	6c3c                	c.ld	a5,88(s0)
   17652:	00f57763          	bgeu	a0,a5,17660 <std::vector<dwarf::die, std::allocator<dwarf::die> >::~vector()+0x48>
   17656:	87aa                	c.mv	a5,a0
   17658:	07a1                	c.addi	a5,8
   1765a:	6c38                	c.ld	a4,88(s0)
   1765c:	fee7eee3          	bltu	a5,a4,17658 <std::vector<dwarf::die, std::allocator<dwarf::die> >::~vector()+0x40>
    end = base;
   17660:	ec28                	c.sd	a0,88(s0)
    if ((char *)base != buf)
   17662:	02040793          	addi	a5,s0,32
   17666:	fef500e3          	beq	a0,a5,17646 <std::vector<dwarf::die, std::allocator<dwarf::die> >::~vector()+0x2e>
      delete[] (char *)base;
   1766a:	fd61                	c.bnez	a0,17642 <std::vector<dwarf::die, std::allocator<dwarf::die> >::~vector()+0x2a>
   1766c:	bfe9                	c.j	17646 <std::vector<dwarf::die, std::allocator<dwarf::die> >::~vector()+0x2e>

000000000001766e <dwarf::die* std::__do_uninit_copy<dwarf::die const*, dwarf::die*>(dwarf::die const*, dwarf::die const*, dwarf::die*)>:
#endif

  template<typename _InputIterator, typename _ForwardIterator>
    _GLIBCXX20_CONSTEXPR
    _ForwardIterator
    __do_uninit_copy(_InputIterator __first, _InputIterator __last,
   1766e:	711d                	c.addi16sp	sp,-96
   17670:	ec86                	c.sdsp	ra,88(sp)
   17672:	e8a2                	c.sdsp	s0,80(sp)
   17674:	e4a6                	c.sdsp	s1,72(sp)
   17676:	e0ca                	c.sdsp	s2,64(sp)
   17678:	fc4e                	c.sdsp	s3,56(sp)
   1767a:	f852                	c.sdsp	s4,48(sp)
   1767c:	f456                	c.sdsp	s5,40(sp)
   1767e:	f05a                	c.sdsp	s6,32(sp)
   17680:	ec5e                	c.sdsp	s7,24(sp)
   17682:	e862                	c.sdsp	s8,16(sp)
   17684:	e466                	c.sdsp	s9,8(sp)
   17686:	e06a                	c.sdsp	s10,0(sp)
   17688:	8b32                	c.mv	s6,a2
		     _ForwardIterator __result)
    {
      _ForwardIterator __cur = __result;
      __try
	{
	  for (; __first != __last; ++__first, (void)++__cur)
   1768a:	0cb50b63          	beq	a0,a1,17760 <dwarf::die* std::__do_uninit_copy<dwarf::die const*, dwarf::die*>(dwarf::die const*, dwarf::die const*, dwarf::die*)+0xf2>
   1768e:	84aa                	c.mv	s1,a0
   17690:	8aae                	c.mv	s5,a1
   17692:	02060993          	addi	s3,a2,32
      _ForwardIterator __cur = __result;
   17696:	8432                	c.mv	s0,a2
   17698:	a88d                	c.j	1770a <dwarf::die* std::__do_uninit_copy<dwarf::die const*, dwarf::die*>(dwarf::die const*, dwarf::die const*, dwarf::die*)+0x9c>
    char *newbuf = new char[sizeof(T[target])];
   1769a:	8caa                	c.mv	s9,a0
    T *src = base, *dest = (T *)newbuf;
   1769c:	6828                	c.ld	a0,80(s0)
    for (; src < end; src++, dest++) {
   1769e:	6c38                	c.ld	a4,88(s0)
   176a0:	0ae57e63          	bgeu	a0,a4,1775c <dwarf::die* std::__do_uninit_copy<dwarf::die const*, dwarf::die*>(dwarf::die const*, dwarf::die const*, dwarf::die*)+0xee>
    T *src = base, *dest = (T *)newbuf;
   176a4:	87aa                	c.mv	a5,a0
    for (; src < end; src++, dest++) {
   176a6:	07a1                	c.addi	a5,8
   176a8:	fee7efe3          	bltu	a5,a4,176a6 <dwarf::die* std::__do_uninit_copy<dwarf::die const*, dwarf::die*>(dwarf::die const*, dwarf::die const*, dwarf::die*)+0x38>
   176ac:	fff70d13          	addi	s10,a4,-1
   176b0:	40ad0d33          	sub	s10,s10,a0
   176b4:	ff8d7d13          	andi	s10,s10,-8
   176b8:	0d21                	c.addi	s10,8
   176ba:	9d66                	c.add	s10,s9
    if ((char *)base != buf)
   176bc:	00ac0563          	beq	s8,a0,176c6 <dwarf::die* std::__do_uninit_copy<dwarf::die const*, dwarf::die*>(dwarf::die const*, dwarf::die const*, dwarf::die*)+0x58>
      delete[] (char *)base;
   176c0:	c119                	c.beqz	a0,176c6 <dwarf::die* std::__do_uninit_copy<dwarf::die const*, dwarf::die*>(dwarf::die const*, dwarf::die const*, dwarf::die*)+0x58>
   176c2:	98eff0ef          	jal	ra,16850 <operator delete[](void*)@plt>
    base = (T *)newbuf;
   176c6:	05943823          	sd	s9,80(s0)
    end = dest;
   176ca:	05a43c23          	sd	s10,88(s0)
    cap = base + target;
   176ce:	9cde                	c.add	s9,s7
   176d0:	07943023          	sd	s9,96(s0)
    for (size_type i = 0; i < osize; i++)
   176d4:	00090e63          	beq	s2,zero,176f0 <dwarf::die* std::__do_uninit_copy<dwarf::die const*, dwarf::die*>(dwarf::die const*, dwarf::die const*, dwarf::die*)+0x82>
   176d8:	4781                	c.li	a5,0
   176da:	00379693          	slli	a3,a5,0x3
      new (&base[i]) T(o[i]);
   176de:	68b8                	c.ld	a4,80(s1)
   176e0:	9736                	c.add	a4,a3
   176e2:	6310                	c.ld	a2,0(a4)
   176e4:	6838                	c.ld	a4,80(s0)
   176e6:	9736                	c.add	a4,a3
   176e8:	e310                	c.sd	a2,0(a4)
    for (size_type i = 0; i < osize; i++)
   176ea:	0785                	c.addi	a5,1
   176ec:	fef917e3          	bne	s2,a5,176da <dwarf::die* std::__do_uninit_copy<dwarf::die const*, dwarf::die*>(dwarf::die const*, dwarf::die const*, dwarf::die*)+0x6c>
    end = base + osize;
   176f0:	683c                	c.ld	a5,80(s0)
   176f2:	97d2                	c.add	a5,s4
   176f4:	ec3c                	c.sd	a5,88(s0)
  die(const die &o) = default;
   176f6:	74bc                	c.ld	a5,104(s1)
   176f8:	f43c                	c.sd	a5,104(s0)
	  for (; __first != __last; ++__first, (void)++__cur)
   176fa:	07048493          	addi	s1,s1,112
   176fe:	07040413          	addi	s0,s0,112
   17702:	07098993          	addi	s3,s3,112
   17706:	049a8e63          	beq	s5,s1,17762 <dwarf::die* std::__do_uninit_copy<dwarf::die const*, dwarf::die*>(dwarf::die const*, dwarf::die const*, dwarf::die*)+0xf4>
   1770a:	409c                	c.lw	a5,0(s1)
   1770c:	c01c                	c.sw	a5,0(s0)
   1770e:	649c                	c.ld	a5,8(s1)
   17710:	e41c                	c.sd	a5,8(s0)
   17712:	689c                	c.ld	a5,16(s1)
   17714:	e81c                	c.sd	a5,16(s0)
   17716:	6c9c                	c.ld	a5,24(s1)
   17718:	ec1c                	c.sd	a5,24(s0)
   1771a:	8c4e                	c.mv	s8,s3
      : base((T *)buf), end(base), cap((T *)&buf[sizeof(T[Min])]) {
   1771c:	05343823          	sd	s3,80(s0)
   17720:	05343c23          	sd	s3,88(s0)
   17724:	05040513          	addi	a0,s0,80
   17728:	f028                	c.sd	a0,96(s0)
  size_type size() const { return end - base; }
   1772a:	0584ba03          	ld	s4,88(s1)
   1772e:	68bc                	c.ld	a5,80(s1)
   17730:	40fa0a33          	sub	s4,s4,a5
   17734:	403a5913          	srai	s2,s4,0x3
    if (n <= (size_type)(cap - base))
   17738:	41350533          	sub	a0,a0,s3
   1773c:	f9457ce3          	bgeu	a0,s4,176d4 <dwarf::die* std::__do_uninit_copy<dwarf::die const*, dwarf::die*>(dwarf::die const*, dwarf::die const*, dwarf::die*)+0x66>
   17740:	850d                	c.srai	a0,0x3
   17742:	e111                	c.bnez	a0,17746 <dwarf::die* std::__do_uninit_copy<dwarf::die const*, dwarf::die*>(dwarf::die const*, dwarf::die const*, dwarf::die*)+0xd8>
   17744:	4505                	c.li	a0,1
    while (target < n)
   17746:	01257563          	bgeu	a0,s2,17750 <dwarf::die* std::__do_uninit_copy<dwarf::die const*, dwarf::die*>(dwarf::die const*, dwarf::die const*, dwarf::die*)+0xe2>
      target <<= 1;
   1774a:	0506                	c.slli	a0,0x1
    while (target < n)
   1774c:	ff256fe3          	bltu	a0,s2,1774a <dwarf::die* std::__do_uninit_copy<dwarf::die const*, dwarf::die*>(dwarf::die const*, dwarf::die const*, dwarf::die*)+0xdc>
    char *newbuf = new char[sizeof(T[target])];
   17750:	00351b93          	slli	s7,a0,0x3
   17754:	855e                	c.mv	a0,s7
   17756:	e3bfe0ef          	jal	ra,16590 <operator new[](unsigned long)@plt>
   1775a:	b781                	c.j	1769a <dwarf::die* std::__do_uninit_copy<dwarf::die const*, dwarf::die*>(dwarf::die const*, dwarf::die const*, dwarf::die*)+0x2c>
    T *src = base, *dest = (T *)newbuf;
   1775c:	8d66                	c.mv	s10,s9
   1775e:	bfb9                	c.j	176bc <dwarf::die* std::__do_uninit_copy<dwarf::die const*, dwarf::die*>(dwarf::die const*, dwarf::die const*, dwarf::die*)+0x4e>
      _ForwardIterator __cur = __result;
   17760:	8432                	c.mv	s0,a2
      __catch(...)
	{
	  std::_Destroy(__result, __cur);
	  __throw_exception_again;
	}
    }
   17762:	8522                	c.mv	a0,s0
   17764:	60e6                	c.ldsp	ra,88(sp)
   17766:	6446                	c.ldsp	s0,80(sp)
   17768:	64a6                	c.ldsp	s1,72(sp)
   1776a:	6906                	c.ldsp	s2,64(sp)
   1776c:	79e2                	c.ldsp	s3,56(sp)
   1776e:	7a42                	c.ldsp	s4,48(sp)
   17770:	7aa2                	c.ldsp	s5,40(sp)
   17772:	7b02                	c.ldsp	s6,32(sp)
   17774:	6be2                	c.ldsp	s7,24(sp)
   17776:	6c42                	c.ldsp	s8,16(sp)
   17778:	6ca2                	c.ldsp	s9,8(sp)
   1777a:	6d02                	c.ldsp	s10,0(sp)
   1777c:	6125                	c.addi16sp	sp,96
   1777e:	8082                	c.jr	ra
      __catch(...)
   17780:	ef1fe0ef          	jal	ra,16670 <__cxa_begin_catch@plt>
   17784:	008b1a63          	bne	s6,s0,17798 <dwarf::die* std::__do_uninit_copy<dwarf::die const*, dwarf::die*>(dwarf::die const*, dwarf::die const*, dwarf::die*)+0x12a>
	  __throw_exception_again;
   17788:	938ff0ef          	jal	ra,168c0 <__cxa_rethrow@plt>
      __catch(...)
   1778c:	842a                	c.mv	s0,a0
   1778e:	9a2ff0ef          	jal	ra,16930 <__cxa_end_catch@plt>
   17792:	8522                	c.mv	a0,s0
   17794:	9fcff0ef          	jal	ra,16990 <_Unwind_Resume@plt>
class die {
   17798:	020b0513          	addi	a0,s6,32
   1779c:	e51ff0ef          	jal	ra,175ec <dwarf::small_vector<unsigned long, 6u>::~small_vector()>
   177a0:	070b0b13          	addi	s6,s6,112
   177a4:	b7c5                	c.j	17784 <dwarf::die* std::__do_uninit_copy<dwarf::die const*, dwarf::die*>(dwarf::die const*, dwarf::die const*, dwarf::die*)+0x116>

00000000000177a6 <void std::vector<dwarf::die, std::allocator<dwarf::die> >::_M_realloc_insert<dwarf::die const&>(__gnu_cxx::__normal_iterator<dwarf::die*, std::vector<dwarf::die, std::allocator<dwarf::die> > >, dwarf::die const&)>:
#if __cplusplus >= 201103L
  template<typename _Tp, typename _Alloc>
    template<typename... _Args>
      _GLIBCXX20_CONSTEXPR
      void
      vector<_Tp, _Alloc>::
   177a6:	7119                	c.addi16sp	sp,-128
   177a8:	fc86                	c.sdsp	ra,120(sp)
   177aa:	f8a2                	c.sdsp	s0,112(sp)
   177ac:	f4a6                	c.sdsp	s1,104(sp)
   177ae:	f0ca                	c.sdsp	s2,96(sp)
   177b0:	ecce                	c.sdsp	s3,88(sp)
   177b2:	e8d2                	c.sdsp	s4,80(sp)
   177b4:	e4d6                	c.sdsp	s5,72(sp)
   177b6:	e0da                	c.sdsp	s6,64(sp)
   177b8:	fc5e                	c.sdsp	s7,56(sp)
   177ba:	f862                	c.sdsp	s8,48(sp)
   177bc:	f466                	c.sdsp	s9,40(sp)
   177be:	f06a                	c.sdsp	s10,32(sp)
   177c0:	ec6e                	c.sdsp	s11,24(sp)
      { return size_type(this->_M_impl._M_finish - this->_M_impl._M_start); }
   177c2:	00853a03          	ld	s4,8(a0)
   177c6:	00053a83          	ld	s5,0(a0)
   177ca:	415a07b3          	sub	a5,s4,s5
   177ce:	8791                	c.srai	a5,0x4
   177d0:	e201b703          	ld	a4,-480(gp) # 3a620 <__SDATA_BEGIN__+0x8>
   177d4:	02e787b3          	mul	a5,a5,a4
      // Called by _M_fill_insert, _M_insert_aux etc.
      _GLIBCXX20_CONSTEXPR
      size_type
      _M_check_len(size_type __n, const char* __s) const
      {
	if (max_size() - size() < __n)
   177d8:	e181b703          	ld	a4,-488(gp) # 3a618 <__SDATA_BEGIN__>
   177dc:	02e78863          	beq	a5,a4,1780c <void std::vector<dwarf::die, std::allocator<dwarf::die> >::_M_realloc_insert<dwarf::die const&>(__gnu_cxx::__normal_iterator<dwarf::die*, std::vector<dwarf::die, std::allocator<dwarf::die> > >, dwarf::die const&)+0x66>
   177e0:	8b2a                	c.mv	s6,a0
   177e2:	8c2e                	c.mv	s8,a1
   177e4:	84b2                	c.mv	s1,a2
      // concept requirements
      __glibcxx_function_requires(_LessThanComparableConcept<_Tp>)
      //return  __a < __b ? __b : __a;
      if (__a < __b)
	return __b;
      return __a;
   177e6:	873e                	c.mv	a4,a5
      if (__a < __b)
   177e8:	035a0863          	beq	s4,s5,17818 <void std::vector<dwarf::die, std::allocator<dwarf::die> >::_M_realloc_insert<dwarf::die const&>(__gnu_cxx::__normal_iterator<dwarf::die*, std::vector<dwarf::die, std::allocator<dwarf::die> > >, dwarf::die const&)+0x72>
	  __throw_length_error(__N(__s));

	const size_type __len = size() + (std::max)(size(), __n);
   177ec:	973e                	c.add	a4,a5
	return (__len < size() || __len > max_size()) ? max_size() : __len;
   177ee:	16f76563          	bltu	a4,a5,17958 <void std::vector<dwarf::die, std::allocator<dwarf::die> >::_M_realloc_insert<dwarf::die const&>(__gnu_cxx::__normal_iterator<dwarf::die*, std::vector<dwarf::die, std::allocator<dwarf::die> > >, dwarf::die const&)+0x1b2>
   177f2:	8dba                	c.mv	s11,a4
   177f4:	e181b783          	ld	a5,-488(gp) # 3a618 <__SDATA_BEGIN__>
   177f8:	00e7f463          	bgeu	a5,a4,17800 <void std::vector<dwarf::die, std::allocator<dwarf::die> >::_M_realloc_insert<dwarf::die const&>(__gnu_cxx::__normal_iterator<dwarf::die*, std::vector<dwarf::die, std::allocator<dwarf::die> > >, dwarf::die const&)+0x5a>
   177fc:	e181bd83          	ld	s11,-488(gp) # 3a618 <__SDATA_BEGIN__>
    _GLIBCXX_NODISCARD _GLIBCXX20_CONSTEXPR
    inline typename __normal_iterator<_Iterator, _Container>::difference_type
    operator-(const __normal_iterator<_Iterator, _Container>& __lhs,
	      const __normal_iterator<_Iterator, _Container>& __rhs)
    _GLIBCXX_NOEXCEPT
    { return __lhs.base() - __rhs.base(); }
   17800:	415c0433          	sub	s0,s8,s5
	return __n != 0 ? _Tr::allocate(_M_impl, __n) : pointer();
   17804:	4b81                	c.li	s7,0
   17806:	16070563          	beq	a4,zero,17970 <void std::vector<dwarf::die, std::allocator<dwarf::die> >::_M_realloc_insert<dwarf::die const&>(__gnu_cxx::__normal_iterator<dwarf::die*, std::vector<dwarf::die, std::allocator<dwarf::die> > >, dwarf::die const&)+0x1ca>
   1780a:	aa99                	c.j	17960 <void std::vector<dwarf::die, std::allocator<dwarf::die> >::_M_realloc_insert<dwarf::die const&>(__gnu_cxx::__normal_iterator<dwarf::die*, std::vector<dwarf::die, std::allocator<dwarf::die> > >, dwarf::die const&)+0x1ba>
	  __throw_length_error(__N(__s));
   1780c:	0002e537          	lui	a0,0x2e
   17810:	a5050513          	addi	a0,a0,-1456 # 2da50 <__libc_csu_fini+0x9e>
   17814:	e8dfe0ef          	jal	ra,166a0 <std::__throw_length_error(char const*)@plt>
	return __b;
   17818:	4705                	c.li	a4,1
   1781a:	bfc9                	c.j	177ec <void std::vector<dwarf::die, std::allocator<dwarf::die> >::_M_realloc_insert<dwarf::die const&>(__gnu_cxx::__normal_iterator<dwarf::die*, std::vector<dwarf::die, std::allocator<dwarf::die> > >, dwarf::die const&)+0x46>
    char *newbuf = new char[sizeof(T[target])];
   1781c:	e02a                	c.sdsp	a0,0(sp)
    T *src = base, *dest = (T *)newbuf;
   1781e:	6828                	c.ld	a0,80(s0)
    for (; src < end; src++, dest++) {
   17820:	6c38                	c.ld	a4,88(s0)
   17822:	06e57463          	bgeu	a0,a4,1788a <void std::vector<dwarf::die, std::allocator<dwarf::die> >::_M_realloc_insert<dwarf::die const&>(__gnu_cxx::__normal_iterator<dwarf::die*, std::vector<dwarf::die, std::allocator<dwarf::die> > >, dwarf::die const&)+0xe4>
    T *src = base, *dest = (T *)newbuf;
   17826:	87aa                	c.mv	a5,a0
    for (; src < end; src++, dest++) {
   17828:	07a1                	c.addi	a5,8
   1782a:	fee7efe3          	bltu	a5,a4,17828 <void std::vector<dwarf::die, std::allocator<dwarf::die> >::_M_realloc_insert<dwarf::die const&>(__gnu_cxx::__normal_iterator<dwarf::die*, std::vector<dwarf::die, std::allocator<dwarf::die> > >, dwarf::die const&)+0x82>
   1782e:	fff70993          	addi	s3,a4,-1
   17832:	40a989b3          	sub	s3,s3,a0
   17836:	ff89f993          	andi	s3,s3,-8
   1783a:	09a1                	c.addi	s3,8
   1783c:	6782                	c.ldsp	a5,0(sp)
   1783e:	99be                	c.add	s3,a5
    if ((char *)base != buf)
   17840:	00ad0563          	beq	s10,a0,1784a <void std::vector<dwarf::die, std::allocator<dwarf::die> >::_M_realloc_insert<dwarf::die const&>(__gnu_cxx::__normal_iterator<dwarf::die*, std::vector<dwarf::die, std::allocator<dwarf::die> > >, dwarf::die const&)+0xa4>
      delete[] (char *)base;
   17844:	c119                	c.beqz	a0,1784a <void std::vector<dwarf::die, std::allocator<dwarf::die> >::_M_realloc_insert<dwarf::die const&>(__gnu_cxx::__normal_iterator<dwarf::die*, std::vector<dwarf::die, std::allocator<dwarf::die> > >, dwarf::die const&)+0xa4>
   17846:	80aff0ef          	jal	ra,16850 <operator delete[](void*)@plt>
    base = (T *)newbuf;
   1784a:	6782                	c.ldsp	a5,0(sp)
   1784c:	e83c                	c.sd	a5,80(s0)
    end = dest;
   1784e:	05343c23          	sd	s3,88(s0)
    cap = base + target;
   17852:	6722                	c.ldsp	a4,8(sp)
   17854:	97ba                	c.add	a5,a4
   17856:	f03c                	c.sd	a5,96(s0)
    for (size_type i = 0; i < osize; i++)
   17858:	00090e63          	beq	s2,zero,17874 <void std::vector<dwarf::die, std::allocator<dwarf::die> >::_M_realloc_insert<dwarf::die const&>(__gnu_cxx::__normal_iterator<dwarf::die*, std::vector<dwarf::die, std::allocator<dwarf::die> > >, dwarf::die const&)+0xce>
   1785c:	4781                	c.li	a5,0
   1785e:	00379693          	slli	a3,a5,0x3
      new (&base[i]) T(o[i]);
   17862:	68b8                	c.ld	a4,80(s1)
   17864:	9736                	c.add	a4,a3
   17866:	6310                	c.ld	a2,0(a4)
   17868:	6838                	c.ld	a4,80(s0)
   1786a:	9736                	c.add	a4,a3
   1786c:	e310                	c.sd	a2,0(a4)
    for (size_type i = 0; i < osize; i++)
   1786e:	0785                	c.addi	a5,1
   17870:	fef917e3          	bne	s2,a5,1785e <void std::vector<dwarf::die, std::allocator<dwarf::die> >::_M_realloc_insert<dwarf::die const&>(__gnu_cxx::__normal_iterator<dwarf::die*, std::vector<dwarf::die, std::allocator<dwarf::die> > >, dwarf::die const&)+0xb8>
    end = base + osize;
   17874:	683c                	c.ld	a5,80(s0)
   17876:	97e6                	c.add	a5,s9
   17878:	ec3c                	c.sd	a5,88(s0)
  die(const die &o) = default;
   1787a:	74bc                	c.ld	a5,104(s1)
   1787c:	f43c                	c.sd	a5,104(s0)
    {
      template<typename _InputIterator, typename _ForwardIterator>
        static _ForwardIterator
        __uninit_copy(_InputIterator __first, _InputIterator __last,
		      _ForwardIterator __result)
	{ return std::__do_uninit_copy(__first, __last, __result); }
   1787e:	865e                	c.mv	a2,s7
   17880:	85e2                	c.mv	a1,s8
   17882:	8556                	c.mv	a0,s5
   17884:	debff0ef          	jal	ra,1766e <dwarf::die* std::__do_uninit_copy<dwarf::die const*, dwarf::die*>(dwarf::die const*, dwarf::die const*, dwarf::die*)>
   17888:	a019                	c.j	1788e <void std::vector<dwarf::die, std::allocator<dwarf::die> >::_M_realloc_insert<dwarf::die const&>(__gnu_cxx::__normal_iterator<dwarf::die*, std::vector<dwarf::die, std::allocator<dwarf::die> > >, dwarf::die const&)+0xe8>
    T *src = base, *dest = (T *)newbuf;
   1788a:	6982                	c.ldsp	s3,0(sp)
   1788c:	bf55                	c.j	17840 <void std::vector<dwarf::die, std::allocator<dwarf::die> >::_M_realloc_insert<dwarf::die const&>(__gnu_cxx::__normal_iterator<dwarf::die*, std::vector<dwarf::die, std::allocator<dwarf::die> > >, dwarf::die const&)+0x9a>
	      __new_finish
		= std::__uninitialized_move_if_noexcept_a
		(__old_start, __position.base(),
		 __new_start, _M_get_Tp_allocator());

	      ++__new_finish;
   1788e:	07050413          	addi	s0,a0,112
   17892:	8622                	c.mv	a2,s0
   17894:	85d2                	c.mv	a1,s4
   17896:	8562                	c.mv	a0,s8
   17898:	dd7ff0ef          	jal	ra,1766e <dwarf::die* std::__do_uninit_copy<dwarf::die const*, dwarf::die*>(dwarf::die const*, dwarf::die const*, dwarf::die*)>
   1789c:	a039                	c.j	178aa <void std::vector<dwarf::die, std::allocator<dwarf::die> >::_M_realloc_insert<dwarf::die const&>(__gnu_cxx::__normal_iterator<dwarf::die*, std::vector<dwarf::die, std::allocator<dwarf::die> > >, dwarf::die const&)+0x104>
		= std::__uninitialized_move_if_noexcept_a
		(__position.base(), __old_finish,
		 __new_finish, _M_get_Tp_allocator());
	    }
	}
      __catch(...)
   1789e:	dd3fe0ef          	jal	ra,16670 <__cxa_begin_catch@plt>
class die {
   178a2:	856a                	c.mv	a0,s10
   178a4:	d49ff0ef          	jal	ra,175ec <dwarf::small_vector<unsigned long, 6u>::~small_vector()>
#if __cplusplus <= 201703L
	  __a.destroy(__p);
#else
	  std::destroy_at(__p);
#endif
	}
   178a8:	a859                	c.j	1793e <void std::vector<dwarf::die, std::allocator<dwarf::die> >::_M_realloc_insert<dwarf::die const&>(__gnu_cxx::__normal_iterator<dwarf::die*, std::vector<dwarf::die, std::allocator<dwarf::die> > >, dwarf::die const&)+0x198>
   178aa:	84aa                	c.mv	s1,a0
   178ac:	8456                	c.mv	s0,s5
   178ae:	075a1463          	bne	s4,s5,17916 <void std::vector<dwarf::die, std::allocator<dwarf::die> >::_M_realloc_insert<dwarf::die const&>(__gnu_cxx::__normal_iterator<dwarf::die*, std::vector<dwarf::die, std::allocator<dwarf::die> > >, dwarf::die const&)+0x170>
	if (__p)
   178b2:	000a8563          	beq	s5,zero,178bc <void std::vector<dwarf::die, std::allocator<dwarf::die> >::_M_realloc_insert<dwarf::die const&>(__gnu_cxx::__normal_iterator<dwarf::die*, std::vector<dwarf::die, std::allocator<dwarf::die> > >, dwarf::die const&)+0x116>
   178b6:	8556                	c.mv	a0,s5
   178b8:	ee9fe0ef          	jal	ra,167a0 <operator delete(void*)@plt>
#endif
	std::_Destroy(__old_start, __old_finish, _M_get_Tp_allocator());
      _GLIBCXX_ASAN_ANNOTATE_REINIT;
      _M_deallocate(__old_start,
		    this->_M_impl._M_end_of_storage - __old_start);
      this->_M_impl._M_start = __new_start;
   178bc:	017b3023          	sd	s7,0(s6)
      this->_M_impl._M_finish = __new_finish;
   178c0:	009b3423          	sd	s1,8(s6)
      this->_M_impl._M_end_of_storage = __new_start + __len;
   178c4:	003d9793          	slli	a5,s11,0x3
   178c8:	41b787b3          	sub	a5,a5,s11
   178cc:	0792                	c.slli	a5,0x4
   178ce:	97de                	c.add	a5,s7
   178d0:	00fb3823          	sd	a5,16(s6)
    }
   178d4:	70e6                	c.ldsp	ra,120(sp)
   178d6:	7446                	c.ldsp	s0,112(sp)
   178d8:	74a6                	c.ldsp	s1,104(sp)
   178da:	7906                	c.ldsp	s2,96(sp)
   178dc:	69e6                	c.ldsp	s3,88(sp)
   178de:	6a46                	c.ldsp	s4,80(sp)
   178e0:	6aa6                	c.ldsp	s5,72(sp)
   178e2:	6b06                	c.ldsp	s6,64(sp)
   178e4:	7be2                	c.ldsp	s7,56(sp)
   178e6:	7c42                	c.ldsp	s8,48(sp)
   178e8:	7ca2                	c.ldsp	s9,40(sp)
   178ea:	7d02                	c.ldsp	s10,32(sp)
   178ec:	6de2                	c.ldsp	s11,24(sp)
   178ee:	6109                	c.addi16sp	sp,128
   178f0:	8082                	c.jr	ra
      __catch(...)
   178f2:	d7ffe0ef          	jal	ra,16670 <__cxa_begin_catch@plt>
   178f6:	84de                	c.mv	s1,s7
   178f8:	04940363          	beq	s0,s1,1793e <void std::vector<dwarf::die, std::allocator<dwarf::die> >::_M_realloc_insert<dwarf::die const&>(__gnu_cxx::__normal_iterator<dwarf::die*, std::vector<dwarf::die, std::allocator<dwarf::die> > >, dwarf::die const&)+0x198>
   178fc:	02048513          	addi	a0,s1,32
   17900:	cedff0ef          	jal	ra,175ec <dwarf::small_vector<unsigned long, 6u>::~small_vector()>
   17904:	07048493          	addi	s1,s1,112
   17908:	bfc5                	c.j	178f8 <void std::vector<dwarf::die, std::allocator<dwarf::die> >::_M_realloc_insert<dwarf::die const&>(__gnu_cxx::__normal_iterator<dwarf::die*, std::vector<dwarf::die, std::allocator<dwarf::die> > >, dwarf::die const&)+0x152>
      delete[] (char *)base;
   1790a:	f47fe0ef          	jal	ra,16850 <operator delete[](void*)@plt>
   1790e:	07040413          	addi	s0,s0,112
   17912:	fb4400e3          	beq	s0,s4,178b2 <void std::vector<dwarf::die, std::allocator<dwarf::die> >::_M_realloc_insert<dwarf::die const&>(__gnu_cxx::__normal_iterator<dwarf::die*, std::vector<dwarf::die, std::allocator<dwarf::die> > >, dwarf::die const&)+0x10c>
    for (T *p = base; p < end; ++p)
   17916:	6828                	c.ld	a0,80(s0)
   17918:	6c3c                	c.ld	a5,88(s0)
   1791a:	00f57763          	bgeu	a0,a5,17928 <void std::vector<dwarf::die, std::allocator<dwarf::die> >::_M_realloc_insert<dwarf::die const&>(__gnu_cxx::__normal_iterator<dwarf::die*, std::vector<dwarf::die, std::allocator<dwarf::die> > >, dwarf::die const&)+0x182>
   1791e:	87aa                	c.mv	a5,a0
   17920:	07a1                	c.addi	a5,8
   17922:	6c38                	c.ld	a4,88(s0)
   17924:	fee7eee3          	bltu	a5,a4,17920 <void std::vector<dwarf::die, std::allocator<dwarf::die> >::_M_realloc_insert<dwarf::die const&>(__gnu_cxx::__normal_iterator<dwarf::die*, std::vector<dwarf::die, std::allocator<dwarf::die> > >, dwarf::die const&)+0x17a>
    end = base;
   17928:	ec28                	c.sd	a0,88(s0)
    if ((char *)base != buf)
   1792a:	02040793          	addi	a5,s0,32
   1792e:	fef500e3          	beq	a0,a5,1790e <void std::vector<dwarf::die, std::allocator<dwarf::die> >::_M_realloc_insert<dwarf::die const&>(__gnu_cxx::__normal_iterator<dwarf::die*, std::vector<dwarf::die, std::allocator<dwarf::die> > >, dwarf::die const&)+0x168>
      delete[] (char *)base;
   17932:	fd61                	c.bnez	a0,1790a <void std::vector<dwarf::die, std::allocator<dwarf::die> >::_M_realloc_insert<dwarf::die const&>(__gnu_cxx::__normal_iterator<dwarf::die*, std::vector<dwarf::die, std::allocator<dwarf::die> > >, dwarf::die const&)+0x164>
   17934:	bfe9                	c.j	1790e <void std::vector<dwarf::die, std::allocator<dwarf::die> >::_M_realloc_insert<dwarf::die const&>(__gnu_cxx::__normal_iterator<dwarf::die*, std::vector<dwarf::die, std::allocator<dwarf::die> > >, dwarf::die const&)+0x168>
   17936:	d3bfe0ef          	jal	ra,16670 <__cxa_begin_catch@plt>
	  if (!__new_finish)
   1793a:	f60b84e3          	beq	s7,zero,178a2 <void std::vector<dwarf::die, std::allocator<dwarf::die> >::_M_realloc_insert<dwarf::die const&>(__gnu_cxx::__normal_iterator<dwarf::die*, std::vector<dwarf::die, std::allocator<dwarf::die> > >, dwarf::die const&)+0xfc>
   1793e:	000b8563          	beq	s7,zero,17948 <void std::vector<dwarf::die, std::allocator<dwarf::die> >::_M_realloc_insert<dwarf::die const&>(__gnu_cxx::__normal_iterator<dwarf::die*, std::vector<dwarf::die, std::allocator<dwarf::die> > >, dwarf::die const&)+0x1a2>
   17942:	855e                	c.mv	a0,s7
   17944:	e5dfe0ef          	jal	ra,167a0 <operator delete(void*)@plt>
	  __throw_exception_again;
   17948:	f79fe0ef          	jal	ra,168c0 <__cxa_rethrow@plt>
      __catch(...)
   1794c:	842a                	c.mv	s0,a0
   1794e:	fe3fe0ef          	jal	ra,16930 <__cxa_end_catch@plt>
   17952:	8522                	c.mv	a0,s0
   17954:	83cff0ef          	jal	ra,16990 <_Unwind_Resume@plt>
   17958:	415c0433          	sub	s0,s8,s5
	return (__len < size() || __len > max_size()) ? max_size() : __len;
   1795c:	e181bd83          	ld	s11,-488(gp) # 3a618 <__SDATA_BEGIN__>
	return static_cast<_Tp*>(_GLIBCXX_OPERATOR_NEW(__n * sizeof(_Tp)));
   17960:	003d9513          	slli	a0,s11,0x3
   17964:	41b50533          	sub	a0,a0,s11
   17968:	0512                	c.slli	a0,0x4
   1796a:	e47fe0ef          	jal	ra,167b0 <operator new(unsigned long)@plt>
   1796e:	8baa                	c.mv	s7,a0
	  _Alloc_traits::construct(this->_M_impl,
   17970:	945e                	c.add	s0,s7
  die(const die &o) = default;
   17972:	409c                	c.lw	a5,0(s1)
   17974:	c01c                	c.sw	a5,0(s0)
   17976:	649c                	c.ld	a5,8(s1)
   17978:	e41c                	c.sd	a5,8(s0)
   1797a:	689c                	c.ld	a5,16(s1)
   1797c:	e81c                	c.sd	a5,16(s0)
   1797e:	6c9c                	c.ld	a5,24(s1)
   17980:	ec1c                	c.sd	a5,24(s0)
   17982:	02040d13          	addi	s10,s0,32
      : base((T *)buf), end(base), cap((T *)&buf[sizeof(T[Min])]) {
   17986:	05a43823          	sd	s10,80(s0)
   1798a:	05040793          	addi	a5,s0,80
   1798e:	f03c                	c.sd	a5,96(s0)
  size_type size() const { return end - base; }
   17990:	0584bc83          	ld	s9,88(s1)
   17994:	68b8                	c.ld	a4,80(s1)
   17996:	40ec8cb3          	sub	s9,s9,a4
   1799a:	403cd913          	srai	s2,s9,0x3
    end = base;
   1799e:	05a43c23          	sd	s10,88(s0)
    if (n <= (size_type)(cap - base))
   179a2:	41a787b3          	sub	a5,a5,s10
   179a6:	eb97f9e3          	bgeu	a5,s9,17858 <void std::vector<dwarf::die, std::allocator<dwarf::die> >::_M_realloc_insert<dwarf::die const&>(__gnu_cxx::__normal_iterator<dwarf::die*, std::vector<dwarf::die, std::allocator<dwarf::die> > >, dwarf::die const&)+0xb2>
   179aa:	878d                	c.srai	a5,0x3
   179ac:	e391                	c.bnez	a5,179b0 <void std::vector<dwarf::die, std::allocator<dwarf::die> >::_M_realloc_insert<dwarf::die const&>(__gnu_cxx::__normal_iterator<dwarf::die*, std::vector<dwarf::die, std::allocator<dwarf::die> > >, dwarf::die const&)+0x20a>
   179ae:	4785                	c.li	a5,1
    while (target < n)
   179b0:	0127f563          	bgeu	a5,s2,179ba <void std::vector<dwarf::die, std::allocator<dwarf::die> >::_M_realloc_insert<dwarf::die const&>(__gnu_cxx::__normal_iterator<dwarf::die*, std::vector<dwarf::die, std::allocator<dwarf::die> > >, dwarf::die const&)+0x214>
      target <<= 1;
   179b4:	0786                	c.slli	a5,0x1
    while (target < n)
   179b6:	ff27efe3          	bltu	a5,s2,179b4 <void std::vector<dwarf::die, std::allocator<dwarf::die> >::_M_realloc_insert<dwarf::die const&>(__gnu_cxx::__normal_iterator<dwarf::die*, std::vector<dwarf::die, std::allocator<dwarf::die> > >, dwarf::die const&)+0x20e>
    char *newbuf = new char[sizeof(T[target])];
   179ba:	078e                	c.slli	a5,0x3
   179bc:	e43e                	c.sdsp	a5,8(sp)
   179be:	853e                	c.mv	a0,a5
   179c0:	bd1fe0ef          	jal	ra,16590 <operator new[](unsigned long)@plt>
   179c4:	bda1                	c.j	1781c <void std::vector<dwarf::die, std::allocator<dwarf::die> >::_M_realloc_insert<dwarf::die const&>(__gnu_cxx::__normal_iterator<dwarf::die*, std::vector<dwarf::die, std::allocator<dwarf::die> > >, dwarf::die const&)+0x76>

00000000000179c6 <dwarf::dwarf::~dwarf()>:
    m->compilation_units.emplace_back(*this, infocur.get_section_offset());
    infocur.subsection();
  }
}

dwarf::~dwarf() {}
   179c6:	1141                	c.addi	sp,-16
   179c8:	e406                	c.sdsp	ra,8(sp)
   179ca:	e022                	c.sdsp	s0,0(sp)
	if (_M_pi != nullptr)
   179cc:	6500                	c.ld	s0,8(a0)
   179ce:	cc19                	c.beqz	s0,179ec <dwarf::dwarf::~dwarf()+0x26>
    if (__is_single_threaded())
   179d0:	00023797          	auipc	a5,0x23
   179d4:	ac87b783          	ld	a5,-1336(a5) # 3a498 <__libc_single_threaded@GLIBC_2.32-0x1c8>
   179d8:	0007c783          	lbu	a5,0(a5)
   179dc:	cf81                	c.beqz	a5,179f4 <dwarf::dwarf::~dwarf()+0x2e>
    _Atomic_word __result = *__mem;
   179de:	5808                	c.lw	a0,48(s0)
    *__mem += __val;
   179e0:	fff5079b          	addiw	a5,a0,-1
   179e4:	d81c                	c.sw	a5,48(s0)
      if (__gnu_cxx::__exchange_and_add_dispatch(&_M_use_count, -1) == 1)
   179e6:	4785                	c.li	a5,1
   179e8:	00f50c63          	beq	a0,a5,17a00 <dwarf::dwarf::~dwarf()+0x3a>
   179ec:	60a2                	c.ldsp	ra,8(sp)
   179ee:	6402                	c.ldsp	s0,0(sp)
   179f0:	0141                	c.addi	sp,16
   179f2:	8082                	c.jr	ra
      return __exchange_and_add(__mem, __val);
   179f4:	55fd                	c.li	a1,-1
   179f6:	03040513          	addi	a0,s0,48
   179fa:	bf7fe0ef          	jal	ra,165f0 <__gnu_cxx::__exchange_and_add(int volatile*, int)@plt>
   179fe:	b7e5                	c.j	179e6 <dwarf::dwarf::~dwarf()+0x20>
	_M_dispose();
   17a00:	601c                	c.ld	a5,0(s0)
   17a02:	6b9c                	c.ld	a5,16(a5)
   17a04:	8522                	c.mv	a0,s0
   17a06:	9782                	c.jalr	a5
	    __atomic_thread_fence (__ATOMIC_ACQ_REL);
   17a08:	0ff0000f          	fence	iorw,iorw
    if (__is_single_threaded())
   17a0c:	00023797          	auipc	a5,0x23
   17a10:	a8c7b783          	ld	a5,-1396(a5) # 3a498 <__libc_single_threaded@GLIBC_2.32-0x1c8>
   17a14:	0007c783          	lbu	a5,0(a5)
   17a18:	cf89                	c.beqz	a5,17a32 <dwarf::dwarf::~dwarf()+0x6c>
    _Atomic_word __result = *__mem;
   17a1a:	5848                	c.lw	a0,52(s0)
    *__mem += __val;
   17a1c:	fff5079b          	addiw	a5,a0,-1
   17a20:	d85c                	c.sw	a5,52(s0)
	if (__gnu_cxx::__exchange_and_add_dispatch(&_M_weak_count,
   17a22:	4785                	c.li	a5,1
   17a24:	fcf514e3          	bne	a0,a5,179ec <dwarf::dwarf::~dwarf()+0x26>
	    _M_destroy();
   17a28:	601c                	c.ld	a5,0(s0)
   17a2a:	6f9c                	c.ld	a5,24(a5)
   17a2c:	8522                	c.mv	a0,s0
   17a2e:	9782                	c.jalr	a5
   17a30:	bf75                	c.j	179ec <dwarf::dwarf::~dwarf()+0x26>
      return __exchange_and_add(__mem, __val);
   17a32:	55fd                	c.li	a1,-1
   17a34:	03440513          	addi	a0,s0,52
   17a38:	bb9fe0ef          	jal	ra,165f0 <__gnu_cxx::__exchange_and_add(int volatile*, int)@plt>
   17a3c:	b7dd                	c.j	17a22 <dwarf::dwarf::~dwarf()+0x5c>

0000000000017a3e <dwarf::dwarf::compilation_units() const>:

const std::vector<compilation_unit> &dwarf::compilation_units() const {
   17a3e:	1141                	c.addi	sp,-16
   17a40:	e406                	c.sdsp	ra,8(sp)
   17a42:	e022                	c.sdsp	s0,0(sp)
   17a44:	842a                	c.mv	s0,a0
  static std::vector<compilation_unit> empty;
   17a46:	e8018513          	addi	a0,gp,-384 # 3a680 <guard variable for dwarf::dwarf::compilation_units() const::empty>
   17a4a:	f97fe0ef          	jal	ra,169e0 <__cxa_guard_acquire@plt>
   17a4e:	e909                	c.bnez	a0,17a60 <dwarf::dwarf::compilation_units() const+0x22>
      { return _M_ptr != nullptr; }
   17a50:	6008                	c.ld	a0,0(s0)
  if (!m)
   17a52:	cd05                	c.beqz	a0,17a8a <dwarf::dwarf::compilation_units() const+0x4c>
    return empty;
  return m->compilation_units;
   17a54:	03050513          	addi	a0,a0,48
}
   17a58:	60a2                	c.ldsp	ra,8(sp)
   17a5a:	6402                	c.ldsp	s0,0(sp)
   17a5c:	0141                	c.addi	sp,16
   17a5e:	8082                	c.jr	ra
	: _M_start(), _M_finish(), _M_end_of_storage()
   17a60:	e6818593          	addi	a1,gp,-408 # 3a668 <dwarf::dwarf::compilation_units() const::empty>
   17a64:	0005b023          	sd	zero,0(a1)
   17a68:	0005b423          	sd	zero,8(a1)
   17a6c:	0005b823          	sd	zero,16(a1)
  static std::vector<compilation_unit> empty;
   17a70:	e3018613          	addi	a2,gp,-464 # 3a630 <__dso_handle>
   17a74:	00023517          	auipc	a0,0x23
   17a78:	91453503          	ld	a0,-1772(a0) # 3a388 <std::vector<dwarf::compilation_unit, std::allocator<dwarf::compilation_unit> >::~vector()@@Base+0x201cc>
   17a7c:	f45fe0ef          	jal	ra,169c0 <__cxa_atexit@plt>
   17a80:	e8018513          	addi	a0,gp,-384 # 3a680 <guard variable for dwarf::dwarf::compilation_units() const::empty>
   17a84:	c7dfe0ef          	jal	ra,16700 <__cxa_guard_release@plt>
   17a88:	b7e1                	c.j	17a50 <dwarf::dwarf::compilation_units() const+0x12>
    return empty;
   17a8a:	e6818513          	addi	a0,gp,-408 # 3a668 <dwarf::dwarf::compilation_units() const::empty>
   17a8e:	b7e9                	c.j	17a58 <dwarf::dwarf::compilation_units() const+0x1a>

0000000000017a90 <dwarf::unit::~unit()>:
        have_abbrevs(false) {}

  void force_abbrevs();
};

unit::~unit() {}
   17a90:	1141                	c.addi	sp,-16
   17a92:	e406                	c.sdsp	ra,8(sp)
   17a94:	e022                	c.sdsp	s0,0(sp)
   17a96:	00023797          	auipc	a5,0x23
   17a9a:	b327b783          	ld	a5,-1230(a5) # 3a5c8 <vtable for dwarf::unit@@Base+0xc98>
   17a9e:	07c1                	c.addi	a5,16
   17aa0:	e11c                	c.sd	a5,0(a0)
	if (_M_pi != nullptr)
   17aa2:	6900                	c.ld	s0,16(a0)
   17aa4:	cc19                	c.beqz	s0,17ac2 <dwarf::unit::~unit()+0x32>
    if (__is_single_threaded())
   17aa6:	00023797          	auipc	a5,0x23
   17aaa:	9f27b783          	ld	a5,-1550(a5) # 3a498 <__libc_single_threaded@GLIBC_2.32-0x1c8>
   17aae:	0007c783          	lbu	a5,0(a5)
   17ab2:	cf81                	c.beqz	a5,17aca <dwarf::unit::~unit()+0x3a>
    _Atomic_word __result = *__mem;
   17ab4:	5808                	c.lw	a0,48(s0)
    *__mem += __val;
   17ab6:	fff5079b          	addiw	a5,a0,-1
   17aba:	d81c                	c.sw	a5,48(s0)
      if (__gnu_cxx::__exchange_and_add_dispatch(&_M_use_count, -1) == 1)
   17abc:	4785                	c.li	a5,1
   17abe:	00f50c63          	beq	a0,a5,17ad6 <dwarf::unit::~unit()+0x46>
   17ac2:	60a2                	c.ldsp	ra,8(sp)
   17ac4:	6402                	c.ldsp	s0,0(sp)
   17ac6:	0141                	c.addi	sp,16
   17ac8:	8082                	c.jr	ra
      return __exchange_and_add(__mem, __val);
   17aca:	55fd                	c.li	a1,-1
   17acc:	03040513          	addi	a0,s0,48
   17ad0:	b21fe0ef          	jal	ra,165f0 <__gnu_cxx::__exchange_and_add(int volatile*, int)@plt>
   17ad4:	b7e5                	c.j	17abc <dwarf::unit::~unit()+0x2c>
	_M_dispose();
   17ad6:	601c                	c.ld	a5,0(s0)
   17ad8:	6b9c                	c.ld	a5,16(a5)
   17ada:	8522                	c.mv	a0,s0
   17adc:	9782                	c.jalr	a5
	    __atomic_thread_fence (__ATOMIC_ACQ_REL);
   17ade:	0ff0000f          	fence	iorw,iorw
    if (__is_single_threaded())
   17ae2:	00023797          	auipc	a5,0x23
   17ae6:	9b67b783          	ld	a5,-1610(a5) # 3a498 <__libc_single_threaded@GLIBC_2.32-0x1c8>
   17aea:	0007c783          	lbu	a5,0(a5)
   17aee:	cf89                	c.beqz	a5,17b08 <dwarf::unit::~unit()+0x78>
    _Atomic_word __result = *__mem;
   17af0:	5848                	c.lw	a0,52(s0)
    *__mem += __val;
   17af2:	fff5079b          	addiw	a5,a0,-1
   17af6:	d85c                	c.sw	a5,52(s0)
	if (__gnu_cxx::__exchange_and_add_dispatch(&_M_weak_count,
   17af8:	4785                	c.li	a5,1
   17afa:	fcf514e3          	bne	a0,a5,17ac2 <dwarf::unit::~unit()+0x32>
	    _M_destroy();
   17afe:	601c                	c.ld	a5,0(s0)
   17b00:	6f9c                	c.ld	a5,24(a5)
   17b02:	8522                	c.mv	a0,s0
   17b04:	9782                	c.jalr	a5
   17b06:	bf75                	c.j	17ac2 <dwarf::unit::~unit()+0x32>
      return __exchange_and_add(__mem, __val);
   17b08:	55fd                	c.li	a1,-1
   17b0a:	03440513          	addi	a0,s0,52
   17b0e:	ae3fe0ef          	jal	ra,165f0 <__gnu_cxx::__exchange_and_add(int volatile*, int)@plt>
   17b12:	b7dd                	c.j	17af8 <dwarf::unit::~unit()+0x68>

0000000000017b14 <dwarf::unit::~unit()>:
   17b14:	1141                	c.addi	sp,-16
   17b16:	e406                	c.sdsp	ra,8(sp)
   17b18:	e022                	c.sdsp	s0,0(sp)
   17b1a:	842a                	c.mv	s0,a0
   17b1c:	f75ff0ef          	jal	ra,17a90 <dwarf::unit::~unit()>
   17b20:	8522                	c.mv	a0,s0
   17b22:	c7ffe0ef          	jal	ra,167a0 <operator delete(void*)@plt>
   17b26:	60a2                	c.ldsp	ra,8(sp)
   17b28:	6402                	c.ldsp	s0,0(sp)
   17b2a:	0141                	c.addi	sp,16
   17b2c:	8082                	c.jr	ra

0000000000017b2e <dwarf::unit::get_dwarf() const>:

const dwarf &unit::get_dwarf() const { return m->file; }
   17b2e:	6508                	c.ld	a0,8(a0)
   17b30:	8082                	c.jr	ra

0000000000017b32 <dwarf::unit::get_section_offset() const>:

section_offset unit::get_section_offset() const { return m->offset; }
   17b32:	651c                	c.ld	a5,8(a0)
   17b34:	6b88                	c.ld	a0,16(a5)
   17b36:	8082                	c.jr	ra

0000000000017b38 <dwarf::unit::data() const>:
    m->root.read(m->root_offset);
  }
  return m->root;
}

const std::shared_ptr<section> &unit::data() const { return m->subsec; }
   17b38:	6508                	c.ld	a0,8(a0)
   17b3a:	0561                	c.addi	a0,24
   17b3c:	8082                	c.jr	ra

0000000000017b3e <dwarf::type_unit::get_type_signature() const>:

  m = make_shared<impl>(file, offset, subsec, debug_abbrev_offset,
                        sub.get_section_offset(), type_signature, type_offset);
}

uint64_t type_unit::get_type_signature() const { return m->type_signature; }
   17b3e:	651c                	c.ld	a5,8(a0)
   17b40:	7f88                	c.ld	a0,56(a5)
   17b42:	8082                	c.jr	ra

0000000000017b44 <dwarf::dwarf::get_section(dwarf::section_type) const>:
std::shared_ptr<section> dwarf::get_section(section_type type) const {
   17b44:	7171                	c.addi16sp	sp,-176
   17b46:	f506                	c.sdsp	ra,168(sp)
   17b48:	f122                	c.sdsp	s0,160(sp)
   17b4a:	ed26                	c.sdsp	s1,152(sp)
   17b4c:	e94a                	c.sdsp	s2,144(sp)
   17b4e:	e54e                	c.sdsp	s3,136(sp)
   17b50:	e152                	c.sdsp	s4,128(sp)
   17b52:	842a                	c.mv	s0,a0
   17b54:	84ae                	c.mv	s1,a1
   17b56:	c632                	c.swsp	a2,12(sp)
  if (type == section_type::info)
   17b58:	470d                	c.li	a4,3
   17b5a:	02e60d63          	beq	a2,a4,17b94 <dwarf::dwarf::get_section(dwarf::section_type) const+0x50>
   17b5e:	87b2                	c.mv	a5,a2
  if (type == section_type::abbrev)
   17b60:	e63d                	c.bnez	a2,17bce <dwarf::dwarf::get_section(dwarf::section_type) const+0x8a>
      { return _M_ptr; }
   17b62:	619c                	c.ld	a5,0(a1)
      __shared_ptr(const __shared_ptr&) noexcept = default;
   17b64:	7398                	c.ld	a4,32(a5)
   17b66:	e118                	c.sd	a4,0(a0)
      : _M_pi(__r._M_pi)
   17b68:	7788                	c.ld	a0,40(a5)
   17b6a:	e408                	c.sd	a0,8(s0)
	if (_M_pi != nullptr)
   17b6c:	c919                	c.beqz	a0,17b82 <dwarf::dwarf::get_section(dwarf::section_type) const+0x3e>
    if (__is_single_threaded())
   17b6e:	00023797          	auipc	a5,0x23
   17b72:	92a7b783          	ld	a5,-1750(a5) # 3a498 <__libc_single_threaded@GLIBC_2.32-0x1c8>
   17b76:	0007c783          	lbu	a5,0(a5)
   17b7a:	c7a1                	c.beqz	a5,17bc2 <dwarf::dwarf::get_section(dwarf::section_type) const+0x7e>
  { *__mem += __val; }
   17b7c:	591c                	c.lw	a5,48(a0)
   17b7e:	2785                	c.addiw	a5,1
   17b80:	d91c                	c.sw	a5,48(a0)
}
   17b82:	8522                	c.mv	a0,s0
   17b84:	70aa                	c.ldsp	ra,168(sp)
   17b86:	740a                	c.ldsp	s0,160(sp)
   17b88:	64ea                	c.ldsp	s1,152(sp)
   17b8a:	694a                	c.ldsp	s2,144(sp)
   17b8c:	69aa                	c.ldsp	s3,136(sp)
   17b8e:	6a0a                	c.ldsp	s4,128(sp)
   17b90:	614d                	c.addi16sp	sp,176
   17b92:	8082                	c.jr	ra
      { return _M_ptr; }
   17b94:	619c                	c.ld	a5,0(a1)
      __shared_ptr(const __shared_ptr&) noexcept = default;
   17b96:	6b98                	c.ld	a4,16(a5)
   17b98:	e118                	c.sd	a4,0(a0)
      : _M_pi(__r._M_pi)
   17b9a:	6f88                	c.ld	a0,24(a5)
   17b9c:	e408                	c.sd	a0,8(s0)
	if (_M_pi != nullptr)
   17b9e:	d175                	c.beqz	a0,17b82 <dwarf::dwarf::get_section(dwarf::section_type) const+0x3e>
    if (__is_single_threaded())
   17ba0:	00023797          	auipc	a5,0x23
   17ba4:	8f87b783          	ld	a5,-1800(a5) # 3a498 <__libc_single_threaded@GLIBC_2.32-0x1c8>
   17ba8:	0007c783          	lbu	a5,0(a5)
   17bac:	c789                	c.beqz	a5,17bb6 <dwarf::dwarf::get_section(dwarf::section_type) const+0x72>
  { *__mem += __val; }
   17bae:	591c                	c.lw	a5,48(a0)
   17bb0:	2785                	c.addiw	a5,1
   17bb2:	d91c                	c.sw	a5,48(a0)
   17bb4:	b7f9                	c.j	17b82 <dwarf::dwarf::get_section(dwarf::section_type) const+0x3e>
      __atomic_add(__mem, __val);
   17bb6:	4585                	c.li	a1,1
   17bb8:	03050513          	addi	a0,a0,48
   17bbc:	9f5fe0ef          	jal	ra,165b0 <__gnu_cxx::__atomic_add(int volatile*, int)@plt>
   17bc0:	b7c9                	c.j	17b82 <dwarf::dwarf::get_section(dwarf::section_type) const+0x3e>
   17bc2:	4585                	c.li	a1,1
   17bc4:	03050513          	addi	a0,a0,48
   17bc8:	9e9fe0ef          	jal	ra,165b0 <__gnu_cxx::__atomic_add(int volatile*, int)@plt>
   17bcc:	bf5d                	c.j	17b82 <dwarf::dwarf::get_section(dwarf::section_type) const+0x3e>
      { return _M_ptr; }
   17bce:	618c                	c.ld	a1,0(a1)
      _M_rightmost() const _GLIBCXX_NOEXCEPT
      { return this->_M_impl._M_header._M_right; }

      _Link_type
      _M_mbegin() const _GLIBCXX_NOEXCEPT
      { return static_cast<_Link_type>(this->_M_impl._M_header._M_parent); }
   17bd0:	6dd8                	c.ld	a4,152(a1)
	  (this->_M_impl._M_header._M_parent);
      }

      _Base_ptr
      _M_end() _GLIBCXX_NOEXCEPT
      { return &this->_M_impl._M_header; }
   17bd2:	09058513          	addi	a0,a1,144
		      _Compare, _Alloc>::iterator
    _Rb_tree<_Key, _Val, _KeyOfValue, _Compare, _Alloc>::
    _M_lower_bound(_Link_type __x, _Base_ptr __y,
		   const _Key& __k)
    {
      while (__x != 0)
   17bd6:	28070c63          	beq	a4,zero,17e6e <dwarf::dwarf::get_section(dwarf::section_type) const+0x32a>
   17bda:	862a                	c.mv	a2,a0
   17bdc:	a019                	c.j	17be2 <dwarf::dwarf::get_section(dwarf::section_type) const+0x9e>
      { return static_cast<_Link_type>(__x->_M_right); }
   17bde:	6f18                	c.ld	a4,24(a4)
      while (__x != 0)
   17be0:	c719                	c.beqz	a4,17bee <dwarf::dwarf::get_section(dwarf::section_type) const+0xaa>
	if (!_M_impl._M_key_compare(_S_key(__x), __k))
   17be2:	5314                	c.lw	a3,32(a4)
   17be4:	fef6cde3          	blt	a3,a5,17bde <dwarf::dwarf::get_section(dwarf::section_type) const+0x9a>
      _S_left(_Base_ptr __x) _GLIBCXX_NOEXCEPT
   17be8:	863a                	c.mv	a2,a4
	  __y = __x, __x = _S_left(__x);
   17bea:	6b18                	c.ld	a4,16(a4)
   17bec:	bfd5                	c.j	17be0 <dwarf::dwarf::get_section(dwarf::section_type) const+0x9c>
    find(const _Key& __k)
    {
      iterator __j = _M_lower_bound(_M_begin(), _M_end(), __k);
      return (__j == end()
	      || _M_impl._M_key_compare(__k,
					_S_key(__j._M_node))) ? end() : __j;
   17bee:	28c50063          	beq	a0,a2,17e6e <dwarf::dwarf::get_section(dwarf::section_type) const+0x32a>
	      || _M_impl._M_key_compare(__k,
   17bf2:	5218                	c.lw	a4,32(a2)
   17bf4:	26e7cd63          	blt	a5,a4,17e6e <dwarf::dwarf::get_section(dwarf::section_type) const+0x32a>
      __shared_ptr(const __shared_ptr&) noexcept = default;
   17bf8:	761c                	c.ld	a5,40(a2)
   17bfa:	e01c                	c.sd	a5,0(s0)
      : _M_pi(__r._M_pi)
   17bfc:	7a08                	c.ld	a0,48(a2)
   17bfe:	e408                	c.sd	a0,8(s0)
	if (_M_pi != nullptr)
   17c00:	d149                	c.beqz	a0,17b82 <dwarf::dwarf::get_section(dwarf::section_type) const+0x3e>
    if (__is_single_threaded())
   17c02:	00023797          	auipc	a5,0x23
   17c06:	8967b783          	ld	a5,-1898(a5) # 3a498 <__libc_single_threaded@GLIBC_2.32-0x1c8>
   17c0a:	0007c783          	lbu	a5,0(a5)
   17c0e:	c789                	c.beqz	a5,17c18 <dwarf::dwarf::get_section(dwarf::section_type) const+0xd4>
  { *__mem += __val; }
   17c10:	591c                	c.lw	a5,48(a0)
   17c12:	2785                	c.addiw	a5,1
   17c14:	d91c                	c.sw	a5,48(a0)
   17c16:	b7b5                	c.j	17b82 <dwarf::dwarf::get_section(dwarf::section_type) const+0x3e>
      __atomic_add(__mem, __val);
   17c18:	4585                	c.li	a1,1
   17c1a:	03050513          	addi	a0,a0,48
   17c1e:	993fe0ef          	jal	ra,165b0 <__gnu_cxx::__atomic_add(int volatile*, int)@plt>
   17c22:	b785                	c.j	17b82 <dwarf::dwarf::get_section(dwarf::section_type) const+0x3e>
                       " section missing");
   17c24:	4541                	c.li	a0,16
   17c26:	a6bfe0ef          	jal	ra,16690 <__cxa_allocate_exception@plt>
   17c2a:	84aa                	c.mv	s1,a0
    throw format_error(std::string(elf::section_type_to_name(type)) +
   17c2c:	4532                	c.lwsp	a0,12(sp)
   17c2e:	78f0e0ef          	jal	ra,26bbc <dwarf::elf::section_type_to_name(dwarf::section_type)>
   17c32:	85aa                	c.mv	a1,a0
   17c34:	08b0                	c.addi4spn	a2,sp,88
   17c36:	0808                	c.addi4spn	a0,sp,16
   17c38:	c49fe0ef          	jal	ra,16880 <std::__cxx11::basic_string<char, std::char_traits<char>, std::allocator<char> >::basic_string(char const*, std::allocator<char> const&)@plt>
  template<typename _CharT, typename _Traits, typename _Alloc>
    _GLIBCXX20_CONSTEXPR
    inline basic_string<_CharT, _Traits, _Alloc>
    operator+(basic_string<_CharT, _Traits, _Alloc>&& __lhs,
	      const _CharT* __rhs)
    { return std::move(__lhs.append(__rhs)); }
   17c3c:	00016597          	auipc	a1,0x16
   17c40:	0c458593          	addi	a1,a1,196 # 2dd00 <std::_Sp_make_shared_tag::_S_ti()::__tag+0x30>
   17c44:	0808                	c.addi4spn	a0,sp,16
   17c46:	dfbfe0ef          	jal	ra,16a40 <std::__cxx11::basic_string<char, std::char_traits<char>, std::allocator<char> >::append(char const*)@plt>
   17c4a:	85aa                	c.mv	a1,a0
   17c4c:	1800                	c.addi4spn	s0,sp,48
   17c4e:	8522                	c.mv	a0,s0
   17c50:	a81fe0ef          	jal	ra,166d0 <std::__cxx11::basic_string<char, std::char_traits<char>, std::allocator<char> >::basic_string(std::__cxx11::basic_string<char, std::char_traits<char>, std::allocator<char> >&&)@plt>
      : std::runtime_error(what_arg) {}
   17c54:	85a2                	c.mv	a1,s0
   17c56:	8526                	c.mv	a0,s1
   17c58:	bd9fe0ef          	jal	ra,16830 <std::runtime_error::runtime_error(std::__cxx11::basic_string<char, std::char_traits<char>, std::allocator<char> > const&)@plt>
   17c5c:	00023797          	auipc	a5,0x23
   17c60:	9147b783          	ld	a5,-1772(a5) # 3a570 <vtable for dwarf::format_error@@Base+0xc68>
   17c64:	07c1                	c.addi	a5,16
   17c66:	e09c                	c.sd	a5,0(s1)
      { return _M_dataplus._M_p; }
   17c68:	7542                	c.ldsp	a0,48(sp)
	if (!_M_is_local())
   17c6a:	009c                	c.addi4spn	a5,sp,64
   17c6c:	00f50463          	beq	a0,a5,17c74 <dwarf::dwarf::get_section(dwarf::section_type) const+0x130>
	_GLIBCXX_OPERATOR_DELETE(_GLIBCXX_SIZED_DEALLOC(__p, __n));
   17c70:	b31fe0ef          	jal	ra,167a0 <operator delete(void*)@plt>
      { return _M_dataplus._M_p; }
   17c74:	6542                	c.ldsp	a0,16(sp)
	if (!_M_is_local())
   17c76:	101c                	c.addi4spn	a5,sp,32
   17c78:	00f50463          	beq	a0,a5,17c80 <dwarf::dwarf::get_section(dwarf::section_type) const+0x13c>
   17c7c:	b25fe0ef          	jal	ra,167a0 <operator delete(void*)@plt>
                       " section missing");
   17c80:	00022617          	auipc	a2,0x22
   17c84:	71863603          	ld	a2,1816(a2) # 3a398 <dwarf::format_error::~format_error()@@Base+0x20246>
   17c88:	00022597          	auipc	a1,0x22
   17c8c:	6405b583          	ld	a1,1600(a1) # 3a2c8 <typeinfo for dwarf::format_error@@Base+0xa60>
   17c90:	8526                	c.mv	a0,s1
   17c92:	ccffe0ef          	jal	ra,16960 <__cxa_throw@plt>
      { return static_cast<_Link_type>(__x->_M_right); }
   17c96:	6f9c                	c.ld	a5,24(a5)
      while (__x != 0)
   17c98:	c799                	c.beqz	a5,17ca6 <dwarf::dwarf::get_section(dwarf::section_type) const+0x162>
	if (!_M_impl._M_key_compare(_S_key(__x), __k))
   17c9a:	5398                	c.lw	a4,32(a5)
   17c9c:	fed74de3          	blt	a4,a3,17c96 <dwarf::dwarf::get_section(dwarf::section_type) const+0x152>
      _S_left(_Base_ptr __x) _GLIBCXX_NOEXCEPT
   17ca0:	893e                	c.mv	s2,a5
	  __y = __x, __x = _S_left(__x);
   17ca2:	6b9c                	c.ld	a5,16(a5)
   17ca4:	bfd5                	c.j	17c98 <dwarf::dwarf::get_section(dwarf::section_type) const+0x154>
	// concept requirements
	__glibcxx_function_requires(_DefaultConstructibleConcept<mapped_type>)

	iterator __i = lower_bound(__k);
	// __i->first is greater than or equivalent to __k.
	if (__i == end() || key_comp()(__k, (*__i).first))
   17ca6:	0cc90963          	beq	s2,a2,17d78 <dwarf::dwarf::get_section(dwarf::section_type) const+0x234>
   17caa:	02092783          	lw	a5,32(s2)
   17cae:	02f6d363          	bge	a3,a5,17cd4 <dwarf::dwarf::get_section(dwarf::section_type) const+0x190>
    {
      constexpr _Head_base()
      : _M_head_impl() { }

      constexpr _Head_base(const _Head& __h)
      : _M_head_impl(__h) { }
   17cb2:	007c                	c.addi4spn	a5,sp,12
   17cb4:	f4be                	c.sdsp	a5,104(sp)
#if __cplusplus >= 201103L
	  __i = _M_t._M_emplace_hint_unique(__i, std::piecewise_construct,
   17cb6:	1098                	c.addi4spn	a4,sp,96
   17cb8:	10b4                	c.addi4spn	a3,sp,104
   17cba:	00016617          	auipc	a2,0x16
   17cbe:	36660613          	addi	a2,a2,870 # 2e020 <std::piecewise_construct>
   17cc2:	85ca                	c.mv	a1,s2
   17cc4:	08850513          	addi	a0,a0,136
   17cc8:	00022317          	auipc	t1,0x22
   17ccc:	6f033303          	ld	t1,1776(t1) # 3a3b8 <std::_Rb_tree_iterator<std::pair<dwarf::section_type const, std::shared_ptr<dwarf::section> > > std::_Rb_tree<dwarf::section_type, std::pair<dwarf::section_type const, std::shared_ptr<dwarf::section> >, std::_Select1st<std::pair<dwarf::section_type const, std::shared_ptr<dwarf::section> > >, std::less<dwarf::section_type>, std::allocator<std::pair<dwarf::section_type const, std::shared_ptr<dwarf::section> > > >::_M_emplace_hint_unique<std::piecewise_construct_t const&, std::tuple<dwarf::section_type const&>, std::tuple<> >(std::_Rb_tree_const_iterator<std::pair<dwarf::section_type const, std::shared_ptr<dwarf::section> > >, std::piecewise_construct_t const&, std::tuple<dwarf::section_type const&>&&, std::tuple<>&&)@@Base+0x1f558>
   17cd0:	9302                	c.jalr	t1
   17cd2:	892a                	c.mv	s2,a0
      { return _M_ptr; }
   17cd4:	609c                	c.ld	a5,0(s1)
   17cd6:	0107ba03          	ld	s4,16(a5)
	return static_cast<_Tp*>(_GLIBCXX_OPERATOR_NEW(__n * sizeof(_Tp)));
   17cda:	06000513          	addi	a0,zero,96
   17cde:	ad3fe0ef          	jal	ra,167b0 <operator new(unsigned long)@plt>
   17ce2:	00052423          	sw	zero,8(a0)
   17ce6:	00052623          	sw	zero,12(a0)
   17cea:	00052823          	sw	zero,16(a0)
   17cee:	00052a23          	sw	zero,20(a0)
   17cf2:	00052c23          	sw	zero,24(a0)
   17cf6:	00052e23          	sw	zero,28(a0)
   17cfa:	02053023          	sd	zero,32(a0)
   17cfe:	02053423          	sd	zero,40(a0)
      : _M_use_count(1), _M_weak_count(1) { }
   17d02:	4785                	c.li	a5,1
   17d04:	d91c                	c.sw	a5,48(a0)
   17d06:	d95c                	c.sw	a5,52(a0)
	: _M_impl(__a)
   17d08:	00023797          	auipc	a5,0x23
   17d0c:	8d07b783          	ld	a5,-1840(a5) # 3a5d8 <vtable for std::_Sp_counted_ptr_inplace<dwarf::section, std::allocator<void>, (__gnu_cxx::_Lock_policy)1>@@Base+0xc48>
   17d10:	07c1                	c.addi	a5,16
   17d12:	e11c                	c.sd	a5,0(a0)
      ::new((void*)__p) _Tp(std::forward<_Args>(__args)...);
   17d14:	01ca2703          	lw	a4,28(s4)
  const byte_order ord;
  unsigned addr_size;

  section(section_type type, const void *begin, section_length length,
          byte_order ord, format fmt = format::unknown, unsigned addr_size = 0)
      : type(type), begin((char *)begin), end((char *)begin + length), fmt(fmt),
   17d18:	47a9                	c.li	a5,10
   17d1a:	dd1c                	c.sw	a5,56(a0)
   17d1c:	05353023          	sd	s3,64(a0)
   17d20:	67c6                	c.ldsp	a5,80(sp)
   17d22:	97ce                	c.add	a5,s3
   17d24:	e53c                	c.sd	a5,72(a0)
   17d26:	04052823          	sw	zero,80(a0)
        ord(ord), addr_size(addr_size) {}
   17d2a:	c978                	c.sw	a4,84(a0)
   17d2c:	04052c23          	sw	zero,88(a0)
   17d30:	03850793          	addi	a5,a0,56
      // concept requirements
      __glibcxx_function_requires(_SGIAssignableConcept<_Tp>)
#endif
      _Tp __tmp = _GLIBCXX_MOVE(__a);
      __a = _GLIBCXX_MOVE(__b);
      __b = _GLIBCXX_MOVE(__tmp);
   17d34:	02f93423          	sd	a5,40(s2)
	_Sp_counted_base<_Lp>* __tmp = __r._M_pi;
   17d38:	03093983          	ld	s3,48(s2)
	__r._M_pi = _M_pi;
   17d3c:	02a93823          	sd	a0,48(s2)
	if (_M_pi != nullptr)
   17d40:	02098263          	beq	s3,zero,17d64 <dwarf::dwarf::get_section(dwarf::section_type) const+0x220>
    if (__is_single_threaded())
   17d44:	00022797          	auipc	a5,0x22
   17d48:	7547b783          	ld	a5,1876(a5) # 3a498 <__libc_single_threaded@GLIBC_2.32-0x1c8>
   17d4c:	0007c783          	lbu	a5,0(a5)
   17d50:	c795                	c.beqz	a5,17d7c <dwarf::dwarf::get_section(dwarf::section_type) const+0x238>
    _Atomic_word __result = *__mem;
   17d52:	0309a503          	lw	a0,48(s3)
    *__mem += __val;
   17d56:	fff5079b          	addiw	a5,a0,-1
   17d5a:	02f9a823          	sw	a5,48(s3)
      if (__gnu_cxx::__exchange_and_add_dispatch(&_M_use_count, -1) == 1)
   17d5e:	4785                	c.li	a5,1
   17d60:	02f50463          	beq	a0,a5,17d88 <dwarf::dwarf::get_section(dwarf::section_type) const+0x244>
      { return _M_ptr; }
   17d64:	6088                	c.ld	a0,0(s1)
      { return static_cast<_Link_type>(this->_M_impl._M_header._M_parent); }
   17d66:	6d5c                	c.ld	a5,152(a0)
      { return &this->_M_impl._M_header; }
   17d68:	09050613          	addi	a2,a0,144
      while (__x != 0)
   17d6c:	c3e1                	c.beqz	a5,17e2c <dwarf::dwarf::get_section(dwarf::section_type) const+0x2e8>
    struct less : public binary_function<_Tp, _Tp, bool>
    {
      _GLIBCXX14_CONSTEXPR
      bool
      operator()(const _Tp& __x, const _Tp& __y) const
      { return __x < __y; }
   17d6e:	46b2                	c.lwsp	a3,12(sp)
   17d70:	85b2                	c.mv	a1,a2
   17d72:	a08d                	c.j	17dd4 <dwarf::dwarf::get_section(dwarf::section_type) const+0x290>
   17d74:	8932                	c.mv	s2,a2
   17d76:	bf35                	c.j	17cb2 <dwarf::dwarf::get_section(dwarf::section_type) const+0x16e>
   17d78:	8932                	c.mv	s2,a2
   17d7a:	bf25                	c.j	17cb2 <dwarf::dwarf::get_section(dwarf::section_type) const+0x16e>
      return __exchange_and_add(__mem, __val);
   17d7c:	55fd                	c.li	a1,-1
   17d7e:	03098513          	addi	a0,s3,48
   17d82:	86ffe0ef          	jal	ra,165f0 <__gnu_cxx::__exchange_and_add(int volatile*, int)@plt>
   17d86:	bfe1                	c.j	17d5e <dwarf::dwarf::get_section(dwarf::section_type) const+0x21a>
	_M_dispose();
   17d88:	0009b783          	ld	a5,0(s3)
   17d8c:	6b9c                	c.ld	a5,16(a5)
   17d8e:	854e                	c.mv	a0,s3
   17d90:	9782                	c.jalr	a5
	    __atomic_thread_fence (__ATOMIC_ACQ_REL);
   17d92:	0ff0000f          	fence	iorw,iorw
    if (__is_single_threaded())
   17d96:	00022797          	auipc	a5,0x22
   17d9a:	7027b783          	ld	a5,1794(a5) # 3a498 <__libc_single_threaded@GLIBC_2.32-0x1c8>
   17d9e:	0007c783          	lbu	a5,0(a5)
   17da2:	c385                	c.beqz	a5,17dc2 <dwarf::dwarf::get_section(dwarf::section_type) const+0x27e>
    _Atomic_word __result = *__mem;
   17da4:	0349a783          	lw	a5,52(s3)
    *__mem += __val;
   17da8:	fff7871b          	addiw	a4,a5,-1
   17dac:	02e9aa23          	sw	a4,52(s3)
	if (__gnu_cxx::__exchange_and_add_dispatch(&_M_weak_count,
   17db0:	4705                	c.li	a4,1
   17db2:	fae799e3          	bne	a5,a4,17d64 <dwarf::dwarf::get_section(dwarf::section_type) const+0x220>
	    _M_destroy();
   17db6:	0009b783          	ld	a5,0(s3)
   17dba:	6f9c                	c.ld	a5,24(a5)
   17dbc:	854e                	c.mv	a0,s3
   17dbe:	9782                	c.jalr	a5
   17dc0:	b755                	c.j	17d64 <dwarf::dwarf::get_section(dwarf::section_type) const+0x220>
      return __exchange_and_add(__mem, __val);
   17dc2:	55fd                	c.li	a1,-1
   17dc4:	03498513          	addi	a0,s3,52
   17dc8:	829fe0ef          	jal	ra,165f0 <__gnu_cxx::__exchange_and_add(int volatile*, int)@plt>
   17dcc:	87aa                	c.mv	a5,a0
   17dce:	b7cd                	c.j	17db0 <dwarf::dwarf::get_section(dwarf::section_type) const+0x26c>
      { return static_cast<_Link_type>(__x->_M_right); }
   17dd0:	6f9c                	c.ld	a5,24(a5)
      while (__x != 0)
   17dd2:	c799                	c.beqz	a5,17de0 <dwarf::dwarf::get_section(dwarf::section_type) const+0x29c>
	if (!_M_impl._M_key_compare(_S_key(__x), __k))
   17dd4:	5398                	c.lw	a4,32(a5)
   17dd6:	fed74de3          	blt	a4,a3,17dd0 <dwarf::dwarf::get_section(dwarf::section_type) const+0x28c>
      _S_left(_Base_ptr __x) _GLIBCXX_NOEXCEPT
   17dda:	85be                	c.mv	a1,a5
	  __y = __x, __x = _S_left(__x);
   17ddc:	6b9c                	c.ld	a5,16(a5)
   17dde:	bfd5                	c.j	17dd2 <dwarf::dwarf::get_section(dwarf::section_type) const+0x28e>
	if (__i == end() || key_comp()(__k, (*__i).first))
   17de0:	04c58863          	beq	a1,a2,17e30 <dwarf::dwarf::get_section(dwarf::section_type) const+0x2ec>
   17de4:	519c                	c.lw	a5,32(a1)
   17de6:	02f6d263          	bge	a3,a5,17e0a <dwarf::dwarf::get_section(dwarf::section_type) const+0x2c6>
   17dea:	007c                	c.addi4spn	a5,sp,12
   17dec:	fcbe                	c.sdsp	a5,120(sp)
	  __i = _M_t._M_emplace_hint_unique(__i, std::piecewise_construct,
   17dee:	1898                	c.addi4spn	a4,sp,112
   17df0:	18b4                	c.addi4spn	a3,sp,120
   17df2:	00016617          	auipc	a2,0x16
   17df6:	22e60613          	addi	a2,a2,558 # 2e020 <std::piecewise_construct>
   17dfa:	08850513          	addi	a0,a0,136
   17dfe:	00022317          	auipc	t1,0x22
   17e02:	5ba33303          	ld	t1,1466(t1) # 3a3b8 <std::_Rb_tree_iterator<std::pair<dwarf::section_type const, std::shared_ptr<dwarf::section> > > std::_Rb_tree<dwarf::section_type, std::pair<dwarf::section_type const, std::shared_ptr<dwarf::section> >, std::_Select1st<std::pair<dwarf::section_type const, std::shared_ptr<dwarf::section> > >, std::less<dwarf::section_type>, std::allocator<std::pair<dwarf::section_type const, std::shared_ptr<dwarf::section> > > >::_M_emplace_hint_unique<std::piecewise_construct_t const&, std::tuple<dwarf::section_type const&>, std::tuple<> >(std::_Rb_tree_const_iterator<std::pair<dwarf::section_type const, std::shared_ptr<dwarf::section> > >, std::piecewise_construct_t const&, std::tuple<dwarf::section_type const&>&&, std::tuple<>&&)@@Base+0x1f558>
   17e06:	9302                	c.jalr	t1
   17e08:	85aa                	c.mv	a1,a0
      __shared_ptr(const __shared_ptr&) noexcept = default;
   17e0a:	759c                	c.ld	a5,40(a1)
   17e0c:	e01c                	c.sd	a5,0(s0)
      : _M_pi(__r._M_pi)
   17e0e:	7988                	c.ld	a0,48(a1)
   17e10:	e408                	c.sd	a0,8(s0)
	if (_M_pi != nullptr)
   17e12:	d60508e3          	beq	a0,zero,17b82 <dwarf::dwarf::get_section(dwarf::section_type) const+0x3e>
    if (__is_single_threaded())
   17e16:	00022797          	auipc	a5,0x22
   17e1a:	6827b783          	ld	a5,1666(a5) # 3a498 <__libc_single_threaded@GLIBC_2.32-0x1c8>
   17e1e:	0007c783          	lbu	a5,0(a5)
   17e22:	cb89                	c.beqz	a5,17e34 <dwarf::dwarf::get_section(dwarf::section_type) const+0x2f0>
  { *__mem += __val; }
   17e24:	591c                	c.lw	a5,48(a0)
   17e26:	2785                	c.addiw	a5,1
   17e28:	d91c                	c.sw	a5,48(a0)
   17e2a:	bba1                	c.j	17b82 <dwarf::dwarf::get_section(dwarf::section_type) const+0x3e>
      while (__x != 0)
   17e2c:	85b2                	c.mv	a1,a2
   17e2e:	bf75                	c.j	17dea <dwarf::dwarf::get_section(dwarf::section_type) const+0x2a6>
   17e30:	85b2                	c.mv	a1,a2
   17e32:	bf65                	c.j	17dea <dwarf::dwarf::get_section(dwarf::section_type) const+0x2a6>
      __atomic_add(__mem, __val);
   17e34:	4585                	c.li	a1,1
   17e36:	03050513          	addi	a0,a0,48
   17e3a:	f76fe0ef          	jal	ra,165b0 <__gnu_cxx::__atomic_add(int volatile*, int)@plt>
   17e3e:	b391                	c.j	17b82 <dwarf::dwarf::get_section(dwarf::section_type) const+0x3e>
      { return _M_dataplus._M_p; }
   17e40:	842a                	c.mv	s0,a0
   17e42:	7542                	c.ldsp	a0,48(sp)
	if (!_M_is_local())
   17e44:	009c                	c.addi4spn	a5,sp,64
   17e46:	00f50463          	beq	a0,a5,17e4e <dwarf::dwarf::get_section(dwarf::section_type) const+0x30a>
	_GLIBCXX_OPERATOR_DELETE(_GLIBCXX_SIZED_DEALLOC(__p, __n));
   17e4a:	957fe0ef          	jal	ra,167a0 <operator delete(void*)@plt>
      { return _M_dataplus._M_p; }
   17e4e:	6542                	c.ldsp	a0,16(sp)
	if (!_M_is_local())
   17e50:	101c                	c.addi4spn	a5,sp,32
   17e52:	00f50463          	beq	a0,a5,17e5a <dwarf::dwarf::get_section(dwarf::section_type) const+0x316>
   17e56:	94bfe0ef          	jal	ra,167a0 <operator delete(void*)@plt>
   17e5a:	8526                	c.mv	a0,s1
   17e5c:	8f5fe0ef          	jal	ra,16750 <__cxa_free_exception@plt>
   17e60:	8522                	c.mv	a0,s0
   17e62:	b2ffe0ef          	jal	ra,16990 <_Unwind_Resume@plt>
      { return _M_dataplus._M_p; }
   17e66:	842a                	c.mv	s0,a0
   17e68:	b7dd                	c.j	17e4e <dwarf::dwarf::get_section(dwarf::section_type) const+0x30a>
   17e6a:	842a                	c.mv	s0,a0
   17e6c:	b7fd                	c.j	17e5a <dwarf::dwarf::get_section(dwarf::section_type) const+0x316>
      { return _M_ptr; }
   17e6e:	6188                	c.ld	a0,0(a1)
  const void *data = m->l->load(type, &size);
   17e70:	6118                	c.ld	a4,0(a0)
   17e72:	6b18                	c.ld	a4,16(a4)
   17e74:	0890                	c.addi4spn	a2,sp,80
   17e76:	85be                	c.mv	a1,a5
   17e78:	9702                	c.jalr	a4
   17e7a:	89aa                	c.mv	s3,a0
  if (!data)
   17e7c:	da0504e3          	beq	a0,zero,17c24 <dwarf::dwarf::get_section(dwarf::section_type) const+0xe0>
   17e80:	6088                	c.ld	a0,0(s1)
      { return static_cast<_Link_type>(this->_M_impl._M_header._M_parent); }
   17e82:	6d5c                	c.ld	a5,152(a0)
      { return &this->_M_impl._M_header; }
   17e84:	09050613          	addi	a2,a0,144
      while (__x != 0)
   17e88:	ee0786e3          	beq	a5,zero,17d74 <dwarf::dwarf::get_section(dwarf::section_type) const+0x230>
   17e8c:	46b2                	c.lwsp	a3,12(sp)
   17e8e:	8932                	c.mv	s2,a2
   17e90:	b529                	c.j	17c9a <dwarf::dwarf::get_section(dwarf::section_type) const+0x156>

0000000000017e92 <dwarf::compilation_unit::compilation_unit(dwarf::dwarf const&, unsigned long)>:
compilation_unit::compilation_unit(const dwarf &file, section_offset offset) {
   17e92:	7155                	c.addi16sp	sp,-208
   17e94:	e586                	c.sdsp	ra,200(sp)
   17e96:	e1a2                	c.sdsp	s0,192(sp)
   17e98:	fd26                	c.sdsp	s1,184(sp)
   17e9a:	f94a                	c.sdsp	s2,176(sp)
   17e9c:	f54e                	c.sdsp	s3,168(sp)
   17e9e:	f152                	c.sdsp	s4,160(sp)
   17ea0:	ed56                	c.sdsp	s5,152(sp)
   17ea2:	e95a                	c.sdsp	s6,144(sp)
   17ea4:	84aa                	c.mv	s1,a0
   17ea6:	892e                	c.mv	s2,a1
   17ea8:	89b2                	c.mv	s3,a2
      : _M_ptr(0), _M_refcount()
   17eaa:	00053423          	sd	zero,8(a0)
      constexpr __shared_count() noexcept : _M_pi(0)
   17eae:	00053823          	sd	zero,16(a0)
   17eb2:	00022797          	auipc	a5,0x22
   17eb6:	41e7b783          	ld	a5,1054(a5) # 3a2d0 <vtable for dwarf::compilation_unit@@Base+0x980>
   17eba:	07c1                	c.addi	a5,16
   17ebc:	e11c                	c.sd	a5,0(a0)
  cursor cur(file.get_section(section_type::info), offset);
   17ebe:	460d                	c.li	a2,3
   17ec0:	0108                	c.addi4spn	a0,sp,128
   17ec2:	c83ff0ef          	jal	ra,17b44 <dwarf::dwarf::get_section(dwarf::section_type) const>
      __shared_ptr(const __shared_ptr&) noexcept = default;
   17ec6:	678a                	c.ldsp	a5,128(sp)
   17ec8:	e83e                	c.sdsp	a5,16(sp)
      : _M_pi(__r._M_pi)
   17eca:	652a                	c.ldsp	a0,136(sp)
   17ecc:	ec2a                	c.sdsp	a0,24(sp)
	if (_M_pi != nullptr)
   17ece:	c919                	c.beqz	a0,17ee4 <dwarf::compilation_unit::compilation_unit(dwarf::dwarf const&, unsigned long)+0x52>
    if (__is_single_threaded())
   17ed0:	00022797          	auipc	a5,0x22
   17ed4:	5c87b783          	ld	a5,1480(a5) # 3a498 <__libc_single_threaded@GLIBC_2.32-0x1c8>
   17ed8:	0007c783          	lbu	a5,0(a5)
   17edc:	cf8d                	c.beqz	a5,17f16 <dwarf::compilation_unit::compilation_unit(dwarf::dwarf const&, unsigned long)+0x84>
  { *__mem += __val; }
   17ede:	591c                	c.lw	a5,48(a0)
   17ee0:	2785                	c.addiw	a5,1
   17ee2:	d91c                	c.sw	a5,48(a0)
  std::shared_ptr<section> sec;
  const char *pos;

  cursor() : pos(nullptr) {}
  cursor(const std::shared_ptr<section> sec, section_offset offset = 0)
      : sec(sec), pos(sec->begin + offset) {}
   17ee4:	678a                	c.ldsp	a5,128(sp)
   17ee6:	679c                	c.ld	a5,8(a5)
   17ee8:	97ce                	c.add	a5,s3
   17eea:	f03e                	c.sdsp	a5,32(sp)
	if (_M_pi != nullptr)
   17eec:	642a                	c.ldsp	s0,136(sp)
   17eee:	cc19                	c.beqz	s0,17f0c <dwarf::compilation_unit::compilation_unit(dwarf::dwarf const&, unsigned long)+0x7a>
    if (__is_single_threaded())
   17ef0:	00022797          	auipc	a5,0x22
   17ef4:	5a87b783          	ld	a5,1448(a5) # 3a498 <__libc_single_threaded@GLIBC_2.32-0x1c8>
   17ef8:	0007c783          	lbu	a5,0(a5)
   17efc:	c39d                	c.beqz	a5,17f22 <dwarf::compilation_unit::compilation_unit(dwarf::dwarf const&, unsigned long)+0x90>
    _Atomic_word __result = *__mem;
   17efe:	5808                	c.lw	a0,48(s0)
    *__mem += __val;
   17f00:	fff5079b          	addiw	a5,a0,-1
   17f04:	d81c                	c.sw	a5,48(s0)
      if (__gnu_cxx::__exchange_and_add_dispatch(&_M_use_count, -1) == 1)
   17f06:	4785                	c.li	a5,1
   17f08:	02f50363          	beq	a0,a5,17f2e <dwarf::compilation_unit::compilation_unit(dwarf::dwarf const&, unsigned long)+0x9c>
  std::shared_ptr<section> subsec = cur.subsection();
   17f0c:	080c                	c.addi4spn	a1,sp,16
   17f0e:	850a                	c.mv	a0,sp
   17f10:	353030ef          	jal	ra,1ba62 <dwarf::cursor::subsection()>
   17f14:	a8a1                	c.j	17f6c <dwarf::compilation_unit::compilation_unit(dwarf::dwarf const&, unsigned long)+0xda>
      __atomic_add(__mem, __val);
   17f16:	4585                	c.li	a1,1
   17f18:	03050513          	addi	a0,a0,48
   17f1c:	e94fe0ef          	jal	ra,165b0 <__gnu_cxx::__atomic_add(int volatile*, int)@plt>
   17f20:	b7d1                	c.j	17ee4 <dwarf::compilation_unit::compilation_unit(dwarf::dwarf const&, unsigned long)+0x52>
      return __exchange_and_add(__mem, __val);
   17f22:	55fd                	c.li	a1,-1
   17f24:	03040513          	addi	a0,s0,48
   17f28:	ec8fe0ef          	jal	ra,165f0 <__gnu_cxx::__exchange_and_add(int volatile*, int)@plt>
   17f2c:	bfe9                	c.j	17f06 <dwarf::compilation_unit::compilation_unit(dwarf::dwarf const&, unsigned long)+0x74>
	_M_dispose();
   17f2e:	601c                	c.ld	a5,0(s0)
   17f30:	6b9c                	c.ld	a5,16(a5)
   17f32:	8522                	c.mv	a0,s0
   17f34:	9782                	c.jalr	a5
	    __atomic_thread_fence (__ATOMIC_ACQ_REL);
   17f36:	0ff0000f          	fence	iorw,iorw
    if (__is_single_threaded())
   17f3a:	00022797          	auipc	a5,0x22
   17f3e:	55e7b783          	ld	a5,1374(a5) # 3a498 <__libc_single_threaded@GLIBC_2.32-0x1c8>
   17f42:	0007c783          	lbu	a5,0(a5)
   17f46:	cf89                	c.beqz	a5,17f60 <dwarf::compilation_unit::compilation_unit(dwarf::dwarf const&, unsigned long)+0xce>
    _Atomic_word __result = *__mem;
   17f48:	5848                	c.lw	a0,52(s0)
    *__mem += __val;
   17f4a:	fff5079b          	addiw	a5,a0,-1
   17f4e:	d85c                	c.sw	a5,52(s0)
	if (__gnu_cxx::__exchange_and_add_dispatch(&_M_weak_count,
   17f50:	4785                	c.li	a5,1
   17f52:	faf51de3          	bne	a0,a5,17f0c <dwarf::compilation_unit::compilation_unit(dwarf::dwarf const&, unsigned long)+0x7a>
	    _M_destroy();
   17f56:	601c                	c.ld	a5,0(s0)
   17f58:	6f9c                	c.ld	a5,24(a5)
   17f5a:	8522                	c.mv	a0,s0
   17f5c:	9782                	c.jalr	a5
   17f5e:	b77d                	c.j	17f0c <dwarf::compilation_unit::compilation_unit(dwarf::dwarf const&, unsigned long)+0x7a>
      return __exchange_and_add(__mem, __val);
   17f60:	55fd                	c.li	a1,-1
   17f62:	03440513          	addi	a0,s0,52
   17f66:	e8afe0ef          	jal	ra,165f0 <__gnu_cxx::__exchange_and_add(int volatile*, int)@plt>
   17f6a:	b7dd                	c.j	17f50 <dwarf::compilation_unit::compilation_unit(dwarf::dwarf const&, unsigned long)+0xbe>
      __shared_ptr(const __shared_ptr&) noexcept = default;
   17f6c:	6a02                	c.ldsp	s4,0(sp)
      : _M_pi(__r._M_pi)
   17f6e:	6422                	c.ldsp	s0,8(sp)
	if (_M_pi != nullptr)
   17f70:	50040d63          	beq	s0,zero,1848a <dwarf::compilation_unit::compilation_unit(dwarf::dwarf const&, unsigned long)+0x5f8>
    if (__is_single_threaded())
   17f74:	00022797          	auipc	a5,0x22
   17f78:	5247b783          	ld	a5,1316(a5) # 3a498 <__libc_single_threaded@GLIBC_2.32-0x1c8>
   17f7c:	0007c783          	lbu	a5,0(a5)
   17f80:	cbb5                	c.beqz	a5,17ff4 <dwarf::compilation_unit::compilation_unit(dwarf::dwarf const&, unsigned long)+0x162>
  { *__mem += __val; }
   17f82:	581c                	c.lw	a5,48(s0)
   17f84:	2785                	c.addiw	a5,1
   17f86:	d81c                	c.sw	a5,48(s0)
      __shared_ptr(const __shared_ptr&) noexcept = default;
   17f88:	f452                	c.sdsp	s4,40(sp)
      : _M_pi(__r._M_pi)
   17f8a:	f822                	c.sdsp	s0,48(sp)
    if (__is_single_threaded())
   17f8c:	00022797          	auipc	a5,0x22
   17f90:	50c7b783          	ld	a5,1292(a5) # 3a498 <__libc_single_threaded@GLIBC_2.32-0x1c8>
   17f94:	0007c783          	lbu	a5,0(a5)
   17f98:	c7a5                	c.beqz	a5,18000 <dwarf::compilation_unit::compilation_unit(dwarf::dwarf const&, unsigned long)+0x16e>
  { *__mem += __val; }
   17f9a:	581c                	c.lw	a5,48(s0)
   17f9c:	2785                	c.addiw	a5,1
   17f9e:	d81c                	c.sw	a5,48(s0)
   17fa0:	008a3783          	ld	a5,8(s4)
   17fa4:	fc3e                	c.sdsp	a5,56(sp)
    if (__is_single_threaded())
   17fa6:	00022797          	auipc	a5,0x22
   17faa:	4f27b783          	ld	a5,1266(a5) # 3a498 <__libc_single_threaded@GLIBC_2.32-0x1c8>
   17fae:	0007c783          	lbu	a5,0(a5)
   17fb2:	cfa9                	c.beqz	a5,1800c <dwarf::compilation_unit::compilation_unit(dwarf::dwarf const&, unsigned long)+0x17a>
    _Atomic_word __result = *__mem;
   17fb4:	5808                	c.lw	a0,48(s0)
    *__mem += __val;
   17fb6:	fff5079b          	addiw	a5,a0,-1
   17fba:	d81c                	c.sw	a5,48(s0)
      if (__gnu_cxx::__exchange_and_add_dispatch(&_M_use_count, -1) == 1)
   17fbc:	4785                	c.li	a5,1
   17fbe:	4cf51b63          	bne	a0,a5,18494 <dwarf::compilation_unit::compilation_unit(dwarf::dwarf const&, unsigned long)+0x602>
	_M_dispose();
   17fc2:	601c                	c.ld	a5,0(s0)
   17fc4:	6b9c                	c.ld	a5,16(a5)
   17fc6:	8522                	c.mv	a0,s0
   17fc8:	9782                	c.jalr	a5
	    __atomic_thread_fence (__ATOMIC_ACQ_REL);
   17fca:	0ff0000f          	fence	iorw,iorw
    if (__is_single_threaded())
   17fce:	00022797          	auipc	a5,0x22
   17fd2:	4ca7b783          	ld	a5,1226(a5) # 3a498 <__libc_single_threaded@GLIBC_2.32-0x1c8>
   17fd6:	0007c783          	lbu	a5,0(a5)
   17fda:	cf9d                	c.beqz	a5,18018 <dwarf::compilation_unit::compilation_unit(dwarf::dwarf const&, unsigned long)+0x186>
    _Atomic_word __result = *__mem;
   17fdc:	5848                	c.lw	a0,52(s0)
    *__mem += __val;
   17fde:	fff5079b          	addiw	a5,a0,-1
   17fe2:	d85c                	c.sw	a5,52(s0)
	if (__gnu_cxx::__exchange_and_add_dispatch(&_M_weak_count,
   17fe4:	4785                	c.li	a5,1
   17fe6:	4af51763          	bne	a0,a5,18494 <dwarf::compilation_unit::compilation_unit(dwarf::dwarf const&, unsigned long)+0x602>
	    _M_destroy();
   17fea:	601c                	c.ld	a5,0(s0)
   17fec:	6f9c                	c.ld	a5,24(a5)
   17fee:	8522                	c.mv	a0,s0
   17ff0:	9782                	c.jalr	a5
   17ff2:	a14d                	c.j	18494 <dwarf::compilation_unit::compilation_unit(dwarf::dwarf const&, unsigned long)+0x602>
      __atomic_add(__mem, __val);
   17ff4:	4585                	c.li	a1,1
   17ff6:	03040513          	addi	a0,s0,48
   17ffa:	db6fe0ef          	jal	ra,165b0 <__gnu_cxx::__atomic_add(int volatile*, int)@plt>
   17ffe:	b769                	c.j	17f88 <dwarf::compilation_unit::compilation_unit(dwarf::dwarf const&, unsigned long)+0xf6>
   18000:	4585                	c.li	a1,1
   18002:	03040513          	addi	a0,s0,48
   18006:	daafe0ef          	jal	ra,165b0 <__gnu_cxx::__atomic_add(int volatile*, int)@plt>
   1800a:	bf59                	c.j	17fa0 <dwarf::compilation_unit::compilation_unit(dwarf::dwarf const&, unsigned long)+0x10e>
      return __exchange_and_add(__mem, __val);
   1800c:	55fd                	c.li	a1,-1
   1800e:	03040513          	addi	a0,s0,48
   18012:	ddefe0ef          	jal	ra,165f0 <__gnu_cxx::__exchange_and_add(int volatile*, int)@plt>
   18016:	b75d                	c.j	17fbc <dwarf::compilation_unit::compilation_unit(dwarf::dwarf const&, unsigned long)+0x12a>
   18018:	55fd                	c.li	a1,-1
   1801a:	03440513          	addi	a0,s0,52
   1801e:	dd2fe0ef          	jal	ra,165f0 <__gnu_cxx::__exchange_and_add(int volatile*, int)@plt>
   18022:	b7c9                	c.j	17fe4 <dwarf::compilation_unit::compilation_unit(dwarf::dwarf const&, unsigned long)+0x152>
  section_offset offset();
  void string(std::string &out);
  const char *cstr(size_t *size_out = nullptr);

  void ensure(section_offset bytes) {
    if ((section_offset)(sec->end - pos) < bytes || pos >= sec->end)
   18024:	77a2                	c.ldsp	a5,40(sp)
   18026:	6b98                	c.ld	a4,16(a5)
   18028:	77e2                	c.ldsp	a5,56(sp)
   1802a:	40f70633          	sub	a2,a4,a5
   1802e:	4685                	c.li	a3,1
   18030:	00c6f463          	bgeu	a3,a2,18038 <dwarf::compilation_unit::compilation_unit(dwarf::dwarf const&, unsigned long)+0x1a6>
   18034:	00e7e563          	bltu	a5,a4,1803e <dwarf::compilation_unit::compilation_unit(dwarf::dwarf const&, unsigned long)+0x1ac>
      underflow();
   18038:	1028                	c.addi4spn	a0,sp,40
   1803a:	698030ef          	jal	ra,1b6d2 <dwarf::cursor::underflow()>

  template <typename T> T fixed() {
    ensure(sizeof(T));
    static_assert(sizeof(T) <= 8, "T too big");
    uint64_t val = 0;
    const unsigned char *p = (const unsigned char *)pos;
   1803e:	7762                	c.ldsp	a4,56(sp)
    if (sec->ord == byte_order::lsb) {
   18040:	77a2                	c.ldsp	a5,40(sp)
   18042:	4fdc                	c.lw	a5,28(a5)
   18044:	e795                	c.bnez	a5,18070 <dwarf::compilation_unit::compilation_unit(dwarf::dwarf const&, unsigned long)+0x1de>
      for (unsigned i = 0; i < sizeof(T); i++)
        val |= ((uint64_t)p[i]) << (i * 8);
   18046:	00174783          	lbu	a5,1(a4)
   1804a:	07a2                	c.slli	a5,0x8
   1804c:	00074683          	lbu	a3,0(a4)
   18050:	8fd5                	c.or	a5,a3
    } else {
      for (unsigned i = 0; i < sizeof(T); i++)
        val = (val << 8) | (uint64_t)p[i];
    }
    pos += sizeof(T);
   18052:	0709                	c.addi	a4,2
   18054:	fc3a                	c.sdsp	a4,56(sp)
    return (T)val;
   18056:	03079413          	slli	s0,a5,0x30
   1805a:	9041                	c.srli	s0,0x30
  if (version < 2 || version > 4)
   1805c:	37f9                	c.addiw	a5,-2
   1805e:	17c2                	c.slli	a5,0x30
   18060:	93c1                	c.srli	a5,0x30
   18062:	4709                	c.li	a4,2
   18064:	00f76d63          	bltu	a4,a5,1807e <dwarf::compilation_unit::compilation_unit(dwarf::dwarf const&, unsigned long)+0x1ec>
  section_offset debug_abbrev_offset = sub.offset();
   18068:	1028                	c.addi4spn	a0,sp,40
   1806a:	38f030ef          	jal	ra,1bbf8 <dwarf::cursor::offset()>
   1806e:	a069                	c.j	180f8 <dwarf::compilation_unit::compilation_unit(dwarf::dwarf const&, unsigned long)+0x266>
        val = (val << 8) | (uint64_t)p[i];
   18070:	00074783          	lbu	a5,0(a4)
   18074:	07a2                	c.slli	a5,0x8
   18076:	00174683          	lbu	a3,1(a4)
   1807a:	8fd5                	c.or	a5,a3
      for (unsigned i = 0; i < sizeof(T); i++)
   1807c:	bfd9                	c.j	18052 <dwarf::compilation_unit::compilation_unit(dwarf::dwarf const&, unsigned long)+0x1c0>
                       std::to_string(version));
   1807e:	4541                	c.li	a0,16
   18080:	e10fe0ef          	jal	ra,16690 <__cxa_allocate_exception@plt>
   18084:	892a                	c.mv	s2,a0
   18086:	85a2                	c.mv	a1,s0
   18088:	1080                	c.addi4spn	s0,sp,96
   1808a:	8522                	c.mv	a0,s0
   1808c:	00022317          	auipc	t1,0x22
   18090:	41c33303          	ld	t1,1052(t1) # 3a4a8 <std::__cxx11::to_string(int)@@Base+0x2018e>
   18094:	9302                	c.jalr	t1
    { return std::move(__rhs.insert(0, __lhs)); }
   18096:	00016617          	auipc	a2,0x16
   1809a:	c8260613          	addi	a2,a2,-894 # 2dd18 <std::_Sp_make_shared_tag::_S_ti()::__tag+0x48>
   1809e:	4581                	c.li	a1,0
   180a0:	8522                	c.mv	a0,s0
   180a2:	d5efe0ef          	jal	ra,16600 <std::__cxx11::basic_string<char, std::char_traits<char>, std::allocator<char> >::insert(unsigned long, char const*)@plt>
   180a6:	85aa                	c.mv	a1,a0
   180a8:	0080                	c.addi4spn	s0,sp,64
   180aa:	8522                	c.mv	a0,s0
   180ac:	e24fe0ef          	jal	ra,166d0 <std::__cxx11::basic_string<char, std::char_traits<char>, std::allocator<char> >::basic_string(std::__cxx11::basic_string<char, std::char_traits<char>, std::allocator<char> >&&)@plt>
   180b0:	85a2                	c.mv	a1,s0
   180b2:	854a                	c.mv	a0,s2
   180b4:	f7cfe0ef          	jal	ra,16830 <std::runtime_error::runtime_error(std::__cxx11::basic_string<char, std::char_traits<char>, std::allocator<char> > const&)@plt>
   180b8:	00022797          	auipc	a5,0x22
   180bc:	4b87b783          	ld	a5,1208(a5) # 3a570 <vtable for dwarf::format_error@@Base+0xc68>
   180c0:	07c1                	c.addi	a5,16
   180c2:	00f93023          	sd	a5,0(s2)
      { return _M_dataplus._M_p; }
   180c6:	6506                	c.ldsp	a0,64(sp)
	if (!_M_is_local())
   180c8:	089c                	c.addi4spn	a5,sp,80
   180ca:	00f50463          	beq	a0,a5,180d2 <dwarf::compilation_unit::compilation_unit(dwarf::dwarf const&, unsigned long)+0x240>
   180ce:	ed2fe0ef          	jal	ra,167a0 <operator delete(void*)@plt>
      { return _M_dataplus._M_p; }
   180d2:	7506                	c.ldsp	a0,96(sp)
	if (!_M_is_local())
   180d4:	189c                	c.addi4spn	a5,sp,112
   180d6:	00f50463          	beq	a0,a5,180de <dwarf::compilation_unit::compilation_unit(dwarf::dwarf const&, unsigned long)+0x24c>
   180da:	ec6fe0ef          	jal	ra,167a0 <operator delete(void*)@plt>
   180de:	00022617          	auipc	a2,0x22
   180e2:	2ba63603          	ld	a2,698(a2) # 3a398 <dwarf::format_error::~format_error()@@Base+0x20246>
   180e6:	00022597          	auipc	a1,0x22
   180ea:	1e25b583          	ld	a1,482(a1) # 3a2c8 <typeinfo for dwarf::format_error@@Base+0xa60>
   180ee:	854a                	c.mv	a0,s2
   180f0:	871fe0ef          	jal	ra,16960 <__cxa_throw@plt>
	if (_M_pi != nullptr)
   180f4:	842a                	c.mv	s0,a0
   180f6:	ae1d                	c.j	1842c <dwarf::compilation_unit::compilation_unit(dwarf::dwarf const&, unsigned long)+0x59a>
  section_offset debug_abbrev_offset = sub.offset();
   180f8:	8aaa                	c.mv	s5,a0
    if ((section_offset)(sec->end - pos) < bytes || pos >= sec->end)
   180fa:	77a2                	c.ldsp	a5,40(sp)
   180fc:	6b98                	c.ld	a4,16(a5)
   180fe:	77e2                	c.ldsp	a5,56(sp)
   18100:	00e7e563          	bltu	a5,a4,1810a <dwarf::compilation_unit::compilation_unit(dwarf::dwarf const&, unsigned long)+0x278>
      underflow();
   18104:	1028                	c.addi4spn	a0,sp,40
   18106:	5cc030ef          	jal	ra,1b6d2 <dwarf::cursor::underflow()>
    const unsigned char *p = (const unsigned char *)pos;
   1810a:	77e2                	c.ldsp	a5,56(sp)
      { return _M_ptr; }
   1810c:	7722                	c.ldsp	a4,40(sp)
    if (sec->ord == byte_order::lsb) {
   1810e:	4f54                	c.lw	a3,28(a4)
   18110:	34068f63          	beq	a3,zero,1846e <dwarf::compilation_unit::compilation_unit(dwarf::dwarf const&, unsigned long)+0x5dc>
        val = (val << 8) | (uint64_t)p[i];
   18114:	0007c603          	lbu	a2,0(a5)
      for (unsigned i = 0; i < sizeof(T); i++)
   18118:	aea9                	c.j	18472 <dwarf::compilation_unit::compilation_unit(dwarf::dwarf const&, unsigned long)+0x5e0>
	return static_cast<_Tp*>(_GLIBCXX_OPERATOR_NEW(__n * sizeof(_Tp)));
   1811a:	842a                	c.mv	s0,a0
   1811c:	00052423          	sw	zero,8(a0)
   18120:	00052623          	sw	zero,12(a0)
   18124:	00052823          	sw	zero,16(a0)
   18128:	00052a23          	sw	zero,20(a0)
   1812c:	00052c23          	sw	zero,24(a0)
   18130:	00052e23          	sw	zero,28(a0)
   18134:	02053023          	sd	zero,32(a0)
   18138:	02053423          	sd	zero,40(a0)
      : _M_use_count(1), _M_weak_count(1) { }
   1813c:	4785                	c.li	a5,1
   1813e:	d91c                	c.sw	a5,48(a0)
   18140:	d95c                	c.sw	a5,52(a0)
	: _M_impl(__a)
   18142:	00022797          	auipc	a5,0x22
   18146:	30e7b783          	ld	a5,782(a5) # 3a450 <vtable for std::_Sp_counted_ptr_inplace<dwarf::unit::impl, std::allocator<void>, (__gnu_cxx::_Lock_policy)1>@@Base+0xa50>
   1814a:	07c1                	c.addi	a5,16
   1814c:	e11c                	c.sd	a5,0(a0)
   1814e:	03850b13          	addi	s6,a0,56
      __shared_ptr(const __shared_ptr&) noexcept = default;
   18152:	00093783          	ld	a5,0(s2)
   18156:	fd1c                	c.sd	a5,56(a0)
      : _M_pi(__r._M_pi)
   18158:	00893503          	ld	a0,8(s2)
   1815c:	e028                	c.sd	a0,64(s0)
	if (_M_pi != nullptr)
   1815e:	cd01                	c.beqz	a0,18176 <dwarf::compilation_unit::compilation_unit(dwarf::dwarf const&, unsigned long)+0x2e4>
    if (__is_single_threaded())
   18160:	00022797          	auipc	a5,0x22
   18164:	3387b783          	ld	a5,824(a5) # 3a498 <__libc_single_threaded@GLIBC_2.32-0x1c8>
   18168:	0007c783          	lbu	a5,0(a5)
   1816c:	14078c63          	beq	a5,zero,182c4 <dwarf::compilation_unit::compilation_unit(dwarf::dwarf const&, unsigned long)+0x432>
  { *__mem += __val; }
   18170:	591c                	c.lw	a5,48(a0)
   18172:	2785                	c.addiw	a5,1
   18174:	d91c                	c.sw	a5,48(a0)
      : file(file), offset(offset), subsec(subsec),
   18176:	05343423          	sd	s3,72(s0)
      __shared_ptr(const __shared_ptr&) noexcept = default;
   1817a:	6782                	c.ldsp	a5,0(sp)
   1817c:	e83c                	c.sd	a5,80(s0)
      : _M_pi(__r._M_pi)
   1817e:	6522                	c.ldsp	a0,8(sp)
   18180:	ec28                	c.sd	a0,88(s0)
	if (_M_pi != nullptr)
   18182:	cd01                	c.beqz	a0,1819a <dwarf::compilation_unit::compilation_unit(dwarf::dwarf const&, unsigned long)+0x308>
    if (__is_single_threaded())
   18184:	00022797          	auipc	a5,0x22
   18188:	3147b783          	ld	a5,788(a5) # 3a498 <__libc_single_threaded@GLIBC_2.32-0x1c8>
   1818c:	0007c783          	lbu	a5,0(a5)
   18190:	14078063          	beq	a5,zero,182d0 <dwarf::compilation_unit::compilation_unit(dwarf::dwarf const&, unsigned long)+0x43e>
  { *__mem += __val; }
   18194:	591c                	c.lw	a5,48(a0)
   18196:	2785                	c.addiw	a5,1
   18198:	d91c                	c.sw	a5,48(a0)
        debug_abbrev_offset(debug_abbrev_offset), root_offset(root_offset),
   1819a:	07543023          	sd	s5,96(s0)
   1819e:	07443423          	sd	s4,104(s0)
        type_signature(type_signature), type_offset(type_offset),
   181a2:	06043823          	sd	zero,112(s0)
   181a6:	06043c23          	sd	zero,120(s0)
  die() : cu(nullptr), abbrev(nullptr) {}
   181aa:	08043423          	sd	zero,136(s0)
   181ae:	08043823          	sd	zero,144(s0)
  small_vector() : base((T *)buf), end(base), cap((T *)&buf[sizeof(T[Min])]) {}
   181b2:	0a040793          	addi	a5,s0,160
   181b6:	e87c                	c.sd	a5,208(s0)
   181b8:	ec7c                	c.sd	a5,216(s0)
   181ba:	0d040793          	addi	a5,s0,208
   181be:	f07c                	c.sd	a5,224(s0)
   181c0:	0e043c23          	sd	zero,248(s0)
   181c4:	10043023          	sd	zero,256(s0)
   181c8:	11040793          	addi	a5,s0,272
   181cc:	14f43023          	sd	a5,320(s0)
   181d0:	14f43423          	sd	a5,328(s0)
   181d4:	14040793          	addi	a5,s0,320
   181d8:	14f43823          	sd	a5,336(s0)
      : _M_ptr(0), _M_refcount()
   181dc:	16043023          	sd	zero,352(s0)
      constexpr __shared_count() noexcept : _M_pi(0)
   181e0:	16043423          	sd	zero,360(s0)
        have_abbrevs(false) {}
   181e4:	16040823          	sb	zero,368(s0)
   181e8:	16043c23          	sd	zero,376(s0)
   181ec:	18043023          	sd	zero,384(s0)
   181f0:	18043423          	sd	zero,392(s0)
		   const _Hash&, const _Equal&, const allocator_type&,
		   false_type __uks);

    public:
      // Constructor, destructor, assignment, swap
      _Hashtable() = default;
   181f4:	1c040793          	addi	a5,s0,448
   181f8:	18f43823          	sd	a5,400(s0)
   181fc:	4785                	c.li	a5,1
   181fe:	18f43c23          	sd	a5,408(s0)
   */
  struct _Hash_node_base
  {
    _Hash_node_base* _M_nxt;

    _Hash_node_base() noexcept : _M_nxt() { }
   18202:	1a043023          	sd	zero,416(s0)
   18206:	1a043423          	sd	zero,424(s0)
  struct _Prime_rehash_policy
  {
    using __has_load_factor = true_type;

    _Prime_rehash_policy(float __z = 1.0) noexcept
    : _M_max_load_factor(__z), _M_next_resize(0) { }
   1820a:	00016797          	auipc	a5,0x16
   1820e:	e0e7a787          	flw	fa5,-498(a5) # 2e018 <std::__detail::__to_chars_10_impl<unsigned int>(char*, unsigned int, unsigned int)::__digits+0xf0>
   18212:	1af42827          	fsw	fa5,432(s0)
   18216:	1a043c23          	sd	zero,440(s0)
   1821a:	1c043023          	sd	zero,448(s0)
   1821e:	0164b423          	sd	s6,8(s1)
	_Sp_counted_base<_Lp>* __tmp = __r._M_pi;
   18222:	0104b903          	ld	s2,16(s1)
	__r._M_pi = _M_pi;
   18226:	e880                	c.sd	s0,16(s1)
	if (_M_pi != nullptr)
   18228:	02090263          	beq	s2,zero,1824c <dwarf::compilation_unit::compilation_unit(dwarf::dwarf const&, unsigned long)+0x3ba>
    if (__is_single_threaded())
   1822c:	00022797          	auipc	a5,0x22
   18230:	26c7b783          	ld	a5,620(a5) # 3a498 <__libc_single_threaded@GLIBC_2.32-0x1c8>
   18234:	0007c783          	lbu	a5,0(a5)
   18238:	c3d5                	c.beqz	a5,182dc <dwarf::compilation_unit::compilation_unit(dwarf::dwarf const&, unsigned long)+0x44a>
    _Atomic_word __result = *__mem;
   1823a:	03092503          	lw	a0,48(s2)
    *__mem += __val;
   1823e:	fff5079b          	addiw	a5,a0,-1
   18242:	02f92823          	sw	a5,48(s2)
      if (__gnu_cxx::__exchange_and_add_dispatch(&_M_use_count, -1) == 1)
   18246:	4785                	c.li	a5,1
   18248:	0af50063          	beq	a0,a5,182e8 <dwarf::compilation_unit::compilation_unit(dwarf::dwarf const&, unsigned long)+0x456>
	if (_M_pi != nullptr)
   1824c:	7442                	c.ldsp	s0,48(sp)
   1824e:	cc19                	c.beqz	s0,1826c <dwarf::compilation_unit::compilation_unit(dwarf::dwarf const&, unsigned long)+0x3da>
    if (__is_single_threaded())
   18250:	00022797          	auipc	a5,0x22
   18254:	2487b783          	ld	a5,584(a5) # 3a498 <__libc_single_threaded@GLIBC_2.32-0x1c8>
   18258:	0007c783          	lbu	a5,0(a5)
   1825c:	cbe9                	c.beqz	a5,1832e <dwarf::compilation_unit::compilation_unit(dwarf::dwarf const&, unsigned long)+0x49c>
    _Atomic_word __result = *__mem;
   1825e:	5808                	c.lw	a0,48(s0)
    *__mem += __val;
   18260:	fff5079b          	addiw	a5,a0,-1
   18264:	d81c                	c.sw	a5,48(s0)
      if (__gnu_cxx::__exchange_and_add_dispatch(&_M_use_count, -1) == 1)
   18266:	4785                	c.li	a5,1
   18268:	0cf50963          	beq	a0,a5,1833a <dwarf::compilation_unit::compilation_unit(dwarf::dwarf const&, unsigned long)+0x4a8>
	if (_M_pi != nullptr)
   1826c:	6422                	c.ldsp	s0,8(sp)
   1826e:	c005                	c.beqz	s0,1828e <dwarf::compilation_unit::compilation_unit(dwarf::dwarf const&, unsigned long)+0x3fc>
    if (__is_single_threaded())
   18270:	00022797          	auipc	a5,0x22
   18274:	2287b783          	ld	a5,552(a5) # 3a498 <__libc_single_threaded@GLIBC_2.32-0x1c8>
   18278:	0007c783          	lbu	a5,0(a5)
   1827c:	0e078e63          	beq	a5,zero,18378 <dwarf::compilation_unit::compilation_unit(dwarf::dwarf const&, unsigned long)+0x4e6>
    _Atomic_word __result = *__mem;
   18280:	5808                	c.lw	a0,48(s0)
    *__mem += __val;
   18282:	fff5079b          	addiw	a5,a0,-1
   18286:	d81c                	c.sw	a5,48(s0)
      if (__gnu_cxx::__exchange_and_add_dispatch(&_M_use_count, -1) == 1)
   18288:	4785                	c.li	a5,1
   1828a:	0ef50d63          	beq	a0,a5,18384 <dwarf::compilation_unit::compilation_unit(dwarf::dwarf const&, unsigned long)+0x4f2>
	if (_M_pi != nullptr)
   1828e:	6462                	c.ldsp	s0,24(sp)
   18290:	c005                	c.beqz	s0,182b0 <dwarf::compilation_unit::compilation_unit(dwarf::dwarf const&, unsigned long)+0x41e>
    if (__is_single_threaded())
   18292:	00022797          	auipc	a5,0x22
   18296:	2067b783          	ld	a5,518(a5) # 3a498 <__libc_single_threaded@GLIBC_2.32-0x1c8>
   1829a:	0007c783          	lbu	a5,0(a5)
   1829e:	12078263          	beq	a5,zero,183c2 <dwarf::compilation_unit::compilation_unit(dwarf::dwarf const&, unsigned long)+0x530>
    _Atomic_word __result = *__mem;
   182a2:	5808                	c.lw	a0,48(s0)
    *__mem += __val;
   182a4:	fff5079b          	addiw	a5,a0,-1
   182a8:	d81c                	c.sw	a5,48(s0)
      if (__gnu_cxx::__exchange_and_add_dispatch(&_M_use_count, -1) == 1)
   182aa:	4785                	c.li	a5,1
   182ac:	12f50163          	beq	a0,a5,183ce <dwarf::compilation_unit::compilation_unit(dwarf::dwarf const&, unsigned long)+0x53c>
}
   182b0:	60ae                	c.ldsp	ra,200(sp)
   182b2:	640e                	c.ldsp	s0,192(sp)
   182b4:	74ea                	c.ldsp	s1,184(sp)
   182b6:	794a                	c.ldsp	s2,176(sp)
   182b8:	79aa                	c.ldsp	s3,168(sp)
   182ba:	7a0a                	c.ldsp	s4,160(sp)
   182bc:	6aea                	c.ldsp	s5,152(sp)
   182be:	6b4a                	c.ldsp	s6,144(sp)
   182c0:	6169                	c.addi16sp	sp,208
   182c2:	8082                	c.jr	ra
      __atomic_add(__mem, __val);
   182c4:	4585                	c.li	a1,1
   182c6:	03050513          	addi	a0,a0,48
   182ca:	ae6fe0ef          	jal	ra,165b0 <__gnu_cxx::__atomic_add(int volatile*, int)@plt>
   182ce:	b565                	c.j	18176 <dwarf::compilation_unit::compilation_unit(dwarf::dwarf const&, unsigned long)+0x2e4>
   182d0:	4585                	c.li	a1,1
   182d2:	03050513          	addi	a0,a0,48
   182d6:	adafe0ef          	jal	ra,165b0 <__gnu_cxx::__atomic_add(int volatile*, int)@plt>
   182da:	b5c1                	c.j	1819a <dwarf::compilation_unit::compilation_unit(dwarf::dwarf const&, unsigned long)+0x308>
      return __exchange_and_add(__mem, __val);
   182dc:	55fd                	c.li	a1,-1
   182de:	03090513          	addi	a0,s2,48
   182e2:	b0efe0ef          	jal	ra,165f0 <__gnu_cxx::__exchange_and_add(int volatile*, int)@plt>
   182e6:	b785                	c.j	18246 <dwarf::compilation_unit::compilation_unit(dwarf::dwarf const&, unsigned long)+0x3b4>
	_M_dispose();
   182e8:	00093783          	ld	a5,0(s2)
   182ec:	6b9c                	c.ld	a5,16(a5)
   182ee:	854a                	c.mv	a0,s2
   182f0:	9782                	c.jalr	a5
	    __atomic_thread_fence (__ATOMIC_ACQ_REL);
   182f2:	0ff0000f          	fence	iorw,iorw
    if (__is_single_threaded())
   182f6:	00022797          	auipc	a5,0x22
   182fa:	1a27b783          	ld	a5,418(a5) # 3a498 <__libc_single_threaded@GLIBC_2.32-0x1c8>
   182fe:	0007c783          	lbu	a5,0(a5)
   18302:	c385                	c.beqz	a5,18322 <dwarf::compilation_unit::compilation_unit(dwarf::dwarf const&, unsigned long)+0x490>
    _Atomic_word __result = *__mem;
   18304:	03492503          	lw	a0,52(s2)
    *__mem += __val;
   18308:	fff5079b          	addiw	a5,a0,-1
   1830c:	02f92a23          	sw	a5,52(s2)
	if (__gnu_cxx::__exchange_and_add_dispatch(&_M_weak_count,
   18310:	4785                	c.li	a5,1
   18312:	f2f51de3          	bne	a0,a5,1824c <dwarf::compilation_unit::compilation_unit(dwarf::dwarf const&, unsigned long)+0x3ba>
	    _M_destroy();
   18316:	00093783          	ld	a5,0(s2)
   1831a:	6f9c                	c.ld	a5,24(a5)
   1831c:	854a                	c.mv	a0,s2
   1831e:	9782                	c.jalr	a5
   18320:	b735                	c.j	1824c <dwarf::compilation_unit::compilation_unit(dwarf::dwarf const&, unsigned long)+0x3ba>
      return __exchange_and_add(__mem, __val);
   18322:	55fd                	c.li	a1,-1
   18324:	03490513          	addi	a0,s2,52
   18328:	ac8fe0ef          	jal	ra,165f0 <__gnu_cxx::__exchange_and_add(int volatile*, int)@plt>
   1832c:	b7d5                	c.j	18310 <dwarf::compilation_unit::compilation_unit(dwarf::dwarf const&, unsigned long)+0x47e>
   1832e:	55fd                	c.li	a1,-1
   18330:	03040513          	addi	a0,s0,48
   18334:	abcfe0ef          	jal	ra,165f0 <__gnu_cxx::__exchange_and_add(int volatile*, int)@plt>
   18338:	b73d                	c.j	18266 <dwarf::compilation_unit::compilation_unit(dwarf::dwarf const&, unsigned long)+0x3d4>
	_M_dispose();
   1833a:	601c                	c.ld	a5,0(s0)
   1833c:	6b9c                	c.ld	a5,16(a5)
   1833e:	8522                	c.mv	a0,s0
   18340:	9782                	c.jalr	a5
	    __atomic_thread_fence (__ATOMIC_ACQ_REL);
   18342:	0ff0000f          	fence	iorw,iorw
    if (__is_single_threaded())
   18346:	00022797          	auipc	a5,0x22
   1834a:	1527b783          	ld	a5,338(a5) # 3a498 <__libc_single_threaded@GLIBC_2.32-0x1c8>
   1834e:	0007c783          	lbu	a5,0(a5)
   18352:	cf89                	c.beqz	a5,1836c <dwarf::compilation_unit::compilation_unit(dwarf::dwarf const&, unsigned long)+0x4da>
    _Atomic_word __result = *__mem;
   18354:	5848                	c.lw	a0,52(s0)
    *__mem += __val;
   18356:	fff5079b          	addiw	a5,a0,-1
   1835a:	d85c                	c.sw	a5,52(s0)
	if (__gnu_cxx::__exchange_and_add_dispatch(&_M_weak_count,
   1835c:	4785                	c.li	a5,1
   1835e:	f0f517e3          	bne	a0,a5,1826c <dwarf::compilation_unit::compilation_unit(dwarf::dwarf const&, unsigned long)+0x3da>
	    _M_destroy();
   18362:	601c                	c.ld	a5,0(s0)
   18364:	6f9c                	c.ld	a5,24(a5)
   18366:	8522                	c.mv	a0,s0
   18368:	9782                	c.jalr	a5
   1836a:	b709                	c.j	1826c <dwarf::compilation_unit::compilation_unit(dwarf::dwarf const&, unsigned long)+0x3da>
      return __exchange_and_add(__mem, __val);
   1836c:	55fd                	c.li	a1,-1
   1836e:	03440513          	addi	a0,s0,52
   18372:	a7efe0ef          	jal	ra,165f0 <__gnu_cxx::__exchange_and_add(int volatile*, int)@plt>
   18376:	b7dd                	c.j	1835c <dwarf::compilation_unit::compilation_unit(dwarf::dwarf const&, unsigned long)+0x4ca>
   18378:	55fd                	c.li	a1,-1
   1837a:	03040513          	addi	a0,s0,48
   1837e:	a72fe0ef          	jal	ra,165f0 <__gnu_cxx::__exchange_and_add(int volatile*, int)@plt>
   18382:	b719                	c.j	18288 <dwarf::compilation_unit::compilation_unit(dwarf::dwarf const&, unsigned long)+0x3f6>
	_M_dispose();
   18384:	601c                	c.ld	a5,0(s0)
   18386:	6b9c                	c.ld	a5,16(a5)
   18388:	8522                	c.mv	a0,s0
   1838a:	9782                	c.jalr	a5
	    __atomic_thread_fence (__ATOMIC_ACQ_REL);
   1838c:	0ff0000f          	fence	iorw,iorw
    if (__is_single_threaded())
   18390:	00022797          	auipc	a5,0x22
   18394:	1087b783          	ld	a5,264(a5) # 3a498 <__libc_single_threaded@GLIBC_2.32-0x1c8>
   18398:	0007c783          	lbu	a5,0(a5)
   1839c:	cf89                	c.beqz	a5,183b6 <dwarf::compilation_unit::compilation_unit(dwarf::dwarf const&, unsigned long)+0x524>
    _Atomic_word __result = *__mem;
   1839e:	5848                	c.lw	a0,52(s0)
    *__mem += __val;
   183a0:	fff5079b          	addiw	a5,a0,-1
   183a4:	d85c                	c.sw	a5,52(s0)
	if (__gnu_cxx::__exchange_and_add_dispatch(&_M_weak_count,
   183a6:	4785                	c.li	a5,1
   183a8:	eef513e3          	bne	a0,a5,1828e <dwarf::compilation_unit::compilation_unit(dwarf::dwarf const&, unsigned long)+0x3fc>
	    _M_destroy();
   183ac:	601c                	c.ld	a5,0(s0)
   183ae:	6f9c                	c.ld	a5,24(a5)
   183b0:	8522                	c.mv	a0,s0
   183b2:	9782                	c.jalr	a5
   183b4:	bde9                	c.j	1828e <dwarf::compilation_unit::compilation_unit(dwarf::dwarf const&, unsigned long)+0x3fc>
      return __exchange_and_add(__mem, __val);
   183b6:	55fd                	c.li	a1,-1
   183b8:	03440513          	addi	a0,s0,52
   183bc:	a34fe0ef          	jal	ra,165f0 <__gnu_cxx::__exchange_and_add(int volatile*, int)@plt>
   183c0:	b7dd                	c.j	183a6 <dwarf::compilation_unit::compilation_unit(dwarf::dwarf const&, unsigned long)+0x514>
   183c2:	55fd                	c.li	a1,-1
   183c4:	03040513          	addi	a0,s0,48
   183c8:	a28fe0ef          	jal	ra,165f0 <__gnu_cxx::__exchange_and_add(int volatile*, int)@plt>
   183cc:	bdf9                	c.j	182aa <dwarf::compilation_unit::compilation_unit(dwarf::dwarf const&, unsigned long)+0x418>
	_M_dispose();
   183ce:	601c                	c.ld	a5,0(s0)
   183d0:	6b9c                	c.ld	a5,16(a5)
   183d2:	8522                	c.mv	a0,s0
   183d4:	9782                	c.jalr	a5
	    __atomic_thread_fence (__ATOMIC_ACQ_REL);
   183d6:	0ff0000f          	fence	iorw,iorw
    if (__is_single_threaded())
   183da:	00022797          	auipc	a5,0x22
   183de:	0be7b783          	ld	a5,190(a5) # 3a498 <__libc_single_threaded@GLIBC_2.32-0x1c8>
   183e2:	0007c783          	lbu	a5,0(a5)
   183e6:	cf89                	c.beqz	a5,18400 <dwarf::compilation_unit::compilation_unit(dwarf::dwarf const&, unsigned long)+0x56e>
    _Atomic_word __result = *__mem;
   183e8:	5848                	c.lw	a0,52(s0)
    *__mem += __val;
   183ea:	fff5079b          	addiw	a5,a0,-1
   183ee:	d85c                	c.sw	a5,52(s0)
	if (__gnu_cxx::__exchange_and_add_dispatch(&_M_weak_count,
   183f0:	4785                	c.li	a5,1
   183f2:	eaf51fe3          	bne	a0,a5,182b0 <dwarf::compilation_unit::compilation_unit(dwarf::dwarf const&, unsigned long)+0x41e>
	    _M_destroy();
   183f6:	601c                	c.ld	a5,0(s0)
   183f8:	6f9c                	c.ld	a5,24(a5)
   183fa:	8522                	c.mv	a0,s0
   183fc:	9782                	c.jalr	a5
   183fe:	bd4d                	c.j	182b0 <dwarf::compilation_unit::compilation_unit(dwarf::dwarf const&, unsigned long)+0x41e>
      return __exchange_and_add(__mem, __val);
   18400:	55fd                	c.li	a1,-1
   18402:	03440513          	addi	a0,s0,52
   18406:	9eafe0ef          	jal	ra,165f0 <__gnu_cxx::__exchange_and_add(int volatile*, int)@plt>
   1840a:	b7dd                	c.j	183f0 <dwarf::compilation_unit::compilation_unit(dwarf::dwarf const&, unsigned long)+0x55e>
      { return _M_dataplus._M_p; }
   1840c:	842a                	c.mv	s0,a0
   1840e:	6506                	c.ldsp	a0,64(sp)
	if (!_M_is_local())
   18410:	089c                	c.addi4spn	a5,sp,80
   18412:	00f50463          	beq	a0,a5,1841a <dwarf::compilation_unit::compilation_unit(dwarf::dwarf const&, unsigned long)+0x588>
	_GLIBCXX_OPERATOR_DELETE(_GLIBCXX_SIZED_DEALLOC(__p, __n));
   18416:	b8afe0ef          	jal	ra,167a0 <operator delete(void*)@plt>
      { return _M_dataplus._M_p; }
   1841a:	7506                	c.ldsp	a0,96(sp)
	if (!_M_is_local())
   1841c:	189c                	c.addi4spn	a5,sp,112
   1841e:	00f50463          	beq	a0,a5,18426 <dwarf::compilation_unit::compilation_unit(dwarf::dwarf const&, unsigned long)+0x594>
   18422:	b7efe0ef          	jal	ra,167a0 <operator delete(void*)@plt>
                       std::to_string(version));
   18426:	854a                	c.mv	a0,s2
   18428:	b28fe0ef          	jal	ra,16750 <__cxa_free_exception@plt>
	if (_M_pi != nullptr)
   1842c:	7542                	c.ldsp	a0,48(sp)
   1842e:	c511                	c.beqz	a0,1843a <dwarf::compilation_unit::compilation_unit(dwarf::dwarf const&, unsigned long)+0x5a8>
	  _M_pi->_M_release();
   18430:	00022317          	auipc	t1,0x22
   18434:	fb033303          	ld	t1,-80(t1) # 3a3e0 <std::_Sp_counted_base<(__gnu_cxx::_Lock_policy)1>::_M_release()@@Base+0x23022>
   18438:	9302                	c.jalr	t1
	if (_M_pi != nullptr)
   1843a:	6522                	c.ldsp	a0,8(sp)
   1843c:	c511                	c.beqz	a0,18448 <dwarf::compilation_unit::compilation_unit(dwarf::dwarf const&, unsigned long)+0x5b6>
	  _M_pi->_M_release();
   1843e:	00022317          	auipc	t1,0x22
   18442:	fa233303          	ld	t1,-94(t1) # 3a3e0 <std::_Sp_counted_base<(__gnu_cxx::_Lock_policy)1>::_M_release()@@Base+0x23022>
   18446:	9302                	c.jalr	t1
	if (_M_pi != nullptr)
   18448:	6562                	c.ldsp	a0,24(sp)
   1844a:	c511                	c.beqz	a0,18456 <dwarf::compilation_unit::compilation_unit(dwarf::dwarf const&, unsigned long)+0x5c4>
	  _M_pi->_M_release();
   1844c:	00022317          	auipc	t1,0x22
   18450:	f9433303          	ld	t1,-108(t1) # 3a3e0 <std::_Sp_counted_base<(__gnu_cxx::_Lock_policy)1>::_M_release()@@Base+0x23022>
   18454:	9302                	c.jalr	t1
}
   18456:	8526                	c.mv	a0,s1
   18458:	e38ff0ef          	jal	ra,17a90 <dwarf::unit::~unit()>
   1845c:	8522                	c.mv	a0,s0
   1845e:	d32fe0ef          	jal	ra,16990 <_Unwind_Resume@plt>
      { return _M_dataplus._M_p; }
   18462:	842a                	c.mv	s0,a0
   18464:	bf5d                	c.j	1841a <dwarf::compilation_unit::compilation_unit(dwarf::dwarf const&, unsigned long)+0x588>
	if (_M_pi != nullptr)
   18466:	842a                	c.mv	s0,a0
   18468:	b7c5                	c.j	18448 <dwarf::compilation_unit::compilation_unit(dwarf::dwarf const&, unsigned long)+0x5b6>
   1846a:	842a                	c.mv	s0,a0
   1846c:	b7ed                	c.j	18456 <dwarf::compilation_unit::compilation_unit(dwarf::dwarf const&, unsigned long)+0x5c4>
        val |= ((uint64_t)p[i]) << (i * 8);
   1846e:	0007c603          	lbu	a2,0(a5)
    pos += sizeof(T);
   18472:	0785                	c.addi	a5,1
   18474:	fc3e                	c.sdsp	a5,56(sp)
  subsec->addr_size = address_size;
   18476:	6682                	c.ldsp	a3,0(sp)
   18478:	d290                	c.sw	a2,32(a3)

  bool end() const { return pos >= sec->end; }

  bool valid() const { return !!pos; }

  section_offset get_section_offset() const { return pos - sec->begin; }
   1847a:	6718                	c.ld	a4,8(a4)
   1847c:	40e78a33          	sub	s4,a5,a4
	return static_cast<_Tp*>(_GLIBCXX_OPERATOR_NEW(__n * sizeof(_Tp)));
   18480:	1c800513          	addi	a0,zero,456
   18484:	b2cfe0ef          	jal	ra,167b0 <operator new(unsigned long)@plt>
   18488:	b949                	c.j	1811a <dwarf::compilation_unit::compilation_unit(dwarf::dwarf const&, unsigned long)+0x288>
      __shared_ptr(const __shared_ptr&) noexcept = default;
   1848a:	f452                	c.sdsp	s4,40(sp)
      : _M_pi(__r._M_pi)
   1848c:	f802                	c.sdsp	zero,48(sp)
      : sec(sec), pos(sec->begin + offset) {}
   1848e:	008a3783          	ld	a5,8(s4)
   18492:	fc3e                	c.sdsp	a5,56(sp)
  sub.skip_initial_length();
   18494:	1028                	c.addi4spn	a0,sp,40
   18496:	128030ef          	jal	ra,1b5be <dwarf::cursor::skip_initial_length()>
   1849a:	b669                	c.j	18024 <dwarf::compilation_unit::compilation_unit(dwarf::dwarf const&, unsigned long)+0x192>

000000000001849c <dwarf::dwarf::dwarf(std::shared_ptr<dwarf::loader> const&)>:
dwarf::dwarf(const std::shared_ptr<loader> &l) : m(make_shared<impl>(l)) {
   1849c:	7135                	c.addi16sp	sp,-160
   1849e:	ed06                	c.sdsp	ra,152(sp)
   184a0:	e922                	c.sdsp	s0,144(sp)
   184a2:	e526                	c.sdsp	s1,136(sp)
   184a4:	e14a                	c.sdsp	s2,128(sp)
   184a6:	fcce                	c.sdsp	s3,120(sp)
   184a8:	f8d2                	c.sdsp	s4,112(sp)
   184aa:	f4d6                	c.sdsp	s5,104(sp)
   184ac:	f0da                	c.sdsp	s6,96(sp)
   184ae:	ecde                	c.sdsp	s7,88(sp)
   184b0:	84aa                	c.mv	s1,a0
   184b2:	892e                	c.mv	s2,a1

    protected:
      // This constructor is non-standard, it is used by allocate_shared.
      template<typename _Alloc, typename... _Args>
	__shared_ptr(_Sp_alloc_shared_tag<_Alloc> __tag, _Args&&... __args)
	: _M_ptr(), _M_refcount(_M_ptr, __tag, std::forward<_Args>(__args)...)
   184b4:	00053023          	sd	zero,0(a0)
   184b8:	0f000513          	addi	a0,zero,240
   184bc:	af4fe0ef          	jal	ra,167b0 <operator new(unsigned long)@plt>
   184c0:	842a                	c.mv	s0,a0
   184c2:	00052423          	sw	zero,8(a0)
   184c6:	00052623          	sw	zero,12(a0)
   184ca:	00052823          	sw	zero,16(a0)
   184ce:	00052a23          	sw	zero,20(a0)
   184d2:	00052c23          	sw	zero,24(a0)
   184d6:	00052e23          	sw	zero,28(a0)
   184da:	02053023          	sd	zero,32(a0)
   184de:	02053423          	sd	zero,40(a0)
      : _M_use_count(1), _M_weak_count(1) { }
   184e2:	4785                	c.li	a5,1
   184e4:	d91c                	c.sw	a5,48(a0)
   184e6:	d95c                	c.sw	a5,52(a0)
	: _M_impl(__a)
   184e8:	00022797          	auipc	a5,0x22
   184ec:	0607b783          	ld	a5,96(a5) # 3a548 <vtable for std::_Sp_counted_ptr_inplace<dwarf::dwarf::impl, std::allocator<void>, (__gnu_cxx::_Lock_policy)1>@@Base+0xb80>
   184f0:	07c1                	c.addi	a5,16
   184f2:	e11c                	c.sd	a5,0(a0)
   184f4:	03850993          	addi	s3,a0,56
      __shared_ptr(const __shared_ptr&) noexcept = default;
   184f8:	00093783          	ld	a5,0(s2)
   184fc:	fd1c                	c.sd	a5,56(a0)
      : _M_pi(__r._M_pi)
   184fe:	00893503          	ld	a0,8(s2)
   18502:	e028                	c.sd	a0,64(s0)
	if (_M_pi != nullptr)
   18504:	c919                	c.beqz	a0,1851a <dwarf::dwarf::dwarf(std::shared_ptr<dwarf::loader> const&)+0x7e>
    if (__is_single_threaded())
   18506:	00022797          	auipc	a5,0x22
   1850a:	f927b783          	ld	a5,-110(a5) # 3a498 <__libc_single_threaded@GLIBC_2.32-0x1c8>
   1850e:	0007c783          	lbu	a5,0(a5)
   18512:	cfa5                	c.beqz	a5,1858a <dwarf::dwarf::dwarf(std::shared_ptr<dwarf::loader> const&)+0xee>
  { *__mem += __val; }
   18514:	591c                	c.lw	a5,48(a0)
   18516:	2785                	c.addiw	a5,1
   18518:	d91c                	c.sw	a5,48(a0)
      : _M_ptr(0), _M_refcount()
   1851a:	04043423          	sd	zero,72(s0)
      constexpr __shared_count() noexcept : _M_pi(0)
   1851e:	04043823          	sd	zero,80(s0)
      : _M_ptr(0), _M_refcount()
   18522:	04043c23          	sd	zero,88(s0)
      constexpr __shared_count() noexcept : _M_pi(0)
   18526:	06043023          	sd	zero,96(s0)
   1852a:	06043423          	sd	zero,104(s0)
   1852e:	06043823          	sd	zero,112(s0)
   18532:	06043c23          	sd	zero,120(s0)
   18536:	0b040793          	addi	a5,s0,176
   1853a:	e05c                	c.sd	a5,128(s0)
   1853c:	4785                	c.li	a5,1
   1853e:	e45c                	c.sd	a5,136(s0)
    _Hash_node_base() noexcept : _M_nxt() { }
   18540:	08043823          	sd	zero,144(s0)
   18544:	08043c23          	sd	zero,152(s0)
    : _M_max_load_factor(__z), _M_next_resize(0) { }
   18548:	00016797          	auipc	a5,0x16
   1854c:	ad07a787          	flw	fa5,-1328(a5) # 2e018 <std::__detail::__to_chars_10_impl<unsigned int>(char*, unsigned int, unsigned int)::__digits+0xf0>
   18550:	0af42027          	fsw	fa5,160(s0)
   18554:	0a043423          	sd	zero,168(s0)
   18558:	0a043823          	sd	zero,176(s0)
  impl(const std::shared_ptr<loader> &l) : l(l), have_type_units(false) {}
   1855c:	0a040c23          	sb	zero,184(s0)
      _M_header._M_color = _S_red;
   18560:	0c042423          	sw	zero,200(s0)
      _M_header._M_parent = 0;
   18564:	0c043823          	sd	zero,208(s0)
      _M_header._M_left = &_M_header;
   18568:	0c840793          	addi	a5,s0,200
   1856c:	ec7c                	c.sd	a5,216(s0)
      _M_header._M_right = &_M_header;
   1856e:	f07c                	c.sd	a5,224(s0)
      _M_node_count = 0;
   18570:	0e043423          	sd	zero,232(s0)
	  _M_pi = __pi;
   18574:	e480                	c.sd	s0,8(s1)
	  __p = __pi->_M_ptr();
   18576:	0134b023          	sd	s3,0(s1)
      { return _M_ptr; }
   1857a:	00093503          	ld	a0,0(s2)
  data = l->load(section_type::info, &size);
   1857e:	611c                	c.ld	a5,0(a0)
   18580:	6b9c                	c.ld	a5,16(a5)
   18582:	860a                	c.mv	a2,sp
   18584:	458d                	c.li	a1,3
   18586:	9782                	c.jalr	a5
   18588:	a039                	c.j	18596 <dwarf::dwarf::dwarf(std::shared_ptr<dwarf::loader> const&)+0xfa>
      __atomic_add(__mem, __val);
   1858a:	4585                	c.li	a1,1
   1858c:	03050513          	addi	a0,a0,48
   18590:	820fe0ef          	jal	ra,165b0 <__gnu_cxx::__atomic_add(int volatile*, int)@plt>
   18594:	b759                	c.j	1851a <dwarf::dwarf::dwarf(std::shared_ptr<dwarf::loader> const&)+0x7e>
   18596:	842a                	c.mv	s0,a0
  if (!data)
   18598:	c901                	c.beqz	a0,185a8 <dwarf::dwarf::dwarf(std::shared_ptr<dwarf::loader> const&)+0x10c>
   1859a:	0004ba03          	ld	s4,0(s1)
   1859e:	06000513          	addi	a0,zero,96
   185a2:	a0efe0ef          	jal	ra,167b0 <operator new(unsigned long)@plt>
   185a6:	a83d                	c.j	185e4 <dwarf::dwarf::dwarf(std::shared_ptr<dwarf::loader> const&)+0x148>
    throw format_error("required .debug_info section missing");
   185a8:	4541                	c.li	a0,16
   185aa:	8e6fe0ef          	jal	ra,16690 <__cxa_allocate_exception@plt>
   185ae:	892a                	c.mv	s2,a0
  explicit format_error(const char *what_arg) : std::runtime_error(what_arg) {}
   185b0:	00015597          	auipc	a1,0x15
   185b4:	79058593          	addi	a1,a1,1936 # 2dd40 <std::_Sp_make_shared_tag::_S_ti()::__tag+0x70>
   185b8:	c58fe0ef          	jal	ra,16a10 <std::runtime_error::runtime_error(char const*)@plt>
   185bc:	00022797          	auipc	a5,0x22
   185c0:	fb47b783          	ld	a5,-76(a5) # 3a570 <vtable for dwarf::format_error@@Base+0xc68>
   185c4:	07c1                	c.addi	a5,16
   185c6:	00f93023          	sd	a5,0(s2)
   185ca:	00022617          	auipc	a2,0x22
   185ce:	dce63603          	ld	a2,-562(a2) # 3a398 <dwarf::format_error::~format_error()@@Base+0x20246>
   185d2:	00022597          	auipc	a1,0x22
   185d6:	cf65b583          	ld	a1,-778(a1) # 3a2c8 <typeinfo for dwarf::format_error@@Base+0xa60>
   185da:	854a                	c.mv	a0,s2
   185dc:	b84fe0ef          	jal	ra,16960 <__cxa_throw@plt>
	if (_M_pi != nullptr)
   185e0:	842a                	c.mv	s0,a0
   185e2:	adc1                	c.j	18cb2 <dwarf::dwarf::dwarf(std::shared_ptr<dwarf::loader> const&)+0x816>
   185e4:	00052423          	sw	zero,8(a0)
   185e8:	00052623          	sw	zero,12(a0)
   185ec:	00052823          	sw	zero,16(a0)
   185f0:	00052a23          	sw	zero,20(a0)
   185f4:	00052c23          	sw	zero,24(a0)
   185f8:	00052e23          	sw	zero,28(a0)
   185fc:	02053023          	sd	zero,32(a0)
   18600:	02053423          	sd	zero,40(a0)
      : _M_use_count(1), _M_weak_count(1) { }
   18604:	4785                	c.li	a5,1
   18606:	d91c                	c.sw	a5,48(a0)
   18608:	d95c                	c.sw	a5,52(a0)
	: _M_impl(__a)
   1860a:	00022797          	auipc	a5,0x22
   1860e:	fce7b783          	ld	a5,-50(a5) # 3a5d8 <vtable for std::_Sp_counted_ptr_inplace<dwarf::section, std::allocator<void>, (__gnu_cxx::_Lock_policy)1>@@Base+0xc48>
   18612:	07c1                	c.addi	a5,16
   18614:	e11c                	c.sd	a5,0(a0)
      : type(type), begin((char *)begin), end((char *)begin + length), fmt(fmt),
   18616:	478d                	c.li	a5,3
   18618:	dd1c                	c.sw	a5,56(a0)
   1861a:	e120                	c.sd	s0,64(a0)
   1861c:	6782                	c.ldsp	a5,0(sp)
   1861e:	97a2                	c.add	a5,s0
   18620:	e53c                	c.sd	a5,72(a0)
   18622:	04052823          	sw	zero,80(a0)
        ord(ord), addr_size(addr_size) {}
   18626:	04052a23          	sw	zero,84(a0)
   1862a:	04052c23          	sw	zero,88(a0)
   1862e:	03850793          	addi	a5,a0,56
   18632:	00fa3823          	sd	a5,16(s4)
	_Sp_counted_base<_Lp>* __tmp = __r._M_pi;
   18636:	018a3983          	ld	s3,24(s4)
	__r._M_pi = _M_pi;
   1863a:	00aa3c23          	sd	a0,24(s4)
	if (_M_pi != nullptr)
   1863e:	02098263          	beq	s3,zero,18662 <dwarf::dwarf::dwarf(std::shared_ptr<dwarf::loader> const&)+0x1c6>
    if (__is_single_threaded())
   18642:	00022797          	auipc	a5,0x22
   18646:	e567b783          	ld	a5,-426(a5) # 3a498 <__libc_single_threaded@GLIBC_2.32-0x1c8>
   1864a:	0007c783          	lbu	a5,0(a5)
   1864e:	cbdd                	c.beqz	a5,18704 <dwarf::dwarf::dwarf(std::shared_ptr<dwarf::loader> const&)+0x268>
    _Atomic_word __result = *__mem;
   18650:	0309a503          	lw	a0,48(s3)
    *__mem += __val;
   18654:	fff5079b          	addiw	a5,a0,-1
   18658:	02f9a823          	sw	a5,48(s3)
      if (__gnu_cxx::__exchange_and_add_dispatch(&_M_use_count, -1) == 1)
   1865c:	4785                	c.li	a5,1
   1865e:	0af50963          	beq	a0,a5,18710 <dwarf::dwarf::dwarf(std::shared_ptr<dwarf::loader> const&)+0x274>
      { return _M_ptr; }
   18662:	609c                	c.ld	a5,0(s1)
      __shared_ptr(const __shared_ptr&) noexcept = default;
   18664:	0107ba03          	ld	s4,16(a5)
      : _M_pi(__r._M_pi)
   18668:	0187b983          	ld	s3,24(a5)
	if (_M_pi != nullptr)
   1866c:	68098d63          	beq	s3,zero,18d06 <dwarf::dwarf::dwarf(std::shared_ptr<dwarf::loader> const&)+0x86a>
    if (__is_single_threaded())
   18670:	00022797          	auipc	a5,0x22
   18674:	e287b783          	ld	a5,-472(a5) # 3a498 <__libc_single_threaded@GLIBC_2.32-0x1c8>
   18678:	0007c783          	lbu	a5,0(a5)
   1867c:	cfe9                	c.beqz	a5,18756 <dwarf::dwarf::dwarf(std::shared_ptr<dwarf::loader> const&)+0x2ba>
  { *__mem += __val; }
   1867e:	0309a783          	lw	a5,48(s3)
   18682:	2785                	c.addiw	a5,1
   18684:	02f9a823          	sw	a5,48(s3)
      __shared_ptr(const __shared_ptr&) noexcept = default;
   18688:	e452                	c.sdsp	s4,8(sp)
      : _M_pi(__r._M_pi)
   1868a:	e84e                	c.sdsp	s3,16(sp)
    if (__is_single_threaded())
   1868c:	00022797          	auipc	a5,0x22
   18690:	e0c7b783          	ld	a5,-500(a5) # 3a498 <__libc_single_threaded@GLIBC_2.32-0x1c8>
   18694:	0007c783          	lbu	a5,0(a5)
   18698:	c7e9                	c.beqz	a5,18762 <dwarf::dwarf::dwarf(std::shared_ptr<dwarf::loader> const&)+0x2c6>
  { *__mem += __val; }
   1869a:	0309a783          	lw	a5,48(s3)
   1869e:	2785                	c.addiw	a5,1
   186a0:	02f9a823          	sw	a5,48(s3)
      : sec(sec), pos(sec->begin + offset) {}
   186a4:	008a3783          	ld	a5,8(s4)
   186a8:	ec3e                	c.sdsp	a5,24(sp)
    if (__is_single_threaded())
   186aa:	00022797          	auipc	a5,0x22
   186ae:	dee7b783          	ld	a5,-530(a5) # 3a498 <__libc_single_threaded@GLIBC_2.32-0x1c8>
   186b2:	0007c783          	lbu	a5,0(a5)
   186b6:	cfc5                	c.beqz	a5,1876e <dwarf::dwarf::dwarf(std::shared_ptr<dwarf::loader> const&)+0x2d2>
    _Atomic_word __result = *__mem;
   186b8:	0309a503          	lw	a0,48(s3)
    *__mem += __val;
   186bc:	fff5079b          	addiw	a5,a0,-1
   186c0:	02f9a823          	sw	a5,48(s3)
      if (__gnu_cxx::__exchange_and_add_dispatch(&_M_use_count, -1) == 1)
   186c4:	4785                	c.li	a5,1
   186c6:	64f51563          	bne	a0,a5,18d10 <dwarf::dwarf::dwarf(std::shared_ptr<dwarf::loader> const&)+0x874>
	_M_dispose();
   186ca:	0009b783          	ld	a5,0(s3)
   186ce:	6b9c                	c.ld	a5,16(a5)
   186d0:	854e                	c.mv	a0,s3
   186d2:	9782                	c.jalr	a5
	    __atomic_thread_fence (__ATOMIC_ACQ_REL);
   186d4:	0ff0000f          	fence	iorw,iorw
    if (__is_single_threaded())
   186d8:	00022797          	auipc	a5,0x22
   186dc:	dc07b783          	ld	a5,-576(a5) # 3a498 <__libc_single_threaded@GLIBC_2.32-0x1c8>
   186e0:	0007c783          	lbu	a5,0(a5)
   186e4:	cbd9                	c.beqz	a5,1877a <dwarf::dwarf::dwarf(std::shared_ptr<dwarf::loader> const&)+0x2de>
    _Atomic_word __result = *__mem;
   186e6:	0349a503          	lw	a0,52(s3)
    *__mem += __val;
   186ea:	fff5079b          	addiw	a5,a0,-1
   186ee:	02f9aa23          	sw	a5,52(s3)
	if (__gnu_cxx::__exchange_and_add_dispatch(&_M_weak_count,
   186f2:	4785                	c.li	a5,1
   186f4:	60f51e63          	bne	a0,a5,18d10 <dwarf::dwarf::dwarf(std::shared_ptr<dwarf::loader> const&)+0x874>
	    _M_destroy();
   186f8:	0009b783          	ld	a5,0(s3)
   186fc:	6f9c                	c.ld	a5,24(a5)
   186fe:	854e                	c.mv	a0,s3
   18700:	9782                	c.jalr	a5
   18702:	a539                	c.j	18d10 <dwarf::dwarf::dwarf(std::shared_ptr<dwarf::loader> const&)+0x874>
      return __exchange_and_add(__mem, __val);
   18704:	55fd                	c.li	a1,-1
   18706:	03098513          	addi	a0,s3,48
   1870a:	ee7fd0ef          	jal	ra,165f0 <__gnu_cxx::__exchange_and_add(int volatile*, int)@plt>
   1870e:	b7b9                	c.j	1865c <dwarf::dwarf::dwarf(std::shared_ptr<dwarf::loader> const&)+0x1c0>
	_M_dispose();
   18710:	0009b783          	ld	a5,0(s3)
   18714:	6b9c                	c.ld	a5,16(a5)
   18716:	854e                	c.mv	a0,s3
   18718:	9782                	c.jalr	a5
	    __atomic_thread_fence (__ATOMIC_ACQ_REL);
   1871a:	0ff0000f          	fence	iorw,iorw
    if (__is_single_threaded())
   1871e:	00022797          	auipc	a5,0x22
   18722:	d7a7b783          	ld	a5,-646(a5) # 3a498 <__libc_single_threaded@GLIBC_2.32-0x1c8>
   18726:	0007c783          	lbu	a5,0(a5)
   1872a:	c385                	c.beqz	a5,1874a <dwarf::dwarf::dwarf(std::shared_ptr<dwarf::loader> const&)+0x2ae>
    _Atomic_word __result = *__mem;
   1872c:	0349a503          	lw	a0,52(s3)
    *__mem += __val;
   18730:	fff5079b          	addiw	a5,a0,-1
   18734:	02f9aa23          	sw	a5,52(s3)
	if (__gnu_cxx::__exchange_and_add_dispatch(&_M_weak_count,
   18738:	4785                	c.li	a5,1
   1873a:	f2f514e3          	bne	a0,a5,18662 <dwarf::dwarf::dwarf(std::shared_ptr<dwarf::loader> const&)+0x1c6>
	    _M_destroy();
   1873e:	0009b783          	ld	a5,0(s3)
   18742:	6f9c                	c.ld	a5,24(a5)
   18744:	854e                	c.mv	a0,s3
   18746:	9782                	c.jalr	a5
   18748:	bf29                	c.j	18662 <dwarf::dwarf::dwarf(std::shared_ptr<dwarf::loader> const&)+0x1c6>
      return __exchange_and_add(__mem, __val);
   1874a:	55fd                	c.li	a1,-1
   1874c:	03498513          	addi	a0,s3,52
   18750:	ea1fd0ef          	jal	ra,165f0 <__gnu_cxx::__exchange_and_add(int volatile*, int)@plt>
   18754:	b7d5                	c.j	18738 <dwarf::dwarf::dwarf(std::shared_ptr<dwarf::loader> const&)+0x29c>
      __atomic_add(__mem, __val);
   18756:	4585                	c.li	a1,1
   18758:	03098513          	addi	a0,s3,48
   1875c:	e55fd0ef          	jal	ra,165b0 <__gnu_cxx::__atomic_add(int volatile*, int)@plt>
   18760:	b725                	c.j	18688 <dwarf::dwarf::dwarf(std::shared_ptr<dwarf::loader> const&)+0x1ec>
   18762:	4585                	c.li	a1,1
   18764:	03098513          	addi	a0,s3,48
   18768:	e49fd0ef          	jal	ra,165b0 <__gnu_cxx::__atomic_add(int volatile*, int)@plt>
   1876c:	bf25                	c.j	186a4 <dwarf::dwarf::dwarf(std::shared_ptr<dwarf::loader> const&)+0x208>
      return __exchange_and_add(__mem, __val);
   1876e:	55fd                	c.li	a1,-1
   18770:	03098513          	addi	a0,s3,48
   18774:	e7dfd0ef          	jal	ra,165f0 <__gnu_cxx::__exchange_and_add(int volatile*, int)@plt>
   18778:	b7b1                	c.j	186c4 <dwarf::dwarf::dwarf(std::shared_ptr<dwarf::loader> const&)+0x228>
   1877a:	55fd                	c.li	a1,-1
   1877c:	03498513          	addi	a0,s3,52
   18780:	e71fd0ef          	jal	ra,165f0 <__gnu_cxx::__exchange_and_add(int volatile*, int)@plt>
   18784:	b7bd                	c.j	186f2 <dwarf::dwarf::dwarf(std::shared_ptr<dwarf::loader> const&)+0x256>
    const unsigned char *p = (const unsigned char *)pos;
   18786:	65e2                	c.ldsp	a1,24(sp)
      { return _M_ptr; }
   18788:	6822                	c.ldsp	a6,8(sp)
    if (sec->ord == byte_order::lsb) {
   1878a:	01c82783          	lw	a5,28(a6)
   1878e:	e3b1                	c.bnez	a5,187d2 <dwarf::dwarf::dwarf(std::shared_ptr<dwarf::loader> const&)+0x336>
   18790:	862e                	c.mv	a2,a1
   18792:	4701                	c.li	a4,0
      for (unsigned i = 0; i < sizeof(T); i++)
   18794:	02000513          	addi	a0,zero,32
        val |= ((uint64_t)p[i]) << (i * 8);
   18798:	00064683          	lbu	a3,0(a2)
   1879c:	00e696b3          	sll	a3,a3,a4
   187a0:	8fd5                	c.or	a5,a3
      for (unsigned i = 0; i < sizeof(T); i++)
   187a2:	0605                	c.addi	a2,1
   187a4:	2721                	c.addiw	a4,8
   187a6:	fea719e3          	bne	a4,a0,18798 <dwarf::dwarf::dwarf(std::shared_ptr<dwarf::loader> const&)+0x2fc>
    pos += sizeof(T);
   187aa:	0591                	c.addi	a1,4
   187ac:	ec2e                	c.sdsp	a1,24(sp)
  if (length == 0xffffffff)
   187ae:	2781                	c.addiw	a5,0
   187b0:	577d                	c.li	a4,-1
   187b2:	02e78c63          	beq	a5,a4,187ea <dwarf::dwarf::dwarf(std::shared_ptr<dwarf::loader> const&)+0x34e>
    if ((section_offset)(sec->end - pos) < bytes || pos >= sec->end)
   187b6:	67a2                	c.ldsp	a5,8(sp)
   187b8:	6b98                	c.ld	a4,16(a5)
   187ba:	67e2                	c.ldsp	a5,24(sp)
   187bc:	40f70633          	sub	a2,a4,a5
   187c0:	4685                	c.li	a3,1
   187c2:	00c6f463          	bgeu	a3,a2,187ca <dwarf::dwarf::dwarf(std::shared_ptr<dwarf::loader> const&)+0x32e>
   187c6:	04e7e263          	bltu	a5,a4,1880a <dwarf::dwarf::dwarf(std::shared_ptr<dwarf::loader> const&)+0x36e>
      underflow();
   187ca:	0028                	c.addi4spn	a0,sp,8
   187cc:	707020ef          	jal	ra,1b6d2 <dwarf::cursor::underflow()>
   187d0:	a82d                	c.j	1880a <dwarf::dwarf::dwarf(std::shared_ptr<dwarf::loader> const&)+0x36e>
   187d2:	872e                	c.mv	a4,a1
   187d4:	00458613          	addi	a2,a1,4
    uint64_t val = 0;
   187d8:	4781                	c.li	a5,0
        val = (val << 8) | (uint64_t)p[i];
   187da:	07a2                	c.slli	a5,0x8
   187dc:	00074683          	lbu	a3,0(a4)
   187e0:	8fd5                	c.or	a5,a3
      for (unsigned i = 0; i < sizeof(T); i++)
   187e2:	0705                	c.addi	a4,1
   187e4:	fec71be3          	bne	a4,a2,187da <dwarf::dwarf::dwarf(std::shared_ptr<dwarf::loader> const&)+0x33e>
   187e8:	b7c9                	c.j	187aa <dwarf::dwarf::dwarf(std::shared_ptr<dwarf::loader> const&)+0x30e>
    if ((section_offset)(sec->end - pos) < bytes || pos >= sec->end)
   187ea:	01083783          	ld	a5,16(a6)
   187ee:	40b786b3          	sub	a3,a5,a1
   187f2:	471d                	c.li	a4,7
   187f4:	00d77463          	bgeu	a4,a3,187fc <dwarf::dwarf::dwarf(std::shared_ptr<dwarf::loader> const&)+0x360>
   187f8:	00f5e563          	bltu	a1,a5,18802 <dwarf::dwarf::dwarf(std::shared_ptr<dwarf::loader> const&)+0x366>
      underflow();
   187fc:	0028                	c.addi4spn	a0,sp,8
   187fe:	6d5020ef          	jal	ra,1b6d2 <dwarf::cursor::underflow()>
    pos += sizeof(T);
   18802:	67e2                	c.ldsp	a5,24(sp)
   18804:	07a1                	c.addi	a5,8
   18806:	ec3e                	c.sdsp	a5,24(sp)
    return (T)val;
   18808:	b77d                	c.j	187b6 <dwarf::dwarf::dwarf(std::shared_ptr<dwarf::loader> const&)+0x31a>
    const unsigned char *p = (const unsigned char *)pos;
   1880a:	6762                	c.ldsp	a4,24(sp)
    if (sec->ord == byte_order::lsb) {
   1880c:	67a2                	c.ldsp	a5,8(sp)
   1880e:	4fdc                	c.lw	a5,28(a5)
   18810:	ef85                	c.bnez	a5,18848 <dwarf::dwarf::dwarf(std::shared_ptr<dwarf::loader> const&)+0x3ac>
        val |= ((uint64_t)p[i]) << (i * 8);
   18812:	00174783          	lbu	a5,1(a4)
   18816:	07a2                	c.slli	a5,0x8
   18818:	00074683          	lbu	a3,0(a4)
   1881c:	8fd5                	c.or	a5,a3
    pos += sizeof(T);
   1881e:	0709                	c.addi	a4,2
   18820:	ec3a                	c.sdsp	a4,24(sp)
    return (T)val;
   18822:	17c2                	c.slli	a5,0x30
   18824:	93c1                	c.srli	a5,0x30
  uhalf versionbe = (version >> 8) | ((version & 0xFF) << 8);
   18826:	0087d71b          	srliw	a4,a5,0x8
   1882a:	0087969b          	slliw	a3,a5,0x8
   1882e:	8f55                	c.or	a4,a3
  if (versionbe < version) {
   18830:	1742                	c.slli	a4,0x30
   18832:	9341                	c.srli	a4,0x30
   18834:	02f76163          	bltu	a4,a5,18856 <dwarf::dwarf::dwarf(std::shared_ptr<dwarf::loader> const&)+0x3ba>
   18838:	00093503          	ld	a0,0(s2)
  data = l->load(section_type::abbrev, &size);
   1883c:	611c                	c.ld	a5,0(a0)
   1883e:	6b9c                	c.ld	a5,16(a5)
   18840:	860a                	c.mv	a2,sp
   18842:	4581                	c.li	a1,0
   18844:	9782                	c.jalr	a5
   18846:	a8f9                	c.j	18924 <dwarf::dwarf::dwarf(std::shared_ptr<dwarf::loader> const&)+0x488>
        val = (val << 8) | (uint64_t)p[i];
   18848:	00074783          	lbu	a5,0(a4)
   1884c:	07a2                	c.slli	a5,0x8
   1884e:	00174683          	lbu	a3,1(a4)
   18852:	8fd5                	c.or	a5,a3
      for (unsigned i = 0; i < sizeof(T); i++)
   18854:	b7e9                	c.j	1881e <dwarf::dwarf::dwarf(std::shared_ptr<dwarf::loader> const&)+0x382>
   18856:	0004b983          	ld	s3,0(s1)
   1885a:	06000513          	addi	a0,zero,96
   1885e:	f53fd0ef          	jal	ra,167b0 <operator new(unsigned long)@plt>
   18862:	00052423          	sw	zero,8(a0)
   18866:	00052623          	sw	zero,12(a0)
   1886a:	00052823          	sw	zero,16(a0)
   1886e:	00052a23          	sw	zero,20(a0)
   18872:	00052c23          	sw	zero,24(a0)
   18876:	00052e23          	sw	zero,28(a0)
   1887a:	02053023          	sd	zero,32(a0)
   1887e:	02053423          	sd	zero,40(a0)
      : _M_use_count(1), _M_weak_count(1) { }
   18882:	4785                	c.li	a5,1
   18884:	d91c                	c.sw	a5,48(a0)
   18886:	d95c                	c.sw	a5,52(a0)
	: _M_impl(__a)
   18888:	00022717          	auipc	a4,0x22
   1888c:	d5073703          	ld	a4,-688(a4) # 3a5d8 <vtable for std::_Sp_counted_ptr_inplace<dwarf::section, std::allocator<void>, (__gnu_cxx::_Lock_policy)1>@@Base+0xc48>
   18890:	0741                	c.addi	a4,16
   18892:	e118                	c.sd	a4,0(a0)
      : type(type), begin((char *)begin), end((char *)begin + length), fmt(fmt),
   18894:	470d                	c.li	a4,3
   18896:	dd18                	c.sw	a4,56(a0)
   18898:	e120                	c.sd	s0,64(a0)
   1889a:	6702                	c.ldsp	a4,0(sp)
   1889c:	9722                	c.add	a4,s0
   1889e:	e538                	c.sd	a4,72(a0)
   188a0:	04052823          	sw	zero,80(a0)
        ord(ord), addr_size(addr_size) {}
   188a4:	c97c                	c.sw	a5,84(a0)
   188a6:	04052c23          	sw	zero,88(a0)
   188aa:	03850793          	addi	a5,a0,56
   188ae:	00f9b823          	sd	a5,16(s3)
	_Sp_counted_base<_Lp>* __tmp = __r._M_pi;
   188b2:	0189b403          	ld	s0,24(s3)
	__r._M_pi = _M_pi;
   188b6:	00a9bc23          	sd	a0,24(s3)
	if (_M_pi != nullptr)
   188ba:	dc3d                	c.beqz	s0,18838 <dwarf::dwarf::dwarf(std::shared_ptr<dwarf::loader> const&)+0x39c>
    if (__is_single_threaded())
   188bc:	00022797          	auipc	a5,0x22
   188c0:	bdc7b783          	ld	a5,-1060(a5) # 3a498 <__libc_single_threaded@GLIBC_2.32-0x1c8>
   188c4:	0007c783          	lbu	a5,0(a5)
   188c8:	c3a9                	c.beqz	a5,1890a <dwarf::dwarf::dwarf(std::shared_ptr<dwarf::loader> const&)+0x46e>
    _Atomic_word __result = *__mem;
   188ca:	5808                	c.lw	a0,48(s0)
    *__mem += __val;
   188cc:	fff5079b          	addiw	a5,a0,-1
   188d0:	d81c                	c.sw	a5,48(s0)
      if (__gnu_cxx::__exchange_and_add_dispatch(&_M_use_count, -1) == 1)
   188d2:	4785                	c.li	a5,1
   188d4:	f6f512e3          	bne	a0,a5,18838 <dwarf::dwarf::dwarf(std::shared_ptr<dwarf::loader> const&)+0x39c>
	_M_dispose();
   188d8:	601c                	c.ld	a5,0(s0)
   188da:	6b9c                	c.ld	a5,16(a5)
   188dc:	8522                	c.mv	a0,s0
   188de:	9782                	c.jalr	a5
	    __atomic_thread_fence (__ATOMIC_ACQ_REL);
   188e0:	0ff0000f          	fence	iorw,iorw
    if (__is_single_threaded())
   188e4:	00022797          	auipc	a5,0x22
   188e8:	bb47b783          	ld	a5,-1100(a5) # 3a498 <__libc_single_threaded@GLIBC_2.32-0x1c8>
   188ec:	0007c783          	lbu	a5,0(a5)
   188f0:	c39d                	c.beqz	a5,18916 <dwarf::dwarf::dwarf(std::shared_ptr<dwarf::loader> const&)+0x47a>
